
========================================================================

** ELF Header Information

    File Name: .\obj\Smpl_Start_Kit.axf

    Machine class: ELFCLASS32 (32-bit)
    Data encoding: ELFDATA2LSB (Little endian)
    Header version: EV_CURRENT (Current version)
    Operating System ABI: none
    ABI Version: 0
    File Type: ET_EXEC (Executable) (2)
    Machine: EM_ARM (ARM)

    Image Entry point: 0x000001b9
    Flags: EF_ARM_HASENTRY (0x05000002)

    ARM ELF revision: 5 (ABI version 2)

    Built with
    ARM C/C++ Compiler, 4.1 [Build 894]
    ARM Assembler, 4.1 [Build 894]
    ARM Linker, 4.1 [Build 894] 

    Header size: 52 bytes (0x34)
    Program header entry size: 32 bytes (0x20)
    Section header entry size: 40 bytes (0x28)

    Program header entries: 1
    Section header entries: 16

    Program header offset: 342632 (0x00053a68)
    Section header offset: 342664 (0x00053a88)

    Section header string table index: 15

========================================================================

** Program header #0 (PT_LOAD) [PF_X + PF_W + PF_R + PF_ARM_ENTRY]
    Size : 12808 bytes (11576 bytes in file)
    Virtual address: 0x00000000 (Alignment 8)


========================================================================

** Section #1 'ER_RO' (SHT_PROGBITS) [SHF_ALLOC + SHF_EXECINSTR]
    Size   : 9960 bytes (alignment 4)
    Address: 0x00000000

    $d.realdata
    RESET
    __Vectors
        0x00000000:    20000b20     ..     DCD    536873760
        0x00000004:    000001b9    ....    DCD    441
        0x00000008:    000001d9    ....    DCD    473
        0x0000000c:    000001db    ....    DCD    475
        0x00000010:    00000000    ....    DCD    0
        0x00000014:    00000000    ....    DCD    0
        0x00000018:    00000000    ....    DCD    0
        0x0000001c:    00000000    ....    DCD    0
        0x00000020:    00000000    ....    DCD    0
        0x00000024:    00000000    ....    DCD    0
        0x00000028:    00000000    ....    DCD    0
        0x0000002c:    000001dd    ....    DCD    477
        0x00000030:    00000000    ....    DCD    0
        0x00000034:    00000000    ....    DCD    0
        0x00000038:    000001df    ....    DCD    479
        0x0000003c:    000001e1    ....    DCD    481
        0x00000040:    00000765    e...    DCD    1893
        0x00000044:    000001e3    ....    DCD    483
        0x00000048:    000012f5    ....    DCD    4853
        0x0000004c:    00001325    %...    DCD    4901
        0x00000050:    00001349    I...    DCD    4937
        0x00000054:    00001385    ....    DCD    4997
        0x00000058:    000001e3    ....    DCD    483
        0x0000005c:    00001b99    ....    DCD    7065
        0x00000060:    000020fd    . ..    DCD    8445
        0x00000064:    000001e3    ....    DCD    483
        0x00000068:    000001e3    ....    DCD    483
        0x0000006c:    00002151    Q!..    DCD    8529
        0x00000070:    000022a5    ."..    DCD    8869
        0x00000074:    000022e1    ."..    DCD    8929
        0x00000078:    00001d31    1...    DCD    7473
        0x0000007c:    00001d95    ....    DCD    7573
        0x00000080:    00001df9    ....    DCD    7673
        0x00000084:    00001e5d    ]...    DCD    7773
        0x00000088:    000013d1    ....    DCD    5073
        0x0000008c:    00001449    I...    DCD    5193
        0x00000090:    000001e3    ....    DCD    483
        0x00000094:    000001e3    ....    DCD    483
        0x00000098:    000001e3    ....    DCD    483
        0x0000009c:    000001e3    ....    DCD    483
        0x000000a0:    000001e3    ....    DCD    483
        0x000000a4:    000001e3    ....    DCD    483
        0x000000a8:    000001e3    ....    DCD    483
        0x000000ac:    000001e3    ....    DCD    483
        0x000000b0:    00001c4d    M...    DCD    7245
        0x000000b4:    000001e3    ....    DCD    483
        0x000000b8:    000001e3    ....    DCD    483
        0x000000bc:    00001c75    u...    DCD    7285
    $t
    !!!main
    __main
        0x000000c0:    f000f802    ....    BL       __scatterload ; 0xc8
        0x000000c4:    f000f84d    ..M.    BL       __rt_entry ; 0x162
    !!!scatter
    __scatterload
    __scatterload_rt2
    __scatterload_rt2_thumb_only
        0x000000c8:    a00c        ..      ADR      r0,{pc}+0x34 ; 0xfc
        0x000000ca:    c830        0.      LDM      r0!,{r4,r5}
        0x000000cc:    3808        .8      SUBS     r0,r0,#8
        0x000000ce:    1824        $.      ADDS     r4,r4,r0
        0x000000d0:    182d        -.      ADDS     r5,r5,r0
        0x000000d2:    46a2        .F      MOV      r10,r4
        0x000000d4:    1e67        g.      SUBS     r7,r4,#1
        0x000000d6:    46ab        .F      MOV      r11,r5
    __scatterload_null
        0x000000d8:    4654        TF      MOV      r4,r10
        0x000000da:    465d        ]F      MOV      r5,r11
        0x000000dc:    42ac        .B      CMP      r4,r5
        0x000000de:    d101        ..      BNE      0xe4 ; __scatterload_null + 12
        0x000000e0:    f000f83f    ..?.    BL       __rt_entry ; 0x162
        0x000000e4:    467e        ~F      MOV      r6,pc
        0x000000e6:    3e0f        .>      SUBS     r6,r6,#0xf
        0x000000e8:    cc0f        ..      LDM      r4!,{r0-r3}
        0x000000ea:    46b6        .F      MOV      lr,r6
        0x000000ec:    2601        .&      MOVS     r6,#1
        0x000000ee:    4233        3B      TST      r3,r6
        0x000000f0:    d000        ..      BEQ      0xf4 ; __scatterload_null + 28
        0x000000f2:    1afb        ..      SUBS     r3,r7,r3
        0x000000f4:    46a2        .F      MOV      r10,r4
        0x000000f6:    46ab        .F      MOV      r11,r5
        0x000000f8:    4333        3C      ORRS     r3,r3,r6
        0x000000fa:    4718        .G      BX       r3
    $d
        0x000000fc:    000025cc    .%..    DCD    9676
        0x00000100:    000025ec    .%..    DCD    9708
    $t
    !!handler_copy
    __scatterload_copy
        0x00000104:    3a10        .:      SUBS     r2,r2,#0x10
        0x00000106:    d302        ..      BCC      0x10e ; __scatterload_copy + 10
        0x00000108:    c878        x.      LDM      r0!,{r3-r6}
        0x0000010a:    c178        x.      STM      r1!,{r3-r6}
        0x0000010c:    d8fa        ..      BHI      __scatterload_copy ; 0x104
        0x0000010e:    0752        R.      LSLS     r2,r2,#29
        0x00000110:    d301        ..      BCC      0x116 ; __scatterload_copy + 18
        0x00000112:    c830        0.      LDM      r0!,{r4,r5}
        0x00000114:    c130        0.      STM      r1!,{r4,r5}
        0x00000116:    d501        ..      BPL      0x11c ; __scatterload_copy + 24
        0x00000118:    6804        .h      LDR      r4,[r0,#0]
        0x0000011a:    600c        .`      STR      r4,[r1,#0]
        0x0000011c:    4770        pG      BX       lr
        0x0000011e:    0000        ..      MOVS     r0,r0
    !!handler_zi
    __scatterload_zeroinit
        0x00000120:    2300        .#      MOVS     r3,#0
        0x00000122:    2400        .$      MOVS     r4,#0
        0x00000124:    2500        .%      MOVS     r5,#0
        0x00000126:    2600        .&      MOVS     r6,#0
        0x00000128:    3a10        .:      SUBS     r2,r2,#0x10
        0x0000012a:    d301        ..      BCC      0x130 ; __scatterload_zeroinit + 16
        0x0000012c:    c178        x.      STM      r1!,{r3-r6}
        0x0000012e:    d8fb        ..      BHI      0x128 ; __scatterload_zeroinit + 8
        0x00000130:    0752        R.      LSLS     r2,r2,#29
        0x00000132:    d300        ..      BCC      0x136 ; __scatterload_zeroinit + 22
        0x00000134:    c130        0.      STM      r1!,{r4,r5}
        0x00000136:    d500        ..      BPL      0x13a ; __scatterload_zeroinit + 26
        0x00000138:    600b        .`      STR      r3,[r1,#0]
        0x0000013a:    4770        pG      BX       lr
    .ARM.Collect$$_printf_percent$$00000000
    _printf_percent
        0x0000013c:    b510        ..      PUSH     {r4,lr}
    .ARM.Collect$$_printf_percent$$00000009
    _printf_d
        0x0000013e:    2964        d)      CMP      r1,#0x64
        0x00000140:    d102        ..      BNE      _printf_x ; 0x148
        0x00000142:    f000f8a7    ....    BL       _printf_int_dec ; 0x294
        0x00000146:    bd10        ..      POP      {r4,pc}
    .ARM.Collect$$_printf_percent$$0000000C
    _printf_x
        0x00000148:    2978        x)      CMP      r1,#0x78
        0x0000014a:    d102        ..      BNE      _printf_percent_end ; 0x152
        0x0000014c:    f000f8d8    ....    BL       _printf_int_hex ; 0x300
        0x00000150:    bd10        ..      POP      {r4,pc}
    .ARM.Collect$$_printf_percent$$00000017
    _printf_percent_end
        0x00000152:    2000        .       MOVS     r0,#0
        0x00000154:    bd10        ..      POP      {r4,pc}
    .ARM.Collect$$libinit$$00000000
    __rt_lib_init
        0x00000156:    b51f        ..      PUSH     {r0-r4,lr}
        0x00000158:    46c0        .F      MOV      r8,r8
        0x0000015a:    46c0        .F      MOV      r8,r8
    .ARM.Collect$$libinit$$00000006
    .ARM.Collect$$libinit$$00000008
    .ARM.Collect$$libinit$$0000000A
    .ARM.Collect$$libinit$$0000000D
    .ARM.Collect$$libinit$$0000000F
    .ARM.Collect$$libinit$$00000011
    .ARM.Collect$$libinit$$00000013
    .ARM.Collect$$libinit$$00000015
    .ARM.Collect$$libinit$$00000017
    .ARM.Collect$$libinit$$00000019
    .ARM.Collect$$libinit$$0000001B
    .ARM.Collect$$libinit$$0000001D
    .ARM.Collect$$libinit$$0000001F
    .ARM.Collect$$libinit$$00000021
    .ARM.Collect$$libinit$$00000028
    .ARM.Collect$$libinit$$0000002A
    .ARM.Collect$$libinit$$0000002C
    .ARM.Collect$$libinit$$0000002E
    .ARM.Collect$$libinit$$0000002F
    __rt_lib_init_alloca_1
    __rt_lib_init_argv_1
    __rt_lib_init_atexit_1
    __rt_lib_init_clock_1
    __rt_lib_init_cpp_1
    __rt_lib_init_exceptions_1
    __rt_lib_init_fp_trap_1
    __rt_lib_init_getenv_1
    __rt_lib_init_heap_1
    __rt_lib_init_lc_collate_1
    __rt_lib_init_lc_ctype_1
    __rt_lib_init_lc_monetary_1
    __rt_lib_init_lc_numeric_1
    __rt_lib_init_lc_time_1
    __rt_lib_init_rand_1
    __rt_lib_init_return
    __rt_lib_init_signal_1
    __rt_lib_init_stdio_1
    __rt_lib_init_user_alloc_1
        0x0000015c:    bd1f        ..      POP      {r0-r4,pc}
    .ARM.Collect$$libshutdown$$00000000
    __rt_lib_shutdown
        0x0000015e:    b510        ..      PUSH     {r4,lr}
    .ARM.Collect$$libshutdown$$00000003
    .ARM.Collect$$libshutdown$$00000006
    .ARM.Collect$$libshutdown$$00000009
    .ARM.Collect$$libshutdown$$0000000B
    .ARM.Collect$$libshutdown$$0000000E
    .ARM.Collect$$libshutdown$$0000000F
    __rt_lib_shutdown_fp_trap_1
    __rt_lib_shutdown_heap_1
    __rt_lib_shutdown_return
    __rt_lib_shutdown_signal_1
    __rt_lib_shutdown_stdio_1
    __rt_lib_shutdown_user_alloc_1
        0x00000160:    bd10        ..      POP      {r4,pc}
    .ARM.Collect$$rtentry$$00000000
    .ARM.Collect$$rtentry$$00000002
    .ARM.Collect$$rtentry$$00000004
    __rt_entry
    __rt_entry_presh_1
    __rt_entry_sh
        0x00000162:    f000face    ....    BL       __user_setup_stackheap ; 0x702
        0x00000166:    4611        .F      MOV      r1,r2
    .ARM.Collect$$rtentry$$00000009
    .ARM.Collect$$rtentry$$0000000A
    __rt_entry_li
    __rt_entry_postsh_1
        0x00000168:    f7fffff5    ....    BL       __rt_lib_init ; 0x156
    .ARM.Collect$$rtentry$$0000000C
    .ARM.Collect$$rtentry$$0000000D
    __rt_entry_main
    __rt_entry_postli_1
        0x0000016c:    f002f98c    ....    BL       main ; 0x2488
        0x00000170:    f000fae6    ....    BL       exit ; 0x740
    .ARM.Collect$$rtexit$$00000000
    __rt_exit
        0x00000174:    b403        ..      PUSH     {r0,r1}
    .ARM.Collect$$rtexit$$00000002
    .ARM.Collect$$rtexit$$00000003
    __rt_exit_ls
    __rt_exit_prels_1
        0x00000176:    f7fffff2    ....    BL       __rt_lib_shutdown ; 0x15e
    .ARM.Collect$$rtexit$$00000004
    __rt_exit_exit
        0x0000017a:    bc03        ..      POP      {r0,r1}
        0x0000017c:    f000faea    ....    BL       _sys_exit ; 0x754
    .emb_text
    __aeabi_memcpy4
    __aeabi_memcpy8
        0x00000180:    b570        p.      PUSH     {r4-r6,lr}
        0x00000182:    4605        .F      MOV      r5,r0
        0x00000184:    460c        .F      MOV      r4,r1
        0x00000186:    4616        .F      MOV      r6,r2
        0x00000188:    e002        ..      B        0x190 ; __aeabi_memcpy4 + 16
        0x0000018a:    cc0f        ..      LDM      r4!,{r0-r3}
        0x0000018c:    c50f        ..      STM      r5!,{r0-r3}
        0x0000018e:    3e10        .>      SUBS     r6,r6,#0x10
        0x00000190:    2e10        ..      CMP      r6,#0x10
        0x00000192:    d2fa        ..      BCS      0x18a ; __aeabi_memcpy4 + 10
        0x00000194:    2e08        ..      CMP      r6,#8
        0x00000196:    d302        ..      BCC      0x19e ; __aeabi_memcpy4 + 30
        0x00000198:    cc03        ..      LDM      r4!,{r0,r1}
        0x0000019a:    c503        ..      STM      r5!,{r0,r1}
        0x0000019c:    3e08        .>      SUBS     r6,r6,#8
        0x0000019e:    2e04        ..      CMP      r6,#4
        0x000001a0:    d307        ..      BCC      0x1b2 ; __aeabi_memcpy4 + 50
        0x000001a2:    cc01        ..      LDM      r4!,{r0}
        0x000001a4:    c501        ..      STM      r5!,{r0}
        0x000001a6:    1f36        6.      SUBS     r6,r6,#4
        0x000001a8:    e003        ..      B        0x1b2 ; __aeabi_memcpy4 + 50
        0x000001aa:    7821        !x      LDRB     r1,[r4,#0]
        0x000001ac:    7029        )p      STRB     r1,[r5,#0]
        0x000001ae:    1c64        d.      ADDS     r4,r4,#1
        0x000001b0:    1c6d        m.      ADDS     r5,r5,#1
        0x000001b2:    1e76        v.      SUBS     r6,r6,#1
        0x000001b4:    d2f9        ..      BCS      0x1aa ; __aeabi_memcpy4 + 42
        0x000001b6:    bd70        p.      POP      {r4-r6,pc}
    .text
    Reset_Handler
        0x000001b8:    480d        .H      LDR      r0,[pc,#52] ; [0x1f0] = 0x50000100
        0x000001ba:    490e        .I      LDR      r1,[pc,#56] ; [0x1f4] = 0x59
        0x000001bc:    6001        .`      STR      r1,[r0,#0]
        0x000001be:    490e        .I      LDR      r1,[pc,#56] ; [0x1f8] = 0x16
        0x000001c0:    6001        .`      STR      r1,[r0,#0]
        0x000001c2:    490e        .I      LDR      r1,[pc,#56] ; [0x1fc] = 0x88
        0x000001c4:    6001        .`      STR      r1,[r0,#0]
        0x000001c6:    4a0e        .J      LDR      r2,[pc,#56] ; [0x200] = 0x50000024
        0x000001c8:    490e        .I      LDR      r1,[pc,#56] ; [0x204] = 0x5aa5
        0x000001ca:    6011        .`      STR      r1,[r2,#0]
        0x000001cc:    2100        .!      MOVS     r1,#0
        0x000001ce:    6001        .`      STR      r1,[r0,#0]
        0x000001d0:    480d        .H      LDR      r0,[pc,#52] ; [0x208] = 0x20f9
        0x000001d2:    4780        .G      BLX      r0
        0x000001d4:    480d        .H      LDR      r0,[pc,#52] ; [0x20c] = 0xc1
        0x000001d6:    4700        .G      BX       r0
    NMI_Handler
        0x000001d8:    e7fe        ..      B        NMI_Handler ; 0x1d8
    HardFault_Handler
        0x000001da:    e7fe        ..      B        HardFault_Handler ; 0x1da
    SVC_Handler
        0x000001dc:    e7fe        ..      B        SVC_Handler ; 0x1dc
    PendSV_Handler
        0x000001de:    e7fe        ..      B        PendSV_Handler ; 0x1de
    SysTick_Handler
        0x000001e0:    e7fe        ..      B        SysTick_Handler ; 0x1e0
    Default_Handler
    ACMP_IRQHandler
    ADC_IRQHandler
    CAN0_IRQHandler
    I2S_IRQHandler
    PDMA_IRQHandler
    PS2_IRQHandler
    PWMA_IRQHandler
    TMR1_IRQHandler
    TMR2_IRQHandler
    USBD_IRQHandler
    WDT_IRQHandler
        0x000001e2:    e7fe        ..      B        Default_Handler ; 0x1e2
    __user_initial_stackheap
        0x000001e4:    480a        .H      LDR      r0,[pc,#40] ; [0x210] = 0x20000720
        0x000001e6:    490b        .I      LDR      r1,[pc,#44] ; [0x214] = 0x20000b20
        0x000001e8:    4a09        .J      LDR      r2,[pc,#36] ; [0x210] = 0x20000720
        0x000001ea:    4b0b        .K      LDR      r3,[pc,#44] ; [0x218] = 0x20000720
        0x000001ec:    4770        pG      BX       lr
    $d
        0x000001ee:    0000        ..      DCW    0
        0x000001f0:    50000100    ...P    DCD    1342177536
        0x000001f4:    00000059    Y...    DCD    89
        0x000001f8:    00000016    ....    DCD    22
        0x000001fc:    00000088    ....    DCD    136
        0x00000200:    50000024    $..P    DCD    1342177316
        0x00000204:    00005aa5    .Z..    DCD    23205
        0x00000208:    000020f9    . ..    DCD    8441
        0x0000020c:    000000c1    ....    DCD    193
        0x00000210:    20000720     ..     DCD    536872736
        0x00000214:    20000b20     ..     DCD    536873760
        0x00000218:    20000720     ..     DCD    536872736
    $t
    .text
    __2sprintf
        0x0000021c:    b40f        ..      PUSH     {r0-r3}
        0x0000021e:    b51c        ..      PUSH     {r2-r4,lr}
        0x00000220:    4b07        .K      LDR      r3,[pc,#28] ; [0x240] = 0x4a9
        0x00000222:    aa06        ..      ADD      r2,sp,#0x18
        0x00000224:    447b        {D      ADD      r3,r3,pc
        0x00000226:    4669        iF      MOV      r1,sp
        0x00000228:    9000        ..      STR      r0,[sp,#0]
        0x0000022a:    9805        ..      LDR      r0,[sp,#0x14]
        0x0000022c:    f000fa3d    ..=.    BL       _printf_char_common ; 0x6aa
        0x00000230:    2000        .       MOVS     r0,#0
        0x00000232:    4669        iF      MOV      r1,sp
        0x00000234:    f000fa4c    ..L.    BL       _sputc ; 0x6d0
        0x00000238:    bc1c        ..      POP      {r2-r4}
        0x0000023a:    bc08        ..      POP      {r3}
        0x0000023c:    b004        ..      ADD      sp,sp,#0x10
        0x0000023e:    4718        .G      BX       r3
    $d
        0x00000240:    000004a9    ....    DCD    1193
    $t
    .text
    _printf_pre_padding
        0x00000244:    b570        p.      PUSH     {r4-r6,lr}
        0x00000246:    4604        .F      MOV      r4,r0
        0x00000248:    6985        .i      LDR      r5,[r0,#0x18]
        0x0000024a:    6800        .h      LDR      r0,[r0,#0]
        0x0000024c:    06c1        ..      LSLS     r1,r0,#27
        0x0000024e:    d501        ..      BPL      0x254 ; _printf_pre_padding + 16
        0x00000250:    2630        0&      MOVS     r6,#0x30
        0x00000252:    e000        ..      B        0x256 ; _printf_pre_padding + 18
        0x00000254:    2620         &      MOVS     r6,#0x20
        0x00000256:    07c0        ..      LSLS     r0,r0,#31
        0x00000258:    d007        ..      BEQ      0x26a ; _printf_pre_padding + 38
        0x0000025a:    bd70        p.      POP      {r4-r6,pc}
        0x0000025c:    6862        bh      LDR      r2,[r4,#4]
        0x0000025e:    4630        0F      MOV      r0,r6
        0x00000260:    68a1        .h      LDR      r1,[r4,#8]
        0x00000262:    4790        .G      BLX      r2
        0x00000264:    6a20         j      LDR      r0,[r4,#0x20]
        0x00000266:    1c40        @.      ADDS     r0,r0,#1
        0x00000268:    6220         b      STR      r0,[r4,#0x20]
        0x0000026a:    1e6d        m.      SUBS     r5,r5,#1
        0x0000026c:    d5f6        ..      BPL      0x25c ; _printf_pre_padding + 24
        0x0000026e:    bd70        p.      POP      {r4-r6,pc}
    _printf_post_padding
        0x00000270:    b570        p.      PUSH     {r4-r6,lr}
        0x00000272:    4604        .F      MOV      r4,r0
        0x00000274:    6985        .i      LDR      r5,[r0,#0x18]
        0x00000276:    6800        .h      LDR      r0,[r0,#0]
        0x00000278:    07c0        ..      LSLS     r0,r0,#31
        0x0000027a:    d107        ..      BNE      0x28c ; _printf_post_padding + 28
        0x0000027c:    bd70        p.      POP      {r4-r6,pc}
        0x0000027e:    6862        bh      LDR      r2,[r4,#4]
        0x00000280:    68a1        .h      LDR      r1,[r4,#8]
        0x00000282:    2020                MOVS     r0,#0x20
        0x00000284:    4790        .G      BLX      r2
        0x00000286:    6a20         j      LDR      r0,[r4,#0x20]
        0x00000288:    1c40        @.      ADDS     r0,r0,#1
        0x0000028a:    6220         b      STR      r0,[r4,#0x20]
        0x0000028c:    1e6d        m.      SUBS     r5,r5,#1
        0x0000028e:    d5f6        ..      BPL      0x27e ; _printf_post_padding + 14
        0x00000290:    bd70        p.      POP      {r4-r6,pc}
        0x00000292:    0000        ..      MOVS     r0,r0
    .text
    _printf_int_dec
        0x00000294:    b5f7        ..      PUSH     {r0-r2,r4-r7,lr}
        0x00000296:    2600        .&      MOVS     r6,#0
        0x00000298:    2975        u)      CMP      r1,#0x75
        0x0000029a:    6810        .h      LDR      r0,[r2,#0]
        0x0000029c:    9900        ..      LDR      r1,[sp,#0]
        0x0000029e:    a514        ..      ADR      r5,{pc}+0x52 ; 0x2f0
        0x000002a0:    d011        ..      BEQ      0x2c6 ; _printf_int_dec + 50
        0x000002a2:    46c0        .F      MOV      r8,r8
        0x000002a4:    46c0        .F      MOV      r8,r8
        0x000002a6:    2800        .(      CMP      r0,#0
        0x000002a8:    da02        ..      BGE      0x2b0 ; _printf_int_dec + 28
        0x000002aa:    4240        @B      RSBS     r0,r0,#0
        0x000002ac:    a511        ..      ADR      r5,{pc}+0x48 ; 0x2f4
        0x000002ae:    e008        ..      B        0x2c2 ; _printf_int_dec + 46
        0x000002b0:    9900        ..      LDR      r1,[sp,#0]
        0x000002b2:    6809        .h      LDR      r1,[r1,#0]
        0x000002b4:    078a        ..      LSLS     r2,r1,#30
        0x000002b6:    d501        ..      BPL      0x2bc ; _printf_int_dec + 40
        0x000002b8:    a50f        ..      ADR      r5,{pc}+0x40 ; 0x2f8
        0x000002ba:    e002        ..      B        0x2c2 ; _printf_int_dec + 46
        0x000002bc:    0749        I.      LSLS     r1,r1,#29
        0x000002be:    d504        ..      BPL      0x2ca ; _printf_int_dec + 54
        0x000002c0:    a50e        ..      ADR      r5,{pc}+0x3c ; 0x2fc
        0x000002c2:    2601        .&      MOVS     r6,#1
        0x000002c4:    e001        ..      B        0x2ca ; _printf_int_dec + 54
        0x000002c6:    46c0        .F      MOV      r8,r8
        0x000002c8:    46c0        .F      MOV      r8,r8
        0x000002ca:    9f00        ..      LDR      r7,[sp,#0]
        0x000002cc:    2400        .$      MOVS     r4,#0
        0x000002ce:    3724        $7      ADDS     r7,r7,#0x24
        0x000002d0:    e004        ..      B        0x2dc ; _printf_int_dec + 72
        0x000002d2:    f000fa02    ....    BL       __rt_udiv10 ; 0x6da
        0x000002d6:    3130        01      ADDS     r1,r1,#0x30
        0x000002d8:    5539        9U      STRB     r1,[r7,r4]
        0x000002da:    1c64        d.      ADDS     r4,r4,#1
        0x000002dc:    2800        .(      CMP      r0,#0
        0x000002de:    d1f8        ..      BNE      0x2d2 ; _printf_int_dec + 62
        0x000002e0:    4633        3F      MOV      r3,r6
        0x000002e2:    462a        *F      MOV      r2,r5
        0x000002e4:    4621        !F      MOV      r1,r4
        0x000002e6:    9800        ..      LDR      r0,[sp,#0]
        0x000002e8:    f000f982    ....    BL       _printf_int_common ; 0x5f0
        0x000002ec:    bdfe        ..      POP      {r1-r7,pc}
    $d
        0x000002ee:    0000        ..      DCW    0
        0x000002f0:    00000000    ....    DCD    0
        0x000002f4:    0000002d    -...    DCD    45
        0x000002f8:    0000002b    +...    DCD    43
        0x000002fc:    00000020     ...    DCD    32
    $t
    .text
    _printf_int_hex
    _printf_longlong_hex
        0x00000300:    b570        p.      PUSH     {r4-r6,lr}
        0x00000302:    4604        .F      MOV      r4,r0
        0x00000304:    460d        .F      MOV      r5,r1
        0x00000306:    4621        !F      MOV      r1,r4
        0x00000308:    6810        .h      LDR      r0,[r2,#0]
        0x0000030a:    46c0        .F      MOV      r8,r8
        0x0000030c:    46c0        .F      MOV      r8,r8
        0x0000030e:    6821        !h      LDR      r1,[r4,#0]
        0x00000310:    0509        ..      LSLS     r1,r1,#20
        0x00000312:    d502        ..      BPL      0x31a ; _printf_int_hex + 26
        0x00000314:    4a0f        .J      LDR      r2,[pc,#60] ; [0x354] = 0x2372
        0x00000316:    447a        zD      ADD      r2,r2,pc
        0x00000318:    e002        ..      B        0x320 ; _printf_int_hex + 32
        0x0000031a:    4a0e        .J      LDR      r2,[pc,#56] ; [0x354] = 0x2372
        0x0000031c:    447a        zD      ADD      r2,r2,pc
        0x0000031e:    320e        .2      ADDS     r2,r2,#0xe
        0x00000320:    4623        #F      MOV      r3,r4
        0x00000322:    2100        .!      MOVS     r1,#0
        0x00000324:    3324        $3      ADDS     r3,r3,#0x24
        0x00000326:    e005        ..      B        0x334 ; _printf_int_hex + 52
        0x00000328:    0706        ..      LSLS     r6,r0,#28
        0x0000032a:    0f36        6.      LSRS     r6,r6,#28
        0x0000032c:    5d96        .]      LDRB     r6,[r2,r6]
        0x0000032e:    545e        ^T      STRB     r6,[r3,r1]
        0x00000330:    1c49        I.      ADDS     r1,r1,#1
        0x00000332:    0900        ..      LSRS     r0,r0,#4
        0x00000334:    2800        .(      CMP      r0,#0
        0x00000336:    d1f7        ..      BNE      0x328 ; _printf_int_hex + 40
        0x00000338:    6820         h      LDR      r0,[r4,#0]
        0x0000033a:    2300        .#      MOVS     r3,#0
        0x0000033c:    0700        ..      LSLS     r0,r0,#28
        0x0000033e:    d505        ..      BPL      0x34c ; _printf_int_hex + 76
        0x00000340:    2d70        p-      CMP      r5,#0x70
        0x00000342:    d003        ..      BEQ      0x34c ; _printf_int_hex + 76
        0x00000344:    2900        .)      CMP      r1,#0
        0x00000346:    d001        ..      BEQ      0x34c ; _printf_int_hex + 76
        0x00000348:    3211        .2      ADDS     r2,r2,#0x11
        0x0000034a:    2302        .#      MOVS     r3,#2
        0x0000034c:    4620         F      MOV      r0,r4
        0x0000034e:    f000f94f    ..O.    BL       _printf_int_common ; 0x5f0
        0x00000352:    bd70        p.      POP      {r4-r6,pc}
    $d
        0x00000354:    00002372    r#..    DCD    9074
    $t
    .text
    __printf
        0x00000358:    b5f3        ..      PUSH     {r0,r1,r4-r7,lr}
        0x0000035a:    4604        .F      MOV      r4,r0
        0x0000035c:    2000        .       MOVS     r0,#0
        0x0000035e:    b081        ..      SUB      sp,sp,#4
        0x00000360:    e090        ..      B        0x484 ; __printf + 300
        0x00000362:    68e1        .h      LDR      r1,[r4,#0xc]
        0x00000364:    4620         F      MOV      r0,r4
        0x00000366:    4788        .G      BLX      r1
        0x00000368:    2800        .(      CMP      r0,#0
        0x0000036a:    d07d        }.      BEQ      0x468 ; __printf + 272
        0x0000036c:    2825        %(      CMP      r0,#0x25
        0x0000036e:    d002        ..      BEQ      0x376 ; __printf + 30
        0x00000370:    6862        bh      LDR      r2,[r4,#4]
        0x00000372:    68a1        .h      LDR      r1,[r4,#8]
        0x00000374:    e083        ..      B        0x47e ; __printf + 294
        0x00000376:    4f45        EO      LDR      r7,[pc,#276] ; [0x48c] = 0x2336
        0x00000378:    2500        .%      MOVS     r5,#0
        0x0000037a:    447f        .D      ADD      r7,r7,pc
        0x0000037c:    4620         F      MOV      r0,r4
        0x0000037e:    68e1        .h      LDR      r1,[r4,#0xc]
        0x00000380:    4788        .G      BLX      r1
        0x00000382:    2820         (      CMP      r0,#0x20
        0x00000384:    4606        .F      MOV      r6,r0
        0x00000386:    db08        ..      BLT      0x39a ; __printf + 66
        0x00000388:    2e31        1.      CMP      r6,#0x31
        0x0000038a:    d206        ..      BCS      0x39a ; __printf + 66
        0x0000038c:    19b8        ..      ADDS     r0,r7,r6
        0x0000038e:    3820         8      SUBS     r0,r0,#0x20
        0x00000390:    7800        .x      LDRB     r0,[r0,#0]
        0x00000392:    2800        .(      CMP      r0,#0
        0x00000394:    d001        ..      BEQ      0x39a ; __printf + 66
        0x00000396:    4305        .C      ORRS     r5,r5,r0
        0x00000398:    e7f0        ..      B        0x37c ; __printf + 36
        0x0000039a:    07a8        ..      LSLS     r0,r5,#30
        0x0000039c:    d501        ..      BPL      0x3a2 ; __printf + 74
        0x0000039e:    2004        .       MOVS     r0,#4
        0x000003a0:    4385        .C      BICS     r5,r5,r0
        0x000003a2:    2000        .       MOVS     r0,#0
        0x000003a4:    61e0        .a      STR      r0,[r4,#0x1c]
        0x000003a6:    4607        .F      MOV      r7,r0
        0x000003a8:    61a0        .a      STR      r0,[r4,#0x18]
        0x000003aa:    2e2a        *.      CMP      r6,#0x2a
        0x000003ac:    d00a        ..      BEQ      0x3c4 ; __printf + 108
        0x000003ae:    4630        0F      MOV      r0,r6
        0x000003b0:    f002f830    ..0.    BL       _is_digit ; 0x2414
        0x000003b4:    2800        .(      CMP      r0,#0
        0x000003b6:    d027        '.      BEQ      0x408 ; __printf + 176
        0x000003b8:    3e30        0>      SUBS     r6,r6,#0x30
        0x000003ba:    00b8        ..      LSLS     r0,r7,#2
        0x000003bc:    1900        ..      ADDS     r0,r0,r4
        0x000003be:    9000        ..      STR      r0,[sp,#0]
        0x000003c0:    6186        .a      STR      r6,[r0,#0x18]
        0x000003c2:    e019        ..      B        0x3f8 ; __printf + 160
        0x000003c4:    9802        ..      LDR      r0,[sp,#8]
        0x000003c6:    00ba        ..      LSLS     r2,r7,#2
        0x000003c8:    1912        ..      ADDS     r2,r2,r4
        0x000003ca:    c802        ..      LDM      r0!,{r1}
        0x000003cc:    6191        .a      STR      r1,[r2,#0x18]
        0x000003ce:    9002        ..      STR      r0,[sp,#8]
        0x000003d0:    4620         F      MOV      r0,r4
        0x000003d2:    68e1        .h      LDR      r1,[r4,#0xc]
        0x000003d4:    4788        .G      BLX      r1
        0x000003d6:    2f01        ./      CMP      r7,#1
        0x000003d8:    4606        .F      MOV      r6,r0
        0x000003da:    d117        ..      BNE      0x40c ; __printf + 180
        0x000003dc:    69e0        .i      LDR      r0,[r4,#0x1c]
        0x000003de:    2800        .(      CMP      r0,#0
        0x000003e0:    da1f        ..      BGE      0x422 ; __printf + 202
        0x000003e2:    2020                MOVS     r0,#0x20
        0x000003e4:    4385        .C      BICS     r5,r5,r0
        0x000003e6:    e01c        ..      B        0x422 ; __printf + 202
        0x000003e8:    9800        ..      LDR      r0,[sp,#0]
        0x000003ea:    210a        .!      MOVS     r1,#0xa
        0x000003ec:    6980        .i      LDR      r0,[r0,#0x18]
        0x000003ee:    4348        HC      MULS     r0,r1,r0
        0x000003f0:    9900        ..      LDR      r1,[sp,#0]
        0x000003f2:    1980        ..      ADDS     r0,r0,r6
        0x000003f4:    3830        08      SUBS     r0,r0,#0x30
        0x000003f6:    6188        .a      STR      r0,[r1,#0x18]
        0x000003f8:    4620         F      MOV      r0,r4
        0x000003fa:    68e1        .h      LDR      r1,[r4,#0xc]
        0x000003fc:    4788        .G      BLX      r1
        0x000003fe:    4606        .F      MOV      r6,r0
        0x00000400:    f002f808    ....    BL       _is_digit ; 0x2414
        0x00000404:    2800        .(      CMP      r0,#0
        0x00000406:    d1ef        ..      BNE      0x3e8 ; __printf + 144
        0x00000408:    2f01        ./      CMP      r7,#1
        0x0000040a:    d00a        ..      BEQ      0x422 ; __printf + 202
        0x0000040c:    2e2e        ..      CMP      r6,#0x2e
        0x0000040e:    d108        ..      BNE      0x422 ; __printf + 202
        0x00000410:    4620         F      MOV      r0,r4
        0x00000412:    68e1        .h      LDR      r1,[r4,#0xc]
        0x00000414:    4788        .G      BLX      r1
        0x00000416:    4606        .F      MOV      r6,r0
        0x00000418:    2020                MOVS     r0,#0x20
        0x0000041a:    4305        .C      ORRS     r5,r5,r0
        0x0000041c:    1c7f        ..      ADDS     r7,r7,#1
        0x0000041e:    2f02        ./      CMP      r7,#2
        0x00000420:    dbc3        ..      BLT      0x3aa ; __printf + 82
        0x00000422:    69a0        .i      LDR      r0,[r4,#0x18]
        0x00000424:    2800        .(      CMP      r0,#0
        0x00000426:    da03        ..      BGE      0x430 ; __printf + 216
        0x00000428:    4240        @B      RSBS     r0,r0,#0
        0x0000042a:    61a0        .a      STR      r0,[r4,#0x18]
        0x0000042c:    2001        .       MOVS     r0,#1
        0x0000042e:    4305        .C      ORRS     r5,r5,r0
        0x00000430:    07e8        ..      LSLS     r0,r5,#31
        0x00000432:    d001        ..      BEQ      0x438 ; __printf + 224
        0x00000434:    2010        .       MOVS     r0,#0x10
        0x00000436:    4385        .C      BICS     r5,r5,r0
        0x00000438:    2e00        ..      CMP      r6,#0
        0x0000043a:    d025        %.      BEQ      0x488 ; __printf + 304
        0x0000043c:    4630        0F      MOV      r0,r6
        0x0000043e:    3841        A8      SUBS     r0,r0,#0x41
        0x00000440:    2819        .(      CMP      r0,#0x19
        0x00000442:    d803        ..      BHI      0x44c ; __printf + 244
        0x00000444:    2001        .       MOVS     r0,#1
        0x00000446:    02c0        ..      LSLS     r0,r0,#11
        0x00000448:    4305        .C      ORRS     r5,r5,r0
        0x0000044a:    3620         6      ADDS     r6,r6,#0x20
        0x0000044c:    4620         F      MOV      r0,r4
        0x0000044e:    6025        %`      STR      r5,[r4,#0]
        0x00000450:    4631        1F      MOV      r1,r6
        0x00000452:    9a02        ..      LDR      r2,[sp,#8]
        0x00000454:    4615        .F      MOV      r5,r2
        0x00000456:    f7fffe71    ..q.    BL       _printf_percent ; 0x13c
        0x0000045a:    2800        .(      CMP      r0,#0
        0x0000045c:    d00c        ..      BEQ      0x478 ; __printf + 288
        0x0000045e:    2801        .(      CMP      r0,#1
        0x00000460:    d007        ..      BEQ      0x472 ; __printf + 282
        0x00000462:    1ded        ..      ADDS     r5,r5,#7
        0x00000464:    08e8        ..      LSRS     r0,r5,#3
        0x00000466:    e000        ..      B        0x46a ; __printf + 274
        0x00000468:    e00e        ..      B        0x488 ; __printf + 304
        0x0000046a:    00c0        ..      LSLS     r0,r0,#3
        0x0000046c:    3008        .0      ADDS     r0,r0,#8
        0x0000046e:    9002        ..      STR      r0,[sp,#8]
        0x00000470:    e777        w.      B        0x362 ; __printf + 10
        0x00000472:    1d2d        -.      ADDS     r5,r5,#4
        0x00000474:    9502        ..      STR      r5,[sp,#8]
        0x00000476:    e774        t.      B        0x362 ; __printf + 10
        0x00000478:    6862        bh      LDR      r2,[r4,#4]
        0x0000047a:    4630        0F      MOV      r0,r6
        0x0000047c:    68a1        .h      LDR      r1,[r4,#8]
        0x0000047e:    4790        .G      BLX      r2
        0x00000480:    6a20         j      LDR      r0,[r4,#0x20]
        0x00000482:    1c40        @.      ADDS     r0,r0,#1
        0x00000484:    6220         b      STR      r0,[r4,#0x20]
        0x00000486:    e76c        l.      B        0x362 ; __printf + 10
        0x00000488:    6a20         j      LDR      r0,[r4,#0x20]
        0x0000048a:    bdfe        ..      POP      {r1-r7,pc}
    $d
        0x0000048c:    00002336    6#..    DCD    9014
    $t
    .text
    __aeabi_uidiv
    __aeabi_uidivmod
        0x00000490:    2200        ."      MOVS     r2,#0
        0x00000492:    0903        ..      LSRS     r3,r0,#4
        0x00000494:    428b        .B      CMP      r3,r1
        0x00000496:    d32c        ,.      BCC      0x4f2 ; __aeabi_idiv + 78
        0x00000498:    0a03        ..      LSRS     r3,r0,#8
        0x0000049a:    428b        .B      CMP      r3,r1
        0x0000049c:    d311        ..      BCC      0x4c2 ; __aeabi_idiv + 30
        0x0000049e:    2300        .#      MOVS     r3,#0
        0x000004a0:    469c        .F      MOV      r12,r3
        0x000004a2:    e04e        N.      B        0x542 ; __aeabi_idiv + 158
    __aeabi_idiv
    __aeabi_idivmod
        0x000004a4:    4603        .F      MOV      r3,r0
        0x000004a6:    430b        .C      ORRS     r3,r3,r1
        0x000004a8:    d43c        <.      BMI      0x524 ; __aeabi_idiv + 128
        0x000004aa:    2200        ."      MOVS     r2,#0
        0x000004ac:    0843        C.      LSRS     r3,r0,#1
        0x000004ae:    428b        .B      CMP      r3,r1
        0x000004b0:    d331        1.      BCC      0x516 ; __aeabi_idiv + 114
        0x000004b2:    0903        ..      LSRS     r3,r0,#4
        0x000004b4:    428b        .B      CMP      r3,r1
        0x000004b6:    d31c        ..      BCC      0x4f2 ; __aeabi_idiv + 78
        0x000004b8:    0a03        ..      LSRS     r3,r0,#8
        0x000004ba:    428b        .B      CMP      r3,r1
        0x000004bc:    d301        ..      BCC      0x4c2 ; __aeabi_idiv + 30
        0x000004be:    4694        .F      MOV      r12,r2
        0x000004c0:    e03f        ?.      B        0x542 ; __aeabi_idiv + 158
        0x000004c2:    09c3        ..      LSRS     r3,r0,#7
        0x000004c4:    428b        .B      CMP      r3,r1
        0x000004c6:    d301        ..      BCC      0x4cc ; __aeabi_idiv + 40
        0x000004c8:    01cb        ..      LSLS     r3,r1,#7
        0x000004ca:    1ac0        ..      SUBS     r0,r0,r3
        0x000004cc:    4152        RA      ADCS     r2,r2,r2
        0x000004ce:    0983        ..      LSRS     r3,r0,#6
        0x000004d0:    428b        .B      CMP      r3,r1
        0x000004d2:    d301        ..      BCC      0x4d8 ; __aeabi_idiv + 52
        0x000004d4:    018b        ..      LSLS     r3,r1,#6
        0x000004d6:    1ac0        ..      SUBS     r0,r0,r3
        0x000004d8:    4152        RA      ADCS     r2,r2,r2
        0x000004da:    0943        C.      LSRS     r3,r0,#5
        0x000004dc:    428b        .B      CMP      r3,r1
        0x000004de:    d301        ..      BCC      0x4e4 ; __aeabi_idiv + 64
        0x000004e0:    014b        K.      LSLS     r3,r1,#5
        0x000004e2:    1ac0        ..      SUBS     r0,r0,r3
        0x000004e4:    4152        RA      ADCS     r2,r2,r2
        0x000004e6:    0903        ..      LSRS     r3,r0,#4
        0x000004e8:    428b        .B      CMP      r3,r1
        0x000004ea:    d301        ..      BCC      0x4f0 ; __aeabi_idiv + 76
        0x000004ec:    010b        ..      LSLS     r3,r1,#4
        0x000004ee:    1ac0        ..      SUBS     r0,r0,r3
        0x000004f0:    4152        RA      ADCS     r2,r2,r2
        0x000004f2:    08c3        ..      LSRS     r3,r0,#3
        0x000004f4:    428b        .B      CMP      r3,r1
        0x000004f6:    d301        ..      BCC      0x4fc ; __aeabi_idiv + 88
        0x000004f8:    00cb        ..      LSLS     r3,r1,#3
        0x000004fa:    1ac0        ..      SUBS     r0,r0,r3
        0x000004fc:    4152        RA      ADCS     r2,r2,r2
        0x000004fe:    0883        ..      LSRS     r3,r0,#2
        0x00000500:    428b        .B      CMP      r3,r1
        0x00000502:    d301        ..      BCC      0x508 ; __aeabi_idiv + 100
        0x00000504:    008b        ..      LSLS     r3,r1,#2
        0x00000506:    1ac0        ..      SUBS     r0,r0,r3
        0x00000508:    4152        RA      ADCS     r2,r2,r2
        0x0000050a:    0843        C.      LSRS     r3,r0,#1
        0x0000050c:    428b        .B      CMP      r3,r1
        0x0000050e:    d301        ..      BCC      0x514 ; __aeabi_idiv + 112
        0x00000510:    004b        K.      LSLS     r3,r1,#1
        0x00000512:    1ac0        ..      SUBS     r0,r0,r3
        0x00000514:    4152        RA      ADCS     r2,r2,r2
        0x00000516:    1a41        A.      SUBS     r1,r0,r1
        0x00000518:    d200        ..      BCS      0x51c ; __aeabi_idiv + 120
        0x0000051a:    4601        .F      MOV      r1,r0
        0x0000051c:    4152        RA      ADCS     r2,r2,r2
        0x0000051e:    4610        .F      MOV      r0,r2
        0x00000520:    4770        pG      BX       lr
        0x00000522:    e05d        ].      B        0x5e0 ; __aeabi_idiv + 316
        0x00000524:    0fca        ..      LSRS     r2,r1,#31
        0x00000526:    d000        ..      BEQ      0x52a ; __aeabi_idiv + 134
        0x00000528:    4249        IB      RSBS     r1,r1,#0
        0x0000052a:    1003        ..      ASRS     r3,r0,#32
        0x0000052c:    d300        ..      BCC      0x530 ; __aeabi_idiv + 140
        0x0000052e:    4240        @B      RSBS     r0,r0,#0
        0x00000530:    4053        S@      EORS     r3,r3,r2
        0x00000532:    2200        ."      MOVS     r2,#0
        0x00000534:    469c        .F      MOV      r12,r3
        0x00000536:    0903        ..      LSRS     r3,r0,#4
        0x00000538:    428b        .B      CMP      r3,r1
        0x0000053a:    d32d        -.      BCC      0x598 ; __aeabi_idiv + 244
        0x0000053c:    0a03        ..      LSRS     r3,r0,#8
        0x0000053e:    428b        .B      CMP      r3,r1
        0x00000540:    d312        ..      BCC      0x568 ; __aeabi_idiv + 196
        0x00000542:    22fc        ."      MOVS     r2,#0xfc
        0x00000544:    0189        ..      LSLS     r1,r1,#6
        0x00000546:    ba12        ..      REV      r2,r2
        0x00000548:    0a03        ..      LSRS     r3,r0,#8
        0x0000054a:    428b        .B      CMP      r3,r1
        0x0000054c:    d30c        ..      BCC      0x568 ; __aeabi_idiv + 196
        0x0000054e:    0189        ..      LSLS     r1,r1,#6
        0x00000550:    1192        ..      ASRS     r2,r2,#6
        0x00000552:    428b        .B      CMP      r3,r1
        0x00000554:    d308        ..      BCC      0x568 ; __aeabi_idiv + 196
        0x00000556:    0189        ..      LSLS     r1,r1,#6
        0x00000558:    1192        ..      ASRS     r2,r2,#6
        0x0000055a:    428b        .B      CMP      r3,r1
        0x0000055c:    d304        ..      BCC      0x568 ; __aeabi_idiv + 196
        0x0000055e:    0189        ..      LSLS     r1,r1,#6
        0x00000560:    d03a        :.      BEQ      0x5d8 ; __aeabi_idiv + 308
        0x00000562:    1192        ..      ASRS     r2,r2,#6
        0x00000564:    e000        ..      B        0x568 ; __aeabi_idiv + 196
        0x00000566:    0989        ..      LSRS     r1,r1,#6
        0x00000568:    09c3        ..      LSRS     r3,r0,#7
        0x0000056a:    428b        .B      CMP      r3,r1
        0x0000056c:    d301        ..      BCC      0x572 ; __aeabi_idiv + 206
        0x0000056e:    01cb        ..      LSLS     r3,r1,#7
        0x00000570:    1ac0        ..      SUBS     r0,r0,r3
        0x00000572:    4152        RA      ADCS     r2,r2,r2
        0x00000574:    0983        ..      LSRS     r3,r0,#6
        0x00000576:    428b        .B      CMP      r3,r1
        0x00000578:    d301        ..      BCC      0x57e ; __aeabi_idiv + 218
        0x0000057a:    018b        ..      LSLS     r3,r1,#6
        0x0000057c:    1ac0        ..      SUBS     r0,r0,r3
        0x0000057e:    4152        RA      ADCS     r2,r2,r2
        0x00000580:    0943        C.      LSRS     r3,r0,#5
        0x00000582:    428b        .B      CMP      r3,r1
        0x00000584:    d301        ..      BCC      0x58a ; __aeabi_idiv + 230
        0x00000586:    014b        K.      LSLS     r3,r1,#5
        0x00000588:    1ac0        ..      SUBS     r0,r0,r3
        0x0000058a:    4152        RA      ADCS     r2,r2,r2
        0x0000058c:    0903        ..      LSRS     r3,r0,#4
        0x0000058e:    428b        .B      CMP      r3,r1
        0x00000590:    d301        ..      BCC      0x596 ; __aeabi_idiv + 242
        0x00000592:    010b        ..      LSLS     r3,r1,#4
        0x00000594:    1ac0        ..      SUBS     r0,r0,r3
        0x00000596:    4152        RA      ADCS     r2,r2,r2
        0x00000598:    08c3        ..      LSRS     r3,r0,#3
        0x0000059a:    428b        .B      CMP      r3,r1
        0x0000059c:    d301        ..      BCC      0x5a2 ; __aeabi_idiv + 254
        0x0000059e:    00cb        ..      LSLS     r3,r1,#3
        0x000005a0:    1ac0        ..      SUBS     r0,r0,r3
        0x000005a2:    4152        RA      ADCS     r2,r2,r2
        0x000005a4:    0883        ..      LSRS     r3,r0,#2
        0x000005a6:    428b        .B      CMP      r3,r1
        0x000005a8:    d301        ..      BCC      0x5ae ; __aeabi_idiv + 266
        0x000005aa:    008b        ..      LSLS     r3,r1,#2
        0x000005ac:    1ac0        ..      SUBS     r0,r0,r3
        0x000005ae:    4152        RA      ADCS     r2,r2,r2
        0x000005b0:    d2d9        ..      BCS      0x566 ; __aeabi_idiv + 194
        0x000005b2:    0843        C.      LSRS     r3,r0,#1
        0x000005b4:    428b        .B      CMP      r3,r1
        0x000005b6:    d301        ..      BCC      0x5bc ; __aeabi_idiv + 280
        0x000005b8:    004b        K.      LSLS     r3,r1,#1
        0x000005ba:    1ac0        ..      SUBS     r0,r0,r3
        0x000005bc:    4152        RA      ADCS     r2,r2,r2
        0x000005be:    1a41        A.      SUBS     r1,r0,r1
        0x000005c0:    d200        ..      BCS      0x5c4 ; __aeabi_idiv + 288
        0x000005c2:    4601        .F      MOV      r1,r0
        0x000005c4:    4663        cF      MOV      r3,r12
        0x000005c6:    4152        RA      ADCS     r2,r2,r2
        0x000005c8:    105b        [.      ASRS     r3,r3,#1
        0x000005ca:    4610        .F      MOV      r0,r2
        0x000005cc:    d301        ..      BCC      0x5d2 ; __aeabi_idiv + 302
        0x000005ce:    4240        @B      RSBS     r0,r0,#0
        0x000005d0:    2b00        .+      CMP      r3,#0
        0x000005d2:    d500        ..      BPL      0x5d6 ; __aeabi_idiv + 306
        0x000005d4:    4249        IB      RSBS     r1,r1,#0
        0x000005d6:    4770        pG      BX       lr
        0x000005d8:    4663        cF      MOV      r3,r12
        0x000005da:    105b        [.      ASRS     r3,r3,#1
        0x000005dc:    d300        ..      BCC      0x5e0 ; __aeabi_idiv + 316
        0x000005de:    4240        @B      RSBS     r0,r0,#0
        0x000005e0:    b501        ..      PUSH     {r0,lr}
        0x000005e2:    2000        .       MOVS     r0,#0
        0x000005e4:    46c0        .F      MOV      r8,r8
        0x000005e6:    46c0        .F      MOV      r8,r8
        0x000005e8:    bd02        ..      POP      {r1,pc}
    .text
    __use_two_region_memory
        0x000005ea:    4770        pG      BX       lr
    __rt_heap_escrow$2region
        0x000005ec:    4770        pG      BX       lr
    __rt_heap_expand$2region
        0x000005ee:    4770        pG      BX       lr
    .text
    _printf_int_common
        0x000005f0:    b5ff        ..      PUSH     {r0-r7,lr}
        0x000005f2:    4604        .F      MOV      r4,r0
        0x000005f4:    460d        .F      MOV      r5,r1
        0x000005f6:    b081        ..      SUB      sp,sp,#4
        0x000005f8:    3024        $0      ADDS     r0,r0,#0x24
        0x000005fa:    9000        ..      STR      r0,[sp,#0]
        0x000005fc:    6821        !h      LDR      r1,[r4,#0]
        0x000005fe:    0688        ..      LSLS     r0,r1,#26
        0x00000600:    d504        ..      BPL      0x60c ; _printf_int_common + 28
        0x00000602:    2210        ."      MOVS     r2,#0x10
        0x00000604:    69e0        .i      LDR      r0,[r4,#0x1c]
        0x00000606:    4391        .C      BICS     r1,r1,r2
        0x00000608:    6021        !`      STR      r1,[r4,#0]
        0x0000060a:    e000        ..      B        0x60e ; _printf_int_common + 30
        0x0000060c:    2001        .       MOVS     r0,#1
        0x0000060e:    42a8        .B      CMP      r0,r5
        0x00000610:    dd01        ..      BLE      0x616 ; _printf_int_common + 38
        0x00000612:    1b47        G.      SUBS     r7,r0,r5
        0x00000614:    e000        ..      B        0x618 ; _printf_int_common + 40
        0x00000616:    2700        .'      MOVS     r7,#0
        0x00000618:    9804        ..      LDR      r0,[sp,#0x10]
        0x0000061a:    69a1        .i      LDR      r1,[r4,#0x18]
        0x0000061c:    197a        z.      ADDS     r2,r7,r5
        0x0000061e:    1810        ..      ADDS     r0,r2,r0
        0x00000620:    1a08        ..      SUBS     r0,r1,r0
        0x00000622:    61a0        .a      STR      r0,[r4,#0x18]
        0x00000624:    6820         h      LDR      r0,[r4,#0]
        0x00000626:    06c0        ..      LSLS     r0,r0,#27
        0x00000628:    d402        ..      BMI      0x630 ; _printf_int_common + 64
        0x0000062a:    4620         F      MOV      r0,r4
        0x0000062c:    f7fffe0a    ....    BL       _printf_pre_padding ; 0x244
        0x00000630:    2600        .&      MOVS     r6,#0
        0x00000632:    e008        ..      B        0x646 ; _printf_int_common + 86
        0x00000634:    9803        ..      LDR      r0,[sp,#0xc]
        0x00000636:    6862        bh      LDR      r2,[r4,#4]
        0x00000638:    68a1        .h      LDR      r1,[r4,#8]
        0x0000063a:    5d80        .]      LDRB     r0,[r0,r6]
        0x0000063c:    4790        .G      BLX      r2
        0x0000063e:    6a20         j      LDR      r0,[r4,#0x20]
        0x00000640:    1c40        @.      ADDS     r0,r0,#1
        0x00000642:    1c76        v.      ADDS     r6,r6,#1
        0x00000644:    6220         b      STR      r0,[r4,#0x20]
        0x00000646:    9804        ..      LDR      r0,[sp,#0x10]
        0x00000648:    4286        .B      CMP      r6,r0
        0x0000064a:    dbf3        ..      BLT      0x634 ; _printf_int_common + 68
        0x0000064c:    6820         h      LDR      r0,[r4,#0]
        0x0000064e:    06c0        ..      LSLS     r0,r0,#27
        0x00000650:    d50a        ..      BPL      0x668 ; _printf_int_common + 120
        0x00000652:    4620         F      MOV      r0,r4
        0x00000654:    f7fffdf6    ....    BL       _printf_pre_padding ; 0x244
        0x00000658:    e006        ..      B        0x668 ; _printf_int_common + 120
        0x0000065a:    6862        bh      LDR      r2,[r4,#4]
        0x0000065c:    68a1        .h      LDR      r1,[r4,#8]
        0x0000065e:    2030        0       MOVS     r0,#0x30
        0x00000660:    4790        .G      BLX      r2
        0x00000662:    6a20         j      LDR      r0,[r4,#0x20]
        0x00000664:    1c40        @.      ADDS     r0,r0,#1
        0x00000666:    6220         b      STR      r0,[r4,#0x20]
        0x00000668:    4638        8F      MOV      r0,r7
        0x0000066a:    1e7f        ..      SUBS     r7,r7,#1
        0x0000066c:    2800        .(      CMP      r0,#0
        0x0000066e:    dcf4        ..      BGT      0x65a ; _printf_int_common + 106
        0x00000670:    e007        ..      B        0x682 ; _printf_int_common + 146
        0x00000672:    9800        ..      LDR      r0,[sp,#0]
        0x00000674:    6862        bh      LDR      r2,[r4,#4]
        0x00000676:    68a1        .h      LDR      r1,[r4,#8]
        0x00000678:    5d40        @]      LDRB     r0,[r0,r5]
        0x0000067a:    4790        .G      BLX      r2
        0x0000067c:    6a20         j      LDR      r0,[r4,#0x20]
        0x0000067e:    1c40        @.      ADDS     r0,r0,#1
        0x00000680:    6220         b      STR      r0,[r4,#0x20]
        0x00000682:    4628        (F      MOV      r0,r5
        0x00000684:    1e6d        m.      SUBS     r5,r5,#1
        0x00000686:    2800        .(      CMP      r0,#0
        0x00000688:    dcf3        ..      BGT      0x672 ; _printf_int_common + 130
        0x0000068a:    4620         F      MOV      r0,r4
        0x0000068c:    f7fffdf0    ....    BL       _printf_post_padding ; 0x270
        0x00000690:    6820         h      LDR      r0,[r4,#0]
        0x00000692:    0600        ..      LSLS     r0,r0,#24
        0x00000694:    d502        ..      BPL      0x69c ; _printf_int_common + 172
        0x00000696:    2002        .       MOVS     r0,#2
        0x00000698:    b005        ..      ADD      sp,sp,#0x14
        0x0000069a:    bdf0        ..      POP      {r4-r7,pc}
        0x0000069c:    2001        .       MOVS     r0,#1
        0x0000069e:    e7fb        ..      B        0x698 ; _printf_int_common + 168
    .text
    _printf_input_char
        0x000006a0:    6901        .i      LDR      r1,[r0,#0x10]
        0x000006a2:    1c4a        J.      ADDS     r2,r1,#1
        0x000006a4:    6102        .a      STR      r2,[r0,#0x10]
        0x000006a6:    7808        .x      LDRB     r0,[r1,#0]
        0x000006a8:    4770        pG      BX       lr
    _printf_char_common
        0x000006aa:    b500        ..      PUSH     {lr}
        0x000006ac:    b08f        ..      SUB      sp,sp,#0x3c
        0x000006ae:    9102        ..      STR      r1,[sp,#8]
        0x000006b0:    2100        .!      MOVS     r1,#0
        0x000006b2:    9105        ..      STR      r1,[sp,#0x14]
        0x000006b4:    4905        .I      LDR      r1,[pc,#20] ; [0x6cc] = 0xffffffe5
        0x000006b6:    9301        ..      STR      r3,[sp,#4]
        0x000006b8:    4479        yD      ADD      r1,r1,pc
        0x000006ba:    9103        ..      STR      r1,[sp,#0xc]
        0x000006bc:    4611        .F      MOV      r1,r2
        0x000006be:    9004        ..      STR      r0,[sp,#0x10]
        0x000006c0:    4668        hF      MOV      r0,sp
        0x000006c2:    f7fffe49    ..I.    BL       __printf ; 0x358
        0x000006c6:    b00f        ..      ADD      sp,sp,#0x3c
        0x000006c8:    bd00        ..      POP      {pc}
    $d
        0x000006ca:    0000        ..      DCW    0
        0x000006cc:    ffffffe5    ....    DCD    4294967269
    $t
    .text
    _sputc
        0x000006d0:    680a        .h      LDR      r2,[r1,#0]
        0x000006d2:    7010        .p      STRB     r0,[r2,#0]
        0x000006d4:    1c52        R.      ADDS     r2,r2,#1
        0x000006d6:    600a        .`      STR      r2,[r1,#0]
        0x000006d8:    4770        pG      BX       lr
    .text
    __rt_udiv10
        0x000006da:    4601        .F      MOV      r1,r0
        0x000006dc:    0880        ..      LSRS     r0,r0,#2
        0x000006de:    1a08        ..      SUBS     r0,r1,r0
        0x000006e0:    0902        ..      LSRS     r2,r0,#4
        0x000006e2:    1810        ..      ADDS     r0,r2,r0
        0x000006e4:    0a02        ..      LSRS     r2,r0,#8
        0x000006e6:    1810        ..      ADDS     r0,r2,r0
        0x000006e8:    0c02        ..      LSRS     r2,r0,#16
        0x000006ea:    1810        ..      ADDS     r0,r2,r0
        0x000006ec:    08c0        ..      LSRS     r0,r0,#3
        0x000006ee:    0082        ..      LSLS     r2,r0,#2
        0x000006f0:    1812        ..      ADDS     r2,r2,r0
        0x000006f2:    0052        R.      LSLS     r2,r2,#1
        0x000006f4:    1a89        ..      SUBS     r1,r1,r2
        0x000006f6:    e001        ..      B        0x6fc ; __rt_udiv10 + 34
        0x000006f8:    390a        .9      SUBS     r1,r1,#0xa
        0x000006fa:    1c40        @.      ADDS     r0,r0,#1
        0x000006fc:    290a        .)      CMP      r1,#0xa
        0x000006fe:    d2fb        ..      BCS      0x6f8 ; __rt_udiv10 + 30
        0x00000700:    4770        pG      BX       lr
    .text
    __user_setup_stackheap
        0x00000702:    4675        uF      MOV      r5,lr
        0x00000704:    f000f822    ..".    BL       __user_libspace ; 0x74c
        0x00000708:    46ae        .F      MOV      lr,r5
        0x0000070a:    0005        ..      MOVS     r5,r0
        0x0000070c:    4669        iF      MOV      r1,sp
        0x0000070e:    4653        SF      MOV      r3,r10
        0x00000710:    08c0        ..      LSRS     r0,r0,#3
        0x00000712:    00c0        ..      LSLS     r0,r0,#3
        0x00000714:    4685        .F      MOV      sp,r0
        0x00000716:    b018        ..      ADD      sp,sp,#0x60
        0x00000718:    b520         .      PUSH     {r5,lr}
        0x0000071a:    f7fffd63    ..c.    BL       __user_initial_stackheap ; 0x1e4
        0x0000071e:    bc60        `.      POP      {r5,r6}
        0x00000720:    2700        .'      MOVS     r7,#0
        0x00000722:    0849        I.      LSRS     r1,r1,#1
        0x00000724:    46b6        .F      MOV      lr,r6
        0x00000726:    2600        .&      MOVS     r6,#0
        0x00000728:    c5c0        ..      STM      r5!,{r6,r7}
        0x0000072a:    c5c0        ..      STM      r5!,{r6,r7}
        0x0000072c:    c5c0        ..      STM      r5!,{r6,r7}
        0x0000072e:    c5c0        ..      STM      r5!,{r6,r7}
        0x00000730:    c5c0        ..      STM      r5!,{r6,r7}
        0x00000732:    c5c0        ..      STM      r5!,{r6,r7}
        0x00000734:    c5c0        ..      STM      r5!,{r6,r7}
        0x00000736:    c5c0        ..      STM      r5!,{r6,r7}
        0x00000738:    3d40        @=      SUBS     r5,r5,#0x40
        0x0000073a:    0049        I.      LSLS     r1,r1,#1
        0x0000073c:    468d        .F      MOV      sp,r1
        0x0000073e:    4770        pG      BX       lr
    .text
    exit
        0x00000740:    4604        .F      MOV      r4,r0
        0x00000742:    46c0        .F      MOV      r8,r8
        0x00000744:    46c0        .F      MOV      r8,r8
        0x00000746:    4620         F      MOV      r0,r4
        0x00000748:    f7fffd14    ....    BL       __rt_exit ; 0x174
    .text
    __user_libspace
    __user_perproc_libspace
    __user_perthread_libspace
        0x0000074c:    4800        .H      LDR      r0,[pc,#0] ; [0x750] = 0x200006c0
        0x0000074e:    4770        pG      BX       lr
    $d
        0x00000750:    200006c0    ...     DCD    536872640
    $t
    .text
    _sys_exit
        0x00000754:    4901        .I      LDR      r1,[pc,#4] ; [0x75c] = 0x20026
        0x00000756:    2018        .       MOVS     r0,#0x18
        0x00000758:    beab        ..      BKPT     #0xab
        0x0000075a:    e7fe        ..      B        0x75a ; _sys_exit + 6
    $d
        0x0000075c:    00020026    &...    DCD    131110
    $t
    .text
    __I$use$semihosting
    __use_no_semihosting_swi
        0x00000760:    4770        pG      BX       lr
    .text
    __semihosting_library_function
        0x00000762:    0000        ..      MOVS     r0,r0
    i.BOD_IRQHandler
    BOD_IRQHandler
        0x00000764:    b510        ..      PUSH     {r4,lr}
        0x00000766:    2005        .       MOVS     r0,#5
        0x00000768:    0700        ..      LSLS     r0,r0,#28
        0x0000076a:    6980        .i      LDR      r0,[r0,#0x18]
        0x0000076c:    2110        .!      MOVS     r1,#0x10
        0x0000076e:    4388        .C      BICS     r0,r0,r1
        0x00000770:    3010        .0      ADDS     r0,r0,#0x10
        0x00000772:    2105        .!      MOVS     r1,#5
        0x00000774:    0709        ..      LSLS     r1,r1,#28
        0x00000776:    6188        .a      STR      r0,[r1,#0x18]
        0x00000778:    4803        .H      LDR      r0,[pc,#12] ; [0x788] = 0x2000062c
        0x0000077a:    6800        .h      LDR      r0,[r0,#0]
        0x0000077c:    2800        .(      CMP      r0,#0
        0x0000077e:    d002        ..      BEQ      0x786 ; BOD_IRQHandler + 34
        0x00000780:    4801        .H      LDR      r0,[pc,#4] ; [0x788] = 0x2000062c
        0x00000782:    6800        .h      LDR      r0,[r0,#0]
        0x00000784:    4780        .G      BLX      r0
        0x00000786:    bd10        ..      POP      {r4,pc}
    $d
        0x00000788:    2000062c    ,..     DCD    536872492
    $t
    i.DrvGPIO_ClrBit
    DrvGPIO_ClrBit
        0x0000078c:    b510        ..      PUSH     {r4,lr}
        0x0000078e:    4603        .F      MOV      r3,r0
        0x00000790:    2900        .)      CMP      r1,#0
        0x00000792:    db01        ..      BLT      0x798 ; DrvGPIO_ClrBit + 12
        0x00000794:    2910        .)      CMP      r1,#0x10
        0x00000796:    dd01        ..      BLE      0x79c ; DrvGPIO_ClrBit + 16
        0x00000798:    4805        .H      LDR      r0,[pc,#20] ; [0x7b0] = 0xffff8901
        0x0000079a:    bd10        ..      POP      {r4,pc}
        0x0000079c:    0198        ..      LSLS     r0,r3,#6
        0x0000079e:    4c05        .L      LDR      r4,[pc,#20] ; [0x7b4] = 0x50004000
        0x000007a0:    1902        ..      ADDS     r2,r0,r4
        0x000007a2:    6890        .h      LDR      r0,[r2,#8]
        0x000007a4:    2401        .$      MOVS     r4,#1
        0x000007a6:    408c        .@      LSLS     r4,r4,r1
        0x000007a8:    43a0        .C      BICS     r0,r0,r4
        0x000007aa:    6090        .`      STR      r0,[r2,#8]
        0x000007ac:    2000        .       MOVS     r0,#0
        0x000007ae:    e7f4        ..      B        0x79a ; DrvGPIO_ClrBit + 14
    $d
        0x000007b0:    ffff8901    ....    DCD    4294936833
        0x000007b4:    50004000    .@.P    DCD    1342193664
    $t
    i.DrvGPIO_EnableEINT1
    DrvGPIO_EnableEINT1
        0x000007b8:    b5f8        ..      PUSH     {r3-r7,lr}
        0x000007ba:    4605        .F      MOV      r5,r0
        0x000007bc:    460e        .F      MOV      r6,r1
        0x000007be:    4617        .F      MOV      r7,r2
        0x000007c0:    2d02        .-      CMP      r5,#2
        0x000007c2:    d102        ..      BNE      0x7ca ; DrvGPIO_EnableEINT1 + 18
        0x000007c4:    2e01        ..      CMP      r6,#1
        0x000007c6:    d100        ..      BNE      0x7ca ; DrvGPIO_EnableEINT1 + 18
        0x000007c8:    bdf8        ..      POP      {r3-r7,pc}
        0x000007ca:    4c18        .L      LDR      r4,[pc,#96] ; [0x82c] = 0x5000405c
        0x000007cc:    2d00        .-      CMP      r5,#0
        0x000007ce:    d104        ..      BNE      0x7da ; DrvGPIO_EnableEINT1 + 34
        0x000007d0:    6820         h      LDR      r0,[r4,#0]
        0x000007d2:    0761        a.      LSLS     r1,r4,#29
        0x000007d4:    4308        .C      ORRS     r0,r0,r1
        0x000007d6:    6020         `      STR      r0,[r4,#0]
        0x000007d8:    e00c        ..      B        0x7f4 ; DrvGPIO_EnableEINT1 + 60
        0x000007da:    2d01        .-      CMP      r5,#1
        0x000007dc:    d104        ..      BNE      0x7e8 ; DrvGPIO_EnableEINT1 + 48
        0x000007de:    6820         h      LDR      r0,[r4,#0]
        0x000007e0:    03e9        ..      LSLS     r1,r5,#15
        0x000007e2:    4308        .C      ORRS     r0,r0,r1
        0x000007e4:    6020         `      STR      r0,[r4,#0]
        0x000007e6:    e005        ..      B        0x7f4 ; DrvGPIO_EnableEINT1 + 60
        0x000007e8:    2d02        .-      CMP      r5,#2
        0x000007ea:    d103        ..      BNE      0x7f4 ; DrvGPIO_EnableEINT1 + 60
        0x000007ec:    6820         h      LDR      r0,[r4,#0]
        0x000007ee:    4910        .I      LDR      r1,[pc,#64] ; [0x830] = 0x80008000
        0x000007f0:    4308        .C      ORRS     r0,r0,r1
        0x000007f2:    6020         `      STR      r0,[r4,#0]
        0x000007f4:    4c0d        .L      LDR      r4,[pc,#52] ; [0x82c] = 0x5000405c
        0x000007f6:    1f24        $.      SUBS     r4,r4,#4
        0x000007f8:    2e00        ..      CMP      r6,#0
        0x000007fa:    d105        ..      BNE      0x808 ; DrvGPIO_EnableEINT1 + 80
        0x000007fc:    6820         h      LDR      r0,[r4,#0]
        0x000007fe:    2101        .!      MOVS     r1,#1
        0x00000800:    03c9        ..      LSLS     r1,r1,#15
        0x00000802:    4388        .C      BICS     r0,r0,r1
        0x00000804:    6020         `      STR      r0,[r4,#0]
        0x00000806:    e005        ..      B        0x814 ; DrvGPIO_EnableEINT1 + 92
        0x00000808:    2e01        ..      CMP      r6,#1
        0x0000080a:    d103        ..      BNE      0x814 ; DrvGPIO_EnableEINT1 + 92
        0x0000080c:    6820         h      LDR      r0,[r4,#0]
        0x0000080e:    03f1        ..      LSLS     r1,r6,#15
        0x00000810:    4308        .C      ORRS     r0,r0,r1
        0x00000812:    6020         `      STR      r0,[r4,#0]
        0x00000814:    4807        .H      LDR      r0,[pc,#28] ; [0x834] = 0x2000064c
        0x00000816:    6007        .`      STR      r7,[r0,#0]
        0x00000818:    2102        .!      MOVS     r1,#2
        0x0000081a:    2003        .       MOVS     r0,#3
        0x0000081c:    f001f972    ..r.    BL       NVIC_SetPriority ; 0x1b04
        0x00000820:    2003        .       MOVS     r0,#3
        0x00000822:    f001f965    ..e.    BL       NVIC_EnableIRQ ; 0x1af0
        0x00000826:    bf00        ..      NOP      
        0x00000828:    e7ce        ..      B        0x7c8 ; DrvGPIO_EnableEINT1 + 16
    $d
        0x0000082a:    0000        ..      DCW    0
        0x0000082c:    5000405c    \@.P    DCD    1342193756
        0x00000830:    80008000    ....    DCD    2147516416
        0x00000834:    2000064c    L..     DCD    536872524
    $t
    i.DrvGPIO_GetBit
    DrvGPIO_GetBit
        0x00000838:    b510        ..      PUSH     {r4,lr}
        0x0000083a:    4602        .F      MOV      r2,r0
        0x0000083c:    2900        .)      CMP      r1,#0
        0x0000083e:    db01        ..      BLT      0x844 ; DrvGPIO_GetBit + 12
        0x00000840:    2910        .)      CMP      r1,#0x10
        0x00000842:    dd01        ..      BLE      0x848 ; DrvGPIO_GetBit + 16
        0x00000844:    4804        .H      LDR      r0,[pc,#16] ; [0x858] = 0xffff8901
        0x00000846:    bd10        ..      POP      {r4,pc}
        0x00000848:    4804        .H      LDR      r0,[pc,#16] ; [0x85c] = 0x50004010
        0x0000084a:    0194        ..      LSLS     r4,r2,#6
        0x0000084c:    1903        ..      ADDS     r3,r0,r4
        0x0000084e:    6818        .h      LDR      r0,[r3,#0]
        0x00000850:    40c8        .@      LSRS     r0,r0,r1
        0x00000852:    07c0        ..      LSLS     r0,r0,#31
        0x00000854:    0fc0        ..      LSRS     r0,r0,#31
        0x00000856:    e7f6        ..      B        0x846 ; DrvGPIO_GetBit + 14
    $d
        0x00000858:    ffff8901    ....    DCD    4294936833
        0x0000085c:    50004010    .@.P    DCD    1342193680
    $t
    i.DrvGPIO_InitFunction
    DrvGPIO_InitFunction
        0x00000860:    b510        ..      PUSH     {r4,lr}
        0x00000862:    4601        .F      MOV      r1,r0
        0x00000864:    000b        ..      MOVS     r3,r1
        0x00000866:    f001fdc7    ....    BL       __ARM_common_switch8 ; 0x23f8
    $d
        0x0000086a:    203e        >       DCW    8254
        0x0000086c:    5c4b412a    *AK\    DCD    1548435754
        0x00000870:    947e7d74    t}~.    DCD    2491317620
        0x00000874:    eff1b4a4    ....    DCD    4025595044
        0x00000878:    ebecedee    ....    DCD    3958173166
        0x0000087c:    e7e8e9ea    ....    DCD    3890801130
        0x00000880:    e3e4e5e6    ....    DCD    3823429094
        0x00000884:    dfe0e1e2    ....    DCD    3756057058
        0x00000888:    dbdcddde    ....    DCD    3688685022
        0x0000088c:    d7d8d9da    ....    DCD    3621312986
        0x00000890:    d3d4d5d6    ....    DCD    3553940950
        0x00000894:    cfd0d1d2    ....    DCD    3486568914
        0x00000898:    cbcccdce    ....    DCD    3419196878
        0x0000089c:    c7c8c9ca    ....    DCD    3351824842
        0x000008a0:    c3c4c5c6    ....    DCD    3284452806
        0x000008a4:    bfc0c1c2    ....    DCD    3217080770
        0x000008a8:    bdbe        ..      DCW    48574
    $t
        0x000008aa:    2000        .       MOVS     r0,#0
        0x000008ac:    2305        .#      MOVS     r3,#5
        0x000008ae:    071b        ..      LSLS     r3,r3,#28
        0x000008b0:    6318        .c      STR      r0,[r3,#0x30]
        0x000008b2:    6358        Xc      STR      r0,[r3,#0x34]
        0x000008b4:    6398        .c      STR      r0,[r3,#0x38]
        0x000008b6:    63d8        .c      STR      r0,[r3,#0x3c]
        0x000008b8:    4bfa        .K      LDR      r3,[pc,#1000] ; [0xca4] = 0x50000040
        0x000008ba:    6018        .`      STR      r0,[r3,#0]
        0x000008bc:    e371        q.      B        0xfa2 ; DrvGPIO_InitFunction + 1858
        0x000008be:    2005        .       MOVS     r0,#5
        0x000008c0:    0700        ..      LSLS     r0,r0,#28
        0x000008c2:    6b40        @k      LDR      r0,[r0,#0x34]
        0x000008c4:    2301        .#      MOVS     r3,#1
        0x000008c6:    031b        ..      LSLS     r3,r3,#12
        0x000008c8:    4318        .C      ORRS     r0,r0,r3
        0x000008ca:    2305        .#      MOVS     r3,#5
        0x000008cc:    071b        ..      LSLS     r3,r3,#28
        0x000008ce:    6358        Xc      STR      r0,[r3,#0x34]
        0x000008d0:    48f4        .H      LDR      r0,[pc,#976] ; [0xca4] = 0x50000040
        0x000008d2:    6900        .i      LDR      r0,[r0,#0x10]
        0x000008d4:    2301        .#      MOVS     r3,#1
        0x000008d6:    029b        ..      LSLS     r3,r3,#10
        0x000008d8:    4318        .C      ORRS     r0,r0,r3
        0x000008da:    4bf2        .K      LDR      r3,[pc,#968] ; [0xca4] = 0x50000040
        0x000008dc:    6118        .a      STR      r0,[r3,#0x10]
        0x000008de:    4618        .F      MOV      r0,r3
        0x000008e0:    6900        .i      LDR      r0,[r0,#0x10]
        0x000008e2:    015b        [.      LSLS     r3,r3,#5
        0x000008e4:    4398        .C      BICS     r0,r0,r3
        0x000008e6:    4bef        .K      LDR      r3,[pc,#956] ; [0xca4] = 0x50000040
        0x000008e8:    6118        .a      STR      r0,[r3,#0x10]
        0x000008ea:    e35a        Z.      B        0xfa2 ; DrvGPIO_InitFunction + 1858
        0x000008ec:    2005        .       MOVS     r0,#5
        0x000008ee:    0700        ..      LSLS     r0,r0,#28
        0x000008f0:    6b00        .k      LDR      r0,[r0,#0x30]
        0x000008f2:    2303        .#      MOVS     r3,#3
        0x000008f4:    021b        ..      LSLS     r3,r3,#8
        0x000008f6:    4318        .C      ORRS     r0,r0,r3
        0x000008f8:    2305        .#      MOVS     r3,#5
        0x000008fa:    071b        ..      LSLS     r3,r3,#28
        0x000008fc:    6318        .c      STR      r0,[r3,#0x30]
        0x000008fe:    e350        P.      B        0xfa2 ; DrvGPIO_InitFunction + 1858
        0x00000900:    2005        .       MOVS     r0,#5
        0x00000902:    0700        ..      LSLS     r0,r0,#28
        0x00000904:    6b00        .k      LDR      r0,[r0,#0x30]
        0x00000906:    2303        .#      MOVS     r3,#3
        0x00000908:    029b        ..      LSLS     r3,r3,#10
        0x0000090a:    4318        .C      ORRS     r0,r0,r3
        0x0000090c:    2305        .#      MOVS     r3,#5
        0x0000090e:    071b        ..      LSLS     r3,r3,#28
        0x00000910:    6318        .c      STR      r0,[r3,#0x30]
        0x00000912:    48e4        .H      LDR      r0,[pc,#912] ; [0xca4] = 0x50000040
        0x00000914:    6900        .i      LDR      r0,[r0,#0x10]
        0x00000916:    2301        .#      MOVS     r3,#1
        0x00000918:    02db        ..      LSLS     r3,r3,#11
        0x0000091a:    4398        .C      BICS     r0,r0,r3
        0x0000091c:    4be1        .K      LDR      r3,[pc,#900] ; [0xca4] = 0x50000040
        0x0000091e:    6118        .a      STR      r0,[r3,#0x10]
        0x00000920:    e33f        ?.      B        0xfa2 ; DrvGPIO_InitFunction + 1858
        0x00000922:    2005        .       MOVS     r0,#5
        0x00000924:    0700        ..      LSLS     r0,r0,#28
        0x00000926:    6b80        .k      LDR      r0,[r0,#0x38]
        0x00000928:    230f        .#      MOVS     r3,#0xf
        0x0000092a:    4318        .C      ORRS     r0,r0,r3
        0x0000092c:    2305        .#      MOVS     r3,#5
        0x0000092e:    071b        ..      LSLS     r3,r3,#28
        0x00000930:    6398        .c      STR      r0,[r3,#0x38]
        0x00000932:    4618        .F      MOV      r0,r3
        0x00000934:    6b00        .k      LDR      r0,[r0,#0x30]
        0x00000936:    2301        .#      MOVS     r3,#1
        0x00000938:    03db        ..      LSLS     r3,r3,#15
        0x0000093a:    4318        .C      ORRS     r0,r0,r3
        0x0000093c:    2305        .#      MOVS     r3,#5
        0x0000093e:    071b        ..      LSLS     r3,r3,#28
        0x00000940:    6318        .c      STR      r0,[r3,#0x30]
        0x00000942:    48d8        .H      LDR      r0,[pc,#864] ; [0xca4] = 0x50000040
        0x00000944:    6900        .i      LDR      r0,[r0,#0x10]
        0x00000946:    231f        .#      MOVS     r3,#0x1f
        0x00000948:    015b        [.      LSLS     r3,r3,#5
        0x0000094a:    4318        .C      ORRS     r0,r0,r3
        0x0000094c:    4bd5        .K      LDR      r3,[pc,#852] ; [0xca4] = 0x50000040
        0x0000094e:    6118        .a      STR      r0,[r3,#0x10]
        0x00000950:    e327        '.      B        0xfa2 ; DrvGPIO_InitFunction + 1858
        0x00000952:    2005        .       MOVS     r0,#5
        0x00000954:    0700        ..      LSLS     r0,r0,#28
        0x00000956:    6bc0        .k      LDR      r0,[r0,#0x3c]
        0x00000958:    23c0        .#      MOVS     r3,#0xc0
        0x0000095a:    4318        .C      ORRS     r0,r0,r3
        0x0000095c:    2305        .#      MOVS     r3,#5
        0x0000095e:    071b        ..      LSLS     r3,r3,#28
        0x00000960:    63d8        .c      STR      r0,[r3,#0x3c]
        0x00000962:    e31e        ..      B        0xfa2 ; DrvGPIO_InitFunction + 1858
        0x00000964:    bf00        ..      NOP      
        0x00000966:    2906        .)      CMP      r1,#6
        0x00000968:    d101        ..      BNE      0x96e ; DrvGPIO_InitFunction + 270
        0x0000096a:    2206        ."      MOVS     r2,#6
        0x0000096c:    e000        ..      B        0x970 ; DrvGPIO_InitFunction + 272
        0x0000096e:    220e        ."      MOVS     r2,#0xe
        0x00000970:    2005        .       MOVS     r0,#5
        0x00000972:    0700        ..      LSLS     r0,r0,#28
        0x00000974:    6b80        .k      LDR      r0,[r0,#0x38]
        0x00000976:    2303        .#      MOVS     r3,#3
        0x00000978:    4093        .@      LSLS     r3,r3,r2
        0x0000097a:    4318        .C      ORRS     r0,r0,r3
        0x0000097c:    2305        .#      MOVS     r3,#5
        0x0000097e:    071b        ..      LSLS     r3,r3,#28
        0x00000980:    6398        .c      STR      r0,[r3,#0x38]
        0x00000982:    48c8        .H      LDR      r0,[pc,#800] ; [0xca4] = 0x50000040
        0x00000984:    6900        .i      LDR      r0,[r0,#0x10]
        0x00000986:    2301        .#      MOVS     r3,#1
        0x00000988:    02db        ..      LSLS     r3,r3,#11
        0x0000098a:    4398        .C      BICS     r0,r0,r3
        0x0000098c:    4bc5        .K      LDR      r3,[pc,#788] ; [0xca4] = 0x50000040
        0x0000098e:    6118        .a      STR      r0,[r3,#0x10]
        0x00000990:    e307        ..      B        0xfa2 ; DrvGPIO_InitFunction + 1858
        0x00000992:    2005        .       MOVS     r0,#5
        0x00000994:    0700        ..      LSLS     r0,r0,#28
        0x00000996:    6b80        .k      LDR      r0,[r0,#0x38]
        0x00000998:    230f        .#      MOVS     r3,#0xf
        0x0000099a:    4318        .C      ORRS     r0,r0,r3
        0x0000099c:    2305        .#      MOVS     r3,#5
        0x0000099e:    071b        ..      LSLS     r3,r3,#28
        0x000009a0:    6398        .c      STR      r0,[r3,#0x38]
        0x000009a2:    48c0        .H      LDR      r0,[pc,#768] ; [0xca4] = 0x50000040
        0x000009a4:    6900        .i      LDR      r0,[r0,#0x10]
        0x000009a6:    23ff        .#      MOVS     r3,#0xff
        0x000009a8:    33e1        .3      ADDS     r3,r3,#0xe1
        0x000009aa:    4398        .C      BICS     r0,r0,r3
        0x000009ac:    4bbd        .K      LDR      r3,[pc,#756] ; [0xca4] = 0x50000040
        0x000009ae:    6118        .a      STR      r0,[r3,#0x10]
        0x000009b0:    e2f7        ..      B        0xfa2 ; DrvGPIO_InitFunction + 1858
        0x000009b2:    2005        .       MOVS     r0,#5
        0x000009b4:    0700        ..      LSLS     r0,r0,#28
        0x000009b6:    6b40        @k      LDR      r0,[r0,#0x34]
        0x000009b8:    2301        .#      MOVS     r3,#1
        0x000009ba:    029b        ..      LSLS     r3,r3,#10
        0x000009bc:    4318        .C      ORRS     r0,r0,r3
        0x000009be:    2305        .#      MOVS     r3,#5
        0x000009c0:    071b        ..      LSLS     r3,r3,#28
        0x000009c2:    6358        Xc      STR      r0,[r3,#0x34]
        0x000009c4:    48b7        .H      LDR      r0,[pc,#732] ; [0xca4] = 0x50000040
        0x000009c6:    6900        .i      LDR      r0,[r0,#0x10]
        0x000009c8:    2301        .#      MOVS     r3,#1
        0x000009ca:    4318        .C      ORRS     r0,r0,r3
        0x000009cc:    4bb5        .K      LDR      r3,[pc,#724] ; [0xca4] = 0x50000040
        0x000009ce:    6118        .a      STR      r0,[r3,#0x10]
        0x000009d0:    e2e7        ..      B        0xfa2 ; DrvGPIO_InitFunction + 1858
        0x000009d2:    2005        .       MOVS     r0,#5
        0x000009d4:    0700        ..      LSLS     r0,r0,#28
        0x000009d6:    6b80        .k      LDR      r0,[r0,#0x38]
        0x000009d8:    2330        0#      MOVS     r3,#0x30
        0x000009da:    4318        .C      ORRS     r0,r0,r3
        0x000009dc:    2305        .#      MOVS     r3,#5
        0x000009de:    071b        ..      LSLS     r3,r3,#28
        0x000009e0:    6398        .c      STR      r0,[r3,#0x38]
        0x000009e2:    e2de        ..      B        0xfa2 ; DrvGPIO_InitFunction + 1858
        0x000009e4:    e2db        ..      B        0xf9e ; DrvGPIO_InitFunction + 1854
        0x000009e6:    e264        d.      B        0xeb2 ; DrvGPIO_InitFunction + 1618
        0x000009e8:    e282        ..      B        0xef0 ; DrvGPIO_InitFunction + 1680
        0x000009ea:    e248        H.      B        0xe7e ; DrvGPIO_InitFunction + 1566
        0x000009ec:    e246        F.      B        0xe7c ; DrvGPIO_InitFunction + 1564
        0x000009ee:    e213        ..      B        0xe18 ; DrvGPIO_InitFunction + 1464
        0x000009f0:    e211        ..      B        0xe16 ; DrvGPIO_InitFunction + 1462
        0x000009f2:    e1d9        ..      B        0xda8 ; DrvGPIO_InitFunction + 1352
        0x000009f4:    e1d7        ..      B        0xda6 ; DrvGPIO_InitFunction + 1350
        0x000009f6:    e1b7        ..      B        0xd68 ; DrvGPIO_InitFunction + 1288
        0x000009f8:    e1b5        ..      B        0xd66 ; DrvGPIO_InitFunction + 1286
        0x000009fa:    e241        A.      B        0xe80 ; DrvGPIO_InitFunction + 1568
        0x000009fc:    e20d        ..      B        0xe1a ; DrvGPIO_InitFunction + 1466
        0x000009fe:    e1d4        ..      B        0xdaa ; DrvGPIO_InitFunction + 1354
        0x00000a00:    e1b3        ..      B        0xd6a ; DrvGPIO_InitFunction + 1290
        0x00000a02:    e1a6        ..      B        0xd52 ; DrvGPIO_InitFunction + 1266
        0x00000a04:    e165        e.      B        0xcd2 ; DrvGPIO_InitFunction + 1138
        0x00000a06:    e163        c.      B        0xcd0 ; DrvGPIO_InitFunction + 1136
        0x00000a08:    e161        a.      B        0xcce ; DrvGPIO_InitFunction + 1134
        0x00000a0a:    e15f        _.      B        0xccc ; DrvGPIO_InitFunction + 1132
        0x00000a0c:    e15d        ].      B        0xcca ; DrvGPIO_InitFunction + 1130
        0x00000a0e:    e15b        [.      B        0xcc8 ; DrvGPIO_InitFunction + 1128
        0x00000a10:    e14a        J.      B        0xca8 ; DrvGPIO_InitFunction + 1096
        0x00000a12:    e137        7.      B        0xc84 ; DrvGPIO_InitFunction + 1060
        0x00000a14:    e129        ).      B        0xc6a ; DrvGPIO_InitFunction + 1034
        0x00000a16:    e117        ..      B        0xc48 ; DrvGPIO_InitFunction + 1000
        0x00000a18:    e106        ..      B        0xc28 ; DrvGPIO_InitFunction + 968
        0x00000a1a:    e0f5        ..      B        0xc08 ; DrvGPIO_InitFunction + 936
        0x00000a1c:    e0e4        ..      B        0xbe8 ; DrvGPIO_InitFunction + 904
        0x00000a1e:    e0d9        ..      B        0xbd4 ; DrvGPIO_InitFunction + 884
        0x00000a20:    e0cc        ..      B        0xbbc ; DrvGPIO_InitFunction + 860
        0x00000a22:    e0c4        ..      B        0xbae ; DrvGPIO_InitFunction + 846
        0x00000a24:    e0a3        ..      B        0xb6e ; DrvGPIO_InitFunction + 782
        0x00000a26:    e0ae        ..      B        0xb86 ; DrvGPIO_InitFunction + 806
        0x00000a28:    e0ac        ..      B        0xb84 ; DrvGPIO_InitFunction + 804
        0x00000a2a:    e0aa        ..      B        0xb82 ; DrvGPIO_InitFunction + 802
        0x00000a2c:    e0a8        ..      B        0xb80 ; DrvGPIO_InitFunction + 800
        0x00000a2e:    e0a6        ..      B        0xb7e ; DrvGPIO_InitFunction + 798
        0x00000a30:    e0a4        ..      B        0xb7c ; DrvGPIO_InitFunction + 796
        0x00000a32:    e0b0        ..      B        0xb96 ; DrvGPIO_InitFunction + 822
        0x00000a34:    e092        ..      B        0xb5c ; DrvGPIO_InitFunction + 764
        0x00000a36:    e088        ..      B        0xb4a ; DrvGPIO_InitFunction + 746
        0x00000a38:    e07e        ~.      B        0xb38 ; DrvGPIO_InitFunction + 728
        0x00000a3a:    e073        s.      B        0xb24 ; DrvGPIO_InitFunction + 708
        0x00000a3c:    e062        b.      B        0xb04 ; DrvGPIO_InitFunction + 676
        0x00000a3e:    e057        W.      B        0xaf0 ; DrvGPIO_InitFunction + 656
        0x00000a40:    e04d        M.      B        0xade ; DrvGPIO_InitFunction + 638
        0x00000a42:    e037        7.      B        0xab4 ; DrvGPIO_InitFunction + 596
        0x00000a44:    e02d        -.      B        0xaa2 ; DrvGPIO_InitFunction + 578
        0x00000a46:    e022        ".      B        0xa8e ; DrvGPIO_InitFunction + 558
        0x00000a48:    e011        ..      B        0xa6e ; DrvGPIO_InitFunction + 526
        0x00000a4a:    e7ff        ..      B        0xa4c ; DrvGPIO_InitFunction + 492
        0x00000a4c:    2005        .       MOVS     r0,#5
        0x00000a4e:    0700        ..      LSLS     r0,r0,#28
        0x00000a50:    6b80        .k      LDR      r0,[r0,#0x38]
        0x00000a52:    230f        .#      MOVS     r3,#0xf
        0x00000a54:    021b        ..      LSLS     r3,r3,#8
        0x00000a56:    4318        .C      ORRS     r0,r0,r3
        0x00000a58:    2305        .#      MOVS     r3,#5
        0x00000a5a:    071b        ..      LSLS     r3,r3,#28
        0x00000a5c:    6398        .c      STR      r0,[r3,#0x38]
        0x00000a5e:    4891        .H      LDR      r0,[pc,#580] ; [0xca4] = 0x50000040
        0x00000a60:    6900        .i      LDR      r0,[r0,#0x10]
        0x00000a62:    2301        .#      MOVS     r3,#1
        0x00000a64:    02db        ..      LSLS     r3,r3,#11
        0x00000a66:    4398        .C      BICS     r0,r0,r3
        0x00000a68:    4b8e        .K      LDR      r3,[pc,#568] ; [0xca4] = 0x50000040
        0x00000a6a:    6118        .a      STR      r0,[r3,#0x10]
        0x00000a6c:    e299        ..      B        0xfa2 ; DrvGPIO_InitFunction + 1858
        0x00000a6e:    2005        .       MOVS     r0,#5
        0x00000a70:    0700        ..      LSLS     r0,r0,#28
        0x00000a72:    6b40        @k      LDR      r0,[r0,#0x34]
        0x00000a74:    2301        .#      MOVS     r3,#1
        0x00000a76:    025b        [.      LSLS     r3,r3,#9
        0x00000a78:    4318        .C      ORRS     r0,r0,r3
        0x00000a7a:    2305        .#      MOVS     r3,#5
        0x00000a7c:    071b        ..      LSLS     r3,r3,#28
        0x00000a7e:    6358        Xc      STR      r0,[r3,#0x34]
        0x00000a80:    4888        .H      LDR      r0,[pc,#544] ; [0xca4] = 0x50000040
        0x00000a82:    6900        .i      LDR      r0,[r0,#0x10]
        0x00000a84:    2302        .#      MOVS     r3,#2
        0x00000a86:    4318        .C      ORRS     r0,r0,r3
        0x00000a88:    4b86        .K      LDR      r3,[pc,#536] ; [0xca4] = 0x50000040
        0x00000a8a:    6118        .a      STR      r0,[r3,#0x10]
        0x00000a8c:    e289        ..      B        0xfa2 ; DrvGPIO_InitFunction + 1858
        0x00000a8e:    2005        .       MOVS     r0,#5
        0x00000a90:    0700        ..      LSLS     r0,r0,#28
        0x00000a92:    6b80        .k      LDR      r0,[r0,#0x38]
        0x00000a94:    2303        .#      MOVS     r3,#3
        0x00000a96:    031b        ..      LSLS     r3,r3,#12
        0x00000a98:    4318        .C      ORRS     r0,r0,r3
        0x00000a9a:    2305        .#      MOVS     r3,#5
        0x00000a9c:    071b        ..      LSLS     r3,r3,#28
        0x00000a9e:    6398        .c      STR      r0,[r3,#0x38]
        0x00000aa0:    e27f        ..      B        0xfa2 ; DrvGPIO_InitFunction + 1858
        0x00000aa2:    2005        .       MOVS     r0,#5
        0x00000aa4:    0700        ..      LSLS     r0,r0,#28
        0x00000aa6:    6bc0        .k      LDR      r0,[r0,#0x3c]
        0x00000aa8:    230f        .#      MOVS     r3,#0xf
        0x00000aaa:    4318        .C      ORRS     r0,r0,r3
        0x00000aac:    2305        .#      MOVS     r3,#5
        0x00000aae:    071b        ..      LSLS     r3,r3,#28
        0x00000ab0:    63d8        .c      STR      r0,[r3,#0x3c]
        0x00000ab2:    e276        v.      B        0xfa2 ; DrvGPIO_InitFunction + 1858
        0x00000ab4:    2005        .       MOVS     r0,#5
        0x00000ab6:    0700        ..      LSLS     r0,r0,#28
        0x00000ab8:    6b00        .k      LDR      r0,[r0,#0x30]
        0x00000aba:    2380        .#      MOVS     r3,#0x80
        0x00000abc:    4318        .C      ORRS     r0,r0,r3
        0x00000abe:    2305        .#      MOVS     r3,#5
        0x00000ac0:    071b        ..      LSLS     r3,r3,#28
        0x00000ac2:    6318        .c      STR      r0,[r3,#0x30]
        0x00000ac4:    4877        wH      LDR      r0,[pc,#476] ; [0xca4] = 0x50000040
        0x00000ac6:    6900        .i      LDR      r0,[r0,#0x10]
        0x00000ac8:    2304        .#      MOVS     r3,#4
        0x00000aca:    4318        .C      ORRS     r0,r0,r3
        0x00000acc:    4b75        uK      LDR      r3,[pc,#468] ; [0xca4] = 0x50000040
        0x00000ace:    6118        .a      STR      r0,[r3,#0x10]
        0x00000ad0:    4618        .F      MOV      r0,r3
        0x00000ad2:    6900        .i      LDR      r0,[r0,#0x10]
        0x00000ad4:    015b        [.      LSLS     r3,r3,#5
        0x00000ad6:    4398        .C      BICS     r0,r0,r3
        0x00000ad8:    4b72        rK      LDR      r3,[pc,#456] ; [0xca4] = 0x50000040
        0x00000ada:    6118        .a      STR      r0,[r3,#0x10]
        0x00000adc:    e261        a.      B        0xfa2 ; DrvGPIO_InitFunction + 1858
        0x00000ade:    2005        .       MOVS     r0,#5
        0x00000ae0:    0700        ..      LSLS     r0,r0,#28
        0x00000ae2:    6bc0        .k      LDR      r0,[r0,#0x3c]
        0x00000ae4:    2330        0#      MOVS     r3,#0x30
        0x00000ae6:    4318        .C      ORRS     r0,r0,r3
        0x00000ae8:    2305        .#      MOVS     r3,#5
        0x00000aea:    071b        ..      LSLS     r3,r3,#28
        0x00000aec:    63d8        .c      STR      r0,[r3,#0x3c]
        0x00000aee:    e258        X.      B        0xfa2 ; DrvGPIO_InitFunction + 1858
        0x00000af0:    2005        .       MOVS     r0,#5
        0x00000af2:    0700        ..      LSLS     r0,r0,#28
        0x00000af4:    6bc0        .k      LDR      r0,[r0,#0x3c]
        0x00000af6:    230f        .#      MOVS     r3,#0xf
        0x00000af8:    021b        ..      LSLS     r3,r3,#8
        0x00000afa:    4318        .C      ORRS     r0,r0,r3
        0x00000afc:    2305        .#      MOVS     r3,#5
        0x00000afe:    071b        ..      LSLS     r3,r3,#28
        0x00000b00:    63d8        .c      STR      r0,[r3,#0x3c]
        0x00000b02:    e24e        N.      B        0xfa2 ; DrvGPIO_InitFunction + 1858
        0x00000b04:    2005        .       MOVS     r0,#5
        0x00000b06:    0700        ..      LSLS     r0,r0,#28
        0x00000b08:    6b40        @k      LDR      r0,[r0,#0x34]
        0x00000b0a:    2301        .#      MOVS     r3,#1
        0x00000b0c:    039b        ..      LSLS     r3,r3,#14
        0x00000b0e:    4318        .C      ORRS     r0,r0,r3
        0x00000b10:    2305        .#      MOVS     r3,#5
        0x00000b12:    071b        ..      LSLS     r3,r3,#28
        0x00000b14:    6358        Xc      STR      r0,[r3,#0x34]
        0x00000b16:    4863        cH      LDR      r0,[pc,#396] ; [0xca4] = 0x50000040
        0x00000b18:    6900        .i      LDR      r0,[r0,#0x10]
        0x00000b1a:    2308        .#      MOVS     r3,#8
        0x00000b1c:    4318        .C      ORRS     r0,r0,r3
        0x00000b1e:    4b61        aK      LDR      r3,[pc,#388] ; [0xca4] = 0x50000040
        0x00000b20:    6118        .a      STR      r0,[r3,#0x10]
        0x00000b22:    e23e        >.      B        0xfa2 ; DrvGPIO_InitFunction + 1858
        0x00000b24:    2005        .       MOVS     r0,#5
        0x00000b26:    0700        ..      LSLS     r0,r0,#28
        0x00000b28:    6bc0        .k      LDR      r0,[r0,#0x3c]
        0x00000b2a:    2303        .#      MOVS     r3,#3
        0x00000b2c:    031b        ..      LSLS     r3,r3,#12
        0x00000b2e:    4318        .C      ORRS     r0,r0,r3
        0x00000b30:    2305        .#      MOVS     r3,#5
        0x00000b32:    071b        ..      LSLS     r3,r3,#28
        0x00000b34:    63d8        .c      STR      r0,[r3,#0x3c]
        0x00000b36:    e234        4.      B        0xfa2 ; DrvGPIO_InitFunction + 1858
        0x00000b38:    2005        .       MOVS     r0,#5
        0x00000b3a:    0700        ..      LSLS     r0,r0,#28
        0x00000b3c:    6b80        .k      LDR      r0,[r0,#0x38]
        0x00000b3e:    230f        .#      MOVS     r3,#0xf
        0x00000b40:    4318        .C      ORRS     r0,r0,r3
        0x00000b42:    2305        .#      MOVS     r3,#5
        0x00000b44:    071b        ..      LSLS     r3,r3,#28
        0x00000b46:    6398        .c      STR      r0,[r3,#0x38]
        0x00000b48:    e22b        +.      B        0xfa2 ; DrvGPIO_InitFunction + 1858
        0x00000b4a:    2005        .       MOVS     r0,#5
        0x00000b4c:    0700        ..      LSLS     r0,r0,#28
        0x00000b4e:    6bc0        .k      LDR      r0,[r0,#0x3c]
        0x00000b50:    2302        .#      MOVS     r3,#2
        0x00000b52:    4318        .C      ORRS     r0,r0,r3
        0x00000b54:    2305        .#      MOVS     r3,#5
        0x00000b56:    071b        ..      LSLS     r3,r3,#28
        0x00000b58:    63d8        .c      STR      r0,[r3,#0x3c]
        0x00000b5a:    e222        ".      B        0xfa2 ; DrvGPIO_InitFunction + 1858
        0x00000b5c:    2005        .       MOVS     r0,#5
        0x00000b5e:    0700        ..      LSLS     r0,r0,#28
        0x00000b60:    6bc0        .k      LDR      r0,[r0,#0x3c]
        0x00000b62:    2304        .#      MOVS     r3,#4
        0x00000b64:    4318        .C      ORRS     r0,r0,r3
        0x00000b66:    2305        .#      MOVS     r3,#5
        0x00000b68:    071b        ..      LSLS     r3,r3,#28
        0x00000b6a:    63d8        .c      STR      r0,[r3,#0x3c]
        0x00000b6c:    e219        ..      B        0xfa2 ; DrvGPIO_InitFunction + 1858
        0x00000b6e:    484d        MH      LDR      r0,[pc,#308] ; [0xca4] = 0x50000040
        0x00000b70:    6900        .i      LDR      r0,[r0,#0x10]
        0x00000b72:    2304        .#      MOVS     r3,#4
        0x00000b74:    4398        .C      BICS     r0,r0,r3
        0x00000b76:    4b4b        KK      LDR      r3,[pc,#300] ; [0xca4] = 0x50000040
        0x00000b78:    6118        .a      STR      r0,[r3,#0x10]
        0x00000b7a:    bf00        ..      NOP      
        0x00000b7c:    bf00        ..      NOP      
        0x00000b7e:    bf00        ..      NOP      
        0x00000b80:    bf00        ..      NOP      
        0x00000b82:    bf00        ..      NOP      
        0x00000b84:    bf00        ..      NOP      
        0x00000b86:    4847        GH      LDR      r0,[pc,#284] ; [0xca4] = 0x50000040
        0x00000b88:    6900        .i      LDR      r0,[r0,#0x10]
        0x00000b8a:    2301        .#      MOVS     r3,#1
        0x00000b8c:    02db        ..      LSLS     r3,r3,#11
        0x00000b8e:    4398        .C      BICS     r0,r0,r3
        0x00000b90:    4b44        DK      LDR      r3,[pc,#272] ; [0xca4] = 0x50000040
        0x00000b92:    6118        .a      STR      r0,[r3,#0x10]
        0x00000b94:    bf00        ..      NOP      
        0x00000b96:    2005        .       MOVS     r0,#5
        0x00000b98:    0700        ..      LSLS     r0,r0,#28
        0x00000b9a:    6b00        .k      LDR      r0,[r0,#0x30]
        0x00000b9c:    460b        .F      MOV      r3,r1
        0x00000b9e:    3b17        .;      SUBS     r3,r3,#0x17
        0x00000ba0:    2401        .$      MOVS     r4,#1
        0x00000ba2:    409c        .@      LSLS     r4,r4,r3
        0x00000ba4:    4320         C      ORRS     r0,r0,r4
        0x00000ba6:    2305        .#      MOVS     r3,#5
        0x00000ba8:    071b        ..      LSLS     r3,r3,#28
        0x00000baa:    6318        .c      STR      r0,[r3,#0x30]
        0x00000bac:    e1f9        ..      B        0xfa2 ; DrvGPIO_InitFunction + 1858
        0x00000bae:    483d        =H      LDR      r0,[pc,#244] ; [0xca4] = 0x50000040
        0x00000bb0:    6900        .i      LDR      r0,[r0,#0x10]
        0x00000bb2:    2308        .#      MOVS     r3,#8
        0x00000bb4:    4398        .C      BICS     r0,r0,r3
        0x00000bb6:    4b3b        ;K      LDR      r3,[pc,#236] ; [0xca4] = 0x50000040
        0x00000bb8:    6118        .a      STR      r0,[r3,#0x10]
        0x00000bba:    bf00        ..      NOP      
        0x00000bbc:    2005        .       MOVS     r0,#5
        0x00000bbe:    0700        ..      LSLS     r0,r0,#28
        0x00000bc0:    6b43        Ck      LDR      r3,[r0,#0x34]
        0x00000bc2:    4608        .F      MOV      r0,r1
        0x00000bc4:    3811        .8      SUBS     r0,r0,#0x11
        0x00000bc6:    2401        .$      MOVS     r4,#1
        0x00000bc8:    4084        .@      LSLS     r4,r4,r0
        0x00000bca:    4323        #C      ORRS     r3,r3,r4
        0x00000bcc:    2005        .       MOVS     r0,#5
        0x00000bce:    0700        ..      LSLS     r0,r0,#28
        0x00000bd0:    6343        Cc      STR      r3,[r0,#0x34]
        0x00000bd2:    e1e6        ..      B        0xfa2 ; DrvGPIO_InitFunction + 1858
        0x00000bd4:    2005        .       MOVS     r0,#5
        0x00000bd6:    0700        ..      LSLS     r0,r0,#28
        0x00000bd8:    6b40        @k      LDR      r0,[r0,#0x34]
        0x00000bda:    23ff        .#      MOVS     r3,#0xff
        0x00000bdc:    3301        .3      ADDS     r3,#1
        0x00000bde:    4318        .C      ORRS     r0,r0,r3
        0x00000be0:    2305        .#      MOVS     r3,#5
        0x00000be2:    071b        ..      LSLS     r3,r3,#28
        0x00000be4:    6358        Xc      STR      r0,[r3,#0x34]
        0x00000be6:    e1dc        ..      B        0xfa2 ; DrvGPIO_InitFunction + 1858
        0x00000be8:    2005        .       MOVS     r0,#5
        0x00000bea:    0700        ..      LSLS     r0,r0,#28
        0x00000bec:    6b40        @k      LDR      r0,[r0,#0x34]
        0x00000bee:    2301        .#      MOVS     r3,#1
        0x00000bf0:    025b        [.      LSLS     r3,r3,#9
        0x00000bf2:    4318        .C      ORRS     r0,r0,r3
        0x00000bf4:    2305        .#      MOVS     r3,#5
        0x00000bf6:    071b        ..      LSLS     r3,r3,#28
        0x00000bf8:    6358        Xc      STR      r0,[r3,#0x34]
        0x00000bfa:    482a        *H      LDR      r0,[pc,#168] ; [0xca4] = 0x50000040
        0x00000bfc:    6900        .i      LDR      r0,[r0,#0x10]
        0x00000bfe:    2302        .#      MOVS     r3,#2
        0x00000c00:    4398        .C      BICS     r0,r0,r3
        0x00000c02:    4b28        (K      LDR      r3,[pc,#160] ; [0xca4] = 0x50000040
        0x00000c04:    6118        .a      STR      r0,[r3,#0x10]
        0x00000c06:    e1cc        ..      B        0xfa2 ; DrvGPIO_InitFunction + 1858
        0x00000c08:    2005        .       MOVS     r0,#5
        0x00000c0a:    0700        ..      LSLS     r0,r0,#28
        0x00000c0c:    6b40        @k      LDR      r0,[r0,#0x34]
        0x00000c0e:    2301        .#      MOVS     r3,#1
        0x00000c10:    029b        ..      LSLS     r3,r3,#10
        0x00000c12:    4318        .C      ORRS     r0,r0,r3
        0x00000c14:    2305        .#      MOVS     r3,#5
        0x00000c16:    071b        ..      LSLS     r3,r3,#28
        0x00000c18:    6358        Xc      STR      r0,[r3,#0x34]
        0x00000c1a:    4822        "H      LDR      r0,[pc,#136] ; [0xca4] = 0x50000040
        0x00000c1c:    6900        .i      LDR      r0,[r0,#0x10]
        0x00000c1e:    0840        @.      LSRS     r0,r0,#1
        0x00000c20:    0040        @.      LSLS     r0,r0,#1
        0x00000c22:    4b20         K      LDR      r3,[pc,#128] ; [0xca4] = 0x50000040
        0x00000c24:    6118        .a      STR      r0,[r3,#0x10]
        0x00000c26:    e1bc        ..      B        0xfa2 ; DrvGPIO_InitFunction + 1858
        0x00000c28:    2005        .       MOVS     r0,#5
        0x00000c2a:    0700        ..      LSLS     r0,r0,#28
        0x00000c2c:    6b40        @k      LDR      r0,[r0,#0x34]
        0x00000c2e:    2301        .#      MOVS     r3,#1
        0x00000c30:    02db        ..      LSLS     r3,r3,#11
        0x00000c32:    4318        .C      ORRS     r0,r0,r3
        0x00000c34:    2305        .#      MOVS     r3,#5
        0x00000c36:    071b        ..      LSLS     r3,r3,#28
        0x00000c38:    6358        Xc      STR      r0,[r3,#0x34]
        0x00000c3a:    481a        .H      LDR      r0,[pc,#104] ; [0xca4] = 0x50000040
        0x00000c3c:    6900        .i      LDR      r0,[r0,#0x10]
        0x00000c3e:    2310        .#      MOVS     r3,#0x10
        0x00000c40:    4398        .C      BICS     r0,r0,r3
        0x00000c42:    4b18        .K      LDR      r3,[pc,#96] ; [0xca4] = 0x50000040
        0x00000c44:    6118        .a      STR      r0,[r3,#0x10]
        0x00000c46:    e1ac        ..      B        0xfa2 ; DrvGPIO_InitFunction + 1858
        0x00000c48:    2005        .       MOVS     r0,#5
        0x00000c4a:    0700        ..      LSLS     r0,r0,#28
        0x00000c4c:    6b40        @k      LDR      r0,[r0,#0x34]
        0x00000c4e:    2301        .#      MOVS     r3,#1
        0x00000c50:    03db        ..      LSLS     r3,r3,#15
        0x00000c52:    4318        .C      ORRS     r0,r0,r3
        0x00000c54:    2305        .#      MOVS     r3,#5
        0x00000c56:    071b        ..      LSLS     r3,r3,#28
        0x00000c58:    6358        Xc      STR      r0,[r3,#0x34]
        0x00000c5a:    4812        .H      LDR      r0,[pc,#72] ; [0xca4] = 0x50000040
        0x00000c5c:    6900        .i      LDR      r0,[r0,#0x10]
        0x00000c5e:    2301        .#      MOVS     r3,#1
        0x00000c60:    061b        ..      LSLS     r3,r3,#24
        0x00000c62:    4318        .C      ORRS     r0,r0,r3
        0x00000c64:    4b0f        .K      LDR      r3,[pc,#60] ; [0xca4] = 0x50000040
        0x00000c66:    6118        .a      STR      r0,[r3,#0x10]
        0x00000c68:    e19b        ..      B        0xfa2 ; DrvGPIO_InitFunction + 1858
        0x00000c6a:    480e        .H      LDR      r0,[pc,#56] ; [0xca4] = 0x50000040
        0x00000c6c:    6800        .h      LDR      r0,[r0,#0]
        0x00000c6e:    2320         #      MOVS     r3,#0x20
        0x00000c70:    4318        .C      ORRS     r0,r0,r3
        0x00000c72:    4b0c        .K      LDR      r3,[pc,#48] ; [0xca4] = 0x50000040
        0x00000c74:    6018        .`      STR      r0,[r3,#0]
        0x00000c76:    4618        .F      MOV      r0,r3
        0x00000c78:    6900        .i      LDR      r0,[r0,#0x10]
        0x00000c7a:    04db        ..      LSLS     r3,r3,#19
        0x00000c7c:    4318        .C      ORRS     r0,r0,r3
        0x00000c7e:    4b09        .K      LDR      r3,[pc,#36] ; [0xca4] = 0x50000040
        0x00000c80:    6118        .a      STR      r0,[r3,#0x10]
        0x00000c82:    e18e        ..      B        0xfa2 ; DrvGPIO_InitFunction + 1858
        0x00000c84:    2005        .       MOVS     r0,#5
        0x00000c86:    0700        ..      LSLS     r0,r0,#28
        0x00000c88:    6b40        @k      LDR      r0,[r0,#0x34]
        0x00000c8a:    2304        .#      MOVS     r3,#4
        0x00000c8c:    4318        .C      ORRS     r0,r0,r3
        0x00000c8e:    2305        .#      MOVS     r3,#5
        0x00000c90:    071b        ..      LSLS     r3,r3,#28
        0x00000c92:    6358        Xc      STR      r0,[r3,#0x34]
        0x00000c94:    4803        .H      LDR      r0,[pc,#12] ; [0xca4] = 0x50000040
        0x00000c96:    6900        .i      LDR      r0,[r0,#0x10]
        0x00000c98:    2301        .#      MOVS     r3,#1
        0x00000c9a:    069b        ..      LSLS     r3,r3,#26
        0x00000c9c:    4318        .C      ORRS     r0,r0,r3
        0x00000c9e:    4b01        .K      LDR      r3,[pc,#4] ; [0xca4] = 0x50000040
        0x00000ca0:    6118        .a      STR      r0,[r3,#0x10]
        0x00000ca2:    e17e        ~.      B        0xfa2 ; DrvGPIO_InitFunction + 1858
    $d
        0x00000ca4:    50000040    @..P    DCD    1342177344
    $t
        0x00000ca8:    2005        .       MOVS     r0,#5
        0x00000caa:    0700        ..      LSLS     r0,r0,#28
        0x00000cac:    6b40        @k      LDR      r0,[r0,#0x34]
        0x00000cae:    2308        .#      MOVS     r3,#8
        0x00000cb0:    4318        .C      ORRS     r0,r0,r3
        0x00000cb2:    2305        .#      MOVS     r3,#5
        0x00000cb4:    071b        ..      LSLS     r3,r3,#28
        0x00000cb6:    6358        Xc      STR      r0,[r3,#0x34]
        0x00000cb8:    48bb        .H      LDR      r0,[pc,#748] ; [0xfa8] = 0x50000040
        0x00000cba:    6900        .i      LDR      r0,[r0,#0x10]
        0x00000cbc:    2301        .#      MOVS     r3,#1
        0x00000cbe:    06db        ..      LSLS     r3,r3,#27
        0x00000cc0:    4318        .C      ORRS     r0,r0,r3
        0x00000cc2:    4bb9        .K      LDR      r3,[pc,#740] ; [0xfa8] = 0x50000040
        0x00000cc4:    6118        .a      STR      r0,[r3,#0x10]
        0x00000cc6:    e16c        l.      B        0xfa2 ; DrvGPIO_InitFunction + 1858
        0x00000cc8:    bf00        ..      NOP      
        0x00000cca:    bf00        ..      NOP      
        0x00000ccc:    bf00        ..      NOP      
        0x00000cce:    bf00        ..      NOP      
        0x00000cd0:    bf00        ..      NOP      
        0x00000cd2:    2929        ))      CMP      r1,#0x29
        0x00000cd4:    db03        ..      BLT      0xcde ; DrvGPIO_InitFunction + 1150
        0x00000cd6:    292b        +)      CMP      r1,#0x2b
        0x00000cd8:    dc01        ..      BGT      0xcde ; DrvGPIO_InitFunction + 1150
        0x00000cda:    2200        ."      MOVS     r2,#0
        0x00000cdc:    e000        ..      B        0xce0 ; DrvGPIO_InitFunction + 1152
        0x00000cde:    2204        ."      MOVS     r2,#4
        0x00000ce0:    2929        ))      CMP      r1,#0x29
        0x00000ce2:    d001        ..      BEQ      0xce8 ; DrvGPIO_InitFunction + 1160
        0x00000ce4:    292c        ,)      CMP      r1,#0x2c
        0x00000ce6:    d110        ..      BNE      0xd0a ; DrvGPIO_InitFunction + 1194
        0x00000ce8:    2005        .       MOVS     r0,#5
        0x00000cea:    0700        ..      LSLS     r0,r0,#28
        0x00000cec:    6b40        @k      LDR      r0,[r0,#0x34]
        0x00000cee:    230f        .#      MOVS     r3,#0xf
        0x00000cf0:    4093        .@      LSLS     r3,r3,r2
        0x00000cf2:    4318        .C      ORRS     r0,r0,r3
        0x00000cf4:    2305        .#      MOVS     r3,#5
        0x00000cf6:    071b        ..      LSLS     r3,r3,#28
        0x00000cf8:    6358        Xc      STR      r0,[r3,#0x34]
        0x00000cfa:    48ab        .H      LDR      r0,[pc,#684] ; [0xfa8] = 0x50000040
        0x00000cfc:    6900        .i      LDR      r0,[r0,#0x10]
        0x00000cfe:    2301        .#      MOVS     r3,#1
        0x00000d00:    02db        ..      LSLS     r3,r3,#11
        0x00000d02:    4398        .C      BICS     r0,r0,r3
        0x00000d04:    4ba8        .K      LDR      r3,[pc,#672] ; [0xfa8] = 0x50000040
        0x00000d06:    6118        .a      STR      r0,[r3,#0x10]
        0x00000d08:    e022        ".      B        0xd50 ; DrvGPIO_InitFunction + 1264
        0x00000d0a:    292a        *)      CMP      r1,#0x2a
        0x00000d0c:    d001        ..      BEQ      0xd12 ; DrvGPIO_InitFunction + 1202
        0x00000d0e:    292d        -)      CMP      r1,#0x2d
        0x00000d10:    d109        ..      BNE      0xd26 ; DrvGPIO_InitFunction + 1222
        0x00000d12:    2005        .       MOVS     r0,#5
        0x00000d14:    0700        ..      LSLS     r0,r0,#28
        0x00000d16:    6b40        @k      LDR      r0,[r0,#0x34]
        0x00000d18:    2303        .#      MOVS     r3,#3
        0x00000d1a:    4093        .@      LSLS     r3,r3,r2
        0x00000d1c:    4318        .C      ORRS     r0,r0,r3
        0x00000d1e:    2305        .#      MOVS     r3,#5
        0x00000d20:    071b        ..      LSLS     r3,r3,#28
        0x00000d22:    6358        Xc      STR      r0,[r3,#0x34]
        0x00000d24:    e014        ..      B        0xd50 ; DrvGPIO_InitFunction + 1264
        0x00000d26:    292b        +)      CMP      r1,#0x2b
        0x00000d28:    d001        ..      BEQ      0xd2e ; DrvGPIO_InitFunction + 1230
        0x00000d2a:    292e        .)      CMP      r1,#0x2e
        0x00000d2c:    d110        ..      BNE      0xd50 ; DrvGPIO_InitFunction + 1264
        0x00000d2e:    2005        .       MOVS     r0,#5
        0x00000d30:    0700        ..      LSLS     r0,r0,#28
        0x00000d32:    6b40        @k      LDR      r0,[r0,#0x34]
        0x00000d34:    1c93        ..      ADDS     r3,r2,#2
        0x00000d36:    2403        .$      MOVS     r4,#3
        0x00000d38:    409c        .@      LSLS     r4,r4,r3
        0x00000d3a:    4320         C      ORRS     r0,r0,r4
        0x00000d3c:    2305        .#      MOVS     r3,#5
        0x00000d3e:    071b        ..      LSLS     r3,r3,#28
        0x00000d40:    6358        Xc      STR      r0,[r3,#0x34]
        0x00000d42:    4899        .H      LDR      r0,[pc,#612] ; [0xfa8] = 0x50000040
        0x00000d44:    6900        .i      LDR      r0,[r0,#0x10]
        0x00000d46:    2301        .#      MOVS     r3,#1
        0x00000d48:    02db        ..      LSLS     r3,r3,#11
        0x00000d4a:    4398        .C      BICS     r0,r0,r3
        0x00000d4c:    4b96        .K      LDR      r3,[pc,#600] ; [0xfa8] = 0x50000040
        0x00000d4e:    6118        .a      STR      r0,[r3,#0x10]
        0x00000d50:    e127        '.      B        0xfa2 ; DrvGPIO_InitFunction + 1858
        0x00000d52:    2005        .       MOVS     r0,#5
        0x00000d54:    0700        ..      LSLS     r0,r0,#28
        0x00000d56:    6bc0        .k      LDR      r0,[r0,#0x3c]
        0x00000d58:    2303        .#      MOVS     r3,#3
        0x00000d5a:    039b        ..      LSLS     r3,r3,#14
        0x00000d5c:    4318        .C      ORRS     r0,r0,r3
        0x00000d5e:    2305        .#      MOVS     r3,#5
        0x00000d60:    071b        ..      LSLS     r3,r3,#28
        0x00000d62:    63d8        .c      STR      r0,[r3,#0x3c]
        0x00000d64:    e11d        ..      B        0xfa2 ; DrvGPIO_InitFunction + 1858
        0x00000d66:    bf00        ..      NOP      
        0x00000d68:    bf00        ..      NOP      
        0x00000d6a:    2930        0)      CMP      r1,#0x30
        0x00000d6c:    d108        ..      BNE      0xd80 ; DrvGPIO_InitFunction + 1312
        0x00000d6e:    2005        .       MOVS     r0,#5
        0x00000d70:    0700        ..      LSLS     r0,r0,#28
        0x00000d72:    6b00        .k      LDR      r0,[r0,#0x30]
        0x00000d74:    020b        ..      LSLS     r3,r1,#8
        0x00000d76:    4318        .C      ORRS     r0,r0,r3
        0x00000d78:    2305        .#      MOVS     r3,#5
        0x00000d7a:    071b        ..      LSLS     r3,r3,#28
        0x00000d7c:    6318        .c      STR      r0,[r3,#0x30]
        0x00000d7e:    e00a        ..      B        0xd96 ; DrvGPIO_InitFunction + 1334
        0x00000d80:    2005        .       MOVS     r0,#5
        0x00000d82:    0700        ..      LSLS     r0,r0,#28
        0x00000d84:    6b03        .k      LDR      r3,[r0,#0x30]
        0x00000d86:    4608        .F      MOV      r0,r1
        0x00000d88:    3828        (8      SUBS     r0,r0,#0x28
        0x00000d8a:    2401        .$      MOVS     r4,#1
        0x00000d8c:    4084        .@      LSLS     r4,r4,r0
        0x00000d8e:    4323        #C      ORRS     r3,r3,r4
        0x00000d90:    2005        .       MOVS     r0,#5
        0x00000d92:    0700        ..      LSLS     r0,r0,#28
        0x00000d94:    6303        .c      STR      r3,[r0,#0x30]
        0x00000d96:    4884        .H      LDR      r0,[pc,#528] ; [0xfa8] = 0x50000040
        0x00000d98:    6900        .i      LDR      r0,[r0,#0x10]
        0x00000d9a:    2301        .#      MOVS     r3,#1
        0x00000d9c:    02db        ..      LSLS     r3,r3,#11
        0x00000d9e:    4398        .C      BICS     r0,r0,r3
        0x00000da0:    4b81        .K      LDR      r3,[pc,#516] ; [0xfa8] = 0x50000040
        0x00000da2:    6118        .a      STR      r0,[r3,#0x10]
        0x00000da4:    e0fd        ..      B        0xfa2 ; DrvGPIO_InitFunction + 1858
        0x00000da6:    bf00        ..      NOP      
        0x00000da8:    bf00        ..      NOP      
        0x00000daa:    2931        1)      CMP      r1,#0x31
        0x00000dac:    d116        ..      BNE      0xddc ; DrvGPIO_InitFunction + 1404
        0x00000dae:    2005        .       MOVS     r0,#5
        0x00000db0:    0700        ..      LSLS     r0,r0,#28
        0x00000db2:    6b00        .k      LDR      r0,[r0,#0x30]
        0x00000db4:    2303        .#      MOVS     r3,#3
        0x00000db6:    039b        ..      LSLS     r3,r3,#14
        0x00000db8:    4318        .C      ORRS     r0,r0,r3
        0x00000dba:    2305        .#      MOVS     r3,#5
        0x00000dbc:    071b        ..      LSLS     r3,r3,#28
        0x00000dbe:    6318        .c      STR      r0,[r3,#0x30]
        0x00000dc0:    4879        yH      LDR      r0,[pc,#484] ; [0xfa8] = 0x50000040
        0x00000dc2:    6900        .i      LDR      r0,[r0,#0x10]
        0x00000dc4:    2301        .#      MOVS     r3,#1
        0x00000dc6:    025b        [.      LSLS     r3,r3,#9
        0x00000dc8:    4398        .C      BICS     r0,r0,r3
        0x00000dca:    4b77        wK      LDR      r3,[pc,#476] ; [0xfa8] = 0x50000040
        0x00000dcc:    6118        .a      STR      r0,[r3,#0x10]
        0x00000dce:    4618        .F      MOV      r0,r3
        0x00000dd0:    6900        .i      LDR      r0,[r0,#0x10]
        0x00000dd2:    015b        [.      LSLS     r3,r3,#5
        0x00000dd4:    4398        .C      BICS     r0,r0,r3
        0x00000dd6:    4b74        tK      LDR      r3,[pc,#464] ; [0xfa8] = 0x50000040
        0x00000dd8:    6118        .a      STR      r0,[r3,#0x10]
        0x00000dda:    e01b        ..      B        0xe14 ; DrvGPIO_InitFunction + 1460
        0x00000ddc:    2005        .       MOVS     r0,#5
        0x00000dde:    0700        ..      LSLS     r0,r0,#28
        0x00000de0:    6b03        .k      LDR      r3,[r0,#0x30]
        0x00000de2:    4608        .F      MOV      r0,r1
        0x00000de4:    3828        (8      SUBS     r0,r0,#0x28
        0x00000de6:    2401        .$      MOVS     r4,#1
        0x00000de8:    4084        .@      LSLS     r4,r4,r0
        0x00000dea:    4323        #C      ORRS     r3,r3,r4
        0x00000dec:    2005        .       MOVS     r0,#5
        0x00000dee:    0700        ..      LSLS     r0,r0,#28
        0x00000df0:    6303        .c      STR      r3,[r0,#0x30]
        0x00000df2:    2936        6)      CMP      r1,#0x36
        0x00000df4:    d107        ..      BNE      0xe06 ; DrvGPIO_InitFunction + 1446
        0x00000df6:    486c        lH      LDR      r0,[pc,#432] ; [0xfa8] = 0x50000040
        0x00000df8:    6900        .i      LDR      r0,[r0,#0x10]
        0x00000dfa:    2301        .#      MOVS     r3,#1
        0x00000dfc:    02db        ..      LSLS     r3,r3,#11
        0x00000dfe:    4398        .C      BICS     r0,r0,r3
        0x00000e00:    4b69        iK      LDR      r3,[pc,#420] ; [0xfa8] = 0x50000040
        0x00000e02:    6118        .a      STR      r0,[r3,#0x10]
        0x00000e04:    e006        ..      B        0xe14 ; DrvGPIO_InitFunction + 1460
        0x00000e06:    4868        hH      LDR      r0,[pc,#416] ; [0xfa8] = 0x50000040
        0x00000e08:    6900        .i      LDR      r0,[r0,#0x10]
        0x00000e0a:    2301        .#      MOVS     r3,#1
        0x00000e0c:    025b        [.      LSLS     r3,r3,#9
        0x00000e0e:    4398        .C      BICS     r0,r0,r3
        0x00000e10:    4b65        eK      LDR      r3,[pc,#404] ; [0xfa8] = 0x50000040
        0x00000e12:    6118        .a      STR      r0,[r3,#0x10]
        0x00000e14:    e0c5        ..      B        0xfa2 ; DrvGPIO_InitFunction + 1858
        0x00000e16:    bf00        ..      NOP      
        0x00000e18:    bf00        ..      NOP      
        0x00000e1a:    2932        2)      CMP      r1,#0x32
        0x00000e1c:    d115        ..      BNE      0xe4a ; DrvGPIO_InitFunction + 1514
        0x00000e1e:    2005        .       MOVS     r0,#5
        0x00000e20:    0700        ..      LSLS     r0,r0,#28
        0x00000e22:    6b40        @k      LDR      r0,[r0,#0x34]
        0x00000e24:    2301        .#      MOVS     r3,#1
        0x00000e26:    02db        ..      LSLS     r3,r3,#11
        0x00000e28:    4318        .C      ORRS     r0,r0,r3
        0x00000e2a:    2305        .#      MOVS     r3,#5
        0x00000e2c:    071b        ..      LSLS     r3,r3,#28
        0x00000e2e:    6358        Xc      STR      r0,[r3,#0x34]
        0x00000e30:    485d        ]H      LDR      r0,[pc,#372] ; [0xfa8] = 0x50000040
        0x00000e32:    6900        .i      LDR      r0,[r0,#0x10]
        0x00000e34:    2310        .#      MOVS     r3,#0x10
        0x00000e36:    4318        .C      ORRS     r0,r0,r3
        0x00000e38:    4b5b        [K      LDR      r3,[pc,#364] ; [0xfa8] = 0x50000040
        0x00000e3a:    6118        .a      STR      r0,[r3,#0x10]
        0x00000e3c:    4618        .F      MOV      r0,r3
        0x00000e3e:    6800        .h      LDR      r0,[r0,#0]
        0x00000e40:    2320         #      MOVS     r3,#0x20
        0x00000e42:    4318        .C      ORRS     r0,r0,r3
        0x00000e44:    4b58        XK      LDR      r3,[pc,#352] ; [0xfa8] = 0x50000040
        0x00000e46:    6018        .`      STR      r0,[r3,#0]
        0x00000e48:    e017        ..      B        0xe7a ; DrvGPIO_InitFunction + 1562
        0x00000e4a:    2938        8)      CMP      r1,#0x38
        0x00000e4c:    d10f        ..      BNE      0xe6e ; DrvGPIO_InitFunction + 1550
        0x00000e4e:    2005        .       MOVS     r0,#5
        0x00000e50:    0700        ..      LSLS     r0,r0,#28
        0x00000e52:    6b40        @k      LDR      r0,[r0,#0x34]
        0x00000e54:    2301        .#      MOVS     r3,#1
        0x00000e56:    02db        ..      LSLS     r3,r3,#11
        0x00000e58:    4318        .C      ORRS     r0,r0,r3
        0x00000e5a:    2305        .#      MOVS     r3,#5
        0x00000e5c:    071b        ..      LSLS     r3,r3,#28
        0x00000e5e:    6358        Xc      STR      r0,[r3,#0x34]
        0x00000e60:    4851        QH      LDR      r0,[pc,#324] ; [0xfa8] = 0x50000040
        0x00000e62:    6900        .i      LDR      r0,[r0,#0x10]
        0x00000e64:    2310        .#      MOVS     r3,#0x10
        0x00000e66:    4318        .C      ORRS     r0,r0,r3
        0x00000e68:    4b4f        OK      LDR      r3,[pc,#316] ; [0xfa8] = 0x50000040
        0x00000e6a:    6118        .a      STR      r0,[r3,#0x10]
        0x00000e6c:    e005        ..      B        0xe7a ; DrvGPIO_InitFunction + 1562
        0x00000e6e:    484e        NH      LDR      r0,[pc,#312] ; [0xfa8] = 0x50000040
        0x00000e70:    6800        .h      LDR      r0,[r0,#0]
        0x00000e72:    2320         #      MOVS     r3,#0x20
        0x00000e74:    4318        .C      ORRS     r0,r0,r3
        0x00000e76:    4b4c        LK      LDR      r3,[pc,#304] ; [0xfa8] = 0x50000040
        0x00000e78:    6018        .`      STR      r0,[r3,#0]
        0x00000e7a:    e092        ..      B        0xfa2 ; DrvGPIO_InitFunction + 1858
        0x00000e7c:    bf00        ..      NOP      
        0x00000e7e:    bf00        ..      NOP      
        0x00000e80:    2933        3)      CMP      r1,#0x33
        0x00000e82:    d106        ..      BNE      0xe92 ; DrvGPIO_InitFunction + 1586
        0x00000e84:    4848        HH      LDR      r0,[pc,#288] ; [0xfa8] = 0x50000040
        0x00000e86:    6800        .h      LDR      r0,[r0,#0]
        0x00000e88:    2303        .#      MOVS     r3,#3
        0x00000e8a:    4318        .C      ORRS     r0,r0,r3
        0x00000e8c:    4b46        FK      LDR      r3,[pc,#280] ; [0xfa8] = 0x50000040
        0x00000e8e:    6018        .`      STR      r0,[r3,#0]
        0x00000e90:    e00e        ..      B        0xeb0 ; DrvGPIO_InitFunction + 1616
        0x00000e92:    293a        :)      CMP      r1,#0x3a
        0x00000e94:    d106        ..      BNE      0xea4 ; DrvGPIO_InitFunction + 1604
        0x00000e96:    4844        DH      LDR      r0,[pc,#272] ; [0xfa8] = 0x50000040
        0x00000e98:    6800        .h      LDR      r0,[r0,#0]
        0x00000e9a:    2301        .#      MOVS     r3,#1
        0x00000e9c:    4318        .C      ORRS     r0,r0,r3
        0x00000e9e:    4b42        BK      LDR      r3,[pc,#264] ; [0xfa8] = 0x50000040
        0x00000ea0:    6018        .`      STR      r0,[r3,#0]
        0x00000ea2:    e005        ..      B        0xeb0 ; DrvGPIO_InitFunction + 1616
        0x00000ea4:    4840        @H      LDR      r0,[pc,#256] ; [0xfa8] = 0x50000040
        0x00000ea6:    6800        .h      LDR      r0,[r0,#0]
        0x00000ea8:    2302        .#      MOVS     r3,#2
        0x00000eaa:    4318        .C      ORRS     r0,r0,r3
        0x00000eac:    4b3e        >K      LDR      r3,[pc,#248] ; [0xfa8] = 0x50000040
        0x00000eae:    6018        .`      STR      r0,[r3,#0]
        0x00000eb0:    e077        w.      B        0xfa2 ; DrvGPIO_InitFunction + 1858
        0x00000eb2:    2005        .       MOVS     r0,#5
        0x00000eb4:    0700        ..      LSLS     r0,r0,#28
        0x00000eb6:    6b40        @k      LDR      r0,[r0,#0x34]
        0x00000eb8:    230c        .#      MOVS     r3,#0xc
        0x00000eba:    4318        .C      ORRS     r0,r0,r3
        0x00000ebc:    2305        .#      MOVS     r3,#5
        0x00000ebe:    071b        ..      LSLS     r3,r3,#28
        0x00000ec0:    6358        Xc      STR      r0,[r3,#0x34]
        0x00000ec2:    4839        9H      LDR      r0,[pc,#228] ; [0xfa8] = 0x50000040
        0x00000ec4:    6900        .i      LDR      r0,[r0,#0x10]
        0x00000ec6:    2303        .#      MOVS     r3,#3
        0x00000ec8:    035b        [.      LSLS     r3,r3,#13
        0x00000eca:    4318        .C      ORRS     r0,r0,r3
        0x00000ecc:    4b36        6K      LDR      r3,[pc,#216] ; [0xfa8] = 0x50000040
        0x00000ece:    6118        .a      STR      r0,[r3,#0x10]
        0x00000ed0:    2005        .       MOVS     r0,#5
        0x00000ed2:    0700        ..      LSLS     r0,r0,#28
        0x00000ed4:    6b00        .k      LDR      r0,[r0,#0x30]
        0x00000ed6:    4b35        5K      LDR      r3,[pc,#212] ; [0xfac] = 0x703e
        0x00000ed8:    4318        .C      ORRS     r0,r0,r3
        0x00000eda:    2305        .#      MOVS     r3,#5
        0x00000edc:    071b        ..      LSLS     r3,r3,#28
        0x00000ede:    6318        .c      STR      r0,[r3,#0x30]
        0x00000ee0:    4831        1H      LDR      r0,[pc,#196] ; [0xfa8] = 0x50000040
        0x00000ee2:    6900        .i      LDR      r0,[r0,#0x10]
        0x00000ee4:    23ff        .#      MOVS     r3,#0xff
        0x00000ee6:    041b        ..      LSLS     r3,r3,#16
        0x00000ee8:    4318        .C      ORRS     r0,r0,r3
        0x00000eea:    4b2f        /K      LDR      r3,[pc,#188] ; [0xfa8] = 0x50000040
        0x00000eec:    6118        .a      STR      r0,[r3,#0x10]
        0x00000eee:    bf00        ..      NOP      
        0x00000ef0:    293c        <)      CMP      r1,#0x3c
        0x00000ef2:    d11e        ..      BNE      0xf32 ; DrvGPIO_InitFunction + 1746
        0x00000ef4:    2005        .       MOVS     r0,#5
        0x00000ef6:    0700        ..      LSLS     r0,r0,#28
        0x00000ef8:    6b40        @k      LDR      r0,[r0,#0x34]
        0x00000efa:    230c        .#      MOVS     r3,#0xc
        0x00000efc:    4398        .C      BICS     r0,r0,r3
        0x00000efe:    2305        .#      MOVS     r3,#5
        0x00000f00:    071b        ..      LSLS     r3,r3,#28
        0x00000f02:    6358        Xc      STR      r0,[r3,#0x34]
        0x00000f04:    4828        (H      LDR      r0,[pc,#160] ; [0xfa8] = 0x50000040
        0x00000f06:    6900        .i      LDR      r0,[r0,#0x10]
        0x00000f08:    2303        .#      MOVS     r3,#3
        0x00000f0a:    035b        [.      LSLS     r3,r3,#13
        0x00000f0c:    4398        .C      BICS     r0,r0,r3
        0x00000f0e:    4b26        &K      LDR      r3,[pc,#152] ; [0xfa8] = 0x50000040
        0x00000f10:    6118        .a      STR      r0,[r3,#0x10]
        0x00000f12:    2005        .       MOVS     r0,#5
        0x00000f14:    0700        ..      LSLS     r0,r0,#28
        0x00000f16:    6b00        .k      LDR      r0,[r0,#0x30]
        0x00000f18:    4b24        $K      LDR      r3,[pc,#144] ; [0xfac] = 0x703e
        0x00000f1a:    43db        .C      MVNS     r3,r3
        0x00000f1c:    4018        .@      ANDS     r0,r0,r3
        0x00000f1e:    2305        .#      MOVS     r3,#5
        0x00000f20:    071b        ..      LSLS     r3,r3,#28
        0x00000f22:    6318        .c      STR      r0,[r3,#0x30]
        0x00000f24:    4820         H      LDR      r0,[pc,#128] ; [0xfa8] = 0x50000040
        0x00000f26:    6900        .i      LDR      r0,[r0,#0x10]
        0x00000f28:    23ff        .#      MOVS     r3,#0xff
        0x00000f2a:    041b        ..      LSLS     r3,r3,#16
        0x00000f2c:    4398        .C      BICS     r0,r0,r3
        0x00000f2e:    4b1e        .K      LDR      r3,[pc,#120] ; [0xfa8] = 0x50000040
        0x00000f30:    6118        .a      STR      r0,[r3,#0x10]
        0x00000f32:    481d        .H      LDR      r0,[pc,#116] ; [0xfa8] = 0x50000040
        0x00000f34:    6900        .i      LDR      r0,[r0,#0x10]
        0x00000f36:    2303        .#      MOVS     r3,#3
        0x00000f38:    02db        ..      LSLS     r3,r3,#11
        0x00000f3a:    4318        .C      ORRS     r0,r0,r3
        0x00000f3c:    4b1a        .K      LDR      r3,[pc,#104] ; [0xfa8] = 0x50000040
        0x00000f3e:    6118        .a      STR      r0,[r3,#0x10]
        0x00000f40:    2005        .       MOVS     r0,#5
        0x00000f42:    0700        ..      LSLS     r0,r0,#28
        0x00000f44:    6b80        .k      LDR      r0,[r0,#0x38]
        0x00000f46:    23ff        .#      MOVS     r3,#0xff
        0x00000f48:    3301        .3      ADDS     r3,#1
        0x00000f4a:    4318        .C      ORRS     r0,r0,r3
        0x00000f4c:    2305        .#      MOVS     r3,#5
        0x00000f4e:    071b        ..      LSLS     r3,r3,#28
        0x00000f50:    6398        .c      STR      r0,[r3,#0x38]
        0x00000f52:    4618        .F      MOV      r0,r3
        0x00000f54:    6b00        .k      LDR      r0,[r0,#0x30]
        0x00000f56:    2303        .#      MOVS     r3,#3
        0x00000f58:    029b        ..      LSLS     r3,r3,#10
        0x00000f5a:    4318        .C      ORRS     r0,r0,r3
        0x00000f5c:    2305        .#      MOVS     r3,#5
        0x00000f5e:    071b        ..      LSLS     r3,r3,#28
        0x00000f60:    6318        .c      STR      r0,[r3,#0x30]
        0x00000f62:    4618        .F      MOV      r0,r3
        0x00000f64:    6b40        @k      LDR      r0,[r0,#0x34]
        0x00000f66:    23c0        .#      MOVS     r3,#0xc0
        0x00000f68:    4318        .C      ORRS     r0,r0,r3
        0x00000f6a:    2305        .#      MOVS     r3,#5
        0x00000f6c:    071b        ..      LSLS     r3,r3,#28
        0x00000f6e:    6358        Xc      STR      r0,[r3,#0x34]
        0x00000f70:    4618        .F      MOV      r0,r3
        0x00000f72:    6b00        .k      LDR      r0,[r0,#0x30]
        0x00000f74:    23c0        .#      MOVS     r3,#0xc0
        0x00000f76:    4318        .C      ORRS     r0,r0,r3
        0x00000f78:    2305        .#      MOVS     r3,#5
        0x00000f7a:    071b        ..      LSLS     r3,r3,#28
        0x00000f7c:    6318        .c      STR      r0,[r3,#0x30]
        0x00000f7e:    4618        .F      MOV      r0,r3
        0x00000f80:    6b80        .k      LDR      r0,[r0,#0x38]
        0x00000f82:    4b0b        .K      LDR      r3,[pc,#44] ; [0xfb0] = 0xc0c0
        0x00000f84:    4318        .C      ORRS     r0,r0,r3
        0x00000f86:    2305        .#      MOVS     r3,#5
        0x00000f88:    071b        ..      LSLS     r3,r3,#28
        0x00000f8a:    6398        .c      STR      r0,[r3,#0x38]
        0x00000f8c:    4618        .F      MOV      r0,r3
        0x00000f8e:    6b40        @k      LDR      r0,[r0,#0x34]
        0x00000f90:    2303        .#      MOVS     r3,#3
        0x00000f92:    031b        ..      LSLS     r3,r3,#12
        0x00000f94:    4318        .C      ORRS     r0,r0,r3
        0x00000f96:    2305        .#      MOVS     r3,#5
        0x00000f98:    071b        ..      LSLS     r3,r3,#28
        0x00000f9a:    6358        Xc      STR      r0,[r3,#0x34]
        0x00000f9c:    e001        ..      B        0xfa2 ; DrvGPIO_InitFunction + 1858
        0x00000f9e:    4805        .H      LDR      r0,[pc,#20] ; [0xfb4] = 0xffff8901
        0x00000fa0:    bd10        ..      POP      {r4,pc}
        0x00000fa2:    bf00        ..      NOP      
        0x00000fa4:    2000        .       MOVS     r0,#0
        0x00000fa6:    e7fb        ..      B        0xfa0 ; DrvGPIO_InitFunction + 1856
    $d
        0x00000fa8:    50000040    @..P    DCD    1342177344
        0x00000fac:    0000703e    >p..    DCD    28734
        0x00000fb0:    0000c0c0    ....    DCD    49344
        0x00000fb4:    ffff8901    ....    DCD    4294936833
    $t
    i.DrvGPIO_Open
    DrvGPIO_Open
        0x00000fb8:    b570        p.      PUSH     {r4-r6,lr}
        0x00000fba:    4604        .F      MOV      r4,r0
        0x00000fbc:    460b        .F      MOV      r3,r1
        0x00000fbe:    2b00        .+      CMP      r3,#0
        0x00000fc0:    db01        ..      BLT      0xfc6 ; DrvGPIO_Open + 14
        0x00000fc2:    2b10        .+      CMP      r3,#0x10
        0x00000fc4:    dd01        ..      BLE      0xfca ; DrvGPIO_Open + 18
        0x00000fc6:    4818        .H      LDR      r0,[pc,#96] ; [0x1028] = 0xffff8901
        0x00000fc8:    bd70        p.      POP      {r4-r6,pc}
        0x00000fca:    01a0        ..      LSLS     r0,r4,#6
        0x00000fcc:    4d17        .M      LDR      r5,[pc,#92] ; [0x102c] = 0x50004000
        0x00000fce:    1941        A.      ADDS     r1,r0,r5
        0x00000fd0:    2a00        .*      CMP      r2,#0
        0x00000fd2:    d003        ..      BEQ      0xfdc ; DrvGPIO_Open + 36
        0x00000fd4:    2a01        .*      CMP      r2,#1
        0x00000fd6:    d001        ..      BEQ      0xfdc ; DrvGPIO_Open + 36
        0x00000fd8:    2a02        .*      CMP      r2,#2
        0x00000fda:    d117        ..      BNE      0x100c ; DrvGPIO_Open + 84
        0x00000fdc:    6808        .h      LDR      r0,[r1,#0]
        0x00000fde:    005e        ^.      LSLS     r6,r3,#1
        0x00000fe0:    2503        .%      MOVS     r5,#3
        0x00000fe2:    40b5        .@      LSLS     r5,r5,r6
        0x00000fe4:    43a8        .C      BICS     r0,r0,r5
        0x00000fe6:    6008        .`      STR      r0,[r1,#0]
        0x00000fe8:    2a01        .*      CMP      r2,#1
        0x00000fea:    d106        ..      BNE      0xffa ; DrvGPIO_Open + 66
        0x00000fec:    6808        .h      LDR      r0,[r1,#0]
        0x00000fee:    005e        ^.      LSLS     r6,r3,#1
        0x00000ff0:    2501        .%      MOVS     r5,#1
        0x00000ff2:    40b5        .@      LSLS     r5,r5,r6
        0x00000ff4:    4328        (C      ORRS     r0,r0,r5
        0x00000ff6:    6008        .`      STR      r0,[r1,#0]
        0x00000ff8:    e013        ..      B        0x1022 ; DrvGPIO_Open + 106
        0x00000ffa:    2a02        .*      CMP      r2,#2
        0x00000ffc:    d111        ..      BNE      0x1022 ; DrvGPIO_Open + 106
        0x00000ffe:    6808        .h      LDR      r0,[r1,#0]
        0x00001000:    005e        ^.      LSLS     r6,r3,#1
        0x00001002:    2502        .%      MOVS     r5,#2
        0x00001004:    40b5        .@      LSLS     r5,r5,r6
        0x00001006:    4328        (C      ORRS     r0,r0,r5
        0x00001008:    6008        .`      STR      r0,[r1,#0]
        0x0000100a:    e00a        ..      B        0x1022 ; DrvGPIO_Open + 106
        0x0000100c:    2a03        .*      CMP      r2,#3
        0x0000100e:    d106        ..      BNE      0x101e ; DrvGPIO_Open + 102
        0x00001010:    6808        .h      LDR      r0,[r1,#0]
        0x00001012:    005e        ^.      LSLS     r6,r3,#1
        0x00001014:    2503        .%      MOVS     r5,#3
        0x00001016:    40b5        .@      LSLS     r5,r5,r6
        0x00001018:    4328        (C      ORRS     r0,r0,r5
        0x0000101a:    6008        .`      STR      r0,[r1,#0]
        0x0000101c:    e001        ..      B        0x1022 ; DrvGPIO_Open + 106
        0x0000101e:    4802        .H      LDR      r0,[pc,#8] ; [0x1028] = 0xffff8901
        0x00001020:    e7d2        ..      B        0xfc8 ; DrvGPIO_Open + 16
        0x00001022:    2000        .       MOVS     r0,#0
        0x00001024:    e7d0        ..      B        0xfc8 ; DrvGPIO_Open + 16
    $d
        0x00001026:    0000        ..      DCW    0
        0x00001028:    ffff8901    ....    DCD    4294936833
        0x0000102c:    50004000    .@.P    DCD    1342193664
    $t
    i.DrvGPIO_SetBit
    DrvGPIO_SetBit
        0x00001030:    b510        ..      PUSH     {r4,lr}
        0x00001032:    4603        .F      MOV      r3,r0
        0x00001034:    2900        .)      CMP      r1,#0
        0x00001036:    db01        ..      BLT      0x103c ; DrvGPIO_SetBit + 12
        0x00001038:    2910        .)      CMP      r1,#0x10
        0x0000103a:    dd01        ..      BLE      0x1040 ; DrvGPIO_SetBit + 16
        0x0000103c:    4805        .H      LDR      r0,[pc,#20] ; [0x1054] = 0xffff8901
        0x0000103e:    bd10        ..      POP      {r4,pc}
        0x00001040:    0198        ..      LSLS     r0,r3,#6
        0x00001042:    4c05        .L      LDR      r4,[pc,#20] ; [0x1058] = 0x50004000
        0x00001044:    1902        ..      ADDS     r2,r0,r4
        0x00001046:    6890        .h      LDR      r0,[r2,#8]
        0x00001048:    2401        .$      MOVS     r4,#1
        0x0000104a:    408c        .@      LSLS     r4,r4,r1
        0x0000104c:    4320         C      ORRS     r0,r0,r4
        0x0000104e:    6090        .`      STR      r0,[r2,#8]
        0x00001050:    2000        .       MOVS     r0,#0
        0x00001052:    e7f4        ..      B        0x103e ; DrvGPIO_SetBit + 14
    $d
        0x00001054:    ffff8901    ....    DCD    4294936833
        0x00001058:    50004000    .@.P    DCD    1342193664
    $t
    i.DrvI2C_Close
    DrvI2C_Close
        0x0000105c:    4601        .F      MOV      r1,r0
        0x0000105e:    2900        .)      CMP      r1,#0
        0x00001060:    d01e        ..      BEQ      0x10a0 ; DrvI2C_Close + 68
        0x00001062:    481f        .H      LDR      r0,[pc,#124] ; [0x10e0] = 0x40120000
        0x00001064:    6800        .h      LDR      r0,[r0,#0]
        0x00001066:    2240        @"      MOVS     r2,#0x40
        0x00001068:    4390        .C      BICS     r0,r0,r2
        0x0000106a:    4a1d        .J      LDR      r2,[pc,#116] ; [0x10e0] = 0x40120000
        0x0000106c:    6010        .`      STR      r0,[r2,#0]
        0x0000106e:    2005        .       MOVS     r0,#5
        0x00001070:    0700        ..      LSLS     r0,r0,#28
        0x00001072:    68c0        .h      LDR      r0,[r0,#0xc]
        0x00001074:    1552        R.      ASRS     r2,r2,#21
        0x00001076:    4390        .C      BICS     r0,r0,r2
        0x00001078:    1880        ..      ADDS     r0,r0,r2
        0x0000107a:    2205        ."      MOVS     r2,#5
        0x0000107c:    0712        ..      LSLS     r2,r2,#28
        0x0000107e:    60d0        .`      STR      r0,[r2,#0xc]
        0x00001080:    4610        .F      MOV      r0,r2
        0x00001082:    68c0        .h      LDR      r0,[r0,#0xc]
        0x00001084:    2201        ."      MOVS     r2,#1
        0x00001086:    0252        R.      LSLS     r2,r2,#9
        0x00001088:    4390        .C      BICS     r0,r0,r2
        0x0000108a:    2205        ."      MOVS     r2,#5
        0x0000108c:    0712        ..      LSLS     r2,r2,#28
        0x0000108e:    60d0        .`      STR      r0,[r2,#0xc]
        0x00001090:    4814        .H      LDR      r0,[pc,#80] ; [0x10e4] = 0x50000200
        0x00001092:    6880        .h      LDR      r0,[r0,#8]
        0x00001094:    2201        ."      MOVS     r2,#1
        0x00001096:    0252        R.      LSLS     r2,r2,#9
        0x00001098:    4390        .C      BICS     r0,r0,r2
        0x0000109a:    4a12        .J      LDR      r2,[pc,#72] ; [0x10e4] = 0x50000200
        0x0000109c:    6090        .`      STR      r0,[r2,#8]
        0x0000109e:    e01d        ..      B        0x10dc ; DrvI2C_Close + 128
        0x000010a0:    4811        .H      LDR      r0,[pc,#68] ; [0x10e8] = 0x40020000
        0x000010a2:    6800        .h      LDR      r0,[r0,#0]
        0x000010a4:    2240        @"      MOVS     r2,#0x40
        0x000010a6:    4390        .C      BICS     r0,r0,r2
        0x000010a8:    4a0f        .J      LDR      r2,[pc,#60] ; [0x10e8] = 0x40020000
        0x000010aa:    6010        .`      STR      r0,[r2,#0]
        0x000010ac:    2005        .       MOVS     r0,#5
        0x000010ae:    0700        ..      LSLS     r0,r0,#28
        0x000010b0:    68c0        .h      LDR      r0,[r0,#0xc]
        0x000010b2:    1592        ..      ASRS     r2,r2,#22
        0x000010b4:    4390        .C      BICS     r0,r0,r2
        0x000010b6:    1880        ..      ADDS     r0,r0,r2
        0x000010b8:    2205        ."      MOVS     r2,#5
        0x000010ba:    0712        ..      LSLS     r2,r2,#28
        0x000010bc:    60d0        .`      STR      r0,[r2,#0xc]
        0x000010be:    4610        .F      MOV      r0,r2
        0x000010c0:    68c0        .h      LDR      r0,[r0,#0xc]
        0x000010c2:    22ff        ."      MOVS     r2,#0xff
        0x000010c4:    3201        .2      ADDS     r2,#1
        0x000010c6:    4390        .C      BICS     r0,r0,r2
        0x000010c8:    2205        ."      MOVS     r2,#5
        0x000010ca:    0712        ..      LSLS     r2,r2,#28
        0x000010cc:    60d0        .`      STR      r0,[r2,#0xc]
        0x000010ce:    4805        .H      LDR      r0,[pc,#20] ; [0x10e4] = 0x50000200
        0x000010d0:    6880        .h      LDR      r0,[r0,#8]
        0x000010d2:    22ff        ."      MOVS     r2,#0xff
        0x000010d4:    3201        .2      ADDS     r2,#1
        0x000010d6:    4390        .C      BICS     r0,r0,r2
        0x000010d8:    4a02        .J      LDR      r2,[pc,#8] ; [0x10e4] = 0x50000200
        0x000010da:    6090        .`      STR      r0,[r2,#8]
        0x000010dc:    2000        .       MOVS     r0,#0
        0x000010de:    4770        pG      BX       lr
    $d
        0x000010e0:    40120000    ...@    DCD    1074921472
        0x000010e4:    50000200    ...P    DCD    1342177792
        0x000010e8:    40020000    ...@    DCD    1073872896
    $t
    i.DrvI2C_Ctrl
    DrvI2C_Ctrl
        0x000010ec:    b5f0        ..      PUSH     {r4-r7,lr}
        0x000010ee:    9c05        ..      LDR      r4,[sp,#0x14]
        0x000010f0:    2500        .%      MOVS     r5,#0
        0x000010f2:    2900        .)      CMP      r1,#0
        0x000010f4:    d001        ..      BEQ      0x10fa ; DrvI2C_Ctrl + 14
        0x000010f6:    2620         &      MOVS     r6,#0x20
        0x000010f8:    4335        5C      ORRS     r5,r5,r6
        0x000010fa:    2a00        .*      CMP      r2,#0
        0x000010fc:    d001        ..      BEQ      0x1102 ; DrvI2C_Ctrl + 22
        0x000010fe:    2610        .&      MOVS     r6,#0x10
        0x00001100:    4335        5C      ORRS     r5,r5,r6
        0x00001102:    2b00        .+      CMP      r3,#0
        0x00001104:    d001        ..      BEQ      0x110a ; DrvI2C_Ctrl + 30
        0x00001106:    2608        .&      MOVS     r6,#8
        0x00001108:    4335        5C      ORRS     r5,r5,r6
        0x0000110a:    2c00        .,      CMP      r4,#0
        0x0000110c:    d001        ..      BEQ      0x1112 ; DrvI2C_Ctrl + 38
        0x0000110e:    2604        .&      MOVS     r6,#4
        0x00001110:    4335        5C      ORRS     r5,r5,r6
        0x00001112:    2800        .(      CMP      r0,#0
        0x00001114:    d007        ..      BEQ      0x1126 ; DrvI2C_Ctrl + 58
        0x00001116:    4e08        .N      LDR      r6,[pc,#32] ; [0x1138] = 0x40120000
        0x00001118:    6836        6h      LDR      r6,[r6,#0]
        0x0000111a:    273c        <'      MOVS     r7,#0x3c
        0x0000111c:    43be        .C      BICS     r6,r6,r7
        0x0000111e:    432e        .C      ORRS     r6,r6,r5
        0x00001120:    4f05        .O      LDR      r7,[pc,#20] ; [0x1138] = 0x40120000
        0x00001122:    603e        >`      STR      r6,[r7,#0]
        0x00001124:    e006        ..      B        0x1134 ; DrvI2C_Ctrl + 72
        0x00001126:    4e05        .N      LDR      r6,[pc,#20] ; [0x113c] = 0x40020000
        0x00001128:    6836        6h      LDR      r6,[r6,#0]
        0x0000112a:    273c        <'      MOVS     r7,#0x3c
        0x0000112c:    43be        .C      BICS     r6,r6,r7
        0x0000112e:    432e        .C      ORRS     r6,r6,r5
        0x00001130:    4f02        .O      LDR      r7,[pc,#8] ; [0x113c] = 0x40020000
        0x00001132:    603e        >`      STR      r6,[r7,#0]
        0x00001134:    bdf0        ..      POP      {r4-r7,pc}
    $d
        0x00001136:    0000        ..      DCW    0
        0x00001138:    40120000    ...@    DCD    1074921472
        0x0000113c:    40020000    ...@    DCD    1073872896
    $t
    i.DrvI2C_Open
    DrvI2C_Open
        0x00001140:    b5f8        ..      PUSH     {r3-r7,lr}
        0x00001142:    4605        .F      MOV      r5,r0
        0x00001144:    460e        .F      MOV      r6,r1
        0x00001146:    00b1        ..      LSLS     r1,r6,#2
        0x00001148:    4a2d        -J      LDR      r2,[pc,#180] ; [0x1200] = 0x20000000
        0x0000114a:    6812        .h      LDR      r2,[r2,#0]
        0x0000114c:    230a        .#      MOVS     r3,#0xa
        0x0000114e:    435a        ZC      MULS     r2,r3,r2
        0x00001150:    4610        .F      MOV      r0,r2
        0x00001152:    f7fff99d    ....    BL       __aeabi_uidiv ; 0x490
        0x00001156:    1d47        G.      ADDS     r7,r0,#5
        0x00001158:    210a        .!      MOVS     r1,#0xa
        0x0000115a:    4638        8F      MOV      r0,r7
        0x0000115c:    f7fff998    ....    BL       __aeabi_uidiv ; 0x490
        0x00001160:    1e44        D.      SUBS     r4,r0,#1
        0x00001162:    2c04        .,      CMP      r4,#4
        0x00001164:    d200        ..      BCS      0x1168 ; DrvI2C_Open + 40
        0x00001166:    2404        .$      MOVS     r4,#4
        0x00001168:    2d00        .-      CMP      r5,#0
        0x0000116a:    d023        #.      BEQ      0x11b4 ; DrvI2C_Open + 116
        0x0000116c:    4825        %H      LDR      r0,[pc,#148] ; [0x1204] = 0x50000200
        0x0000116e:    6880        .h      LDR      r0,[r0,#8]
        0x00001170:    2101        .!      MOVS     r1,#1
        0x00001172:    0249        I.      LSLS     r1,r1,#9
        0x00001174:    4388        .C      BICS     r0,r0,r1
        0x00001176:    1840        @.      ADDS     r0,r0,r1
        0x00001178:    4922        "I      LDR      r1,[pc,#136] ; [0x1204] = 0x50000200
        0x0000117a:    6088        .`      STR      r0,[r1,#8]
        0x0000117c:    2005        .       MOVS     r0,#5
        0x0000117e:    0700        ..      LSLS     r0,r0,#28
        0x00001180:    68c0        .h      LDR      r0,[r0,#0xc]
        0x00001182:    2101        .!      MOVS     r1,#1
        0x00001184:    0249        I.      LSLS     r1,r1,#9
        0x00001186:    4388        .C      BICS     r0,r0,r1
        0x00001188:    1840        @.      ADDS     r0,r0,r1
        0x0000118a:    2105        .!      MOVS     r1,#5
        0x0000118c:    0709        ..      LSLS     r1,r1,#28
        0x0000118e:    60c8        .`      STR      r0,[r1,#0xc]
        0x00001190:    4608        .F      MOV      r0,r1
        0x00001192:    68c0        .h      LDR      r0,[r0,#0xc]
        0x00001194:    2101        .!      MOVS     r1,#1
        0x00001196:    0249        I.      LSLS     r1,r1,#9
        0x00001198:    4388        .C      BICS     r0,r0,r1
        0x0000119a:    2105        .!      MOVS     r1,#5
        0x0000119c:    0709        ..      LSLS     r1,r1,#28
        0x0000119e:    60c8        .`      STR      r0,[r1,#0xc]
        0x000011a0:    4819        .H      LDR      r0,[pc,#100] ; [0x1208] = 0x40120000
        0x000011a2:    6800        .h      LDR      r0,[r0,#0]
        0x000011a4:    2140        @!      MOVS     r1,#0x40
        0x000011a6:    4388        .C      BICS     r0,r0,r1
        0x000011a8:    3040        @0      ADDS     r0,r0,#0x40
        0x000011aa:    4917        .I      LDR      r1,[pc,#92] ; [0x1208] = 0x40120000
        0x000011ac:    6008        .`      STR      r0,[r1,#0]
        0x000011ae:    4608        .F      MOV      r0,r1
        0x000011b0:    6104        .a      STR      r4,[r0,#0x10]
        0x000011b2:    e022        ".      B        0x11fa ; DrvI2C_Open + 186
        0x000011b4:    4813        .H      LDR      r0,[pc,#76] ; [0x1204] = 0x50000200
        0x000011b6:    6880        .h      LDR      r0,[r0,#8]
        0x000011b8:    21ff        .!      MOVS     r1,#0xff
        0x000011ba:    3101        .1      ADDS     r1,#1
        0x000011bc:    4388        .C      BICS     r0,r0,r1
        0x000011be:    1840        @.      ADDS     r0,r0,r1
        0x000011c0:    4910        .I      LDR      r1,[pc,#64] ; [0x1204] = 0x50000200
        0x000011c2:    6088        .`      STR      r0,[r1,#8]
        0x000011c4:    2005        .       MOVS     r0,#5
        0x000011c6:    0700        ..      LSLS     r0,r0,#28
        0x000011c8:    68c0        .h      LDR      r0,[r0,#0xc]
        0x000011ca:    21ff        .!      MOVS     r1,#0xff
        0x000011cc:    3101        .1      ADDS     r1,#1
        0x000011ce:    4388        .C      BICS     r0,r0,r1
        0x000011d0:    1840        @.      ADDS     r0,r0,r1
        0x000011d2:    2105        .!      MOVS     r1,#5
        0x000011d4:    0709        ..      LSLS     r1,r1,#28
        0x000011d6:    60c8        .`      STR      r0,[r1,#0xc]
        0x000011d8:    4608        .F      MOV      r0,r1
        0x000011da:    68c0        .h      LDR      r0,[r0,#0xc]
        0x000011dc:    21ff        .!      MOVS     r1,#0xff
        0x000011de:    3101        .1      ADDS     r1,#1
        0x000011e0:    4388        .C      BICS     r0,r0,r1
        0x000011e2:    2105        .!      MOVS     r1,#5
        0x000011e4:    0709        ..      LSLS     r1,r1,#28
        0x000011e6:    60c8        .`      STR      r0,[r1,#0xc]
        0x000011e8:    4808        .H      LDR      r0,[pc,#32] ; [0x120c] = 0x40020000
        0x000011ea:    6800        .h      LDR      r0,[r0,#0]
        0x000011ec:    2140        @!      MOVS     r1,#0x40
        0x000011ee:    4388        .C      BICS     r0,r0,r1
        0x000011f0:    3040        @0      ADDS     r0,r0,#0x40
        0x000011f2:    4906        .I      LDR      r1,[pc,#24] ; [0x120c] = 0x40020000
        0x000011f4:    6008        .`      STR      r0,[r1,#0]
        0x000011f6:    4608        .F      MOV      r0,r1
        0x000011f8:    6104        .a      STR      r4,[r0,#0x10]
        0x000011fa:    2000        .       MOVS     r0,#0
        0x000011fc:    bdf8        ..      POP      {r3-r7,pc}
    $d
        0x000011fe:    0000        ..      DCW    0
        0x00001200:    20000000    ...     DCD    536870912
        0x00001204:    50000200    ...P    DCD    1342177792
        0x00001208:    40120000    ...@    DCD    1074921472
        0x0000120c:    40020000    ...@    DCD    1073872896
    $t
    i.DrvSYS_GetHCLKFreq
    DrvSYS_GetHCLKFreq
        0x00001210:    b570        p.      PUSH     {r4-r6,lr}
        0x00001212:    2500        .%      MOVS     r5,#0
        0x00001214:    4815        .H      LDR      r0,[pc,#84] ; [0x126c] = 0x50000200
        0x00001216:    6900        .i      LDR      r0,[r0,#0x10]
        0x00001218:    0740        @.      LSLS     r0,r0,#29
        0x0000121a:    0f40        @.      LSRS     r0,r0,#29
        0x0000121c:    d101        ..      BNE      0x1222 ; DrvSYS_GetHCLKFreq + 18
        0x0000121e:    4d14        .M      LDR      r5,[pc,#80] ; [0x1270] = 0xb71b00
        0x00001220:    e01a        ..      B        0x1258 ; DrvSYS_GetHCLKFreq + 72
        0x00001222:    4812        .H      LDR      r0,[pc,#72] ; [0x126c] = 0x50000200
        0x00001224:    6900        .i      LDR      r0,[r0,#0x10]
        0x00001226:    0740        @.      LSLS     r0,r0,#29
        0x00001228:    0f40        @.      LSRS     r0,r0,#29
        0x0000122a:    2801        .(      CMP      r0,#1
        0x0000122c:    d101        ..      BNE      0x1232 ; DrvSYS_GetHCLKFreq + 34
        0x0000122e:    03c5        ..      LSLS     r5,r0,#15
        0x00001230:    e012        ..      B        0x1258 ; DrvSYS_GetHCLKFreq + 72
        0x00001232:    480e        .H      LDR      r0,[pc,#56] ; [0x126c] = 0x50000200
        0x00001234:    6900        .i      LDR      r0,[r0,#0x10]
        0x00001236:    0740        @.      LSLS     r0,r0,#29
        0x00001238:    0f40        @.      LSRS     r0,r0,#29
        0x0000123a:    2802        .(      CMP      r0,#2
        0x0000123c:    d103        ..      BNE      0x1246 ; DrvSYS_GetHCLKFreq + 54
        0x0000123e:    f000f81d    ....    BL       DrvSYS_GetPLLClockFreq ; 0x127c
        0x00001242:    4605        .F      MOV      r5,r0
        0x00001244:    e008        ..      B        0x1258 ; DrvSYS_GetHCLKFreq + 72
        0x00001246:    4809        .H      LDR      r0,[pc,#36] ; [0x126c] = 0x50000200
        0x00001248:    6900        .i      LDR      r0,[r0,#0x10]
        0x0000124a:    0740        @.      LSLS     r0,r0,#29
        0x0000124c:    0f40        @.      LSRS     r0,r0,#29
        0x0000124e:    2803        .(      CMP      r0,#3
        0x00001250:    d101        ..      BNE      0x1256 ; DrvSYS_GetHCLKFreq + 70
        0x00001252:    4d08        .M      LDR      r5,[pc,#32] ; [0x1274] = 0x2710
        0x00001254:    e000        ..      B        0x1258 ; DrvSYS_GetHCLKFreq + 72
        0x00001256:    4d08        .M      LDR      r5,[pc,#32] ; [0x1278] = 0x1518000
        0x00001258:    4804        .H      LDR      r0,[pc,#16] ; [0x126c] = 0x50000200
        0x0000125a:    6980        .i      LDR      r0,[r0,#0x18]
        0x0000125c:    0700        ..      LSLS     r0,r0,#28
        0x0000125e:    0f00        ..      LSRS     r0,r0,#28
        0x00001260:    1c44        D.      ADDS     r4,r0,#1
        0x00001262:    4621        !F      MOV      r1,r4
        0x00001264:    4628        (F      MOV      r0,r5
        0x00001266:    f7fff913    ....    BL       __aeabi_uidiv ; 0x490
        0x0000126a:    bd70        p.      POP      {r4-r6,pc}
    $d
        0x0000126c:    50000200    ...P    DCD    1342177792
        0x00001270:    00b71b00    ....    DCD    12000000
        0x00001274:    00002710    .'..    DCD    10000
        0x00001278:    01518000    ..Q.    DCD    22118400
    $t
    i.DrvSYS_GetPLLClockFreq
    DrvSYS_GetPLLClockFreq
        0x0000127c:    b57f        ..      PUSH     {r0-r6,lr}
        0x0000127e:    2500        .%      MOVS     r5,#0
        0x00001280:    4b18        .K      LDR      r3,[pc,#96] ; [0x12e4] = 0x267c
        0x00001282:    cb0f        ..      LDM      r3,{r0-r3}
        0x00001284:    466c        lF      MOV      r4,sp
        0x00001286:    c40f        ..      STM      r4!,{r0-r3}
        0x00001288:    4817        .H      LDR      r0,[pc,#92] ; [0x12e8] = 0x50000200
        0x0000128a:    6a00        .j      LDR      r0,[r0,#0x20]
        0x0000128c:    0300        ..      LSLS     r0,r0,#12
        0x0000128e:    0fc0        ..      LSRS     r0,r0,#31
        0x00001290:    2801        .(      CMP      r0,#1
        0x00001292:    d101        ..      BNE      0x1298 ; DrvSYS_GetPLLClockFreq + 28
        0x00001294:    4c15        .L      LDR      r4,[pc,#84] ; [0x12ec] = 0x1518000
        0x00001296:    e000        ..      B        0x129a ; DrvSYS_GetPLLClockFreq + 30
        0x00001298:    4c15        .L      LDR      r4,[pc,#84] ; [0x12f0] = 0xb71b00
        0x0000129a:    4813        .H      LDR      r0,[pc,#76] ; [0x12e8] = 0x50000200
        0x0000129c:    6a00        .j      LDR      r0,[r0,#0x20]
        0x0000129e:    03c0        ..      LSLS     r0,r0,#15
        0x000012a0:    0fc0        ..      LSRS     r0,r0,#31
        0x000012a2:    2801        .(      CMP      r0,#1
        0x000012a4:    d101        ..      BNE      0x12aa ; DrvSYS_GetPLLClockFreq + 46
        0x000012a6:    2500        .%      MOVS     r5,#0
        0x000012a8:    e019        ..      B        0x12de ; DrvSYS_GetPLLClockFreq + 98
        0x000012aa:    4a0f        .J      LDR      r2,[pc,#60] ; [0x12e8] = 0x50000200
        0x000012ac:    6a12        .j      LDR      r2,[r2,#0x20]
        0x000012ae:    0492        ..      LSLS     r2,r2,#18
        0x000012b0:    0ed2        ..      LSRS     r2,r2,#27
        0x000012b2:    1c91        ..      ADDS     r1,r2,#2
        0x000012b4:    4a0c        .J      LDR      r2,[pc,#48] ; [0x12e8] = 0x50000200
        0x000012b6:    6a12        .j      LDR      r2,[r2,#0x20]
        0x000012b8:    05d2        ..      LSLS     r2,r2,#23
        0x000012ba:    0dd2        ..      LSRS     r2,r2,#23
        0x000012bc:    1c92        ..      ADDS     r2,r2,#2
        0x000012be:    4362        bC      MULS     r2,r4,r2
        0x000012c0:    4610        .F      MOV      r0,r2
        0x000012c2:    f7fff8e5    ....    BL       __aeabi_uidiv ; 0x490
        0x000012c6:    4606        .F      MOV      r6,r0
        0x000012c8:    4807        .H      LDR      r0,[pc,#28] ; [0x12e8] = 0x50000200
        0x000012ca:    6a00        .j      LDR      r0,[r0,#0x20]
        0x000012cc:    0400        ..      LSLS     r0,r0,#16
        0x000012ce:    0f80        ..      LSRS     r0,r0,#30
        0x000012d0:    0080        ..      LSLS     r0,r0,#2
        0x000012d2:    466a        jF      MOV      r2,sp
        0x000012d4:    5811        .X      LDR      r1,[r2,r0]
        0x000012d6:    4630        0F      MOV      r0,r6
        0x000012d8:    f7fff8da    ....    BL       __aeabi_uidiv ; 0x490
        0x000012dc:    4605        .F      MOV      r5,r0
        0x000012de:    4628        (F      MOV      r0,r5
        0x000012e0:    b004        ..      ADD      sp,sp,#0x10
        0x000012e2:    bd70        p.      POP      {r4-r6,pc}
    $d
        0x000012e4:    0000267c    |&..    DCD    9852
        0x000012e8:    50000200    ...P    DCD    1342177792
        0x000012ec:    01518000    ..Q.    DCD    22118400
        0x000012f0:    00b71b00    ....    DCD    12000000
    $t
    i.EINT0_IRQHandler
    EINT0_IRQHandler
        0x000012f4:    b510        ..      PUSH     {r4,lr}
        0x000012f6:    2001        .       MOVS     r0,#1
        0x000012f8:    0380        ..      LSLS     r0,r0,#14
        0x000012fa:    4905        .I      LDR      r1,[pc,#20] ; [0x1310] = 0x50004040
        0x000012fc:    6208        .b      STR      r0,[r1,#0x20]
        0x000012fe:    4805        .H      LDR      r0,[pc,#20] ; [0x1314] = 0x20000648
        0x00001300:    6800        .h      LDR      r0,[r0,#0]
        0x00001302:    2800        .(      CMP      r0,#0
        0x00001304:    d002        ..      BEQ      0x130c ; EINT0_IRQHandler + 24
        0x00001306:    4803        .H      LDR      r0,[pc,#12] ; [0x1314] = 0x20000648
        0x00001308:    6800        .h      LDR      r0,[r0,#0]
        0x0000130a:    4780        .G      BLX      r0
        0x0000130c:    bd10        ..      POP      {r4,pc}
    $d
        0x0000130e:    0000        ..      DCW    0
        0x00001310:    50004040    @@.P    DCD    1342193728
        0x00001314:    20000648    H..     DCD    536872520
    $t
    i.EINT1Callback
    EINT1Callback
        0x00001318:    2001        .       MOVS     r0,#1
        0x0000131a:    4901        .I      LDR      r1,[pc,#4] ; [0x1320] = 0x20000020
        0x0000131c:    8008        ..      STRH     r0,[r1,#0]
        0x0000131e:    4770        pG      BX       lr
    $d
        0x00001320:    20000020     ..     DCD    536870944
    $t
    i.EINT1_IRQHandler
    EINT1_IRQHandler
        0x00001324:    b510        ..      PUSH     {r4,lr}
        0x00001326:    2001        .       MOVS     r0,#1
        0x00001328:    03c0        ..      LSLS     r0,r0,#15
        0x0000132a:    4905        .I      LDR      r1,[pc,#20] ; [0x1340] = 0x50004040
        0x0000132c:    6208        .b      STR      r0,[r1,#0x20]
        0x0000132e:    4805        .H      LDR      r0,[pc,#20] ; [0x1344] = 0x2000064c
        0x00001330:    6800        .h      LDR      r0,[r0,#0]
        0x00001332:    2800        .(      CMP      r0,#0
        0x00001334:    d002        ..      BEQ      0x133c ; EINT1_IRQHandler + 24
        0x00001336:    4803        .H      LDR      r0,[pc,#12] ; [0x1344] = 0x2000064c
        0x00001338:    6800        .h      LDR      r0,[r0,#0]
        0x0000133a:    4780        .G      BLX      r0
        0x0000133c:    bd10        ..      POP      {r4,pc}
    $d
        0x0000133e:    0000        ..      DCW    0
        0x00001340:    50004040    @@.P    DCD    1342193728
        0x00001344:    2000064c    L..     DCD    536872524
    $t
    i.GPAB_IRQHandler
    GPAB_IRQHandler
        0x00001348:    b570        p.      PUSH     {r4-r6,lr}
        0x0000134a:    480c        .H      LDR      r0,[pc,#48] ; [0x137c] = 0x50004000
        0x0000134c:    6a05        .j      LDR      r5,[r0,#0x20]
        0x0000134e:    480b        .H      LDR      r0,[pc,#44] ; [0x137c] = 0x50004000
        0x00001350:    3040        @0      ADDS     r0,r0,#0x40
        0x00001352:    6a04        .j      LDR      r4,[r0,#0x20]
        0x00001354:    2103        .!      MOVS     r1,#3
        0x00001356:    0389        ..      LSLS     r1,r1,#14
        0x00001358:    4620         F      MOV      r0,r4
        0x0000135a:    4388        .C      BICS     r0,r0,r1
        0x0000135c:    4604        .F      MOV      r4,r0
        0x0000135e:    4807        .H      LDR      r0,[pc,#28] ; [0x137c] = 0x50004000
        0x00001360:    6205        .b      STR      r5,[r0,#0x20]
        0x00001362:    4806        .H      LDR      r0,[pc,#24] ; [0x137c] = 0x50004000
        0x00001364:    3040        @0      ADDS     r0,r0,#0x40
        0x00001366:    6204        .b      STR      r4,[r0,#0x20]
        0x00001368:    4805        .H      LDR      r0,[pc,#20] ; [0x1380] = 0x20000640
        0x0000136a:    6800        .h      LDR      r0,[r0,#0]
        0x0000136c:    2800        .(      CMP      r0,#0
        0x0000136e:    d004        ..      BEQ      0x137a ; GPAB_IRQHandler + 50
        0x00001370:    4621        !F      MOV      r1,r4
        0x00001372:    4628        (F      MOV      r0,r5
        0x00001374:    4a02        .J      LDR      r2,[pc,#8] ; [0x1380] = 0x20000640
        0x00001376:    6812        .h      LDR      r2,[r2,#0]
        0x00001378:    4790        .G      BLX      r2
        0x0000137a:    bd70        p.      POP      {r4-r6,pc}
    $d
        0x0000137c:    50004000    .@.P    DCD    1342193664
        0x00001380:    20000640    @..     DCD    536872512
    $t
    i.GPCDE_IRQHandler
    GPCDE_IRQHandler
        0x00001384:    b570        p.      PUSH     {r4-r6,lr}
        0x00001386:    480d        .H      LDR      r0,[pc,#52] ; [0x13bc] = 0x50004080
        0x00001388:    6a04        .j      LDR      r4,[r0,#0x20]
        0x0000138a:    480c        .H      LDR      r0,[pc,#48] ; [0x13bc] = 0x50004080
        0x0000138c:    3040        @0      ADDS     r0,r0,#0x40
        0x0000138e:    6a05        .j      LDR      r5,[r0,#0x20]
        0x00001390:    480a        .H      LDR      r0,[pc,#40] ; [0x13bc] = 0x50004080
        0x00001392:    3080        .0      ADDS     r0,r0,#0x80
        0x00001394:    6a06        .j      LDR      r6,[r0,#0x20]
        0x00001396:    4809        .H      LDR      r0,[pc,#36] ; [0x13bc] = 0x50004080
        0x00001398:    6204        .b      STR      r4,[r0,#0x20]
        0x0000139a:    4808        .H      LDR      r0,[pc,#32] ; [0x13bc] = 0x50004080
        0x0000139c:    3040        @0      ADDS     r0,r0,#0x40
        0x0000139e:    6205        .b      STR      r5,[r0,#0x20]
        0x000013a0:    4806        .H      LDR      r0,[pc,#24] ; [0x13bc] = 0x50004080
        0x000013a2:    3080        .0      ADDS     r0,r0,#0x80
        0x000013a4:    6206        .b      STR      r6,[r0,#0x20]
        0x000013a6:    4806        .H      LDR      r0,[pc,#24] ; [0x13c0] = 0x20000644
        0x000013a8:    6800        .h      LDR      r0,[r0,#0]
        0x000013aa:    2800        .(      CMP      r0,#0
        0x000013ac:    d005        ..      BEQ      0x13ba ; GPCDE_IRQHandler + 54
        0x000013ae:    4632        2F      MOV      r2,r6
        0x000013b0:    4629        )F      MOV      r1,r5
        0x000013b2:    4620         F      MOV      r0,r4
        0x000013b4:    4b02        .K      LDR      r3,[pc,#8] ; [0x13c0] = 0x20000644
        0x000013b6:    681b        .h      LDR      r3,[r3,#0]
        0x000013b8:    4798        .G      BLX      r3
        0x000013ba:    bd70        p.      POP      {r4-r6,pc}
    $d
        0x000013bc:    50004080    .@.P    DCD    1342193792
        0x000013c0:    20000644    D..     DCD    536872516
    $t
    i.HEX2Disp
    HEX2Disp
        0x000013c4:    4601        .F      MOV      r1,r0
        0x000013c6:    4a01        .J      LDR      r2,[pc,#4] ; [0x13cc] = 0x25f8
        0x000013c8:    5c50        P\      LDRB     r0,[r2,r1]
        0x000013ca:    4770        pG      BX       lr
    $d
        0x000013cc:    000025f8    .%..    DCD    9720
    $t
    i.I2C0_IRQHandler
    I2C0_IRQHandler
        0x000013d0:    b510        ..      PUSH     {r4,lr}
        0x000013d2:    481b        .H      LDR      r0,[pc,#108] ; [0x1440] = 0x40020000
        0x000013d4:    68c4        .h      LDR      r4,[r0,#0xc]
        0x000013d6:    6940        @i      LDR      r0,[r0,#0x14]
        0x000013d8:    07c0        ..      LSLS     r0,r0,#31
        0x000013da:    0fc0        ..      LSRS     r0,r0,#31
        0x000013dc:    d00f        ..      BEQ      0x13fe ; I2C0_IRQHandler + 46
        0x000013de:    4818        .H      LDR      r0,[pc,#96] ; [0x1440] = 0x40020000
        0x000013e0:    6940        @i      LDR      r0,[r0,#0x14]
        0x000013e2:    0840        @.      LSRS     r0,r0,#1
        0x000013e4:    0040        @.      LSLS     r0,r0,#1
        0x000013e6:    1c40        @.      ADDS     r0,r0,#1
        0x000013e8:    4915        .I      LDR      r1,[pc,#84] ; [0x1440] = 0x40020000
        0x000013ea:    6148        Ha      STR      r0,[r1,#0x14]
        0x000013ec:    4815        .H      LDR      r0,[pc,#84] ; [0x1444] = 0x20000650
        0x000013ee:    68c0        .h      LDR      r0,[r0,#0xc]
        0x000013f0:    2800        .(      CMP      r0,#0
        0x000013f2:    d024        $.      BEQ      0x143e ; I2C0_IRQHandler + 110
        0x000013f4:    4813        .H      LDR      r0,[pc,#76] ; [0x1444] = 0x20000650
        0x000013f6:    68c1        .h      LDR      r1,[r0,#0xc]
        0x000013f8:    4620         F      MOV      r0,r4
        0x000013fa:    4788        .G      BLX      r1
        0x000013fc:    e01f        ..      B        0x143e ; I2C0_IRQHandler + 110
        0x000013fe:    2c00        .,      CMP      r4,#0
        0x00001400:    d00a        ..      BEQ      0x1418 ; I2C0_IRQHandler + 72
        0x00001402:    2c38        8,      CMP      r4,#0x38
        0x00001404:    d111        ..      BNE      0x142a ; I2C0_IRQHandler + 90
        0x00001406:    480f        .H      LDR      r0,[pc,#60] ; [0x1444] = 0x20000650
        0x00001408:    6840        @h      LDR      r0,[r0,#4]
        0x0000140a:    2800        .(      CMP      r0,#0
        0x0000140c:    d003        ..      BEQ      0x1416 ; I2C0_IRQHandler + 70
        0x0000140e:    480d        .H      LDR      r0,[pc,#52] ; [0x1444] = 0x20000650
        0x00001410:    6841        Ah      LDR      r1,[r0,#4]
        0x00001412:    4620         F      MOV      r0,r4
        0x00001414:    4788        .G      BLX      r1
        0x00001416:    e011        ..      B        0x143c ; I2C0_IRQHandler + 108
        0x00001418:    480a        .H      LDR      r0,[pc,#40] ; [0x1444] = 0x20000650
        0x0000141a:    6880        .h      LDR      r0,[r0,#8]
        0x0000141c:    2800        .(      CMP      r0,#0
        0x0000141e:    d003        ..      BEQ      0x1428 ; I2C0_IRQHandler + 88
        0x00001420:    4808        .H      LDR      r0,[pc,#32] ; [0x1444] = 0x20000650
        0x00001422:    6881        .h      LDR      r1,[r0,#8]
        0x00001424:    4620         F      MOV      r0,r4
        0x00001426:    4788        .G      BLX      r1
        0x00001428:    e008        ..      B        0x143c ; I2C0_IRQHandler + 108
        0x0000142a:    4806        .H      LDR      r0,[pc,#24] ; [0x1444] = 0x20000650
        0x0000142c:    6800        .h      LDR      r0,[r0,#0]
        0x0000142e:    2800        .(      CMP      r0,#0
        0x00001430:    d003        ..      BEQ      0x143a ; I2C0_IRQHandler + 106
        0x00001432:    4804        .H      LDR      r0,[pc,#16] ; [0x1444] = 0x20000650
        0x00001434:    6801        .h      LDR      r1,[r0,#0]
        0x00001436:    4620         F      MOV      r0,r4
        0x00001438:    4788        .G      BLX      r1
        0x0000143a:    bf00        ..      NOP      
        0x0000143c:    bf00        ..      NOP      
        0x0000143e:    bd10        ..      POP      {r4,pc}
    $d
        0x00001440:    40020000    ...@    DCD    1073872896
        0x00001444:    20000650    P..     DCD    536872528
    $t
    i.I2C1_IRQHandler
    I2C1_IRQHandler
        0x00001448:    b510        ..      PUSH     {r4,lr}
        0x0000144a:    481b        .H      LDR      r0,[pc,#108] ; [0x14b8] = 0x40120000
        0x0000144c:    68c4        .h      LDR      r4,[r0,#0xc]
        0x0000144e:    6940        @i      LDR      r0,[r0,#0x14]
        0x00001450:    07c0        ..      LSLS     r0,r0,#31
        0x00001452:    0fc0        ..      LSRS     r0,r0,#31
        0x00001454:    d00f        ..      BEQ      0x1476 ; I2C1_IRQHandler + 46
        0x00001456:    4818        .H      LDR      r0,[pc,#96] ; [0x14b8] = 0x40120000
        0x00001458:    6940        @i      LDR      r0,[r0,#0x14]
        0x0000145a:    0840        @.      LSRS     r0,r0,#1
        0x0000145c:    0040        @.      LSLS     r0,r0,#1
        0x0000145e:    1c40        @.      ADDS     r0,r0,#1
        0x00001460:    4915        .I      LDR      r1,[pc,#84] ; [0x14b8] = 0x40120000
        0x00001462:    6148        Ha      STR      r0,[r1,#0x14]
        0x00001464:    4815        .H      LDR      r0,[pc,#84] ; [0x14bc] = 0x20000660
        0x00001466:    68c0        .h      LDR      r0,[r0,#0xc]
        0x00001468:    2800        .(      CMP      r0,#0
        0x0000146a:    d024        $.      BEQ      0x14b6 ; I2C1_IRQHandler + 110
        0x0000146c:    4813        .H      LDR      r0,[pc,#76] ; [0x14bc] = 0x20000660
        0x0000146e:    68c1        .h      LDR      r1,[r0,#0xc]
        0x00001470:    4620         F      MOV      r0,r4
        0x00001472:    4788        .G      BLX      r1
        0x00001474:    e01f        ..      B        0x14b6 ; I2C1_IRQHandler + 110
        0x00001476:    2c00        .,      CMP      r4,#0
        0x00001478:    d00a        ..      BEQ      0x1490 ; I2C1_IRQHandler + 72
        0x0000147a:    2c38        8,      CMP      r4,#0x38
        0x0000147c:    d111        ..      BNE      0x14a2 ; I2C1_IRQHandler + 90
        0x0000147e:    480f        .H      LDR      r0,[pc,#60] ; [0x14bc] = 0x20000660
        0x00001480:    6840        @h      LDR      r0,[r0,#4]
        0x00001482:    2800        .(      CMP      r0,#0
        0x00001484:    d003        ..      BEQ      0x148e ; I2C1_IRQHandler + 70
        0x00001486:    480d        .H      LDR      r0,[pc,#52] ; [0x14bc] = 0x20000660
        0x00001488:    6841        Ah      LDR      r1,[r0,#4]
        0x0000148a:    4620         F      MOV      r0,r4
        0x0000148c:    4788        .G      BLX      r1
        0x0000148e:    e011        ..      B        0x14b4 ; I2C1_IRQHandler + 108
        0x00001490:    480a        .H      LDR      r0,[pc,#40] ; [0x14bc] = 0x20000660
        0x00001492:    6880        .h      LDR      r0,[r0,#8]
        0x00001494:    2800        .(      CMP      r0,#0
        0x00001496:    d003        ..      BEQ      0x14a0 ; I2C1_IRQHandler + 88
        0x00001498:    4808        .H      LDR      r0,[pc,#32] ; [0x14bc] = 0x20000660
        0x0000149a:    6881        .h      LDR      r1,[r0,#8]
        0x0000149c:    4620         F      MOV      r0,r4
        0x0000149e:    4788        .G      BLX      r1
        0x000014a0:    e008        ..      B        0x14b4 ; I2C1_IRQHandler + 108
        0x000014a2:    4806        .H      LDR      r0,[pc,#24] ; [0x14bc] = 0x20000660
        0x000014a4:    6800        .h      LDR      r0,[r0,#0]
        0x000014a6:    2800        .(      CMP      r0,#0
        0x000014a8:    d003        ..      BEQ      0x14b2 ; I2C1_IRQHandler + 106
        0x000014aa:    4804        .H      LDR      r0,[pc,#16] ; [0x14bc] = 0x20000660
        0x000014ac:    6801        .h      LDR      r1,[r0,#0]
        0x000014ae:    4620         F      MOV      r0,r4
        0x000014b0:    4788        .G      BLX      r1
        0x000014b2:    bf00        ..      NOP      
        0x000014b4:    bf00        ..      NOP      
        0x000014b6:    bd10        ..      POP      {r4,pc}
    $d
        0x000014b8:    40120000    ...@    DCD    1074921472
        0x000014bc:    20000660    `..     DCD    536872544
    $t
    i.InitCapture5
    InitCapture5
        0x000014c0:    b510        ..      PUSH     {r4,lr}
        0x000014c2:    482f        /H      LDR      r0,[pc,#188] ; [0x1580] = 0x50000040
        0x000014c4:    6800        .h      LDR      r0,[r0,#0]
        0x000014c6:    2120         !      MOVS     r1,#0x20
        0x000014c8:    4388        .C      BICS     r0,r0,r1
        0x000014ca:    3020         0      ADDS     r0,r0,#0x20
        0x000014cc:    492c        ,I      LDR      r1,[pc,#176] ; [0x1580] = 0x50000040
        0x000014ce:    6008        .`      STR      r0,[r1,#0]
        0x000014d0:    482c        ,H      LDR      r0,[pc,#176] ; [0x1584] = 0x50000200
        0x000014d2:    6880        .h      LDR      r0,[r0,#8]
        0x000014d4:    0409        ..      LSLS     r1,r1,#16
        0x000014d6:    4388        .C      BICS     r0,r0,r1
        0x000014d8:    1840        @.      ADDS     r0,r0,r1
        0x000014da:    492a        *I      LDR      r1,[pc,#168] ; [0x1584] = 0x50000200
        0x000014dc:    6088        .`      STR      r0,[r1,#8]
        0x000014de:    4608        .F      MOV      r0,r1
        0x000014e0:    69c0        .i      LDR      r0,[r0,#0x1c]
        0x000014e2:    2130        0!      MOVS     r1,#0x30
        0x000014e4:    4388        .C      BICS     r0,r0,r1
        0x000014e6:    4927        'I      LDR      r1,[pc,#156] ; [0x1584] = 0x50000200
        0x000014e8:    61c8        .a      STR      r0,[r1,#0x1c]
        0x000014ea:    4827        'H      LDR      r0,[pc,#156] ; [0x1588] = 0x40140000
        0x000014ec:    6800        .h      LDR      r0,[r0,#0]
        0x000014ee:    0a00        ..      LSRS     r0,r0,#8
        0x000014f0:    0200        ..      LSLS     r0,r0,#8
        0x000014f2:    300b        .0      ADDS     r0,r0,#0xb
        0x000014f4:    4924        $I      LDR      r1,[pc,#144] ; [0x1588] = 0x40140000
        0x000014f6:    6008        .`      STR      r0,[r1,#0]
        0x000014f8:    4608        .F      MOV      r0,r1
        0x000014fa:    6840        @h      LDR      r0,[r0,#4]
        0x000014fc:    2170        p!      MOVS     r1,#0x70
        0x000014fe:    4388        .C      BICS     r0,r0,r1
        0x00001500:    3040        @0      ADDS     r0,r0,#0x40
        0x00001502:    4921        !I      LDR      r1,[pc,#132] ; [0x1588] = 0x40140000
        0x00001504:    6048        H`      STR      r0,[r1,#4]
        0x00001506:    4608        .F      MOV      r0,r1
        0x00001508:    6880        .h      LDR      r0,[r0,#8]
        0x0000150a:    2101        .!      MOVS     r1,#1
        0x0000150c:    02c9        ..      LSLS     r1,r1,#11
        0x0000150e:    4388        .C      BICS     r0,r0,r1
        0x00001510:    1840        @.      ADDS     r0,r0,r1
        0x00001512:    491d        .I      LDR      r1,[pc,#116] ; [0x1588] = 0x40140000
        0x00001514:    6088        .`      STR      r0,[r1,#8]
        0x00001516:    481d        .H      LDR      r0,[pc,#116] ; [0x158c] = 0xffff
        0x00001518:    6188        .a      STR      r0,[r1,#0x18]
        0x0000151a:    2002        .       MOVS     r0,#2
        0x0000151c:    491a        .I      LDR      r1,[pc,#104] ; [0x1588] = 0x40140000
        0x0000151e:    3140        @1      ADDS     r1,r1,#0x40
        0x00001520:    6388        .c      STR      r0,[r1,#0x38]
        0x00001522:    4608        .F      MOV      r0,r1
        0x00001524:    6900        .i      LDR      r0,[r0,#0x10]
        0x00001526:    2101        .!      MOVS     r1,#1
        0x00001528:    04c9        ..      LSLS     r1,r1,#19
        0x0000152a:    4388        .C      BICS     r0,r0,r1
        0x0000152c:    1840        @.      ADDS     r0,r0,r1
        0x0000152e:    4916        .I      LDR      r1,[pc,#88] ; [0x1588] = 0x40140000
        0x00001530:    3140        @1      ADDS     r1,r1,#0x40
        0x00001532:    6108        .a      STR      r0,[r1,#0x10]
        0x00001534:    4608        .F      MOV      r0,r1
        0x00001536:    6900        .i      LDR      r0,[r0,#0x10]
        0x00001538:    2101        .!      MOVS     r1,#1
        0x0000153a:    0449        I.      LSLS     r1,r1,#17
        0x0000153c:    4388        .C      BICS     r0,r0,r1
        0x0000153e:    1840        @.      ADDS     r0,r0,r1
        0x00001540:    4911        .I      LDR      r1,[pc,#68] ; [0x1588] = 0x40140000
        0x00001542:    3140        @1      ADDS     r1,r1,#0x40
        0x00001544:    6108        .a      STR      r0,[r1,#0x10]
        0x00001546:    4608        .F      MOV      r0,r1
        0x00001548:    6900        .i      LDR      r0,[r0,#0x10]
        0x0000154a:    2101        .!      MOVS     r1,#1
        0x0000154c:    0489        ..      LSLS     r1,r1,#18
        0x0000154e:    4388        .C      BICS     r0,r0,r1
        0x00001550:    1840        @.      ADDS     r0,r0,r1
        0x00001552:    490d        .I      LDR      r1,[pc,#52] ; [0x1588] = 0x40140000
        0x00001554:    3140        @1      ADDS     r1,r1,#0x40
        0x00001556:    6108        .a      STR      r0,[r1,#0x10]
        0x00001558:    4608        .F      MOV      r0,r1
        0x0000155a:    6800        .h      LDR      r0,[r0,#0]
        0x0000155c:    2102        .!      MOVS     r1,#2
        0x0000155e:    4388        .C      BICS     r0,r0,r1
        0x00001560:    1c80        ..      ADDS     r0,r0,#2
        0x00001562:    4909        .I      LDR      r1,[pc,#36] ; [0x1588] = 0x40140000
        0x00001564:    3140        @1      ADDS     r1,r1,#0x40
        0x00001566:    6008        .`      STR      r0,[r1,#0]
        0x00001568:    2007        .       MOVS     r0,#7
        0x0000156a:    f000fab7    ....    BL       NVIC_EnableIRQ ; 0x1adc
        0x0000156e:    4806        .H      LDR      r0,[pc,#24] ; [0x1588] = 0x40140000
        0x00001570:    6880        .h      LDR      r0,[r0,#8]
        0x00001572:    21ff        .!      MOVS     r1,#0xff
        0x00001574:    3101        .1      ADDS     r1,#1
        0x00001576:    4388        .C      BICS     r0,r0,r1
        0x00001578:    1840        @.      ADDS     r0,r0,r1
        0x0000157a:    4903        .I      LDR      r1,[pc,#12] ; [0x1588] = 0x40140000
        0x0000157c:    6088        .`      STR      r0,[r1,#8]
        0x0000157e:    bd10        ..      POP      {r4,pc}
    $d
        0x00001580:    50000040    @..P    DCD    1342177344
        0x00001584:    50000200    ...P    DCD    1342177792
        0x00001588:    40140000    ...@    DCD    1075052544
        0x0000158c:    0000ffff    ....    DCD    65535
    $t
    i.InitPWM1
    InitPWM1
        0x00001590:    2005        .       MOVS     r0,#5
        0x00001592:    0700        ..      LSLS     r0,r0,#28
        0x00001594:    6b00        .k      LDR      r0,[r0,#0x30]
        0x00001596:    2101        .!      MOVS     r1,#1
        0x00001598:    0349        I.      LSLS     r1,r1,#13
        0x0000159a:    4388        .C      BICS     r0,r0,r1
        0x0000159c:    1840        @.      ADDS     r0,r0,r1
        0x0000159e:    2105        .!      MOVS     r1,#5
        0x000015a0:    0709        ..      LSLS     r1,r1,#28
        0x000015a2:    6308        .c      STR      r0,[r1,#0x30]
        0x000015a4:    481f        .H      LDR      r0,[pc,#124] ; [0x1624] = 0x50000200
        0x000015a6:    6880        .h      LDR      r0,[r0,#8]
        0x000015a8:    2101        .!      MOVS     r1,#1
        0x000015aa:    0509        ..      LSLS     r1,r1,#20
        0x000015ac:    4388        .C      BICS     r0,r0,r1
        0x000015ae:    1840        @.      ADDS     r0,r0,r1
        0x000015b0:    491c        .I      LDR      r1,[pc,#112] ; [0x1624] = 0x50000200
        0x000015b2:    6088        .`      STR      r0,[r1,#8]
        0x000015b4:    4608        .F      MOV      r0,r1
        0x000015b6:    6940        @i      LDR      r0,[r0,#0x14]
        0x000015b8:    2103        .!      MOVS     r1,#3
        0x000015ba:    0709        ..      LSLS     r1,r1,#28
        0x000015bc:    4388        .C      BICS     r0,r0,r1
        0x000015be:    4919        .I      LDR      r1,[pc,#100] ; [0x1624] = 0x50000200
        0x000015c0:    6148        Ha      STR      r0,[r1,#0x14]
        0x000015c2:    4819        .H      LDR      r0,[pc,#100] ; [0x1628] = 0x40040000
        0x000015c4:    6800        .h      LDR      r0,[r0,#0]
        0x000015c6:    0a00        ..      LSRS     r0,r0,#8
        0x000015c8:    0200        ..      LSLS     r0,r0,#8
        0x000015ca:    300b        .0      ADDS     r0,r0,#0xb
        0x000015cc:    4916        .I      LDR      r1,[pc,#88] ; [0x1628] = 0x40040000
        0x000015ce:    6008        .`      STR      r0,[r1,#0]
        0x000015d0:    4608        .F      MOV      r0,r1
        0x000015d2:    6840        @h      LDR      r0,[r0,#4]
        0x000015d4:    2170        p!      MOVS     r1,#0x70
        0x000015d6:    4388        .C      BICS     r0,r0,r1
        0x000015d8:    3030        00      ADDS     r0,r0,#0x30
        0x000015da:    4913        .I      LDR      r1,[pc,#76] ; [0x1628] = 0x40040000
        0x000015dc:    6048        H`      STR      r0,[r1,#4]
        0x000015de:    4608        .F      MOV      r0,r1
        0x000015e0:    6880        .h      LDR      r0,[r0,#8]
        0x000015e2:    14c9        ..      ASRS     r1,r1,#19
        0x000015e4:    4388        .C      BICS     r0,r0,r1
        0x000015e6:    1840        @.      ADDS     r0,r0,r1
        0x000015e8:    490f        .I      LDR      r1,[pc,#60] ; [0x1628] = 0x40040000
        0x000015ea:    6088        .`      STR      r0,[r1,#8]
        0x000015ec:    480f        .H      LDR      r0,[pc,#60] ; [0x162c] = 0xffff
        0x000015ee:    6188        .a      STR      r0,[r1,#0x18]
        0x000015f0:    1080        ..      ASRS     r0,r0,#2
        0x000015f2:    61c8        .a      STR      r0,[r1,#0x1c]
        0x000015f4:    4608        .F      MOV      r0,r1
        0x000015f6:    6880        .h      LDR      r0,[r0,#8]
        0x000015f8:    1509        ..      ASRS     r1,r1,#20
        0x000015fa:    4388        .C      BICS     r0,r0,r1
        0x000015fc:    490a        .I      LDR      r1,[pc,#40] ; [0x1628] = 0x40040000
        0x000015fe:    6088        .`      STR      r0,[r1,#8]
        0x00001600:    4608        .F      MOV      r0,r1
        0x00001602:    6880        .h      LDR      r0,[r0,#8]
        0x00001604:    1589        ..      ASRS     r1,r1,#22
        0x00001606:    4388        .C      BICS     r0,r0,r1
        0x00001608:    1840        @.      ADDS     r0,r0,r1
        0x0000160a:    4907        .I      LDR      r1,[pc,#28] ; [0x1628] = 0x40040000
        0x0000160c:    6088        .`      STR      r0,[r1,#8]
        0x0000160e:    4806        .H      LDR      r0,[pc,#24] ; [0x1628] = 0x40040000
        0x00001610:    3040        @0      ADDS     r0,r0,#0x40
        0x00001612:    6bc0        .k      LDR      r0,[r0,#0x3c]
        0x00001614:    2102        .!      MOVS     r1,#2
        0x00001616:    4388        .C      BICS     r0,r0,r1
        0x00001618:    1c80        ..      ADDS     r0,r0,#2
        0x0000161a:    4903        .I      LDR      r1,[pc,#12] ; [0x1628] = 0x40040000
        0x0000161c:    3140        @1      ADDS     r1,r1,#0x40
        0x0000161e:    63c8        .c      STR      r0,[r1,#0x3c]
        0x00001620:    4770        pG      BX       lr
    $d
        0x00001622:    0000        ..      DCW    0
        0x00001624:    50000200    ...P    DCD    1342177792
        0x00001628:    40040000    ...@    DCD    1074003968
        0x0000162c:    0000ffff    ....    DCD    65535
    $t
    i.InitPWM2
    InitPWM2
        0x00001630:    2005        .       MOVS     r0,#5
        0x00001632:    0700        ..      LSLS     r0,r0,#28
        0x00001634:    6b00        .k      LDR      r0,[r0,#0x30]
        0x00001636:    2101        .!      MOVS     r1,#1
        0x00001638:    0389        ..      LSLS     r1,r1,#14
        0x0000163a:    4388        .C      BICS     r0,r0,r1
        0x0000163c:    1840        @.      ADDS     r0,r0,r1
        0x0000163e:    2105        .!      MOVS     r1,#5
        0x00001640:    0709        ..      LSLS     r1,r1,#28
        0x00001642:    6308        .c      STR      r0,[r1,#0x30]
        0x00001644:    4822        "H      LDR      r0,[pc,#136] ; [0x16d0] = 0x50000200
        0x00001646:    6880        .h      LDR      r0,[r0,#8]
        0x00001648:    2101        .!      MOVS     r1,#1
        0x0000164a:    0549        I.      LSLS     r1,r1,#21
        0x0000164c:    4388        .C      BICS     r0,r0,r1
        0x0000164e:    1840        @.      ADDS     r0,r0,r1
        0x00001650:    491f        .I      LDR      r1,[pc,#124] ; [0x16d0] = 0x50000200
        0x00001652:    6088        .`      STR      r0,[r1,#8]
        0x00001654:    4608        .F      MOV      r0,r1
        0x00001656:    6940        @i      LDR      r0,[r0,#0x14]
        0x00001658:    0080        ..      LSLS     r0,r0,#2
        0x0000165a:    0880        ..      LSRS     r0,r0,#2
        0x0000165c:    6148        Ha      STR      r0,[r1,#0x14]
        0x0000165e:    481d        .H      LDR      r0,[pc,#116] ; [0x16d4] = 0x40040000
        0x00001660:    6800        .h      LDR      r0,[r0,#0]
        0x00001662:    21ff        .!      MOVS     r1,#0xff
        0x00001664:    0209        ..      LSLS     r1,r1,#8
        0x00001666:    4388        .C      BICS     r0,r0,r1
        0x00001668:    30ff        .0      ADDS     r0,r0,#0xff
        0x0000166a:    3001        .0      ADDS     r0,#1
        0x0000166c:    4919        .I      LDR      r1,[pc,#100] ; [0x16d4] = 0x40040000
        0x0000166e:    6008        .`      STR      r0,[r1,#0]
        0x00001670:    4608        .F      MOV      r0,r1
        0x00001672:    6840        @h      LDR      r0,[r0,#4]
        0x00001674:    2107        .!      MOVS     r1,#7
        0x00001676:    0209        ..      LSLS     r1,r1,#8
        0x00001678:    4388        .C      BICS     r0,r0,r1
        0x0000167a:    2101        .!      MOVS     r1,#1
        0x0000167c:    0289        ..      LSLS     r1,r1,#10
        0x0000167e:    1840        @.      ADDS     r0,r0,r1
        0x00001680:    4914        .I      LDR      r1,[pc,#80] ; [0x16d4] = 0x40040000
        0x00001682:    6048        H`      STR      r0,[r1,#4]
        0x00001684:    4608        .F      MOV      r0,r1
        0x00001686:    6880        .h      LDR      r0,[r0,#8]
        0x00001688:    2101        .!      MOVS     r1,#1
        0x0000168a:    04c9        ..      LSLS     r1,r1,#19
        0x0000168c:    4388        .C      BICS     r0,r0,r1
        0x0000168e:    1840        @.      ADDS     r0,r0,r1
        0x00001690:    4910        .I      LDR      r1,[pc,#64] ; [0x16d4] = 0x40040000
        0x00001692:    6088        .`      STR      r0,[r1,#8]
        0x00001694:    4810        .H      LDR      r0,[pc,#64] ; [0x16d8] = 0x1fff
        0x00001696:    6248        Hb      STR      r0,[r1,#0x24]
        0x00001698:    1040        @.      ASRS     r0,r0,#1
        0x0000169a:    6288        .b      STR      r0,[r1,#0x28]
        0x0000169c:    4608        .F      MOV      r0,r1
        0x0000169e:    6880        .h      LDR      r0,[r0,#8]
        0x000016a0:    2101        .!      MOVS     r1,#1
        0x000016a2:    0489        ..      LSLS     r1,r1,#18
        0x000016a4:    4388        .C      BICS     r0,r0,r1
        0x000016a6:    490b        .I      LDR      r1,[pc,#44] ; [0x16d4] = 0x40040000
        0x000016a8:    6088        .`      STR      r0,[r1,#8]
        0x000016aa:    4608        .F      MOV      r0,r1
        0x000016ac:    6880        .h      LDR      r0,[r0,#8]
        0x000016ae:    2101        .!      MOVS     r1,#1
        0x000016b0:    0409        ..      LSLS     r1,r1,#16
        0x000016b2:    4388        .C      BICS     r0,r0,r1
        0x000016b4:    1840        @.      ADDS     r0,r0,r1
        0x000016b6:    4907        .I      LDR      r1,[pc,#28] ; [0x16d4] = 0x40040000
        0x000016b8:    6088        .`      STR      r0,[r1,#8]
        0x000016ba:    4806        .H      LDR      r0,[pc,#24] ; [0x16d4] = 0x40040000
        0x000016bc:    3040        @0      ADDS     r0,r0,#0x40
        0x000016be:    6bc0        .k      LDR      r0,[r0,#0x3c]
        0x000016c0:    2104        .!      MOVS     r1,#4
        0x000016c2:    4388        .C      BICS     r0,r0,r1
        0x000016c4:    1d00        ..      ADDS     r0,r0,#4
        0x000016c6:    4903        .I      LDR      r1,[pc,#12] ; [0x16d4] = 0x40040000
        0x000016c8:    3140        @1      ADDS     r1,r1,#0x40
        0x000016ca:    63c8        .c      STR      r0,[r1,#0x3c]
        0x000016cc:    4770        pG      BX       lr
    $d
        0x000016ce:    0000        ..      DCW    0
        0x000016d0:    50000200    ...P    DCD    1342177792
        0x000016d4:    40040000    ...@    DCD    1074003968
        0x000016d8:    00001fff    ....    DCD    8191
    $t
    i.InitRTC
    InitRTC
        0x000016dc:    b51c        ..      PUSH     {r2-r4,lr}
        0x000016de:    2059        Y       MOVS     r0,#0x59
        0x000016e0:    4928        (I      LDR      r1,[pc,#160] ; [0x1784] = 0x50000100
        0x000016e2:    6008        .`      STR      r0,[r1,#0]
        0x000016e4:    2016        .       MOVS     r0,#0x16
        0x000016e6:    6008        .`      STR      r0,[r1,#0]
        0x000016e8:    2088        .       MOVS     r0,#0x88
        0x000016ea:    6008        .`      STR      r0,[r1,#0]
        0x000016ec:    4826        &H      LDR      r0,[pc,#152] ; [0x1788] = 0x50000200
        0x000016ee:    6800        .h      LDR      r0,[r0,#0]
        0x000016f0:    2102        .!      MOVS     r1,#2
        0x000016f2:    4388        .C      BICS     r0,r0,r1
        0x000016f4:    1c80        ..      ADDS     r0,r0,#2
        0x000016f6:    4924        $I      LDR      r1,[pc,#144] ; [0x1788] = 0x50000200
        0x000016f8:    6008        .`      STR      r0,[r1,#0]
        0x000016fa:    4608        .F      MOV      r0,r1
        0x000016fc:    6880        .h      LDR      r0,[r0,#8]
        0x000016fe:    2102        .!      MOVS     r1,#2
        0x00001700:    4388        .C      BICS     r0,r0,r1
        0x00001702:    1c80        ..      ADDS     r0,r0,#2
        0x00001704:    4920         I      LDR      r1,[pc,#128] ; [0x1788] = 0x50000200
        0x00001706:    6088        .`      STR      r0,[r1,#8]
        0x00001708:    f000fbda    ....    BL       START_RTC ; 0x1ec0
        0x0000170c:    481f        .H      LDR      r0,[pc,#124] ; [0x178c] = 0x40008000
        0x0000170e:    6940        @i      LDR      r0,[r0,#0x14]
        0x00001710:    0840        @.      LSRS     r0,r0,#1
        0x00001712:    0040        @.      LSLS     r0,r0,#1
        0x00001714:    1c40        @.      ADDS     r0,r0,#1
        0x00001716:    491d        .I      LDR      r1,[pc,#116] ; [0x178c] = 0x40008000
        0x00001718:    6148        Ha      STR      r0,[r1,#0x14]
        0x0000171a:    2001        .       MOVS     r0,#1
        0x0000171c:    2100        .!      MOVS     r1,#0
        0x0000171e:    2304        .#      MOVS     r3,#4
        0x00001720:    460a        .F      MOV      r2,r1
        0x00001722:    9100        ..      STR      r1,[sp,#0]
        0x00001724:    9001        ..      STR      r0,[sp,#4]
        0x00001726:    2105        .!      MOVS     r1,#5
        0x00001728:    f000ff30    ..0.    BL       set_CLR ; 0x258c
        0x0000172c:    2000        .       MOVS     r0,#0
        0x0000172e:    9000        ..      STR      r0,[sp,#0]
        0x00001730:    4603        .F      MOV      r3,r0
        0x00001732:    2204        ."      MOVS     r2,#4
        0x00001734:    2109        .!      MOVS     r1,#9
        0x00001736:    9001        ..      STR      r0,[sp,#4]
        0x00001738:    f000ff4c    ..L.    BL       set_TLR ; 0x25d4
        0x0000173c:    2001        .       MOVS     r0,#1
        0x0000173e:    2100        .!      MOVS     r1,#0
        0x00001740:    2304        .#      MOVS     r3,#4
        0x00001742:    460a        .F      MOV      r2,r1
        0x00001744:    9100        ..      STR      r1,[sp,#0]
        0x00001746:    9001        ..      STR      r0,[sp,#4]
        0x00001748:    2105        .!      MOVS     r1,#5
        0x0000174a:    f000ff0d    ....    BL       set_CAR ; 0x2568
        0x0000174e:    2000        .       MOVS     r0,#0
        0x00001750:    2102        .!      MOVS     r1,#2
        0x00001752:    4603        .F      MOV      r3,r0
        0x00001754:    2204        ."      MOVS     r2,#4
        0x00001756:    9100        ..      STR      r1,[sp,#0]
        0x00001758:    9001        ..      STR      r0,[sp,#4]
        0x0000175a:    2109        .!      MOVS     r1,#9
        0x0000175c:    f000ff28    ..(.    BL       set_TAR ; 0x25b0
        0x00001760:    480a        .H      LDR      r0,[pc,#40] ; [0x178c] = 0x40008000
        0x00001762:    6a80        .j      LDR      r0,[r0,#0x28]
        0x00001764:    0840        @.      LSRS     r0,r0,#1
        0x00001766:    0040        @.      LSLS     r0,r0,#1
        0x00001768:    1c40        @.      ADDS     r0,r0,#1
        0x0000176a:    4908        .I      LDR      r1,[pc,#32] ; [0x178c] = 0x40008000
        0x0000176c:    6288        .b      STR      r0,[r1,#0x28]
        0x0000176e:    4608        .F      MOV      r0,r1
        0x00001770:    6a80        .j      LDR      r0,[r0,#0x28]
        0x00001772:    2102        .!      MOVS     r1,#2
        0x00001774:    4388        .C      BICS     r0,r0,r1
        0x00001776:    1c80        ..      ADDS     r0,r0,#2
        0x00001778:    4904        .I      LDR      r1,[pc,#16] ; [0x178c] = 0x40008000
        0x0000177a:    6288        .b      STR      r0,[r1,#0x28]
        0x0000177c:    201f        .       MOVS     r0,#0x1f
        0x0000177e:    f000f9ad    ....    BL       NVIC_EnableIRQ ; 0x1adc
        0x00001782:    bd1c        ..      POP      {r2-r4,pc}
    $d
        0x00001784:    50000100    ...P    DCD    1342177536
        0x00001788:    50000200    ...P    DCD    1342177792
        0x0000178c:    40008000    ...@    DCD    1073774592
    $t
    i.InitTIMER0
    InitTIMER0
        0x00001790:    b510        ..      PUSH     {r4,lr}
        0x00001792:    2005        .       MOVS     r0,#5
        0x00001794:    0700        ..      LSLS     r0,r0,#28
        0x00001796:    6b40        @k      LDR      r0,[r0,#0x34]
        0x00001798:    21ff        .!      MOVS     r1,#0xff
        0x0000179a:    3101        .1      ADDS     r1,#1
        0x0000179c:    4388        .C      BICS     r0,r0,r1
        0x0000179e:    1840        @.      ADDS     r0,r0,r1
        0x000017a0:    2105        .!      MOVS     r1,#5
        0x000017a2:    0709        ..      LSLS     r1,r1,#28
        0x000017a4:    6348        Hc      STR      r0,[r1,#0x34]
        0x000017a6:    4820         H      LDR      r0,[pc,#128] ; [0x1828] = 0x50000200
        0x000017a8:    6940        @i      LDR      r0,[r0,#0x14]
        0x000017aa:    2107        .!      MOVS     r1,#7
        0x000017ac:    0209        ..      LSLS     r1,r1,#8
        0x000017ae:    4388        .C      BICS     r0,r0,r1
        0x000017b0:    491d        .I      LDR      r1,[pc,#116] ; [0x1828] = 0x50000200
        0x000017b2:    6148        Ha      STR      r0,[r1,#0x14]
        0x000017b4:    4608        .F      MOV      r0,r1
        0x000017b6:    6880        .h      LDR      r0,[r0,#8]
        0x000017b8:    2104        .!      MOVS     r1,#4
        0x000017ba:    4388        .C      BICS     r0,r0,r1
        0x000017bc:    1d00        ..      ADDS     r0,r0,#4
        0x000017be:    491a        .I      LDR      r1,[pc,#104] ; [0x1828] = 0x50000200
        0x000017c0:    6088        .`      STR      r0,[r1,#8]
        0x000017c2:    481a        .H      LDR      r0,[pc,#104] ; [0x182c] = 0x40010000
        0x000017c4:    6800        .h      LDR      r0,[r0,#0]
        0x000017c6:    2103        .!      MOVS     r1,#3
        0x000017c8:    06c9        ..      LSLS     r1,r1,#27
        0x000017ca:    4388        .C      BICS     r0,r0,r1
        0x000017cc:    2101        .!      MOVS     r1,#1
        0x000017ce:    0709        ..      LSLS     r1,r1,#28
        0x000017d0:    1840        @.      ADDS     r0,r0,r1
        0x000017d2:    4916        .I      LDR      r1,[pc,#88] ; [0x182c] = 0x40010000
        0x000017d4:    6008        .`      STR      r0,[r1,#0]
        0x000017d6:    4608        .F      MOV      r0,r1
        0x000017d8:    6800        .h      LDR      r0,[r0,#0]
        0x000017da:    0a00        ..      LSRS     r0,r0,#8
        0x000017dc:    0200        ..      LSLS     r0,r0,#8
        0x000017de:    300b        .0      ADDS     r0,r0,#0xb
        0x000017e0:    6008        .`      STR      r0,[r1,#0]
        0x000017e2:    4813        .H      LDR      r0,[pc,#76] ; [0x1830] = 0xf4240
        0x000017e4:    6048        H`      STR      r0,[r1,#4]
        0x000017e6:    4608        .F      MOV      r0,r1
        0x000017e8:    6800        .h      LDR      r0,[r0,#0]
        0x000017ea:    0349        I.      LSLS     r1,r1,#13
        0x000017ec:    4388        .C      BICS     r0,r0,r1
        0x000017ee:    1840        @.      ADDS     r0,r0,r1
        0x000017f0:    490e        .I      LDR      r1,[pc,#56] ; [0x182c] = 0x40010000
        0x000017f2:    6008        .`      STR      r0,[r1,#0]
        0x000017f4:    4608        .F      MOV      r0,r1
        0x000017f6:    6880        .h      LDR      r0,[r0,#8]
        0x000017f8:    0840        @.      LSRS     r0,r0,#1
        0x000017fa:    0040        @.      LSLS     r0,r0,#1
        0x000017fc:    1c40        @.      ADDS     r0,r0,#1
        0x000017fe:    6088        .`      STR      r0,[r1,#8]
        0x00001800:    2008        .       MOVS     r0,#8
        0x00001802:    f000f96b    ..k.    BL       NVIC_EnableIRQ ; 0x1adc
        0x00001806:    4809        .H      LDR      r0,[pc,#36] ; [0x182c] = 0x40010000
        0x00001808:    6800        .h      LDR      r0,[r0,#0]
        0x0000180a:    2101        .!      MOVS     r1,#1
        0x0000180c:    0689        ..      LSLS     r1,r1,#26
        0x0000180e:    4388        .C      BICS     r0,r0,r1
        0x00001810:    1840        @.      ADDS     r0,r0,r1
        0x00001812:    4906        .I      LDR      r1,[pc,#24] ; [0x182c] = 0x40010000
        0x00001814:    6008        .`      STR      r0,[r1,#0]
        0x00001816:    4608        .F      MOV      r0,r1
        0x00001818:    6800        .h      LDR      r0,[r0,#0]
        0x0000181a:    0389        ..      LSLS     r1,r1,#14
        0x0000181c:    4388        .C      BICS     r0,r0,r1
        0x0000181e:    1840        @.      ADDS     r0,r0,r1
        0x00001820:    4902        .I      LDR      r1,[pc,#8] ; [0x182c] = 0x40010000
        0x00001822:    6008        .`      STR      r0,[r1,#0]
        0x00001824:    bd10        ..      POP      {r4,pc}
    $d
        0x00001826:    0000        ..      DCW    0
        0x00001828:    50000200    ...P    DCD    1342177792
        0x0000182c:    40010000    ...@    DCD    1073807360
        0x00001830:    000f4240    @B..    DCD    1000000
    $t
    i.InitTIMER3
    InitTIMER3
        0x00001834:    b510        ..      PUSH     {r4,lr}
        0x00001836:    4820         H      LDR      r0,[pc,#128] ; [0x18b8] = 0x50000200
        0x00001838:    6940        @i      LDR      r0,[r0,#0x14]
        0x0000183a:    2107        .!      MOVS     r1,#7
        0x0000183c:    0509        ..      LSLS     r1,r1,#20
        0x0000183e:    4388        .C      BICS     r0,r0,r1
        0x00001840:    491d        .I      LDR      r1,[pc,#116] ; [0x18b8] = 0x50000200
        0x00001842:    6148        Ha      STR      r0,[r1,#0x14]
        0x00001844:    4608        .F      MOV      r0,r1
        0x00001846:    6880        .h      LDR      r0,[r0,#8]
        0x00001848:    2120         !      MOVS     r1,#0x20
        0x0000184a:    4388        .C      BICS     r0,r0,r1
        0x0000184c:    3020         0      ADDS     r0,r0,#0x20
        0x0000184e:    491a        .I      LDR      r1,[pc,#104] ; [0x18b8] = 0x50000200
        0x00001850:    6088        .`      STR      r0,[r1,#8]
        0x00001852:    481a        .H      LDR      r0,[pc,#104] ; [0x18bc] = 0x40110000
        0x00001854:    6a00        .j      LDR      r0,[r0,#0x20]
        0x00001856:    2103        .!      MOVS     r1,#3
        0x00001858:    06c9        ..      LSLS     r1,r1,#27
        0x0000185a:    4388        .C      BICS     r0,r0,r1
        0x0000185c:    2101        .!      MOVS     r1,#1
        0x0000185e:    06c9        ..      LSLS     r1,r1,#27
        0x00001860:    1840        @.      ADDS     r0,r0,r1
        0x00001862:    4916        .I      LDR      r1,[pc,#88] ; [0x18bc] = 0x40110000
        0x00001864:    6208        .b      STR      r0,[r1,#0x20]
        0x00001866:    4608        .F      MOV      r0,r1
        0x00001868:    6a00        .j      LDR      r0,[r0,#0x20]
        0x0000186a:    0a00        ..      LSRS     r0,r0,#8
        0x0000186c:    0200        ..      LSLS     r0,r0,#8
        0x0000186e:    300b        .0      ADDS     r0,r0,#0xb
        0x00001870:    6208        .b      STR      r0,[r1,#0x20]
        0x00001872:    4813        .H      LDR      r0,[pc,#76] ; [0x18c0] = 0xf4240
        0x00001874:    6248        Hb      STR      r0,[r1,#0x24]
        0x00001876:    4608        .F      MOV      r0,r1
        0x00001878:    6a00        .j      LDR      r0,[r0,#0x20]
        0x0000187a:    0349        I.      LSLS     r1,r1,#13
        0x0000187c:    4388        .C      BICS     r0,r0,r1
        0x0000187e:    1840        @.      ADDS     r0,r0,r1
        0x00001880:    490e        .I      LDR      r1,[pc,#56] ; [0x18bc] = 0x40110000
        0x00001882:    6208        .b      STR      r0,[r1,#0x20]
        0x00001884:    4608        .F      MOV      r0,r1
        0x00001886:    6a80        .j      LDR      r0,[r0,#0x28]
        0x00001888:    0840        @.      LSRS     r0,r0,#1
        0x0000188a:    0040        @.      LSLS     r0,r0,#1
        0x0000188c:    1c40        @.      ADDS     r0,r0,#1
        0x0000188e:    6288        .b      STR      r0,[r1,#0x28]
        0x00001890:    200b        .       MOVS     r0,#0xb
        0x00001892:    f000f923    ..#.    BL       NVIC_EnableIRQ ; 0x1adc
        0x00001896:    4809        .H      LDR      r0,[pc,#36] ; [0x18bc] = 0x40110000
        0x00001898:    6a00        .j      LDR      r0,[r0,#0x20]
        0x0000189a:    2101        .!      MOVS     r1,#1
        0x0000189c:    0689        ..      LSLS     r1,r1,#26
        0x0000189e:    4388        .C      BICS     r0,r0,r1
        0x000018a0:    1840        @.      ADDS     r0,r0,r1
        0x000018a2:    4906        .I      LDR      r1,[pc,#24] ; [0x18bc] = 0x40110000
        0x000018a4:    6208        .b      STR      r0,[r1,#0x20]
        0x000018a6:    4608        .F      MOV      r0,r1
        0x000018a8:    6a00        .j      LDR      r0,[r0,#0x20]
        0x000018aa:    0389        ..      LSLS     r1,r1,#14
        0x000018ac:    4388        .C      BICS     r0,r0,r1
        0x000018ae:    1840        @.      ADDS     r0,r0,r1
        0x000018b0:    4902        .I      LDR      r1,[pc,#8] ; [0x18bc] = 0x40110000
        0x000018b2:    6208        .b      STR      r0,[r1,#0x20]
        0x000018b4:    bd10        ..      POP      {r4,pc}
    $d
        0x000018b6:    0000        ..      DCW    0
        0x000018b8:    50000200    ...P    DCD    1342177792
        0x000018bc:    40110000    ...@    DCD    1074855936
        0x000018c0:    000f4240    @B..    DCD    1000000
    $t
    i.Initial_pannel
    Initial_pannel
        0x000018c4:    4883        .H      LDR      r0,[pc,#524] ; [0x1ad4] = 0x50000200
        0x000018c6:    6880        .h      LDR      r0,[r0,#8]
        0x000018c8:    2101        .!      MOVS     r1,#1
        0x000018ca:    03c9        ..      LSLS     r1,r1,#15
        0x000018cc:    4388        .C      BICS     r0,r0,r1
        0x000018ce:    1840        @.      ADDS     r0,r0,r1
        0x000018d0:    4980        .I      LDR      r1,[pc,#512] ; [0x1ad4] = 0x50000200
        0x000018d2:    6088        .`      STR      r0,[r1,#8]
        0x000018d4:    2005        .       MOVS     r0,#5
        0x000018d6:    0700        ..      LSLS     r0,r0,#28
        0x000018d8:    68c0        .h      LDR      r0,[r0,#0xc]
        0x000018da:    0189        ..      LSLS     r1,r1,#6
        0x000018dc:    4388        .C      BICS     r0,r0,r1
        0x000018de:    1840        @.      ADDS     r0,r0,r1
        0x000018e0:    2105        .!      MOVS     r1,#5
        0x000018e2:    0709        ..      LSLS     r1,r1,#28
        0x000018e4:    60c8        .`      STR      r0,[r1,#0xc]
        0x000018e6:    4608        .F      MOV      r0,r1
        0x000018e8:    68c0        .h      LDR      r0,[r0,#0xc]
        0x000018ea:    2101        .!      MOVS     r1,#1
        0x000018ec:    03c9        ..      LSLS     r1,r1,#15
        0x000018ee:    4388        .C      BICS     r0,r0,r1
        0x000018f0:    2105        .!      MOVS     r1,#5
        0x000018f2:    0709        ..      LSLS     r1,r1,#28
        0x000018f4:    60c8        .`      STR      r0,[r1,#0xc]
        0x000018f6:    4608        .F      MOV      r0,r1
        0x000018f8:    6bc0        .k      LDR      r0,[r0,#0x3c]
        0x000018fa:    21ff        .!      MOVS     r1,#0xff
        0x000018fc:    3101        .1      ADDS     r1,#1
        0x000018fe:    4388        .C      BICS     r0,r0,r1
        0x00001900:    1840        @.      ADDS     r0,r0,r1
        0x00001902:    2105        .!      MOVS     r1,#5
        0x00001904:    0709        ..      LSLS     r1,r1,#28
        0x00001906:    63c8        .c      STR      r0,[r1,#0x3c]
        0x00001908:    4608        .F      MOV      r0,r1
        0x0000190a:    6bc0        .k      LDR      r0,[r0,#0x3c]
        0x0000190c:    2101        .!      MOVS     r1,#1
        0x0000190e:    0249        I.      LSLS     r1,r1,#9
        0x00001910:    4388        .C      BICS     r0,r0,r1
        0x00001912:    1840        @.      ADDS     r0,r0,r1
        0x00001914:    2105        .!      MOVS     r1,#5
        0x00001916:    0709        ..      LSLS     r1,r1,#28
        0x00001918:    63c8        .c      STR      r0,[r1,#0x3c]
        0x0000191a:    4608        .F      MOV      r0,r1
        0x0000191c:    6bc0        .k      LDR      r0,[r0,#0x3c]
        0x0000191e:    2101        .!      MOVS     r1,#1
        0x00001920:    02c9        ..      LSLS     r1,r1,#11
        0x00001922:    4388        .C      BICS     r0,r0,r1
        0x00001924:    1840        @.      ADDS     r0,r0,r1
        0x00001926:    2105        .!      MOVS     r1,#5
        0x00001928:    0709        ..      LSLS     r1,r1,#28
        0x0000192a:    63c8        .c      STR      r0,[r1,#0x3c]
        0x0000192c:    486a        jH      LDR      r0,[pc,#424] ; [0x1ad8] = 0x2000002c
        0x0000192e:    68c0        .h      LDR      r0,[r0,#0xc]
        0x00001930:    6800        .h      LDR      r0,[r0,#0]
        0x00001932:    2101        .!      MOVS     r1,#1
        0x00001934:    02c9        ..      LSLS     r1,r1,#11
        0x00001936:    4388        .C      BICS     r0,r0,r1
        0x00001938:    1840        @.      ADDS     r0,r0,r1
        0x0000193a:    4967        gI      LDR      r1,[pc,#412] ; [0x1ad8] = 0x2000002c
        0x0000193c:    68c9        .h      LDR      r1,[r1,#0xc]
        0x0000193e:    6008        .`      STR      r0,[r1,#0]
        0x00001940:    4865        eH      LDR      r0,[pc,#404] ; [0x1ad8] = 0x2000002c
        0x00001942:    68c0        .h      LDR      r0,[r0,#0xc]
        0x00001944:    6800        .h      LDR      r0,[r0,#0]
        0x00001946:    21f8        .!      MOVS     r1,#0xf8
        0x00001948:    4388        .C      BICS     r0,r0,r1
        0x0000194a:    3048        H0      ADDS     r0,r0,#0x48
        0x0000194c:    4962        bI      LDR      r1,[pc,#392] ; [0x1ad8] = 0x2000002c
        0x0000194e:    68c9        .h      LDR      r1,[r1,#0xc]
        0x00001950:    6008        .`      STR      r0,[r1,#0]
        0x00001952:    4861        aH      LDR      r0,[pc,#388] ; [0x1ad8] = 0x2000002c
        0x00001954:    68c0        .h      LDR      r0,[r0,#0xc]
        0x00001956:    6800        .h      LDR      r0,[r0,#0]
        0x00001958:    2104        .!      MOVS     r1,#4
        0x0000195a:    4388        .C      BICS     r0,r0,r1
        0x0000195c:    1d00        ..      ADDS     r0,r0,#4
        0x0000195e:    495e        ^I      LDR      r1,[pc,#376] ; [0x1ad8] = 0x2000002c
        0x00001960:    68c9        .h      LDR      r1,[r1,#0xc]
        0x00001962:    6008        .`      STR      r0,[r1,#0]
        0x00001964:    485c        \H      LDR      r0,[pc,#368] ; [0x1ad8] = 0x2000002c
        0x00001966:    68c0        .h      LDR      r0,[r0,#0xc]
        0x00001968:    6840        @h      LDR      r0,[r0,#4]
        0x0000196a:    0c00        ..      LSRS     r0,r0,#16
        0x0000196c:    0400        ..      LSLS     r0,r0,#16
        0x0000196e:    1cc0        ..      ADDS     r0,r0,#3
        0x00001970:    4959        YI      LDR      r1,[pc,#356] ; [0x1ad8] = 0x2000002c
        0x00001972:    68c9        .h      LDR      r1,[r1,#0xc]
        0x00001974:    6048        H`      STR      r0,[r1,#4]
        0x00001976:    4858        XH      LDR      r0,[pc,#352] ; [0x1ad8] = 0x2000002c
        0x00001978:    68c0        .h      LDR      r0,[r0,#0xc]
        0x0000197a:    6880        .h      LDR      r0,[r0,#8]
        0x0000197c:    0880        ..      LSRS     r0,r0,#2
        0x0000197e:    0080        ..      LSLS     r0,r0,#2
        0x00001980:    1c40        @.      ADDS     r0,r0,#1
        0x00001982:    4955        UI      LDR      r1,[pc,#340] ; [0x1ad8] = 0x2000002c
        0x00001984:    68c9        .h      LDR      r1,[r1,#0xc]
        0x00001986:    6088        .`      STR      r0,[r1,#8]
        0x00001988:    20eb        .       MOVS     r0,#0xeb
        0x0000198a:    4953        SI      LDR      r1,[pc,#332] ; [0x1ad8] = 0x2000002c
        0x0000198c:    68c9        .h      LDR      r1,[r1,#0xc]
        0x0000198e:    6208        .b      STR      r0,[r1,#0x20]
        0x00001990:    4851        QH      LDR      r0,[pc,#324] ; [0x1ad8] = 0x2000002c
        0x00001992:    68c0        .h      LDR      r0,[r0,#0xc]
        0x00001994:    6800        .h      LDR      r0,[r0,#0]
        0x00001996:    0840        @.      LSRS     r0,r0,#1
        0x00001998:    0040        @.      LSLS     r0,r0,#1
        0x0000199a:    1c40        @.      ADDS     r0,r0,#1
        0x0000199c:    494e        NI      LDR      r1,[pc,#312] ; [0x1ad8] = 0x2000002c
        0x0000199e:    68c9        .h      LDR      r1,[r1,#0xc]
        0x000019a0:    6008        .`      STR      r0,[r1,#0]
        0x000019a2:    bf00        ..      NOP      
        0x000019a4:    484c        LH      LDR      r0,[pc,#304] ; [0x1ad8] = 0x2000002c
        0x000019a6:    68c0        .h      LDR      r0,[r0,#0xc]
        0x000019a8:    6800        .h      LDR      r0,[r0,#0]
        0x000019aa:    07c0        ..      LSLS     r0,r0,#31
        0x000019ac:    0fc0        ..      LSRS     r0,r0,#31
        0x000019ae:    2801        .(      CMP      r0,#1
        0x000019b0:    d0f8        ..      BEQ      0x19a4 ; Initial_pannel + 224
        0x000019b2:    4849        IH      LDR      r0,[pc,#292] ; [0x1ad8] = 0x2000002c
        0x000019b4:    68c0        .h      LDR      r0,[r0,#0xc]
        0x000019b6:    6880        .h      LDR      r0,[r0,#8]
        0x000019b8:    0880        ..      LSRS     r0,r0,#2
        0x000019ba:    0080        ..      LSLS     r0,r0,#2
        0x000019bc:    4946        FI      LDR      r1,[pc,#280] ; [0x1ad8] = 0x2000002c
        0x000019be:    68c9        .h      LDR      r1,[r1,#0xc]
        0x000019c0:    6088        .`      STR      r0,[r1,#8]
        0x000019c2:    4845        EH      LDR      r0,[pc,#276] ; [0x1ad8] = 0x2000002c
        0x000019c4:    68c0        .h      LDR      r0,[r0,#0xc]
        0x000019c6:    6880        .h      LDR      r0,[r0,#8]
        0x000019c8:    0880        ..      LSRS     r0,r0,#2
        0x000019ca:    0080        ..      LSLS     r0,r0,#2
        0x000019cc:    1c40        @.      ADDS     r0,r0,#1
        0x000019ce:    4942        BI      LDR      r1,[pc,#264] ; [0x1ad8] = 0x2000002c
        0x000019d0:    68c9        .h      LDR      r1,[r1,#0xc]
        0x000019d2:    6088        .`      STR      r0,[r1,#8]
        0x000019d4:    2081        .       MOVS     r0,#0x81
        0x000019d6:    4940        @I      LDR      r1,[pc,#256] ; [0x1ad8] = 0x2000002c
        0x000019d8:    68c9        .h      LDR      r1,[r1,#0xc]
        0x000019da:    6208        .b      STR      r0,[r1,#0x20]
        0x000019dc:    483e        >H      LDR      r0,[pc,#248] ; [0x1ad8] = 0x2000002c
        0x000019de:    68c0        .h      LDR      r0,[r0,#0xc]
        0x000019e0:    6800        .h      LDR      r0,[r0,#0]
        0x000019e2:    0840        @.      LSRS     r0,r0,#1
        0x000019e4:    0040        @.      LSLS     r0,r0,#1
        0x000019e6:    1c40        @.      ADDS     r0,r0,#1
        0x000019e8:    493b        ;I      LDR      r1,[pc,#236] ; [0x1ad8] = 0x2000002c
        0x000019ea:    68c9        .h      LDR      r1,[r1,#0xc]
        0x000019ec:    6008        .`      STR      r0,[r1,#0]
        0x000019ee:    bf00        ..      NOP      
        0x000019f0:    4839        9H      LDR      r0,[pc,#228] ; [0x1ad8] = 0x2000002c
        0x000019f2:    68c0        .h      LDR      r0,[r0,#0xc]
        0x000019f4:    6800        .h      LDR      r0,[r0,#0]
        0x000019f6:    07c0        ..      LSLS     r0,r0,#31
        0x000019f8:    0fc0        ..      LSRS     r0,r0,#31
        0x000019fa:    2801        .(      CMP      r0,#1
        0x000019fc:    d0f8        ..      BEQ      0x19f0 ; Initial_pannel + 300
        0x000019fe:    20a0        .       MOVS     r0,#0xa0
        0x00001a00:    4935        5I      LDR      r1,[pc,#212] ; [0x1ad8] = 0x2000002c
        0x00001a02:    68c9        .h      LDR      r1,[r1,#0xc]
        0x00001a04:    6208        .b      STR      r0,[r1,#0x20]
        0x00001a06:    4834        4H      LDR      r0,[pc,#208] ; [0x1ad8] = 0x2000002c
        0x00001a08:    68c0        .h      LDR      r0,[r0,#0xc]
        0x00001a0a:    6800        .h      LDR      r0,[r0,#0]
        0x00001a0c:    0840        @.      LSRS     r0,r0,#1
        0x00001a0e:    0040        @.      LSLS     r0,r0,#1
        0x00001a10:    1c40        @.      ADDS     r0,r0,#1
        0x00001a12:    4931        1I      LDR      r1,[pc,#196] ; [0x1ad8] = 0x2000002c
        0x00001a14:    68c9        .h      LDR      r1,[r1,#0xc]
        0x00001a16:    6008        .`      STR      r0,[r1,#0]
        0x00001a18:    bf00        ..      NOP      
        0x00001a1a:    482f        /H      LDR      r0,[pc,#188] ; [0x1ad8] = 0x2000002c
        0x00001a1c:    68c0        .h      LDR      r0,[r0,#0xc]
        0x00001a1e:    6800        .h      LDR      r0,[r0,#0]
        0x00001a20:    07c0        ..      LSLS     r0,r0,#31
        0x00001a22:    0fc0        ..      LSRS     r0,r0,#31
        0x00001a24:    2801        .(      CMP      r0,#1
        0x00001a26:    d0f8        ..      BEQ      0x1a1a ; Initial_pannel + 342
        0x00001a28:    482b        +H      LDR      r0,[pc,#172] ; [0x1ad8] = 0x2000002c
        0x00001a2a:    68c0        .h      LDR      r0,[r0,#0xc]
        0x00001a2c:    6880        .h      LDR      r0,[r0,#8]
        0x00001a2e:    0880        ..      LSRS     r0,r0,#2
        0x00001a30:    0080        ..      LSLS     r0,r0,#2
        0x00001a32:    4929        )I      LDR      r1,[pc,#164] ; [0x1ad8] = 0x2000002c
        0x00001a34:    68c9        .h      LDR      r1,[r1,#0xc]
        0x00001a36:    6088        .`      STR      r0,[r1,#8]
        0x00001a38:    4827        'H      LDR      r0,[pc,#156] ; [0x1ad8] = 0x2000002c
        0x00001a3a:    68c0        .h      LDR      r0,[r0,#0xc]
        0x00001a3c:    6880        .h      LDR      r0,[r0,#8]
        0x00001a3e:    0880        ..      LSRS     r0,r0,#2
        0x00001a40:    0080        ..      LSLS     r0,r0,#2
        0x00001a42:    1c40        @.      ADDS     r0,r0,#1
        0x00001a44:    4924        $I      LDR      r1,[pc,#144] ; [0x1ad8] = 0x2000002c
        0x00001a46:    68c9        .h      LDR      r1,[r1,#0xc]
        0x00001a48:    6088        .`      STR      r0,[r1,#8]
        0x00001a4a:    20c0        .       MOVS     r0,#0xc0
        0x00001a4c:    4922        "I      LDR      r1,[pc,#136] ; [0x1ad8] = 0x2000002c
        0x00001a4e:    68c9        .h      LDR      r1,[r1,#0xc]
        0x00001a50:    6208        .b      STR      r0,[r1,#0x20]
        0x00001a52:    4821        !H      LDR      r0,[pc,#132] ; [0x1ad8] = 0x2000002c
        0x00001a54:    68c0        .h      LDR      r0,[r0,#0xc]
        0x00001a56:    6800        .h      LDR      r0,[r0,#0]
        0x00001a58:    0840        @.      LSRS     r0,r0,#1
        0x00001a5a:    0040        @.      LSLS     r0,r0,#1
        0x00001a5c:    1c40        @.      ADDS     r0,r0,#1
        0x00001a5e:    491e        .I      LDR      r1,[pc,#120] ; [0x1ad8] = 0x2000002c
        0x00001a60:    68c9        .h      LDR      r1,[r1,#0xc]
        0x00001a62:    6008        .`      STR      r0,[r1,#0]
        0x00001a64:    bf00        ..      NOP      
        0x00001a66:    481c        .H      LDR      r0,[pc,#112] ; [0x1ad8] = 0x2000002c
        0x00001a68:    68c0        .h      LDR      r0,[r0,#0xc]
        0x00001a6a:    6800        .h      LDR      r0,[r0,#0]
        0x00001a6c:    07c0        ..      LSLS     r0,r0,#31
        0x00001a6e:    0fc0        ..      LSRS     r0,r0,#31
        0x00001a70:    2801        .(      CMP      r0,#1
        0x00001a72:    d0f8        ..      BEQ      0x1a66 ; Initial_pannel + 418
        0x00001a74:    4818        .H      LDR      r0,[pc,#96] ; [0x1ad8] = 0x2000002c
        0x00001a76:    68c0        .h      LDR      r0,[r0,#0xc]
        0x00001a78:    6880        .h      LDR      r0,[r0,#8]
        0x00001a7a:    0880        ..      LSRS     r0,r0,#2
        0x00001a7c:    0080        ..      LSLS     r0,r0,#2
        0x00001a7e:    4916        .I      LDR      r1,[pc,#88] ; [0x1ad8] = 0x2000002c
        0x00001a80:    68c9        .h      LDR      r1,[r1,#0xc]
        0x00001a82:    6088        .`      STR      r0,[r1,#8]
        0x00001a84:    4814        .H      LDR      r0,[pc,#80] ; [0x1ad8] = 0x2000002c
        0x00001a86:    68c0        .h      LDR      r0,[r0,#0xc]
        0x00001a88:    6880        .h      LDR      r0,[r0,#8]
        0x00001a8a:    0880        ..      LSRS     r0,r0,#2
        0x00001a8c:    0080        ..      LSLS     r0,r0,#2
        0x00001a8e:    1c40        @.      ADDS     r0,r0,#1
        0x00001a90:    4911        .I      LDR      r1,[pc,#68] ; [0x1ad8] = 0x2000002c
        0x00001a92:    68c9        .h      LDR      r1,[r1,#0xc]
        0x00001a94:    6088        .`      STR      r0,[r1,#8]
        0x00001a96:    20af        .       MOVS     r0,#0xaf
        0x00001a98:    490f        .I      LDR      r1,[pc,#60] ; [0x1ad8] = 0x2000002c
        0x00001a9a:    68c9        .h      LDR      r1,[r1,#0xc]
        0x00001a9c:    6208        .b      STR      r0,[r1,#0x20]
        0x00001a9e:    480e        .H      LDR      r0,[pc,#56] ; [0x1ad8] = 0x2000002c
        0x00001aa0:    68c0        .h      LDR      r0,[r0,#0xc]
        0x00001aa2:    6800        .h      LDR      r0,[r0,#0]
        0x00001aa4:    0840        @.      LSRS     r0,r0,#1
        0x00001aa6:    0040        @.      LSLS     r0,r0,#1
        0x00001aa8:    1c40        @.      ADDS     r0,r0,#1
        0x00001aaa:    490b        .I      LDR      r1,[pc,#44] ; [0x1ad8] = 0x2000002c
        0x00001aac:    68c9        .h      LDR      r1,[r1,#0xc]
        0x00001aae:    6008        .`      STR      r0,[r1,#0]
        0x00001ab0:    bf00        ..      NOP      
        0x00001ab2:    4809        .H      LDR      r0,[pc,#36] ; [0x1ad8] = 0x2000002c
        0x00001ab4:    68c0        .h      LDR      r0,[r0,#0xc]
        0x00001ab6:    6800        .h      LDR      r0,[r0,#0]
        0x00001ab8:    07c0        ..      LSLS     r0,r0,#31
        0x00001aba:    0fc0        ..      LSRS     r0,r0,#31
        0x00001abc:    2801        .(      CMP      r0,#1
        0x00001abe:    d0f8        ..      BEQ      0x1ab2 ; Initial_pannel + 494
        0x00001ac0:    4805        .H      LDR      r0,[pc,#20] ; [0x1ad8] = 0x2000002c
        0x00001ac2:    68c0        .h      LDR      r0,[r0,#0xc]
        0x00001ac4:    6880        .h      LDR      r0,[r0,#8]
        0x00001ac6:    0880        ..      LSRS     r0,r0,#2
        0x00001ac8:    0080        ..      LSLS     r0,r0,#2
        0x00001aca:    4903        .I      LDR      r1,[pc,#12] ; [0x1ad8] = 0x2000002c
        0x00001acc:    68c9        .h      LDR      r1,[r1,#0xc]
        0x00001ace:    6088        .`      STR      r0,[r1,#8]
        0x00001ad0:    4770        pG      BX       lr
    $d
        0x00001ad2:    0000        ..      DCW    0
        0x00001ad4:    50000200    ...P    DCD    1342177792
        0x00001ad8:    2000002c    ,..     DCD    536870956
    $t
    i.NVIC_EnableIRQ
    NVIC_EnableIRQ
        0x00001adc:    06c2        ..      LSLS     r2,r0,#27
        0x00001ade:    0ed2        ..      LSRS     r2,r2,#27
        0x00001ae0:    2101        .!      MOVS     r1,#1
        0x00001ae2:    4091        .@      LSLS     r1,r1,r2
        0x00001ae4:    4a01        .J      LDR      r2,[pc,#4] ; [0x1aec] = 0xe000e100
        0x00001ae6:    6011        .`      STR      r1,[r2,#0]
        0x00001ae8:    4770        pG      BX       lr
    $d
        0x00001aea:    0000        ..      DCW    0
        0x00001aec:    e000e100    ....    DCD    3758153984
    $t
    i.NVIC_EnableIRQ
    NVIC_EnableIRQ
        0x00001af0:    06c2        ..      LSLS     r2,r0,#27
        0x00001af2:    0ed2        ..      LSRS     r2,r2,#27
        0x00001af4:    2101        .!      MOVS     r1,#1
        0x00001af6:    4091        .@      LSLS     r1,r1,r2
        0x00001af8:    4a01        .J      LDR      r2,[pc,#4] ; [0x1b00] = 0xe000e100
        0x00001afa:    6011        .`      STR      r1,[r2,#0]
        0x00001afc:    4770        pG      BX       lr
    $d
        0x00001afe:    0000        ..      DCW    0
        0x00001b00:    e000e100    ....    DCD    3758153984
    $t
    i.NVIC_SetPriority
    NVIC_SetPriority
        0x00001b04:    b510        ..      PUSH     {r4,lr}
        0x00001b06:    2800        .(      CMP      r0,#0
        0x00001b08:    da19        ..      BGE      0x1b3e ; NVIC_SetPriority + 58
        0x00001b0a:    4a1a        .J      LDR      r2,[pc,#104] ; [0x1b74] = 0xe000ed1c
        0x00001b0c:    0703        ..      LSLS     r3,r0,#28
        0x00001b0e:    0f1b        ..      LSRS     r3,r3,#28
        0x00001b10:    3b08        .;      SUBS     r3,r3,#8
        0x00001b12:    089b        ..      LSRS     r3,r3,#2
        0x00001b14:    009b        ..      LSLS     r3,r3,#2
        0x00001b16:    58d2        .X      LDR      r2,[r2,r3]
        0x00001b18:    0783        ..      LSLS     r3,r0,#30
        0x00001b1a:    0edc        ..      LSRS     r4,r3,#27
        0x00001b1c:    23ff        .#      MOVS     r3,#0xff
        0x00001b1e:    40a3        .@      LSLS     r3,r3,r4
        0x00001b20:    439a        .C      BICS     r2,r2,r3
        0x00001b22:    078b        ..      LSLS     r3,r1,#30
        0x00001b24:    0e1b        ..      LSRS     r3,r3,#24
        0x00001b26:    0784        ..      LSLS     r4,r0,#30
        0x00001b28:    0ee4        ..      LSRS     r4,r4,#27
        0x00001b2a:    40a3        .@      LSLS     r3,r3,r4
        0x00001b2c:    431a        .C      ORRS     r2,r2,r3
        0x00001b2e:    4b11        .K      LDR      r3,[pc,#68] ; [0x1b74] = 0xe000ed1c
        0x00001b30:    0704        ..      LSLS     r4,r0,#28
        0x00001b32:    0f24        $.      LSRS     r4,r4,#28
        0x00001b34:    3c08        .<      SUBS     r4,r4,#8
        0x00001b36:    08a4        ..      LSRS     r4,r4,#2
        0x00001b38:    00a4        ..      LSLS     r4,r4,#2
        0x00001b3a:    511a        .Q      STR      r2,[r3,r4]
        0x00001b3c:    e018        ..      B        0x1b70 ; NVIC_SetPriority + 108
        0x00001b3e:    4a0e        .J      LDR      r2,[pc,#56] ; [0x1b78] = 0xe000e100
        0x00001b40:    2303        .#      MOVS     r3,#3
        0x00001b42:    021b        ..      LSLS     r3,r3,#8
        0x00001b44:    18d2        ..      ADDS     r2,r2,r3
        0x00001b46:    0883        ..      LSRS     r3,r0,#2
        0x00001b48:    009b        ..      LSLS     r3,r3,#2
        0x00001b4a:    58d2        .X      LDR      r2,[r2,r3]
        0x00001b4c:    0783        ..      LSLS     r3,r0,#30
        0x00001b4e:    0edc        ..      LSRS     r4,r3,#27
        0x00001b50:    23ff        .#      MOVS     r3,#0xff
        0x00001b52:    40a3        .@      LSLS     r3,r3,r4
        0x00001b54:    439a        .C      BICS     r2,r2,r3
        0x00001b56:    078b        ..      LSLS     r3,r1,#30
        0x00001b58:    0e1b        ..      LSRS     r3,r3,#24
        0x00001b5a:    0784        ..      LSLS     r4,r0,#30
        0x00001b5c:    0ee4        ..      LSRS     r4,r4,#27
        0x00001b5e:    40a3        .@      LSLS     r3,r3,r4
        0x00001b60:    431a        .C      ORRS     r2,r2,r3
        0x00001b62:    4b05        .K      LDR      r3,[pc,#20] ; [0x1b78] = 0xe000e100
        0x00001b64:    2403        .$      MOVS     r4,#3
        0x00001b66:    0224        $.      LSLS     r4,r4,#8
        0x00001b68:    191b        ..      ADDS     r3,r3,r4
        0x00001b6a:    0884        ..      LSRS     r4,r0,#2
        0x00001b6c:    00a4        ..      LSLS     r4,r4,#2
        0x00001b6e:    511a        .Q      STR      r2,[r3,r4]
        0x00001b70:    bd10        ..      POP      {r4,pc}
    $d
        0x00001b72:    0000        ..      DCW    0
        0x00001b74:    e000ed1c    ....    DCD    3758157084
        0x00001b78:    e000e100    ....    DCD    3758153984
    $t
    i.OpenKeyPad
    OpenKeyPad
        0x00001b7c:    b510        ..      PUSH     {r4,lr}
        0x00001b7e:    2400        .$      MOVS     r4,#0
        0x00001b80:    e006        ..      B        0x1b90 ; OpenKeyPad + 20
        0x00001b82:    2203        ."      MOVS     r2,#3
        0x00001b84:    4621        !F      MOV      r1,r4
        0x00001b86:    2000        .       MOVS     r0,#0
        0x00001b88:    f7fffa16    ....    BL       DrvGPIO_Open ; 0xfb8
        0x00001b8c:    1c60        `.      ADDS     r0,r4,#1
        0x00001b8e:    b2c4        ..      UXTB     r4,r0
        0x00001b90:    2c06        .,      CMP      r4,#6
        0x00001b92:    dbf6        ..      BLT      0x1b82 ; OpenKeyPad + 6
        0x00001b94:    bd10        ..      POP      {r4,pc}
        0x00001b96:    0000        ..      MOVS     r0,r0
    i.PWMB_IRQHandler
    PWMB_IRQHandler
        0x00001b98:    4828        (H      LDR      r0,[pc,#160] ; [0x1c3c] = 0x40140040
        0x00001b9a:    6840        @h      LDR      r0,[r0,#4]
        0x00001b9c:    0780        ..      LSLS     r0,r0,#30
        0x00001b9e:    0fc0        ..      LSRS     r0,r0,#31
        0x00001ba0:    d00b        ..      BEQ      0x1bba ; PWMB_IRQHandler + 34
        0x00001ba2:    4827        'H      LDR      r0,[pc,#156] ; [0x1c40] = 0x20000022
        0x00001ba4:    8800        ..      LDRH     r0,[r0,#0]
        0x00001ba6:    1c40        @.      ADDS     r0,r0,#1
        0x00001ba8:    4925        %I      LDR      r1,[pc,#148] ; [0x1c40] = 0x20000022
        0x00001baa:    8008        ..      STRH     r0,[r1,#0]
        0x00001bac:    4823        #H      LDR      r0,[pc,#140] ; [0x1c3c] = 0x40140040
        0x00001bae:    6840        @h      LDR      r0,[r0,#4]
        0x00001bb0:    2102        .!      MOVS     r1,#2
        0x00001bb2:    4388        .C      BICS     r0,r0,r1
        0x00001bb4:    1c80        ..      ADDS     r0,r0,#2
        0x00001bb6:    4921        !I      LDR      r1,[pc,#132] ; [0x1c3c] = 0x40140040
        0x00001bb8:    6048        H`      STR      r0,[r1,#4]
        0x00001bba:    4820         H      LDR      r0,[pc,#128] ; [0x1c3c] = 0x40140040
        0x00001bbc:    6900        .i      LDR      r0,[r0,#0x10]
        0x00001bbe:    02c0        ..      LSLS     r0,r0,#11
        0x00001bc0:    0fc0        ..      LSRS     r0,r0,#31
        0x00001bc2:    d039        9.      BEQ      0x1c38 ; PWMB_IRQHandler + 160
        0x00001bc4:    481d        .H      LDR      r0,[pc,#116] ; [0x1c3c] = 0x40140040
        0x00001bc6:    6900        .i      LDR      r0,[r0,#0x10]
        0x00001bc8:    0200        ..      LSLS     r0,r0,#8
        0x00001bca:    0fc0        ..      LSRS     r0,r0,#31
        0x00001bcc:    d013        ..      BEQ      0x1bf6 ; PWMB_IRQHandler + 94
        0x00001bce:    481c        .H      LDR      r0,[pc,#112] ; [0x1c40] = 0x20000022
        0x00001bd0:    8800        ..      LDRH     r0,[r0,#0]
        0x00001bd2:    0400        ..      LSLS     r0,r0,#16
        0x00001bd4:    4919        .I      LDR      r1,[pc,#100] ; [0x1c3c] = 0x40140040
        0x00001bd6:    6a49        Ij      LDR      r1,[r1,#0x24]
        0x00001bd8:    4a1a        .J      LDR      r2,[pc,#104] ; [0x1c44] = 0xffff
        0x00001bda:    1a51        Q.      SUBS     r1,r2,r1
        0x00001bdc:    1840        @.      ADDS     r0,r0,r1
        0x00001bde:    491a        .I      LDR      r1,[pc,#104] ; [0x1c48] = 0x20000024
        0x00001be0:    6008        .`      STR      r0,[r1,#0]
        0x00001be2:    2000        .       MOVS     r0,#0
        0x00001be4:    4916        .I      LDR      r1,[pc,#88] ; [0x1c40] = 0x20000022
        0x00001be6:    8008        ..      STRH     r0,[r1,#0]
        0x00001be8:    4814        .H      LDR      r0,[pc,#80] ; [0x1c3c] = 0x40140040
        0x00001bea:    6900        .i      LDR      r0,[r0,#0x10]
        0x00001bec:    2101        .!      MOVS     r1,#1
        0x00001bee:    05c9        ..      LSLS     r1,r1,#23
        0x00001bf0:    4388        .C      BICS     r0,r0,r1
        0x00001bf2:    4912        .I      LDR      r1,[pc,#72] ; [0x1c3c] = 0x40140040
        0x00001bf4:    6108        .a      STR      r0,[r1,#0x10]
        0x00001bf6:    4811        .H      LDR      r0,[pc,#68] ; [0x1c3c] = 0x40140040
        0x00001bf8:    6900        .i      LDR      r0,[r0,#0x10]
        0x00001bfa:    0240        @.      LSLS     r0,r0,#9
        0x00001bfc:    0fc0        ..      LSRS     r0,r0,#31
        0x00001bfe:    d013        ..      BEQ      0x1c28 ; PWMB_IRQHandler + 144
        0x00001c00:    480f        .H      LDR      r0,[pc,#60] ; [0x1c40] = 0x20000022
        0x00001c02:    8800        ..      LDRH     r0,[r0,#0]
        0x00001c04:    0400        ..      LSLS     r0,r0,#16
        0x00001c06:    490d        .I      LDR      r1,[pc,#52] ; [0x1c3c] = 0x40140040
        0x00001c08:    6a09        .j      LDR      r1,[r1,#0x20]
        0x00001c0a:    4a0e        .J      LDR      r2,[pc,#56] ; [0x1c44] = 0xffff
        0x00001c0c:    1a51        Q.      SUBS     r1,r2,r1
        0x00001c0e:    1840        @.      ADDS     r0,r0,r1
        0x00001c10:    490d        .I      LDR      r1,[pc,#52] ; [0x1c48] = 0x20000024
        0x00001c12:    6048        H`      STR      r0,[r1,#4]
        0x00001c14:    2000        .       MOVS     r0,#0
        0x00001c16:    490a        .I      LDR      r1,[pc,#40] ; [0x1c40] = 0x20000022
        0x00001c18:    8008        ..      STRH     r0,[r1,#0]
        0x00001c1a:    4808        .H      LDR      r0,[pc,#32] ; [0x1c3c] = 0x40140040
        0x00001c1c:    6900        .i      LDR      r0,[r0,#0x10]
        0x00001c1e:    2101        .!      MOVS     r1,#1
        0x00001c20:    0589        ..      LSLS     r1,r1,#22
        0x00001c22:    4388        .C      BICS     r0,r0,r1
        0x00001c24:    4905        .I      LDR      r1,[pc,#20] ; [0x1c3c] = 0x40140040
        0x00001c26:    6108        .a      STR      r0,[r1,#0x10]
        0x00001c28:    4804        .H      LDR      r0,[pc,#16] ; [0x1c3c] = 0x40140040
        0x00001c2a:    6900        .i      LDR      r0,[r0,#0x10]
        0x00001c2c:    2101        .!      MOVS     r1,#1
        0x00001c2e:    0509        ..      LSLS     r1,r1,#20
        0x00001c30:    4388        .C      BICS     r0,r0,r1
        0x00001c32:    1840        @.      ADDS     r0,r0,r1
        0x00001c34:    4901        .I      LDR      r1,[pc,#4] ; [0x1c3c] = 0x40140040
        0x00001c36:    6108        .a      STR      r0,[r1,#0x10]
        0x00001c38:    4770        pG      BX       lr
    $d
        0x00001c3a:    0000        ..      DCW    0
        0x00001c3c:    40140040    @..@    DCD    1075052608
        0x00001c40:    20000022    "..     DCD    536870946
        0x00001c44:    0000ffff    ....    DCD    65535
        0x00001c48:    20000024    $..     DCD    536870948
    $t
    i.PWRWU_IRQHandler
    PWRWU_IRQHandler
        0x00001c4c:    b510        ..      PUSH     {r4,lr}
        0x00001c4e:    4807        .H      LDR      r0,[pc,#28] ; [0x1c6c] = 0x50000200
        0x00001c50:    6800        .h      LDR      r0,[r0,#0]
        0x00001c52:    2140        @!      MOVS     r1,#0x40
        0x00001c54:    4388        .C      BICS     r0,r0,r1
        0x00001c56:    3040        @0      ADDS     r0,r0,#0x40
        0x00001c58:    4904        .I      LDR      r1,[pc,#16] ; [0x1c6c] = 0x50000200
        0x00001c5a:    6008        .`      STR      r0,[r1,#0]
        0x00001c5c:    4804        .H      LDR      r0,[pc,#16] ; [0x1c70] = 0x20000630
        0x00001c5e:    6800        .h      LDR      r0,[r0,#0]
        0x00001c60:    2800        .(      CMP      r0,#0
        0x00001c62:    d002        ..      BEQ      0x1c6a ; PWRWU_IRQHandler + 30
        0x00001c64:    4802        .H      LDR      r0,[pc,#8] ; [0x1c70] = 0x20000630
        0x00001c66:    6800        .h      LDR      r0,[r0,#0]
        0x00001c68:    4780        .G      BLX      r0
        0x00001c6a:    bd10        ..      POP      {r4,pc}
    $d
        0x00001c6c:    50000200    ...P    DCD    1342177792
        0x00001c70:    20000630    0..     DCD    536872496
    $t
    i.RTC_IRQHandler
    RTC_IRQHandler
        0x00001c74:    b510        ..      PUSH     {r4,lr}
        0x00001c76:    b088        ..      SUB      sp,sp,#0x20
        0x00001c78:    4a28        (J      LDR      r2,[pc,#160] ; [0x1d1c] = 0x2608
        0x00001c7a:    6853        Sh      LDR      r3,[r2,#4]
        0x00001c7c:    6891        .h      LDR      r1,[r2,#8]
        0x00001c7e:    6810        .h      LDR      r0,[r2,#0]
        0x00001c80:    68d2        .h      LDR      r2,[r2,#0xc]
        0x00001c82:    9305        ..      STR      r3,[sp,#0x14]
        0x00001c84:    9207        ..      STR      r2,[sp,#0x1c]
        0x00001c86:    9106        ..      STR      r1,[sp,#0x18]
        0x00001c88:    9004        ..      STR      r0,[sp,#0x10]
        0x00001c8a:    4b24        $K      LDR      r3,[pc,#144] ; [0x1d1c] = 0x2608
        0x00001c8c:    3310        .3      ADDS     r3,r3,#0x10
        0x00001c8e:    681a        .h      LDR      r2,[r3,#0]
        0x00001c90:    1d1b        ..      ADDS     r3,r3,#4
        0x00001c92:    cb0b        ..      LDM      r3,{r0,r1,r3}
        0x00001c94:    ac01        ..      ADD      r4,sp,#4
        0x00001c96:    c40b        ..      STM      r4!,{r0,r1,r3}
        0x00001c98:    9200        ..      STR      r2,[sp,#0]
        0x00001c9a:    4821        !H      LDR      r0,[pc,#132] ; [0x1d20] = 0x40008000
        0x00001c9c:    6ac0        .j      LDR      r0,[r0,#0x2c]
        0x00001c9e:    2102        .!      MOVS     r1,#2
        0x00001ca0:    4208        .B      TST      r0,r1
        0x00001ca2:    d038        8.      BEQ      0x1d16 ; RTC_IRQHandler + 162
        0x00001ca4:    481e        .H      LDR      r0,[pc,#120] ; [0x1d20] = 0x40008000
        0x00001ca6:    68c0        .h      LDR      r0,[r0,#0xc]
        0x00001ca8:    0204        ..      LSLS     r4,r0,#8
        0x00001caa:    0a24        $.      LSRS     r4,r4,#8
        0x00001cac:    0c22        ".      LSRS     r2,r4,#16
        0x00001cae:    a11d        ..      ADR      r1,{pc}+0x76 ; 0x1d24
        0x00001cb0:    a805        ..      ADD      r0,sp,#0x14
        0x00001cb2:    3002        .0      ADDS     r0,#2
        0x00001cb4:    f7fefab2    ....    BL       __2sprintf ; 0x21c
        0x00001cb8:    0420         .      LSLS     r0,r4,#16
        0x00001cba:    0e02        ..      LSRS     r2,r0,#24
        0x00001cbc:    a119        ..      ADR      r1,{pc}+0x68 ; 0x1d24
        0x00001cbe:    a806        ..      ADD      r0,sp,#0x18
        0x00001cc0:    3001        .0      ADDS     r0,#1
        0x00001cc2:    f7fefaab    ....    BL       __2sprintf ; 0x21c
        0x00001cc6:    b2e2        ..      UXTB     r2,r4
        0x00001cc8:    a116        ..      ADR      r1,{pc}+0x5c ; 0x1d24
        0x00001cca:    a807        ..      ADD      r0,sp,#0x1c
        0x00001ccc:    f7fefaa6    ....    BL       __2sprintf ; 0x21c
        0x00001cd0:    213a        :!      MOVS     r1,#0x3a
        0x00001cd2:    4668        hF      MOV      r0,sp
        0x00001cd4:    7601        .v      STRB     r1,[r0,#0x18]
        0x00001cd6:    76c1        .v      STRB     r1,[r0,#0x1b]
        0x00001cd8:    2220         "      MOVS     r2,#0x20
        0x00001cda:    210d        .!      MOVS     r1,#0xd
        0x00001cdc:    2000        .       MOVS     r0,#0
        0x00001cde:    f000f9cf    ....    BL       Show_Word ; 0x2080
        0x00001ce2:    a904        ..      ADD      r1,sp,#0x10
        0x00001ce4:    2000        .       MOVS     r0,#0
        0x00001ce6:    f000fc2b    ..+.    BL       print_lcd ; 0x2540
        0x00001cea:    4810        .H      LDR      r0,[pc,#64] ; [0x1d2c] = 0x20000020
        0x00001cec:    8800        ..      LDRH     r0,[r0,#0]
        0x00001cee:    2801        .(      CMP      r0,#1
        0x00001cf0:    d102        ..      BNE      0x1cf8 ; RTC_IRQHandler + 132
        0x00001cf2:    b2e0        ..      UXTB     r0,r4
        0x00001cf4:    f000fbb1    ....    BL       disp2Digit8574 ; 0x245a
        0x00001cf8:    480c        .H      LDR      r0,[pc,#48] ; [0x1d2c] = 0x20000020
        0x00001cfa:    8800        ..      LDRH     r0,[r0,#0]
        0x00001cfc:    2800        .(      CMP      r0,#0
        0x00001cfe:    d107        ..      BNE      0x1d10 ; RTC_IRQHandler + 156
        0x00001d00:    21ff        .!      MOVS     r1,#0xff
        0x00001d02:    2072        r       MOVS     r0,#0x72
        0x00001d04:    f000fb28    ..(.    BL       Write_to_any8574 ; 0x2358
        0x00001d08:    21ff        .!      MOVS     r1,#0xff
        0x00001d0a:    2070        p       MOVS     r0,#0x70
        0x00001d0c:    f000fb24    ..$.    BL       Write_to_any8574 ; 0x2358
        0x00001d10:    2002        .       MOVS     r0,#2
        0x00001d12:    4903        .I      LDR      r1,[pc,#12] ; [0x1d20] = 0x40008000
        0x00001d14:    62c8        .b      STR      r0,[r1,#0x2c]
        0x00001d16:    b008        ..      ADD      sp,sp,#0x20
        0x00001d18:    bd10        ..      POP      {r4,pc}
    $d
        0x00001d1a:    0000        ..      DCW    0
        0x00001d1c:    00002608    .&..    DCD    9736
        0x00001d20:    40008000    ...@    DCD    1073774592
        0x00001d24:    78323025    %02x    DCD    2016555045
        0x00001d28:    00000000    ....    DCD    0
        0x00001d2c:    20000020     ..     DCD    536870944
    $t
    i.SPI0_IRQHandler
    SPI0_IRQHandler
        0x00001d30:    b510        ..      PUSH     {r4,lr}
        0x00001d32:    4816        .H      LDR      r0,[pc,#88] ; [0x1d8c] = 0x40030000
        0x00001d34:    6800        .h      LDR      r0,[r0,#0]
        0x00001d36:    03c0        ..      LSLS     r0,r0,#15
        0x00001d38:    0fc0        ..      LSRS     r0,r0,#31
        0x00001d3a:    2801        .(      CMP      r0,#1
        0x00001d3c:    d10f        ..      BNE      0x1d5e ; SPI0_IRQHandler + 46
        0x00001d3e:    4813        .H      LDR      r0,[pc,#76] ; [0x1d8c] = 0x40030000
        0x00001d40:    6800        .h      LDR      r0,[r0,#0]
        0x00001d42:    2101        .!      MOVS     r1,#1
        0x00001d44:    0409        ..      LSLS     r1,r1,#16
        0x00001d46:    4388        .C      BICS     r0,r0,r1
        0x00001d48:    1840        @.      ADDS     r0,r0,r1
        0x00001d4a:    4910        .I      LDR      r1,[pc,#64] ; [0x1d8c] = 0x40030000
        0x00001d4c:    6008        .`      STR      r0,[r1,#0]
        0x00001d4e:    4810        .H      LDR      r0,[pc,#64] ; [0x1d90] = 0x20000670
        0x00001d50:    6840        @h      LDR      r0,[r0,#4]
        0x00001d52:    2800        .(      CMP      r0,#0
        0x00001d54:    d003        ..      BEQ      0x1d5e ; SPI0_IRQHandler + 46
        0x00001d56:    4a0e        .J      LDR      r2,[pc,#56] ; [0x1d90] = 0x20000670
        0x00001d58:    6890        .h      LDR      r0,[r2,#8]
        0x00001d5a:    6851        Qh      LDR      r1,[r2,#4]
        0x00001d5c:    4788        .G      BLX      r1
        0x00001d5e:    480b        .H      LDR      r0,[pc,#44] ; [0x1d8c] = 0x40030000
        0x00001d60:    6bc0        .k      LDR      r0,[r0,#0x3c]
        0x00001d62:    0500        ..      LSLS     r0,r0,#20
        0x00001d64:    0fc0        ..      LSRS     r0,r0,#31
        0x00001d66:    2801        .(      CMP      r0,#1
        0x00001d68:    d10f        ..      BNE      0x1d8a ; SPI0_IRQHandler + 90
        0x00001d6a:    4808        .H      LDR      r0,[pc,#32] ; [0x1d8c] = 0x40030000
        0x00001d6c:    6bc0        .k      LDR      r0,[r0,#0x3c]
        0x00001d6e:    2101        .!      MOVS     r1,#1
        0x00001d70:    02c9        ..      LSLS     r1,r1,#11
        0x00001d72:    4388        .C      BICS     r0,r0,r1
        0x00001d74:    1840        @.      ADDS     r0,r0,r1
        0x00001d76:    4905        .I      LDR      r1,[pc,#20] ; [0x1d8c] = 0x40030000
        0x00001d78:    63c8        .c      STR      r0,[r1,#0x3c]
        0x00001d7a:    4805        .H      LDR      r0,[pc,#20] ; [0x1d90] = 0x20000670
        0x00001d7c:    68c0        .h      LDR      r0,[r0,#0xc]
        0x00001d7e:    2800        .(      CMP      r0,#0
        0x00001d80:    d003        ..      BEQ      0x1d8a ; SPI0_IRQHandler + 90
        0x00001d82:    4a03        .J      LDR      r2,[pc,#12] ; [0x1d90] = 0x20000670
        0x00001d84:    6910        .i      LDR      r0,[r2,#0x10]
        0x00001d86:    68d1        .h      LDR      r1,[r2,#0xc]
        0x00001d88:    4788        .G      BLX      r1
        0x00001d8a:    bd10        ..      POP      {r4,pc}
    $d
        0x00001d8c:    40030000    ...@    DCD    1073938432
        0x00001d90:    20000670    p..     DCD    536872560
    $t
    i.SPI1_IRQHandler
    SPI1_IRQHandler
        0x00001d94:    b510        ..      PUSH     {r4,lr}
        0x00001d96:    4816        .H      LDR      r0,[pc,#88] ; [0x1df0] = 0x40034000
        0x00001d98:    6800        .h      LDR      r0,[r0,#0]
        0x00001d9a:    03c0        ..      LSLS     r0,r0,#15
        0x00001d9c:    0fc0        ..      LSRS     r0,r0,#31
        0x00001d9e:    2801        .(      CMP      r0,#1
        0x00001da0:    d10f        ..      BNE      0x1dc2 ; SPI1_IRQHandler + 46
        0x00001da2:    4813        .H      LDR      r0,[pc,#76] ; [0x1df0] = 0x40034000
        0x00001da4:    6800        .h      LDR      r0,[r0,#0]
        0x00001da6:    2101        .!      MOVS     r1,#1
        0x00001da8:    0409        ..      LSLS     r1,r1,#16
        0x00001daa:    4388        .C      BICS     r0,r0,r1
        0x00001dac:    1840        @.      ADDS     r0,r0,r1
        0x00001dae:    4910        .I      LDR      r1,[pc,#64] ; [0x1df0] = 0x40034000
        0x00001db0:    6008        .`      STR      r0,[r1,#0]
        0x00001db2:    4810        .H      LDR      r0,[pc,#64] ; [0x1df4] = 0x20000670
        0x00001db4:    6980        .i      LDR      r0,[r0,#0x18]
        0x00001db6:    2800        .(      CMP      r0,#0
        0x00001db8:    d003        ..      BEQ      0x1dc2 ; SPI1_IRQHandler + 46
        0x00001dba:    4a0e        .J      LDR      r2,[pc,#56] ; [0x1df4] = 0x20000670
        0x00001dbc:    69d0        .i      LDR      r0,[r2,#0x1c]
        0x00001dbe:    6991        .i      LDR      r1,[r2,#0x18]
        0x00001dc0:    4788        .G      BLX      r1
        0x00001dc2:    480b        .H      LDR      r0,[pc,#44] ; [0x1df0] = 0x40034000
        0x00001dc4:    6bc0        .k      LDR      r0,[r0,#0x3c]
        0x00001dc6:    0500        ..      LSLS     r0,r0,#20
        0x00001dc8:    0fc0        ..      LSRS     r0,r0,#31
        0x00001dca:    2801        .(      CMP      r0,#1
        0x00001dcc:    d10f        ..      BNE      0x1dee ; SPI1_IRQHandler + 90
        0x00001dce:    4808        .H      LDR      r0,[pc,#32] ; [0x1df0] = 0x40034000
        0x00001dd0:    6bc0        .k      LDR      r0,[r0,#0x3c]
        0x00001dd2:    2101        .!      MOVS     r1,#1
        0x00001dd4:    02c9        ..      LSLS     r1,r1,#11
        0x00001dd6:    4388        .C      BICS     r0,r0,r1
        0x00001dd8:    1840        @.      ADDS     r0,r0,r1
        0x00001dda:    4905        .I      LDR      r1,[pc,#20] ; [0x1df0] = 0x40034000
        0x00001ddc:    63c8        .c      STR      r0,[r1,#0x3c]
        0x00001dde:    4805        .H      LDR      r0,[pc,#20] ; [0x1df4] = 0x20000670
        0x00001de0:    6a00        .j      LDR      r0,[r0,#0x20]
        0x00001de2:    2800        .(      CMP      r0,#0
        0x00001de4:    d003        ..      BEQ      0x1dee ; SPI1_IRQHandler + 90
        0x00001de6:    4a03        .J      LDR      r2,[pc,#12] ; [0x1df4] = 0x20000670
        0x00001de8:    6a50        Pj      LDR      r0,[r2,#0x24]
        0x00001dea:    6a11        .j      LDR      r1,[r2,#0x20]
        0x00001dec:    4788        .G      BLX      r1
        0x00001dee:    bd10        ..      POP      {r4,pc}
    $d
        0x00001df0:    40034000    .@.@    DCD    1073954816
        0x00001df4:    20000670    p..     DCD    536872560
    $t
    i.SPI2_IRQHandler
    SPI2_IRQHandler
        0x00001df8:    b510        ..      PUSH     {r4,lr}
        0x00001dfa:    4816        .H      LDR      r0,[pc,#88] ; [0x1e54] = 0x40130000
        0x00001dfc:    6800        .h      LDR      r0,[r0,#0]
        0x00001dfe:    03c0        ..      LSLS     r0,r0,#15
        0x00001e00:    0fc0        ..      LSRS     r0,r0,#31
        0x00001e02:    2801        .(      CMP      r0,#1
        0x00001e04:    d10f        ..      BNE      0x1e26 ; SPI2_IRQHandler + 46
        0x00001e06:    4813        .H      LDR      r0,[pc,#76] ; [0x1e54] = 0x40130000
        0x00001e08:    6800        .h      LDR      r0,[r0,#0]
        0x00001e0a:    2101        .!      MOVS     r1,#1
        0x00001e0c:    0409        ..      LSLS     r1,r1,#16
        0x00001e0e:    4388        .C      BICS     r0,r0,r1
        0x00001e10:    1840        @.      ADDS     r0,r0,r1
        0x00001e12:    4910        .I      LDR      r1,[pc,#64] ; [0x1e54] = 0x40130000
        0x00001e14:    6008        .`      STR      r0,[r1,#0]
        0x00001e16:    4810        .H      LDR      r0,[pc,#64] ; [0x1e58] = 0x20000670
        0x00001e18:    6ac0        .j      LDR      r0,[r0,#0x2c]
        0x00001e1a:    2800        .(      CMP      r0,#0
        0x00001e1c:    d003        ..      BEQ      0x1e26 ; SPI2_IRQHandler + 46
        0x00001e1e:    4a0e        .J      LDR      r2,[pc,#56] ; [0x1e58] = 0x20000670
        0x00001e20:    6b10        .k      LDR      r0,[r2,#0x30]
        0x00001e22:    6ad1        .j      LDR      r1,[r2,#0x2c]
        0x00001e24:    4788        .G      BLX      r1
        0x00001e26:    480b        .H      LDR      r0,[pc,#44] ; [0x1e54] = 0x40130000
        0x00001e28:    6bc0        .k      LDR      r0,[r0,#0x3c]
        0x00001e2a:    0500        ..      LSLS     r0,r0,#20
        0x00001e2c:    0fc0        ..      LSRS     r0,r0,#31
        0x00001e2e:    2801        .(      CMP      r0,#1
        0x00001e30:    d10f        ..      BNE      0x1e52 ; SPI2_IRQHandler + 90
        0x00001e32:    4808        .H      LDR      r0,[pc,#32] ; [0x1e54] = 0x40130000
        0x00001e34:    6bc0        .k      LDR      r0,[r0,#0x3c]
        0x00001e36:    2101        .!      MOVS     r1,#1
        0x00001e38:    02c9        ..      LSLS     r1,r1,#11
        0x00001e3a:    4388        .C      BICS     r0,r0,r1
        0x00001e3c:    1840        @.      ADDS     r0,r0,r1
        0x00001e3e:    4905        .I      LDR      r1,[pc,#20] ; [0x1e54] = 0x40130000
        0x00001e40:    63c8        .c      STR      r0,[r1,#0x3c]
        0x00001e42:    4805        .H      LDR      r0,[pc,#20] ; [0x1e58] = 0x20000670
        0x00001e44:    6b40        @k      LDR      r0,[r0,#0x34]
        0x00001e46:    2800        .(      CMP      r0,#0
        0x00001e48:    d003        ..      BEQ      0x1e52 ; SPI2_IRQHandler + 90
        0x00001e4a:    4a03        .J      LDR      r2,[pc,#12] ; [0x1e58] = 0x20000670
        0x00001e4c:    6b90        .k      LDR      r0,[r2,#0x38]
        0x00001e4e:    6b51        Qk      LDR      r1,[r2,#0x34]
        0x00001e50:    4788        .G      BLX      r1
        0x00001e52:    bd10        ..      POP      {r4,pc}
    $d
        0x00001e54:    40130000    ...@    DCD    1074987008
        0x00001e58:    20000670    p..     DCD    536872560
    $t
    i.SPI3_IRQHandler
    SPI3_IRQHandler
        0x00001e5c:    b510        ..      PUSH     {r4,lr}
        0x00001e5e:    4816        .H      LDR      r0,[pc,#88] ; [0x1eb8] = 0x40134000
        0x00001e60:    6800        .h      LDR      r0,[r0,#0]
        0x00001e62:    03c0        ..      LSLS     r0,r0,#15
        0x00001e64:    0fc0        ..      LSRS     r0,r0,#31
        0x00001e66:    2801        .(      CMP      r0,#1
        0x00001e68:    d10f        ..      BNE      0x1e8a ; SPI3_IRQHandler + 46
        0x00001e6a:    4813        .H      LDR      r0,[pc,#76] ; [0x1eb8] = 0x40134000
        0x00001e6c:    6800        .h      LDR      r0,[r0,#0]
        0x00001e6e:    2101        .!      MOVS     r1,#1
        0x00001e70:    0409        ..      LSLS     r1,r1,#16
        0x00001e72:    4388        .C      BICS     r0,r0,r1
        0x00001e74:    1840        @.      ADDS     r0,r0,r1
        0x00001e76:    4910        .I      LDR      r1,[pc,#64] ; [0x1eb8] = 0x40134000
        0x00001e78:    6008        .`      STR      r0,[r1,#0]
        0x00001e7a:    4810        .H      LDR      r0,[pc,#64] ; [0x1ebc] = 0x20000670
        0x00001e7c:    6c00        .l      LDR      r0,[r0,#0x40]
        0x00001e7e:    2800        .(      CMP      r0,#0
        0x00001e80:    d003        ..      BEQ      0x1e8a ; SPI3_IRQHandler + 46
        0x00001e82:    4a0e        .J      LDR      r2,[pc,#56] ; [0x1ebc] = 0x20000670
        0x00001e84:    6c50        Pl      LDR      r0,[r2,#0x44]
        0x00001e86:    6c11        .l      LDR      r1,[r2,#0x40]
        0x00001e88:    4788        .G      BLX      r1
        0x00001e8a:    480b        .H      LDR      r0,[pc,#44] ; [0x1eb8] = 0x40134000
        0x00001e8c:    6bc0        .k      LDR      r0,[r0,#0x3c]
        0x00001e8e:    0500        ..      LSLS     r0,r0,#20
        0x00001e90:    0fc0        ..      LSRS     r0,r0,#31
        0x00001e92:    2801        .(      CMP      r0,#1
        0x00001e94:    d10f        ..      BNE      0x1eb6 ; SPI3_IRQHandler + 90
        0x00001e96:    4808        .H      LDR      r0,[pc,#32] ; [0x1eb8] = 0x40134000
        0x00001e98:    6bc0        .k      LDR      r0,[r0,#0x3c]
        0x00001e9a:    2101        .!      MOVS     r1,#1
        0x00001e9c:    02c9        ..      LSLS     r1,r1,#11
        0x00001e9e:    4388        .C      BICS     r0,r0,r1
        0x00001ea0:    1840        @.      ADDS     r0,r0,r1
        0x00001ea2:    4905        .I      LDR      r1,[pc,#20] ; [0x1eb8] = 0x40134000
        0x00001ea4:    63c8        .c      STR      r0,[r1,#0x3c]
        0x00001ea6:    4805        .H      LDR      r0,[pc,#20] ; [0x1ebc] = 0x20000670
        0x00001ea8:    6c80        .l      LDR      r0,[r0,#0x48]
        0x00001eaa:    2800        .(      CMP      r0,#0
        0x00001eac:    d003        ..      BEQ      0x1eb6 ; SPI3_IRQHandler + 90
        0x00001eae:    4a03        .J      LDR      r2,[pc,#12] ; [0x1ebc] = 0x20000670
        0x00001eb0:    6cd0        .l      LDR      r0,[r2,#0x4c]
        0x00001eb2:    6c91        .l      LDR      r1,[r2,#0x48]
        0x00001eb4:    4788        .G      BLX      r1
        0x00001eb6:    bd10        ..      POP      {r4,pc}
    $d
        0x00001eb8:    40134000    .@.@    DCD    1075003392
        0x00001ebc:    20000670    p..     DCD    536872560
    $t
    i.START_RTC
    START_RTC
        0x00001ec0:    e007        ..      B        0x1ed2 ; START_RTC + 18
        0x00001ec2:    480e        .H      LDR      r0,[pc,#56] ; [0x1efc] = 0xa5eb1357
        0x00001ec4:    490e        .I      LDR      r1,[pc,#56] ; [0x1f00] = 0x40008000
        0x00001ec6:    6008        .`      STR      r0,[r1,#0]
        0x00001ec8:    4608        .F      MOV      r0,r1
        0x00001eca:    6800        .h      LDR      r0,[r0,#0]
        0x00001ecc:    2801        .(      CMP      r0,#1
        0x00001ece:    d100        ..      BNE      0x1ed2 ; START_RTC + 18
        0x00001ed0:    e000        ..      B        0x1ed4 ; START_RTC + 20
        0x00001ed2:    e7f6        ..      B        0x1ec2 ; START_RTC + 2
        0x00001ed4:    bf00        ..      NOP      
        0x00001ed6:    e00e        ..      B        0x1ef6 ; START_RTC + 54
        0x00001ed8:    4809        .H      LDR      r0,[pc,#36] ; [0x1f00] = 0x40008000
        0x00001eda:    6840        @h      LDR      r0,[r0,#4]
        0x00001edc:    0c00        ..      LSRS     r0,r0,#16
        0x00001ede:    0400        ..      LSLS     r0,r0,#16
        0x00001ee0:    4908        .I      LDR      r1,[pc,#32] ; [0x1f04] = 0xa965
        0x00001ee2:    1840        @.      ADDS     r0,r0,r1
        0x00001ee4:    4906        .I      LDR      r1,[pc,#24] ; [0x1f00] = 0x40008000
        0x00001ee6:    6048        H`      STR      r0,[r1,#4]
        0x00001ee8:    4608        .F      MOV      r0,r1
        0x00001eea:    6840        @h      LDR      r0,[r0,#4]
        0x00001eec:    2101        .!      MOVS     r1,#1
        0x00001eee:    0409        ..      LSLS     r1,r1,#16
        0x00001ef0:    4208        .B      TST      r0,r1
        0x00001ef2:    d000        ..      BEQ      0x1ef6 ; START_RTC + 54
        0x00001ef4:    e000        ..      B        0x1ef8 ; START_RTC + 56
        0x00001ef6:    e7ef        ..      B        0x1ed8 ; START_RTC + 24
        0x00001ef8:    bf00        ..      NOP      
        0x00001efa:    4770        pG      BX       lr
    $d
        0x00001efc:    a5eb1357    W...    DCD    2783646551
        0x00001f00:    40008000    ...@    DCD    1073774592
        0x00001f04:    0000a965    e...    DCD    43365
    $t
    i.Scankey
    Scankey
        0x00001f08:    b5f8        ..      PUSH     {r3-r7,lr}
        0x00001f0a:    481f        .H      LDR      r0,[pc,#124] ; [0x1f88] = 0x2678
        0x00001f0c:    6800        .h      LDR      r0,[r0,#0]
        0x00001f0e:    9000        ..      STR      r0,[sp,#0]
        0x00001f10:    2400        .$      MOVS     r4,#0
        0x00001f12:    e034        4.      B        0x1f7e ; Scankey + 118
        0x00001f14:    4668        hF      MOV      r0,sp
        0x00001f16:    5d06        .]      LDRB     r6,[r0,r4]
        0x00001f18:    2500        .%      MOVS     r5,#0
        0x00001f1a:    e00f        ..      B        0x1f3c ; Scankey + 52
        0x00001f1c:    07f0        ..      LSLS     r0,r6,#31
        0x00001f1e:    0fc0        ..      LSRS     r0,r0,#31
        0x00001f20:    2801        .(      CMP      r0,#1
        0x00001f22:    d104        ..      BNE      0x1f2e ; Scankey + 38
        0x00001f24:    4629        )F      MOV      r1,r5
        0x00001f26:    2000        .       MOVS     r0,#0
        0x00001f28:    f7fff882    ....    BL       DrvGPIO_SetBit ; 0x1030
        0x00001f2c:    e003        ..      B        0x1f36 ; Scankey + 46
        0x00001f2e:    4629        )F      MOV      r1,r5
        0x00001f30:    2000        .       MOVS     r0,#0
        0x00001f32:    f7fefc2b    ..+.    BL       DrvGPIO_ClrBit ; 0x78c
        0x00001f36:    1076        v.      ASRS     r6,r6,#1
        0x00001f38:    1c68        h.      ADDS     r0,r5,#1
        0x00001f3a:    b2c5        ..      UXTB     r5,r0
        0x00001f3c:    2d06        .-      CMP      r5,#6
        0x00001f3e:    dbed        ..      BLT      0x1f1c ; Scankey + 20
        0x00001f40:    f000fa83    ....    BL       delay ; 0x244a
        0x00001f44:    2103        .!      MOVS     r1,#3
        0x00001f46:    2000        .       MOVS     r0,#0
        0x00001f48:    f7fefc76    ..v.    BL       DrvGPIO_GetBit ; 0x838
        0x00001f4c:    2800        .(      CMP      r0,#0
        0x00001f4e:    d102        ..      BNE      0x1f56 ; Scankey + 78
        0x00001f50:    1c60        `.      ADDS     r0,r4,#1
        0x00001f52:    b2c0        ..      UXTB     r0,r0
        0x00001f54:    bdf8        ..      POP      {r3-r7,pc}
        0x00001f56:    2104        .!      MOVS     r1,#4
        0x00001f58:    2000        .       MOVS     r0,#0
        0x00001f5a:    f7fefc6d    ..m.    BL       DrvGPIO_GetBit ; 0x838
        0x00001f5e:    2800        .(      CMP      r0,#0
        0x00001f60:    d102        ..      BNE      0x1f68 ; Scankey + 96
        0x00001f62:    1d20         .      ADDS     r0,r4,#4
        0x00001f64:    b2c0        ..      UXTB     r0,r0
        0x00001f66:    e7f5        ..      B        0x1f54 ; Scankey + 76
        0x00001f68:    2105        .!      MOVS     r1,#5
        0x00001f6a:    2000        .       MOVS     r0,#0
        0x00001f6c:    f7fefc64    ..d.    BL       DrvGPIO_GetBit ; 0x838
        0x00001f70:    2800        .(      CMP      r0,#0
        0x00001f72:    d102        ..      BNE      0x1f7a ; Scankey + 114
        0x00001f74:    1de0        ..      ADDS     r0,r4,#7
        0x00001f76:    b2c0        ..      UXTB     r0,r0
        0x00001f78:    e7ec        ..      B        0x1f54 ; Scankey + 76
        0x00001f7a:    1c60        `.      ADDS     r0,r4,#1
        0x00001f7c:    b2c4        ..      UXTB     r4,r0
        0x00001f7e:    2c03        .,      CMP      r4,#3
        0x00001f80:    dbc8        ..      BLT      0x1f14 ; Scankey + 12
        0x00001f82:    2000        .       MOVS     r0,#0
        0x00001f84:    e7e6        ..      B        0x1f54 ; Scankey + 76
    $d
        0x00001f86:    0000        ..      DCW    0
        0x00001f88:    00002678    x&..    DCD    9848
    $t
    i.SetPACA
    SetPACA
        0x00001f8c:    4a3b        ;J      LDR      r2,[pc,#236] ; [0x207c] = 0x2000002c
        0x00001f8e:    68d2        .h      LDR      r2,[r2,#0xc]
        0x00001f90:    6892        .h      LDR      r2,[r2,#8]
        0x00001f92:    0892        ..      LSRS     r2,r2,#2
        0x00001f94:    0092        ..      LSLS     r2,r2,#2
        0x00001f96:    1c52        R.      ADDS     r2,r2,#1
        0x00001f98:    4b38        8K      LDR      r3,[pc,#224] ; [0x207c] = 0x2000002c
        0x00001f9a:    68db        .h      LDR      r3,[r3,#0xc]
        0x00001f9c:    609a        .`      STR      r2,[r3,#8]
        0x00001f9e:    22b0        ."      MOVS     r2,#0xb0
        0x00001fa0:    4302        .C      ORRS     r2,r2,r0
        0x00001fa2:    4b36        6K      LDR      r3,[pc,#216] ; [0x207c] = 0x2000002c
        0x00001fa4:    68db        .h      LDR      r3,[r3,#0xc]
        0x00001fa6:    621a        .b      STR      r2,[r3,#0x20]
        0x00001fa8:    4a34        4J      LDR      r2,[pc,#208] ; [0x207c] = 0x2000002c
        0x00001faa:    68d2        .h      LDR      r2,[r2,#0xc]
        0x00001fac:    6812        .h      LDR      r2,[r2,#0]
        0x00001fae:    0852        R.      LSRS     r2,r2,#1
        0x00001fb0:    0052        R.      LSLS     r2,r2,#1
        0x00001fb2:    1c52        R.      ADDS     r2,r2,#1
        0x00001fb4:    4b31        1K      LDR      r3,[pc,#196] ; [0x207c] = 0x2000002c
        0x00001fb6:    68db        .h      LDR      r3,[r3,#0xc]
        0x00001fb8:    601a        .`      STR      r2,[r3,#0]
        0x00001fba:    bf00        ..      NOP      
        0x00001fbc:    4a2f        /J      LDR      r2,[pc,#188] ; [0x207c] = 0x2000002c
        0x00001fbe:    68d2        .h      LDR      r2,[r2,#0xc]
        0x00001fc0:    6812        .h      LDR      r2,[r2,#0]
        0x00001fc2:    07d2        ..      LSLS     r2,r2,#31
        0x00001fc4:    0fd2        ..      LSRS     r2,r2,#31
        0x00001fc6:    2a01        .*      CMP      r2,#1
        0x00001fc8:    d0f8        ..      BEQ      0x1fbc ; SetPACA + 48
        0x00001fca:    4a2c        ,J      LDR      r2,[pc,#176] ; [0x207c] = 0x2000002c
        0x00001fcc:    68d2        .h      LDR      r2,[r2,#0xc]
        0x00001fce:    6892        .h      LDR      r2,[r2,#8]
        0x00001fd0:    0892        ..      LSRS     r2,r2,#2
        0x00001fd2:    0092        ..      LSLS     r2,r2,#2
        0x00001fd4:    4b29        )K      LDR      r3,[pc,#164] ; [0x207c] = 0x2000002c
        0x00001fd6:    68db        .h      LDR      r3,[r3,#0xc]
        0x00001fd8:    609a        .`      STR      r2,[r3,#8]
        0x00001fda:    4a28        (J      LDR      r2,[pc,#160] ; [0x207c] = 0x2000002c
        0x00001fdc:    68d2        .h      LDR      r2,[r2,#0xc]
        0x00001fde:    6892        .h      LDR      r2,[r2,#8]
        0x00001fe0:    0892        ..      LSRS     r2,r2,#2
        0x00001fe2:    0092        ..      LSLS     r2,r2,#2
        0x00001fe4:    1c52        R.      ADDS     r2,r2,#1
        0x00001fe6:    4b25        %K      LDR      r3,[pc,#148] ; [0x207c] = 0x2000002c
        0x00001fe8:    68db        .h      LDR      r3,[r3,#0xc]
        0x00001fea:    609a        .`      STR      r2,[r3,#8]
        0x00001fec:    110a        ..      ASRS     r2,r1,#4
        0x00001fee:    2310        .#      MOVS     r3,#0x10
        0x00001ff0:    431a        .C      ORRS     r2,r2,r3
        0x00001ff2:    4b22        "K      LDR      r3,[pc,#136] ; [0x207c] = 0x2000002c
        0x00001ff4:    68db        .h      LDR      r3,[r3,#0xc]
        0x00001ff6:    621a        .b      STR      r2,[r3,#0x20]
        0x00001ff8:    4a20         J      LDR      r2,[pc,#128] ; [0x207c] = 0x2000002c
        0x00001ffa:    68d2        .h      LDR      r2,[r2,#0xc]
        0x00001ffc:    6812        .h      LDR      r2,[r2,#0]
        0x00001ffe:    0852        R.      LSRS     r2,r2,#1
        0x00002000:    0052        R.      LSLS     r2,r2,#1
        0x00002002:    1c52        R.      ADDS     r2,r2,#1
        0x00002004:    4b1d        .K      LDR      r3,[pc,#116] ; [0x207c] = 0x2000002c
        0x00002006:    68db        .h      LDR      r3,[r3,#0xc]
        0x00002008:    601a        .`      STR      r2,[r3,#0]
        0x0000200a:    bf00        ..      NOP      
        0x0000200c:    4a1b        .J      LDR      r2,[pc,#108] ; [0x207c] = 0x2000002c
        0x0000200e:    68d2        .h      LDR      r2,[r2,#0xc]
        0x00002010:    6812        .h      LDR      r2,[r2,#0]
        0x00002012:    07d2        ..      LSLS     r2,r2,#31
        0x00002014:    0fd2        ..      LSRS     r2,r2,#31
        0x00002016:    2a01        .*      CMP      r2,#1
        0x00002018:    d0f8        ..      BEQ      0x200c ; SetPACA + 128
        0x0000201a:    4a18        .J      LDR      r2,[pc,#96] ; [0x207c] = 0x2000002c
        0x0000201c:    68d2        .h      LDR      r2,[r2,#0xc]
        0x0000201e:    6892        .h      LDR      r2,[r2,#8]
        0x00002020:    0892        ..      LSRS     r2,r2,#2
        0x00002022:    0092        ..      LSLS     r2,r2,#2
        0x00002024:    4b15        .K      LDR      r3,[pc,#84] ; [0x207c] = 0x2000002c
        0x00002026:    68db        .h      LDR      r3,[r3,#0xc]
        0x00002028:    609a        .`      STR      r2,[r3,#8]
        0x0000202a:    4a14        .J      LDR      r2,[pc,#80] ; [0x207c] = 0x2000002c
        0x0000202c:    68d2        .h      LDR      r2,[r2,#0xc]
        0x0000202e:    6892        .h      LDR      r2,[r2,#8]
        0x00002030:    0892        ..      LSRS     r2,r2,#2
        0x00002032:    0092        ..      LSLS     r2,r2,#2
        0x00002034:    1c52        R.      ADDS     r2,r2,#1
        0x00002036:    4b11        .K      LDR      r3,[pc,#68] ; [0x207c] = 0x2000002c
        0x00002038:    68db        .h      LDR      r3,[r3,#0xc]
        0x0000203a:    609a        .`      STR      r2,[r3,#8]
        0x0000203c:    070a        ..      LSLS     r2,r1,#28
        0x0000203e:    0f12        ..      LSRS     r2,r2,#28
        0x00002040:    4b0e        .K      LDR      r3,[pc,#56] ; [0x207c] = 0x2000002c
        0x00002042:    68db        .h      LDR      r3,[r3,#0xc]
        0x00002044:    621a        .b      STR      r2,[r3,#0x20]
        0x00002046:    4a0d        .J      LDR      r2,[pc,#52] ; [0x207c] = 0x2000002c
        0x00002048:    68d2        .h      LDR      r2,[r2,#0xc]
        0x0000204a:    6812        .h      LDR      r2,[r2,#0]
        0x0000204c:    0852        R.      LSRS     r2,r2,#1
        0x0000204e:    0052        R.      LSLS     r2,r2,#1
        0x00002050:    1c52        R.      ADDS     r2,r2,#1
        0x00002052:    4b0a        .K      LDR      r3,[pc,#40] ; [0x207c] = 0x2000002c
        0x00002054:    68db        .h      LDR      r3,[r3,#0xc]
        0x00002056:    601a        .`      STR      r2,[r3,#0]
        0x00002058:    bf00        ..      NOP      
        0x0000205a:    4a08        .J      LDR      r2,[pc,#32] ; [0x207c] = 0x2000002c
        0x0000205c:    68d2        .h      LDR      r2,[r2,#0xc]
        0x0000205e:    6812        .h      LDR      r2,[r2,#0]
        0x00002060:    07d2        ..      LSLS     r2,r2,#31
        0x00002062:    0fd2        ..      LSRS     r2,r2,#31
        0x00002064:    2a01        .*      CMP      r2,#1
        0x00002066:    d0f8        ..      BEQ      0x205a ; SetPACA + 206
        0x00002068:    4a04        .J      LDR      r2,[pc,#16] ; [0x207c] = 0x2000002c
        0x0000206a:    68d2        .h      LDR      r2,[r2,#0xc]
        0x0000206c:    6892        .h      LDR      r2,[r2,#8]
        0x0000206e:    0892        ..      LSRS     r2,r2,#2
        0x00002070:    0092        ..      LSLS     r2,r2,#2
        0x00002072:    4b02        .K      LDR      r3,[pc,#8] ; [0x207c] = 0x2000002c
        0x00002074:    68db        .h      LDR      r3,[r3,#0xc]
        0x00002076:    609a        .`      STR      r2,[r3,#8]
        0x00002078:    4770        pG      BX       lr
    $d
        0x0000207a:    0000        ..      DCW    0
        0x0000207c:    2000002c    ,..     DCD    536870956
    $t
    i.Show_Word
    Show_Word
        0x00002080:    b5fc        ..      PUSH     {r2-r7,lr}
        0x00002082:    4605        .F      MOV      r5,r0
        0x00002084:    460e        .F      MOV      r6,r1
        0x00002086:    4617        .F      MOV      r7,r2
        0x00002088:    2400        .$      MOVS     r4,#0
        0x0000208a:    2000        .       MOVS     r0,#0
        0x0000208c:    9001        ..      STR      r0,[sp,#4]
        0x0000208e:    4638        8F      MOV      r0,r7
        0x00002090:    3820         8      SUBS     r0,r0,#0x20
        0x00002092:    0100        ..      LSLS     r0,r0,#4
        0x00002094:    9001        ..      STR      r0,[sp,#4]
        0x00002096:    bf00        ..      NOP      
        0x00002098:    e011        ..      B        0x20be ; Show_Word + 62
        0x0000209a:    00f2        ..      LSLS     r2,r6,#3
        0x0000209c:    2381        .#      MOVS     r3,#0x81
        0x0000209e:    1a9a        ..      SUBS     r2,r3,r2
        0x000020a0:    1b12        ..      SUBS     r2,r2,r4
        0x000020a2:    b2d1        ..      UXTB     r1,r2
        0x000020a4:    066a        j.      LSLS     r2,r5,#25
        0x000020a6:    0e10        ..      LSRS     r0,r2,#24
        0x000020a8:    f7ffff70    ..p.    BL       SetPACA ; 0x1f8c
        0x000020ac:    9801        ..      LDR      r0,[sp,#4]
        0x000020ae:    1900        ..      ADDS     r0,r0,r4
        0x000020b0:    4910        .I      LDR      r1,[pc,#64] ; [0x20f4] = 0x2000003c
        0x000020b2:    5c08        .\      LDRB     r0,[r1,r0]
        0x000020b4:    9000        ..      STR      r0,[sp,#0]
        0x000020b6:    9800        ..      LDR      r0,[sp,#0]
        0x000020b8:    f000f922    ..".    BL       WriteData ; 0x2300
        0x000020bc:    1c64        d.      ADDS     r4,r4,#1
        0x000020be:    2c08        .,      CMP      r4,#8
        0x000020c0:    dbeb        ..      BLT      0x209a ; Show_Word + 26
        0x000020c2:    2400        .$      MOVS     r4,#0
        0x000020c4:    e013        ..      B        0x20ee ; Show_Word + 110
        0x000020c6:    00f2        ..      LSLS     r2,r6,#3
        0x000020c8:    2381        .#      MOVS     r3,#0x81
        0x000020ca:    1a9a        ..      SUBS     r2,r3,r2
        0x000020cc:    1b12        ..      SUBS     r2,r2,r4
        0x000020ce:    b2d1        ..      UXTB     r1,r2
        0x000020d0:    006a        j.      LSLS     r2,r5,#1
        0x000020d2:    1c52        R.      ADDS     r2,r2,#1
        0x000020d4:    b2d0        ..      UXTB     r0,r2
        0x000020d6:    f7ffff59    ..Y.    BL       SetPACA ; 0x1f8c
        0x000020da:    9801        ..      LDR      r0,[sp,#4]
        0x000020dc:    1900        ..      ADDS     r0,r0,r4
        0x000020de:    3008        .0      ADDS     r0,r0,#8
        0x000020e0:    4904        .I      LDR      r1,[pc,#16] ; [0x20f4] = 0x2000003c
        0x000020e2:    5c08        .\      LDRB     r0,[r1,r0]
        0x000020e4:    9000        ..      STR      r0,[sp,#0]
        0x000020e6:    9800        ..      LDR      r0,[sp,#0]
        0x000020e8:    f000f90a    ....    BL       WriteData ; 0x2300
        0x000020ec:    1c64        d.      ADDS     r4,r4,#1
        0x000020ee:    2c08        .,      CMP      r4,#8
        0x000020f0:    dbe9        ..      BLT      0x20c6 ; Show_Word + 70
        0x000020f2:    bdfc        ..      POP      {r2-r7,pc}
    $d
        0x000020f4:    2000003c    <..     DCD    536870972
    $t
    i.SystemInit
    SystemInit
        0x000020f8:    4770        pG      BX       lr
        0x000020fa:    0000        ..      MOVS     r0,r0
    i.TMR0_IRQHandler
    TMR0_IRQHandler
        0x000020fc:    b500        ..      PUSH     {lr}
        0x000020fe:    b085        ..      SUB      sp,sp,#0x14
        0x00002100:    2214        ."      MOVS     r2,#0x14
        0x00002102:    490e        .I      LDR      r1,[pc,#56] ; [0x213c] = 0x2628
        0x00002104:    4668        hF      MOV      r0,sp
        0x00002106:    f7fef83b    ..;.    BL       __aeabi_memcpy4 ; 0x180
        0x0000210a:    480d        .H      LDR      r0,[pc,#52] ; [0x2140] = 0x2000001c
        0x0000210c:    8800        ..      LDRH     r0,[r0,#0]
        0x0000210e:    1c40        @.      ADDS     r0,r0,#1
        0x00002110:    490b        .I      LDR      r1,[pc,#44] ; [0x2140] = 0x2000001c
        0x00002112:    8008        ..      STRH     r0,[r1,#0]
        0x00002114:    4608        .F      MOV      r0,r1
        0x00002116:    8802        ..      LDRH     r2,[r0,#0]
        0x00002118:    a10a        ..      ADR      r1,{pc}+0x2c ; 0x2144
        0x0000211a:    a801        ..      ADD      r0,sp,#4
        0x0000211c:    3003        .0      ADDS     r0,#3
        0x0000211e:    f7fef87d    ..}.    BL       __2sprintf ; 0x21c
        0x00002122:    4669        iF      MOV      r1,sp
        0x00002124:    2002        .       MOVS     r0,#2
        0x00002126:    f000fa0b    ....    BL       print_lcd ; 0x2540
        0x0000212a:    4808        .H      LDR      r0,[pc,#32] ; [0x214c] = 0x40010000
        0x0000212c:    6880        .h      LDR      r0,[r0,#8]
        0x0000212e:    0840        @.      LSRS     r0,r0,#1
        0x00002130:    0040        @.      LSLS     r0,r0,#1
        0x00002132:    1c40        @.      ADDS     r0,r0,#1
        0x00002134:    4905        .I      LDR      r1,[pc,#20] ; [0x214c] = 0x40010000
        0x00002136:    6088        .`      STR      r0,[r1,#8]
        0x00002138:    b005        ..      ADD      sp,sp,#0x14
        0x0000213a:    bd00        ..      POP      {pc}
    $d
        0x0000213c:    00002628    (&..    DCD    9768
        0x00002140:    2000001c    ...     DCD    536870940
        0x00002144:    20642520     %d     DCD    543434016
        0x00002148:    00002e73    s...    DCD    11891
        0x0000214c:    40010000    ...@    DCD    1073807360
    $t
    i.TMR3_IRQHandler
    TMR3_IRQHandler
        0x00002150:    b510        ..      PUSH     {r4,lr}
        0x00002152:    b090        ..      SUB      sp,sp,#0x40
        0x00002154:    2214        ."      MOVS     r2,#0x14
        0x00002156:    4945        EI      LDR      r1,[pc,#276] ; [0x226c] = 0x263c
        0x00002158:    a80b        ..      ADD      r0,sp,#0x2c
        0x0000215a:    f7fef811    ....    BL       __aeabi_memcpy4 ; 0x180
        0x0000215e:    2214        ."      MOVS     r2,#0x14
        0x00002160:    4942        BI      LDR      r1,[pc,#264] ; [0x226c] = 0x263c
        0x00002162:    3114        .1      ADDS     r1,r1,#0x14
        0x00002164:    a806        ..      ADD      r0,sp,#0x18
        0x00002166:    f7fef80b    ....    BL       __aeabi_memcpy4 ; 0x180
        0x0000216a:    2214        ."      MOVS     r2,#0x14
        0x0000216c:    493f        ?I      LDR      r1,[pc,#252] ; [0x226c] = 0x263c
        0x0000216e:    3128        (1      ADDS     r1,r1,#0x28
        0x00002170:    a801        ..      ADD      r0,sp,#4
        0x00002172:    f7fef805    ....    BL       __aeabi_memcpy4 ; 0x180
        0x00002176:    483e        >H      LDR      r0,[pc,#248] ; [0x2270] = 0x2000001e
        0x00002178:    8800        ..      LDRH     r0,[r0,#0]
        0x0000217a:    1c40        @.      ADDS     r0,r0,#1
        0x0000217c:    493c        <I      LDR      r1,[pc,#240] ; [0x2270] = 0x2000001e
        0x0000217e:    8008        ..      STRH     r0,[r1,#0]
        0x00002180:    4608        .F      MOV      r0,r1
        0x00002182:    8802        ..      LDRH     r2,[r0,#0]
        0x00002184:    a13b        ;.      ADR      r1,{pc}+0xf0 ; 0x2274
        0x00002186:    a80c        ..      ADD      r0,sp,#0x30
        0x00002188:    3003        .0      ADDS     r0,#3
        0x0000218a:    f7fef847    ..G.    BL       __2sprintf ; 0x21c
        0x0000218e:    a90b        ..      ADD      r1,sp,#0x2c
        0x00002190:    2001        .       MOVS     r0,#1
        0x00002192:    f000f9d5    ....    BL       print_lcd ; 0x2540
        0x00002196:    4839        9H      LDR      r0,[pc,#228] ; [0x227c] = 0x20000024
        0x00002198:    6800        .h      LDR      r0,[r0,#0]
        0x0000219a:    4939        9I      LDR      r1,[pc,#228] ; [0x2280] = 0xf4240
        0x0000219c:    4288        .B      CMP      r0,r1
        0x0000219e:    d30c        ..      BCC      0x21ba ; TMR3_IRQHandler + 106
        0x000021a0:    4936        6I      LDR      r1,[pc,#216] ; [0x227c] = 0x20000024
        0x000021a2:    6808        .h      LDR      r0,[r1,#0]
        0x000021a4:    4936        6I      LDR      r1,[pc,#216] ; [0x2280] = 0xf4240
        0x000021a6:    f7fef973    ..s.    BL       __aeabi_uidiv ; 0x490
        0x000021aa:    4604        .F      MOV      r4,r0
        0x000021ac:    4622        "F      MOV      r2,r4
        0x000021ae:    a135        5.      ADR      r1,{pc}+0xd6 ; 0x2284
        0x000021b0:    a807        ..      ADD      r0,sp,#0x1c
        0x000021b2:    3001        .0      ADDS     r0,#1
        0x000021b4:    f7fef832    ..2.    BL       __2sprintf ; 0x21c
        0x000021b8:    e01a        ..      B        0x21f0 ; TMR3_IRQHandler + 160
        0x000021ba:    4830        0H      LDR      r0,[pc,#192] ; [0x227c] = 0x20000024
        0x000021bc:    6800        .h      LDR      r0,[r0,#0]
        0x000021be:    217d        }!      MOVS     r1,#0x7d
        0x000021c0:    00c9        ..      LSLS     r1,r1,#3
        0x000021c2:    4288        .B      CMP      r0,r1
        0x000021c4:    d30d        ..      BCC      0x21e2 ; TMR3_IRQHandler + 146
        0x000021c6:    492d        -I      LDR      r1,[pc,#180] ; [0x227c] = 0x20000024
        0x000021c8:    6808        .h      LDR      r0,[r1,#0]
        0x000021ca:    217d        }!      MOVS     r1,#0x7d
        0x000021cc:    00c9        ..      LSLS     r1,r1,#3
        0x000021ce:    f7fef95f    .._.    BL       __aeabi_uidiv ; 0x490
        0x000021d2:    4604        .F      MOV      r4,r0
        0x000021d4:    4622        "F      MOV      r2,r4
        0x000021d6:    a12e        ..      ADR      r1,{pc}+0xba ; 0x2290
        0x000021d8:    a807        ..      ADD      r0,sp,#0x1c
        0x000021da:    3001        .0      ADDS     r0,#1
        0x000021dc:    f7fef81e    ....    BL       __2sprintf ; 0x21c
        0x000021e0:    e006        ..      B        0x21f0 ; TMR3_IRQHandler + 160
        0x000021e2:    4826        &H      LDR      r0,[pc,#152] ; [0x227c] = 0x20000024
        0x000021e4:    a12c        ,.      ADR      r1,{pc}+0xb4 ; 0x2298
        0x000021e6:    6802        .h      LDR      r2,[r0,#0]
        0x000021e8:    a807        ..      ADD      r0,sp,#0x1c
        0x000021ea:    3001        .0      ADDS     r0,#1
        0x000021ec:    f7fef816    ....    BL       __2sprintf ; 0x21c
        0x000021f0:    a906        ..      ADD      r1,sp,#0x18
        0x000021f2:    2002        .       MOVS     r0,#2
        0x000021f4:    f000f9a4    ....    BL       print_lcd ; 0x2540
        0x000021f8:    4820         H      LDR      r0,[pc,#128] ; [0x227c] = 0x20000024
        0x000021fa:    6840        @h      LDR      r0,[r0,#4]
        0x000021fc:    4920         I      LDR      r1,[pc,#128] ; [0x2280] = 0xf4240
        0x000021fe:    4288        .B      CMP      r0,r1
        0x00002200:    d30c        ..      BCC      0x221c ; TMR3_IRQHandler + 204
        0x00002202:    491e        .I      LDR      r1,[pc,#120] ; [0x227c] = 0x20000024
        0x00002204:    6848        Hh      LDR      r0,[r1,#4]
        0x00002206:    491e        .I      LDR      r1,[pc,#120] ; [0x2280] = 0xf4240
        0x00002208:    f7fef942    ..B.    BL       __aeabi_uidiv ; 0x490
        0x0000220c:    4604        .F      MOV      r4,r0
        0x0000220e:    4622        "F      MOV      r2,r4
        0x00002210:    a11c        ..      ADR      r1,{pc}+0x74 ; 0x2284
        0x00002212:    a802        ..      ADD      r0,sp,#8
        0x00002214:    3001        .0      ADDS     r0,#1
        0x00002216:    f7fef801    ....    BL       __2sprintf ; 0x21c
        0x0000221a:    e01a        ..      B        0x2252 ; TMR3_IRQHandler + 258
        0x0000221c:    4817        .H      LDR      r0,[pc,#92] ; [0x227c] = 0x20000024
        0x0000221e:    6840        @h      LDR      r0,[r0,#4]
        0x00002220:    217d        }!      MOVS     r1,#0x7d
        0x00002222:    00c9        ..      LSLS     r1,r1,#3
        0x00002224:    4288        .B      CMP      r0,r1
        0x00002226:    d30d        ..      BCC      0x2244 ; TMR3_IRQHandler + 244
        0x00002228:    4914        .I      LDR      r1,[pc,#80] ; [0x227c] = 0x20000024
        0x0000222a:    6848        Hh      LDR      r0,[r1,#4]
        0x0000222c:    217d        }!      MOVS     r1,#0x7d
        0x0000222e:    00c9        ..      LSLS     r1,r1,#3
        0x00002230:    f7fef92e    ....    BL       __aeabi_uidiv ; 0x490
        0x00002234:    4604        .F      MOV      r4,r0
        0x00002236:    4622        "F      MOV      r2,r4
        0x00002238:    a115        ..      ADR      r1,{pc}+0x58 ; 0x2290
        0x0000223a:    a802        ..      ADD      r0,sp,#8
        0x0000223c:    3001        .0      ADDS     r0,#1
        0x0000223e:    f7fdffed    ....    BL       __2sprintf ; 0x21c
        0x00002242:    e006        ..      B        0x2252 ; TMR3_IRQHandler + 258
        0x00002244:    480d        .H      LDR      r0,[pc,#52] ; [0x227c] = 0x20000024
        0x00002246:    a114        ..      ADR      r1,{pc}+0x52 ; 0x2298
        0x00002248:    6842        Bh      LDR      r2,[r0,#4]
        0x0000224a:    a802        ..      ADD      r0,sp,#8
        0x0000224c:    3001        .0      ADDS     r0,#1
        0x0000224e:    f7fdffe5    ....    BL       __2sprintf ; 0x21c
        0x00002252:    a901        ..      ADD      r1,sp,#4
        0x00002254:    2003        .       MOVS     r0,#3
        0x00002256:    f000f973    ..s.    BL       print_lcd ; 0x2540
        0x0000225a:    4811        .H      LDR      r0,[pc,#68] ; [0x22a0] = 0x40110000
        0x0000225c:    6a80        .j      LDR      r0,[r0,#0x28]
        0x0000225e:    0840        @.      LSRS     r0,r0,#1
        0x00002260:    0040        @.      LSLS     r0,r0,#1
        0x00002262:    1c40        @.      ADDS     r0,r0,#1
        0x00002264:    490e        .I      LDR      r1,[pc,#56] ; [0x22a0] = 0x40110000
        0x00002266:    6288        .b      STR      r0,[r1,#0x28]
        0x00002268:    b010        ..      ADD      sp,sp,#0x40
        0x0000226a:    bd10        ..      POP      {r4,pc}
    $d
        0x0000226c:    0000263c    <&..    DCD    9788
        0x00002270:    2000001e    ...     DCD    536870942
        0x00002274:    20642520     %d     DCD    543434016
        0x00002278:    00002e73    s...    DCD    11891
        0x0000227c:    20000024    $..     DCD    536870948
        0x00002280:    000f4240    @B..    DCD    1000000
        0x00002284:    65736425    %dse    DCD    1702061093
        0x00002288:    20202063    c       DCD    538976355
        0x0000228c:    00000020     ...    DCD    32
        0x00002290:    736d6425    %dms    DCD    1936548901
        0x00002294:    00006365    ec..    DCD    25445
        0x00002298:    73756425    %dus    DCD    1937073189
        0x0000229c:    00006365    ec..    DCD    25445
        0x000022a0:    40110000    ...@    DCD    1074855936
    $t
    i.UART02_IRQHandler
    UART02_IRQHandler
        0x000022a4:    b570        p.      PUSH     {r4-r6,lr}
        0x000022a6:    480a        .H      LDR      r0,[pc,#40] ; [0x22d0] = 0x40050000
        0x000022a8:    69c4        .i      LDR      r4,[r0,#0x1c]
        0x000022aa:    480a        .H      LDR      r0,[pc,#40] ; [0x22d4] = 0x40154000
        0x000022ac:    69c5        .i      LDR      r5,[r0,#0x1c]
        0x000022ae:    480a        .H      LDR      r0,[pc,#40] ; [0x22d8] = 0x20000634
        0x000022b0:    6800        .h      LDR      r0,[r0,#0]
        0x000022b2:    2800        .(      CMP      r0,#0
        0x000022b4:    d003        ..      BEQ      0x22be ; UART02_IRQHandler + 26
        0x000022b6:    4620         F      MOV      r0,r4
        0x000022b8:    4907        .I      LDR      r1,[pc,#28] ; [0x22d8] = 0x20000634
        0x000022ba:    6809        .h      LDR      r1,[r1,#0]
        0x000022bc:    4788        .G      BLX      r1
        0x000022be:    4807        .H      LDR      r0,[pc,#28] ; [0x22dc] = 0x2000063c
        0x000022c0:    6800        .h      LDR      r0,[r0,#0]
        0x000022c2:    2800        .(      CMP      r0,#0
        0x000022c4:    d003        ..      BEQ      0x22ce ; UART02_IRQHandler + 42
        0x000022c6:    4628        (F      MOV      r0,r5
        0x000022c8:    4904        .I      LDR      r1,[pc,#16] ; [0x22dc] = 0x2000063c
        0x000022ca:    6809        .h      LDR      r1,[r1,#0]
        0x000022cc:    4788        .G      BLX      r1
        0x000022ce:    bd70        p.      POP      {r4-r6,pc}
    $d
        0x000022d0:    40050000    ...@    DCD    1074069504
        0x000022d4:    40154000    .@.@    DCD    1075134464
        0x000022d8:    20000634    4..     DCD    536872500
        0x000022dc:    2000063c    <..     DCD    536872508
    $t
    i.UART1_IRQHandler
    UART1_IRQHandler
        0x000022e0:    b510        ..      PUSH     {r4,lr}
        0x000022e2:    4805        .H      LDR      r0,[pc,#20] ; [0x22f8] = 0x40150000
        0x000022e4:    69c4        .i      LDR      r4,[r0,#0x1c]
        0x000022e6:    4805        .H      LDR      r0,[pc,#20] ; [0x22fc] = 0x20000638
        0x000022e8:    6800        .h      LDR      r0,[r0,#0]
        0x000022ea:    2800        .(      CMP      r0,#0
        0x000022ec:    d003        ..      BEQ      0x22f6 ; UART1_IRQHandler + 22
        0x000022ee:    4620         F      MOV      r0,r4
        0x000022f0:    4902        .I      LDR      r1,[pc,#8] ; [0x22fc] = 0x20000638
        0x000022f2:    6809        .h      LDR      r1,[r1,#0]
        0x000022f4:    4788        .G      BLX      r1
        0x000022f6:    bd10        ..      POP      {r4,pc}
    $d
        0x000022f8:    40150000    ...@    DCD    1075118080
        0x000022fc:    20000638    8..     DCD    536872504
    $t
    i.WriteData
    WriteData
        0x00002300:    4914        .I      LDR      r1,[pc,#80] ; [0x2354] = 0x2000002c
        0x00002302:    68c9        .h      LDR      r1,[r1,#0xc]
        0x00002304:    6889        .h      LDR      r1,[r1,#8]
        0x00002306:    0889        ..      LSRS     r1,r1,#2
        0x00002308:    0089        ..      LSLS     r1,r1,#2
        0x0000230a:    1c49        I.      ADDS     r1,r1,#1
        0x0000230c:    4a11        .J      LDR      r2,[pc,#68] ; [0x2354] = 0x2000002c
        0x0000230e:    68d2        .h      LDR      r2,[r2,#0xc]
        0x00002310:    6091        .`      STR      r1,[r2,#8]
        0x00002312:    21ff        .!      MOVS     r1,#0xff
        0x00002314:    3101        .1      ADDS     r1,#1
        0x00002316:    4301        .C      ORRS     r1,r1,r0
        0x00002318:    4a0e        .J      LDR      r2,[pc,#56] ; [0x2354] = 0x2000002c
        0x0000231a:    68d2        .h      LDR      r2,[r2,#0xc]
        0x0000231c:    6211        .b      STR      r1,[r2,#0x20]
        0x0000231e:    490d        .I      LDR      r1,[pc,#52] ; [0x2354] = 0x2000002c
        0x00002320:    68c9        .h      LDR      r1,[r1,#0xc]
        0x00002322:    6809        .h      LDR      r1,[r1,#0]
        0x00002324:    0849        I.      LSRS     r1,r1,#1
        0x00002326:    0049        I.      LSLS     r1,r1,#1
        0x00002328:    1c49        I.      ADDS     r1,r1,#1
        0x0000232a:    4a0a        .J      LDR      r2,[pc,#40] ; [0x2354] = 0x2000002c
        0x0000232c:    68d2        .h      LDR      r2,[r2,#0xc]
        0x0000232e:    6011        .`      STR      r1,[r2,#0]
        0x00002330:    bf00        ..      NOP      
        0x00002332:    4908        .I      LDR      r1,[pc,#32] ; [0x2354] = 0x2000002c
        0x00002334:    68c9        .h      LDR      r1,[r1,#0xc]
        0x00002336:    6809        .h      LDR      r1,[r1,#0]
        0x00002338:    07c9        ..      LSLS     r1,r1,#31
        0x0000233a:    0fc9        ..      LSRS     r1,r1,#31
        0x0000233c:    2901        .)      CMP      r1,#1
        0x0000233e:    d0f8        ..      BEQ      0x2332 ; WriteData + 50
        0x00002340:    4904        .I      LDR      r1,[pc,#16] ; [0x2354] = 0x2000002c
        0x00002342:    68c9        .h      LDR      r1,[r1,#0xc]
        0x00002344:    6889        .h      LDR      r1,[r1,#8]
        0x00002346:    0889        ..      LSRS     r1,r1,#2
        0x00002348:    0089        ..      LSLS     r1,r1,#2
        0x0000234a:    4a02        .J      LDR      r2,[pc,#8] ; [0x2354] = 0x2000002c
        0x0000234c:    68d2        .h      LDR      r2,[r2,#0xc]
        0x0000234e:    6091        .`      STR      r1,[r2,#8]
        0x00002350:    4770        pG      BX       lr
    $d
        0x00002352:    0000        ..      DCW    0
        0x00002354:    2000002c    ,..     DCD    536870956
    $t
    i.Write_to_any8574
    Write_to_any8574
        0x00002358:    b538        8.      PUSH     {r3-r5,lr}
        0x0000235a:    4604        .F      MOV      r4,r0
        0x0000235c:    460d        .F      MOV      r5,r1
        0x0000235e:    f7feff57    ..W.    BL       DrvSYS_GetHCLKFreq ; 0x1210
        0x00002362:    4922        "I      LDR      r1,[pc,#136] ; [0x23ec] = 0x20000000
        0x00002364:    6008        .`      STR      r0,[r1,#0]
        0x00002366:    4922        "I      LDR      r1,[pc,#136] ; [0x23f0] = 0xc350
        0x00002368:    2001        .       MOVS     r0,#1
        0x0000236a:    f7fefee9    ....    BL       DrvI2C_Open ; 0x1140
        0x0000236e:    2000        .       MOVS     r0,#0
        0x00002370:    4603        .F      MOV      r3,r0
        0x00002372:    4602        .F      MOV      r2,r0
        0x00002374:    2101        .!      MOVS     r1,#1
        0x00002376:    9000        ..      STR      r0,[sp,#0]
        0x00002378:    4608        .F      MOV      r0,r1
        0x0000237a:    f7fefeb7    ....    BL       DrvI2C_Ctrl ; 0x10ec
        0x0000237e:    bf00        ..      NOP      
        0x00002380:    481c        .H      LDR      r0,[pc,#112] ; [0x23f4] = 0x40120000
        0x00002382:    6800        .h      LDR      r0,[r0,#0]
        0x00002384:    0700        ..      LSLS     r0,r0,#28
        0x00002386:    0fc0        ..      LSRS     r0,r0,#31
        0x00002388:    d0fa        ..      BEQ      0x2380 ; Write_to_any8574 + 40
        0x0000238a:    481a        .H      LDR      r0,[pc,#104] ; [0x23f4] = 0x40120000
        0x0000238c:    6084        .`      STR      r4,[r0,#8]
        0x0000238e:    2000        .       MOVS     r0,#0
        0x00002390:    2301        .#      MOVS     r3,#1
        0x00002392:    4602        .F      MOV      r2,r0
        0x00002394:    4601        .F      MOV      r1,r0
        0x00002396:    9000        ..      STR      r0,[sp,#0]
        0x00002398:    4618        .F      MOV      r0,r3
        0x0000239a:    f7fefea7    ....    BL       DrvI2C_Ctrl ; 0x10ec
        0x0000239e:    bf00        ..      NOP      
        0x000023a0:    4814        .H      LDR      r0,[pc,#80] ; [0x23f4] = 0x40120000
        0x000023a2:    6800        .h      LDR      r0,[r0,#0]
        0x000023a4:    0700        ..      LSLS     r0,r0,#28
        0x000023a6:    0fc0        ..      LSRS     r0,r0,#31
        0x000023a8:    d0fa        ..      BEQ      0x23a0 ; Write_to_any8574 + 72
        0x000023aa:    4812        .H      LDR      r0,[pc,#72] ; [0x23f4] = 0x40120000
        0x000023ac:    6085        .`      STR      r5,[r0,#8]
        0x000023ae:    2001        .       MOVS     r0,#1
        0x000023b0:    4603        .F      MOV      r3,r0
        0x000023b2:    2200        ."      MOVS     r2,#0
        0x000023b4:    4611        .F      MOV      r1,r2
        0x000023b6:    9000        ..      STR      r0,[sp,#0]
        0x000023b8:    f7fefe98    ....    BL       DrvI2C_Ctrl ; 0x10ec
        0x000023bc:    bf00        ..      NOP      
        0x000023be:    480d        .H      LDR      r0,[pc,#52] ; [0x23f4] = 0x40120000
        0x000023c0:    6800        .h      LDR      r0,[r0,#0]
        0x000023c2:    0700        ..      LSLS     r0,r0,#28
        0x000023c4:    0fc0        ..      LSRS     r0,r0,#31
        0x000023c6:    d0fa        ..      BEQ      0x23be ; Write_to_any8574 + 102
        0x000023c8:    2000        .       MOVS     r0,#0
        0x000023ca:    2301        .#      MOVS     r3,#1
        0x000023cc:    461a        .F      MOV      r2,r3
        0x000023ce:    4601        .F      MOV      r1,r0
        0x000023d0:    9000        ..      STR      r0,[sp,#0]
        0x000023d2:    4618        .F      MOV      r0,r3
        0x000023d4:    f7fefe8a    ....    BL       DrvI2C_Ctrl ; 0x10ec
        0x000023d8:    bf00        ..      NOP      
        0x000023da:    4806        .H      LDR      r0,[pc,#24] ; [0x23f4] = 0x40120000
        0x000023dc:    6800        .h      LDR      r0,[r0,#0]
        0x000023de:    06c0        ..      LSLS     r0,r0,#27
        0x000023e0:    0fc0        ..      LSRS     r0,r0,#31
        0x000023e2:    d1fa        ..      BNE      0x23da ; Write_to_any8574 + 130
        0x000023e4:    2001        .       MOVS     r0,#1
        0x000023e6:    f7fefe39    ..9.    BL       DrvI2C_Close ; 0x105c
        0x000023ea:    bd38        8.      POP      {r3-r5,pc}
    $d
        0x000023ec:    20000000    ...     DCD    536870912
        0x000023f0:    0000c350    P...    DCD    50000
        0x000023f4:    40120000    ...@    DCD    1074921472
    $t
    i.__ARM_common_switch8
    __ARM_common_switch8
        0x000023f8:    b430        0.      PUSH     {r4,r5}
        0x000023fa:    4674        tF      MOV      r4,lr
        0x000023fc:    1e64        d.      SUBS     r4,r4,#1
        0x000023fe:    7825        %x      LDRB     r5,[r4,#0]
        0x00002400:    1c64        d.      ADDS     r4,r4,#1
        0x00002402:    42ab        .B      CMP      r3,r5
        0x00002404:    d304        ..      BCC      0x2410 ; __ARM_common_switch8 + 24
        0x00002406:    5d63        c]      LDRB     r3,[r4,r5]
        0x00002408:    005b        [.      LSLS     r3,r3,#1
        0x0000240a:    18e3        ..      ADDS     r3,r4,r3
        0x0000240c:    bc30        0.      POP      {r4,r5}
        0x0000240e:    4718        .G      BX       r3
        0x00002410:    461d        .F      MOV      r5,r3
        0x00002412:    e7f8        ..      B        0x2406 ; __ARM_common_switch8 + 14
    i._is_digit
    _is_digit
        0x00002414:    3830        08      SUBS     r0,r0,#0x30
        0x00002416:    280a        .(      CMP      r0,#0xa
        0x00002418:    d201        ..      BCS      0x241e ; _is_digit + 10
        0x0000241a:    2001        .       MOVS     r0,#1
        0x0000241c:    4770        pG      BX       lr
        0x0000241e:    2000        .       MOVS     r0,#0
        0x00002420:    4770        pG      BX       lr
    i.clr_all_pannal
    clr_all_pannal
        0x00002422:    b510        ..      PUSH     {r4,lr}
        0x00002424:    2400        .$      MOVS     r4,#0
        0x00002426:    2100        .!      MOVS     r1,#0
        0x00002428:    4608        .F      MOV      r0,r1
        0x0000242a:    f7fffdaf    ....    BL       SetPACA ; 0x1f8c
        0x0000242e:    bf00        ..      NOP      
        0x00002430:    e003        ..      B        0x243a ; clr_all_pannal + 24
        0x00002432:    2000        .       MOVS     r0,#0
        0x00002434:    f7ffff64    ..d.    BL       WriteData ; 0x2300
        0x00002438:    1c64        d.      ADDS     r4,r4,#1
        0x0000243a:    2021        !       MOVS     r0,#0x21
        0x0000243c:    0140        @.      LSLS     r0,r0,#5
        0x0000243e:    4284        .B      CMP      r4,r0
        0x00002440:    dbf7        ..      BLT      0x2432 ; clr_all_pannal + 16
        0x00002442:    200f        .       MOVS     r0,#0xf
        0x00002444:    f7ffff5c    ..\.    BL       WriteData ; 0x2300
        0x00002448:    bd10        ..      POP      {r4,pc}
    i.delay
    delay
        0x0000244a:    2000        .       MOVS     r0,#0
        0x0000244c:    e000        ..      B        0x2450 ; delay + 6
        0x0000244e:    1c40        @.      ADDS     r0,r0,#1
        0x00002450:    217d        }!      MOVS     r1,#0x7d
        0x00002452:    00c9        ..      LSLS     r1,r1,#3
        0x00002454:    4288        .B      CMP      r0,r1
        0x00002456:    dbfa        ..      BLT      0x244e ; delay + 4
        0x00002458:    4770        pG      BX       lr
    i.disp2Digit8574
    disp2Digit8574
        0x0000245a:    b570        p.      PUSH     {r4-r6,lr}
        0x0000245c:    4604        .F      MOV      r4,r0
        0x0000245e:    1120         .      ASRS     r0,r4,#4
        0x00002460:    f7feffb0    ....    BL       HEX2Disp ; 0x13c4
        0x00002464:    4605        .F      MOV      r5,r0
        0x00002466:    4629        )F      MOV      r1,r5
        0x00002468:    2072        r       MOVS     r0,#0x72
        0x0000246a:    f7ffff75    ..u.    BL       Write_to_any8574 ; 0x2358
        0x0000246e:    0721        !.      LSLS     r1,r4,#28
        0x00002470:    0f09        ..      LSRS     r1,r1,#28
        0x00002472:    460c        .F      MOV      r4,r1
        0x00002474:    4608        .F      MOV      r0,r1
        0x00002476:    f7feffa5    ....    BL       HEX2Disp ; 0x13c4
        0x0000247a:    4605        .F      MOV      r5,r0
        0x0000247c:    4629        )F      MOV      r1,r5
        0x0000247e:    2070        p       MOVS     r0,#0x70
        0x00002480:    f7ffff6a    ..j.    BL       Write_to_any8574 ; 0x2358
        0x00002484:    bd70        p.      POP      {r4-r6,pc}
        0x00002486:    0000        ..      MOVS     r0,r0
    i.main
    main
        0x00002488:    2059        Y       MOVS     r0,#0x59
        0x0000248a:    4923        #I      LDR      r1,[pc,#140] ; [0x2518] = 0x50000100
        0x0000248c:    6008        .`      STR      r0,[r1,#0]
        0x0000248e:    2016        .       MOVS     r0,#0x16
        0x00002490:    6008        .`      STR      r0,[r1,#0]
        0x00002492:    2088        .       MOVS     r0,#0x88
        0x00002494:    6008        .`      STR      r0,[r1,#0]
        0x00002496:    4821        !H      LDR      r0,[pc,#132] ; [0x251c] = 0x50000200
        0x00002498:    6800        .h      LDR      r0,[r0,#0]
        0x0000249a:    0840        @.      LSRS     r0,r0,#1
        0x0000249c:    0040        @.      LSLS     r0,r0,#1
        0x0000249e:    1c40        @.      ADDS     r0,r0,#1
        0x000024a0:    491e        .I      LDR      r1,[pc,#120] ; [0x251c] = 0x50000200
        0x000024a2:    6008        .`      STR      r0,[r1,#0]
        0x000024a4:    4608        .F      MOV      r0,r1
        0x000024a6:    6900        .i      LDR      r0,[r0,#0x10]
        0x000024a8:    08c0        ..      LSRS     r0,r0,#3
        0x000024aa:    00c0        ..      LSLS     r0,r0,#3
        0x000024ac:    6108        .a      STR      r0,[r1,#0x10]
        0x000024ae:    2000        .       MOVS     r0,#0
        0x000024b0:    4919        .I      LDR      r1,[pc,#100] ; [0x2518] = 0x50000100
        0x000024b2:    6008        .`      STR      r0,[r1,#0]
        0x000024b4:    f7fffa06    ....    BL       Initial_pannel ; 0x18c4
        0x000024b8:    f7ffffb3    ....    BL       clr_all_pannal ; 0x2422
        0x000024bc:    f7fff90e    ....    BL       InitRTC ; 0x16dc
        0x000024c0:    f7fff866    ..f.    BL       InitPWM1 ; 0x1590
        0x000024c4:    f7fff8b4    ....    BL       InitPWM2 ; 0x1630
        0x000024c8:    f7fefffa    ....    BL       InitCapture5 ; 0x14c0
        0x000024cc:    f7fff960    ..`.    BL       InitTIMER0 ; 0x1790
        0x000024d0:    f7fff9b0    ....    BL       InitTIMER3 ; 0x1834
        0x000024d4:    a112        ..      ADR      r1,{pc}+0x4c ; 0x2520
        0x000024d6:    2000        .       MOVS     r0,#0
        0x000024d8:    f000f832    ..2.    BL       print_lcd ; 0x2540
        0x000024dc:    a114        ..      ADR      r1,{pc}+0x54 ; 0x2530
        0x000024de:    2001        .       MOVS     r0,#1
        0x000024e0:    f000f82e    ....    BL       print_lcd ; 0x2540
        0x000024e4:    f7fffb4a    ..J.    BL       OpenKeyPad ; 0x1b7c
        0x000024e8:    2200        ."      MOVS     r2,#0
        0x000024ea:    210f        .!      MOVS     r1,#0xf
        0x000024ec:    2001        .       MOVS     r0,#1
        0x000024ee:    f7fefd63    ..c.    BL       DrvGPIO_Open ; 0xfb8
        0x000024f2:    4a11        .J      LDR      r2,[pc,#68] ; [0x2538] = 0x1319
        0x000024f4:    2100        .!      MOVS     r1,#0
        0x000024f6:    2002        .       MOVS     r0,#2
        0x000024f8:    f7fef95e    ..^.    BL       DrvGPIO_EnableEINT1 ; 0x7b8
        0x000024fc:    2003        .       MOVS     r0,#3
        0x000024fe:    f7fef9af    ....    BL       DrvGPIO_InitFunction ; 0x860
        0x00002502:    e007        ..      B        0x2514 ; main + 140
        0x00002504:    f7fffd00    ....    BL       Scankey ; 0x1f08
        0x00002508:    b244        D.      SXTB     r4,r0
        0x0000250a:    2c01        .,      CMP      r4,#1
        0x0000250c:    d102        ..      BNE      0x2514 ; main + 140
        0x0000250e:    2000        .       MOVS     r0,#0
        0x00002510:    490a        .I      LDR      r1,[pc,#40] ; [0x253c] = 0x20000020
        0x00002512:    8008        ..      STRH     r0,[r1,#0]
        0x00002514:    e7f6        ..      B        0x2504 ; main + 124
    $d
        0x00002516:    0000        ..      DCW    0
        0x00002518:    50000100    ...P    DCD    1342177536
        0x0000251c:    50000200    ...P    DCD    1342177792
        0x00002520:    74706143    Capt    DCD    1953521987
        0x00002524:    20657275    ure     DCD    543519349
        0x00002528:    6f6d6564    demo    DCD    1869440356
        0x0000252c:    00000000    ....    DCD    0
        0x00002530:    50473e3e    >>GP    DCD    1346846270
        0x00002534:    00003545    E5..    DCD    13637
        0x00002538:    00001319    ....    DCD    4889
        0x0000253c:    20000020     ..     DCD    536870944
    $t
    i.print_lcd
    print_lcd
        0x00002540:    b570        p.      PUSH     {r4-r6,lr}
        0x00002542:    4606        .F      MOV      r6,r0
        0x00002544:    460c        .F      MOV      r4,r1
        0x00002546:    2500        .%      MOVS     r5,#0
        0x00002548:    bf00        ..      NOP      
        0x0000254a:    7822        "x      LDRB     r2,[r4,#0]
        0x0000254c:    1c64        d.      ADDS     r4,r4,#1
        0x0000254e:    b2e9        ..      UXTB     r1,r5
        0x00002550:    4630        0F      MOV      r0,r6
        0x00002552:    f7fffd95    ....    BL       Show_Word ; 0x2080
        0x00002556:    1c6d        m.      ADDS     r5,r5,#1
        0x00002558:    2d0f        .-      CMP      r5,#0xf
        0x0000255a:    dd00        ..      BLE      0x255e ; print_lcd + 30
        0x0000255c:    e002        ..      B        0x2564 ; print_lcd + 36
        0x0000255e:    7820         x      LDRB     r0,[r4,#0]
        0x00002560:    2800        .(      CMP      r0,#0
        0x00002562:    d1f2        ..      BNE      0x254a ; print_lcd + 10
        0x00002564:    bf00        ..      NOP      
        0x00002566:    bd70        p.      POP      {r4-r6,pc}
    i.set_CAR
    set_CAR
        0x00002568:    b5f0        ..      PUSH     {r4-r7,lr}
        0x0000256a:    9d06        ..      LDR      r5,[sp,#0x18]
        0x0000256c:    9c05        ..      LDR      r4,[sp,#0x14]
        0x0000256e:    0506        ..      LSLS     r6,r0,#20
        0x00002570:    040f        ..      LSLS     r7,r1,#16
        0x00002572:    433e        >C      ORRS     r6,r6,r7
        0x00002574:    0317        ..      LSLS     r7,r2,#12
        0x00002576:    433e        >C      ORRS     r6,r6,r7
        0x00002578:    021f        ..      LSLS     r7,r3,#8
        0x0000257a:    433e        >C      ORRS     r6,r6,r7
        0x0000257c:    0127        '.      LSLS     r7,r4,#4
        0x0000257e:    433e        >C      ORRS     r6,r6,r7
        0x00002580:    432e        .C      ORRS     r6,r6,r5
        0x00002582:    4f01        .O      LDR      r7,[pc,#4] ; [0x2588] = 0x40008000
        0x00002584:    623e        >b      STR      r6,[r7,#0x20]
        0x00002586:    bdf0        ..      POP      {r4-r7,pc}
    $d
        0x00002588:    40008000    ...@    DCD    1073774592
    $t
    i.set_CLR
    set_CLR
        0x0000258c:    b5f0        ..      PUSH     {r4-r7,lr}
        0x0000258e:    9d06        ..      LDR      r5,[sp,#0x18]
        0x00002590:    9c05        ..      LDR      r4,[sp,#0x14]
        0x00002592:    0506        ..      LSLS     r6,r0,#20
        0x00002594:    040f        ..      LSLS     r7,r1,#16
        0x00002596:    433e        >C      ORRS     r6,r6,r7
        0x00002598:    0317        ..      LSLS     r7,r2,#12
        0x0000259a:    433e        >C      ORRS     r6,r6,r7
        0x0000259c:    021f        ..      LSLS     r7,r3,#8
        0x0000259e:    433e        >C      ORRS     r6,r6,r7
        0x000025a0:    0127        '.      LSLS     r7,r4,#4
        0x000025a2:    433e        >C      ORRS     r6,r6,r7
        0x000025a4:    432e        .C      ORRS     r6,r6,r5
        0x000025a6:    4f01        .O      LDR      r7,[pc,#4] ; [0x25ac] = 0x40008000
        0x000025a8:    613e        >a      STR      r6,[r7,#0x10]
        0x000025aa:    bdf0        ..      POP      {r4-r7,pc}
    $d
        0x000025ac:    40008000    ...@    DCD    1073774592
    $t
    i.set_TAR
    set_TAR
        0x000025b0:    b5f0        ..      PUSH     {r4-r7,lr}
        0x000025b2:    9d06        ..      LDR      r5,[sp,#0x18]
        0x000025b4:    9c05        ..      LDR      r4,[sp,#0x14]
        0x000025b6:    0506        ..      LSLS     r6,r0,#20
        0x000025b8:    040f        ..      LSLS     r7,r1,#16
        0x000025ba:    433e        >C      ORRS     r6,r6,r7
        0x000025bc:    0317        ..      LSLS     r7,r2,#12
        0x000025be:    433e        >C      ORRS     r6,r6,r7
        0x000025c0:    021f        ..      LSLS     r7,r3,#8
        0x000025c2:    433e        >C      ORRS     r6,r6,r7
        0x000025c4:    0127        '.      LSLS     r7,r4,#4
        0x000025c6:    433e        >C      ORRS     r6,r6,r7
        0x000025c8:    432e        .C      ORRS     r6,r6,r5
        0x000025ca:    4f01        .O      LDR      r7,[pc,#4] ; [0x25d0] = 0x40008000
        0x000025cc:    61fe        .a      STR      r6,[r7,#0x1c]
        0x000025ce:    bdf0        ..      POP      {r4-r7,pc}
    $d
        0x000025d0:    40008000    ...@    DCD    1073774592
    $t
    i.set_TLR
    set_TLR
        0x000025d4:    b5f0        ..      PUSH     {r4-r7,lr}
        0x000025d6:    9d06        ..      LDR      r5,[sp,#0x18]
        0x000025d8:    9c05        ..      LDR      r4,[sp,#0x14]
        0x000025da:    0506        ..      LSLS     r6,r0,#20
        0x000025dc:    040f        ..      LSLS     r7,r1,#16
        0x000025de:    433e        >C      ORRS     r6,r6,r7
        0x000025e0:    0317        ..      LSLS     r7,r2,#12
        0x000025e2:    433e        >C      ORRS     r6,r6,r7
        0x000025e4:    021f        ..      LSLS     r7,r3,#8
        0x000025e6:    433e        >C      ORRS     r6,r6,r7
        0x000025e8:    0127        '.      LSLS     r7,r4,#4
        0x000025ea:    433e        >C      ORRS     r6,r6,r7
        0x000025ec:    432e        .C      ORRS     r6,r6,r5
        0x000025ee:    4f01        .O      LDR      r7,[pc,#4] ; [0x25f4] = 0x40008000
        0x000025f0:    60fe        .`      STR      r6,[r7,#0xc]
        0x000025f2:    bdf0        ..      POP      {r4-r7,pc}
    $d
        0x000025f4:    40008000    ...@    DCD    1073774592
    $d.realdata
    .constdata
    lookUp
        0x000025f8:    b0a4f9c0    ....    DCD    2963601856
        0x000025fc:    f8829299    ....    DCD    4169306777
        0x00002600:    83889080    ....    DCD    2206765184
        0x00002604:    8e86a1c6    ....    DCD    2391187910
        0x00002608:    636f6c43    Cloc    DCD    1668246595
        0x0000260c:    00003a6b    k:..    DCD    14955
        0x00002610:    00000000    ....    DCD    0
        0x00002614:    00000000    ....    DCD    0
        0x00002618:    65746144    Date    DCD    1702125892
        0x0000261c:    0030323a    :20.    DCD    3158586
        0x00002620:    00000000    ....    DCD    0
        0x00002624:    00000000    ....    DCD    0
        0x00002628:    656d6954    Time    DCD    1701669204
        0x0000262c:    003a3072    r0:.    DCD    3813490
        0x00002630:    00000000    ....    DCD    0
        0x00002634:    00000000    ....    DCD    0
        0x00002638:    00000000    ....    DCD    0
        0x0000263c:    656d6954    Time    DCD    1701669204
        0x00002640:    003a3372    r3:.    DCD    3814258
        0x00002644:    00000000    ....    DCD    0
        0x00002648:    00000000    ....    DCD    0
        0x0000264c:    00000000    ....    DCD    0
        0x00002650:    68676948    High    DCD    1751607624
        0x00002654:    0000003a    :...    DCD    58
        0x00002658:    00000000    ....    DCD    0
        0x0000265c:    00000000    ....    DCD    0
        0x00002660:    00000000    ....    DCD    0
        0x00002664:    3a776f4c    Low:    DCD    980905804
        0x00002668:    00000020     ...    DCD    32
        0x0000266c:    00000000    ....    DCD    0
        0x00002670:    00000000    ....    DCD    0
        0x00002674:    00000000    ....    DCD    0
    .constdata
        0x00002678:    003e3d3b    ;=>.    DCD    4078907
    .constdata
        0x0000267c:    00000001    ....    DCD    1
        0x00002680:    00000002    ....    DCD    2
        0x00002684:    00000002    ....    DCD    2
        0x00002688:    00000004    ....    DCD    4
    .constdata
    uc_hextab
        0x0000268c:    33323130    0123    DCD    858927408
        0x00002690:    37363534    4567    DCD    926299444
        0x00002694:    42413938    89AB    DCD    1111570744
        0x00002698:    46454443    CDEF    DCD    1178944579
        0x0000269c:    00583040    @0X.    DCD    5779520
    lc_hextab
        0x000026a0:    33323130    0123    DCD    858927408
        0x000026a4:    37363534    4567    DCD    926299444
        0x000026a8:    62613938    89ab    DCD    1650538808
        0x000026ac:    66656463    cdef    DCD    1717920867
        0x000026b0:    00783040    @0x.    DCD    7876672
    .constdata
    maptable
        0x000026b4:    08000004    ....    DCD    134217732
        0x000026b8:    00000000    ....    DCD    0
        0x000026bc:    02000000    ....    DCD    33554432
        0x000026c0:    00000100    ....    DCD    256
        0x000026c4:    00000010    ....    DCD    16
    Region$$Table$$Base
        0x000026c8:    000026e8    .&..    DCD    9960
        0x000026cc:    20000000    ...     DCD    536870912
        0x000026d0:    00000650    P...    DCD    1616
        0x000026d4:    00000104    ....    DCD    260
        0x000026d8:    00002d38    8-..    DCD    11576
        0x000026dc:    20000650    P..     DCD    536872528
        0x000026e0:    000004d0    ....    DCD    1232
        0x000026e4:    00000120     ...    DCD    288
    Region$$Table$$Limit

** Section #2 'ER_RW' (SHT_PROGBITS) [SHF_ALLOC + SHF_WRITE]
    Size   : 1616 bytes (alignment 4)
    Address: 0x20000000


** Section #3 'ER_ZI' (SHT_NOBITS) [SHF_ALLOC + SHF_WRITE]
    Size   : 1232 bytes (alignment 8)
    Address: 0x20000650


** Section #4 '.debug_abbrev' (SHT_PROGBITS)
    Size   : 1476 bytes


** Section #5 '.debug_frame' (SHT_PROGBITS)
    Size   : 2360 bytes


** Section #6 '.debug_info' (SHT_PROGBITS)
    Size   : 130620 bytes


** Section #7 '.debug_line' (SHT_PROGBITS)
    Size   : 11296 bytes


** Section #8 '.debug_loc' (SHT_PROGBITS)
    Size   : 3788 bytes


** Section #9 '.debug_macinfo' (SHT_PROGBITS)
    Size   : 156216 bytes


** Section #10 '.debug_pubnames' (SHT_PROGBITS)
    Size   : 2162 bytes


** Section #11 '.symtab' (SHT_SYMTAB)
    Size   : 9152 bytes (alignment 4)
    String table #12 '.strtab'
    Last local symbol no. 400


** Section #12 '.strtab' (SHT_STRTAB)
    Size   : 6784 bytes


** Section #13 '.note' (SHT_NOTE)
    Size   : 28 bytes (alignment 4)


** Section #14 '.comment' (SHT_PROGBITS)
    Size   : 6964 bytes


** Section #15 '.shstrtab' (SHT_STRTAB)
    Size   : 156 bytes


