
========================================================================

** ELF Header Information

    File Name: .\obj\Smpl_Start_Kit.axf

    Machine class: ELFCLASS32 (32-bit)
    Data encoding: ELFDATA2LSB (Little endian)
    Header version: EV_CURRENT (Current version)
    Operating System ABI: none
    ABI Version: 0
    File Type: ET_EXEC (Executable) (2)
    Machine: EM_ARM (ARM)

    Image Entry point: 0x000001b9
    Flags: EF_ARM_HASENTRY (0x05000002)

    ARM ELF revision: 5 (ABI version 2)

    Built with
    ARM C/C++ Compiler, 4.1 [Build 894]
    ARM Assembler, 4.1 [Build 894]
    ARM Linker, 4.1 [Build 894] 

    Header size: 52 bytes (0x34)
    Program header entry size: 32 bytes (0x20)
    Section header entry size: 40 bytes (0x28)

    Program header entries: 1
    Section header entries: 16

    Program header offset: 325776 (0x0004f890)
    Section header offset: 325808 (0x0004f8b0)

    Section header string table index: 15

========================================================================

** Program header #0 (PT_LOAD) [PF_X + PF_W + PF_R + PF_ARM_ENTRY]
    Size : 11996 bytes (10760 bytes in file)
    Virtual address: 0x00000000 (Alignment 8)


========================================================================

** Section #1 'ER_RO' (SHT_PROGBITS) [SHF_ALLOC + SHF_EXECINSTR]
    Size   : 9156 bytes (alignment 4)
    Address: 0x00000000

    $d.realdata
    RESET
    __Vectors
        0x00000000:    20000b18    ...     DCD    536873752
        0x00000004:    000001b9    ....    DCD    441
        0x00000008:    000001d9    ....    DCD    473
        0x0000000c:    000001db    ....    DCD    475
        0x00000010:    00000000    ....    DCD    0
        0x00000014:    00000000    ....    DCD    0
        0x00000018:    00000000    ....    DCD    0
        0x0000001c:    00000000    ....    DCD    0
        0x00000020:    00000000    ....    DCD    0
        0x00000024:    00000000    ....    DCD    0
        0x00000028:    00000000    ....    DCD    0
        0x0000002c:    000001dd    ....    DCD    477
        0x00000030:    00000000    ....    DCD    0
        0x00000034:    00000000    ....    DCD    0
        0x00000038:    000001df    ....    DCD    479
        0x0000003c:    000001e1    ....    DCD    481
        0x00000040:    0000070d    ....    DCD    1805
        0x00000044:    000001e3    ....    DCD    483
        0x00000048:    000013ad    ....    DCD    5037
        0x0000004c:    000013d1    ....    DCD    5073
        0x00000050:    000013f5    ....    DCD    5109
        0x00000054:    00001431    1...    DCD    5169
        0x00000058:    000001e3    ....    DCD    483
        0x0000005c:    000001e3    ....    DCD    483
        0x00000060:    00001e79    y...    DCD    7801
        0x00000064:    00001f6d    m...    DCD    8045
        0x00000068:    000001e3    ....    DCD    483
        0x0000006c:    000001e3    ....    DCD    483
        0x00000070:    00001ffd    ....    DCD    8189
        0x00000074:    00002039    9 ..    DCD    8249
        0x00000078:    00001ad9    ....    DCD    6873
        0x0000007c:    00001b3d    =...    DCD    6973
        0x00000080:    00001ba1    ....    DCD    7073
        0x00000084:    00001c05    ....    DCD    7173
        0x00000088:    0000147d    }...    DCD    5245
        0x0000008c:    000014f5    ....    DCD    5365
        0x00000090:    000001e3    ....    DCD    483
        0x00000094:    000001e3    ....    DCD    483
        0x00000098:    000001e3    ....    DCD    483
        0x0000009c:    000001e3    ....    DCD    483
        0x000000a0:    000001e3    ....    DCD    483
        0x000000a4:    000001e3    ....    DCD    483
        0x000000a8:    000001e3    ....    DCD    483
        0x000000ac:    000001e3    ....    DCD    483
        0x000000b0:    000019ad    ....    DCD    6573
        0x000000b4:    000006ed    ....    DCD    1773
        0x000000b8:    000001e3    ....    DCD    483
        0x000000bc:    000001e3    ....    DCD    483
    $t
    !!!main
    __main
        0x000000c0:    f000f802    ....    BL       __scatterload ; 0xc8
        0x000000c4:    f000f84d    ..M.    BL       __rt_entry ; 0x162
    !!!scatter
    __scatterload
    __scatterload_rt2
    __scatterload_rt2_thumb_only
        0x000000c8:    a00c        ..      ADR      r0,{pc}+0x34 ; 0xfc
        0x000000ca:    c830        0.      LDM      r0!,{r4,r5}
        0x000000cc:    3808        .8      SUBS     r0,r0,#8
        0x000000ce:    1824        $.      ADDS     r4,r4,r0
        0x000000d0:    182d        -.      ADDS     r5,r5,r0
        0x000000d2:    46a2        .F      MOV      r10,r4
        0x000000d4:    1e67        g.      SUBS     r7,r4,#1
        0x000000d6:    46ab        .F      MOV      r11,r5
    __scatterload_null
        0x000000d8:    4654        TF      MOV      r4,r10
        0x000000da:    465d        ]F      MOV      r5,r11
        0x000000dc:    42ac        .B      CMP      r4,r5
        0x000000de:    d101        ..      BNE      0xe4 ; __scatterload_null + 12
        0x000000e0:    f000f83f    ..?.    BL       __rt_entry ; 0x162
        0x000000e4:    467e        ~F      MOV      r6,pc
        0x000000e6:    3e0f        .>      SUBS     r6,r6,#0xf
        0x000000e8:    cc0f        ..      LDM      r4!,{r0-r3}
        0x000000ea:    46b6        .F      MOV      lr,r6
        0x000000ec:    2601        .&      MOVS     r6,#1
        0x000000ee:    4233        3B      TST      r3,r6
        0x000000f0:    d000        ..      BEQ      0xf4 ; __scatterload_null + 28
        0x000000f2:    1afb        ..      SUBS     r3,r7,r3
        0x000000f4:    46a2        .F      MOV      r10,r4
        0x000000f6:    46ab        .F      MOV      r11,r5
        0x000000f8:    4333        3C      ORRS     r3,r3,r6
        0x000000fa:    4718        .G      BX       r3
    $d
        0x000000fc:    000022a8    ."..    DCD    8872
        0x00000100:    000022c8    ."..    DCD    8904
    $t
    !!handler_copy
    __scatterload_copy
        0x00000104:    3a10        .:      SUBS     r2,r2,#0x10
        0x00000106:    d302        ..      BCC      0x10e ; __scatterload_copy + 10
        0x00000108:    c878        x.      LDM      r0!,{r3-r6}
        0x0000010a:    c178        x.      STM      r1!,{r3-r6}
        0x0000010c:    d8fa        ..      BHI      __scatterload_copy ; 0x104
        0x0000010e:    0752        R.      LSLS     r2,r2,#29
        0x00000110:    d301        ..      BCC      0x116 ; __scatterload_copy + 18
        0x00000112:    c830        0.      LDM      r0!,{r4,r5}
        0x00000114:    c130        0.      STM      r1!,{r4,r5}
        0x00000116:    d501        ..      BPL      0x11c ; __scatterload_copy + 24
        0x00000118:    6804        .h      LDR      r4,[r0,#0]
        0x0000011a:    600c        .`      STR      r4,[r1,#0]
        0x0000011c:    4770        pG      BX       lr
        0x0000011e:    0000        ..      MOVS     r0,r0
    !!handler_zi
    __scatterload_zeroinit
        0x00000120:    2300        .#      MOVS     r3,#0
        0x00000122:    2400        .$      MOVS     r4,#0
        0x00000124:    2500        .%      MOVS     r5,#0
        0x00000126:    2600        .&      MOVS     r6,#0
        0x00000128:    3a10        .:      SUBS     r2,r2,#0x10
        0x0000012a:    d301        ..      BCC      0x130 ; __scatterload_zeroinit + 16
        0x0000012c:    c178        x.      STM      r1!,{r3-r6}
        0x0000012e:    d8fb        ..      BHI      0x128 ; __scatterload_zeroinit + 8
        0x00000130:    0752        R.      LSLS     r2,r2,#29
        0x00000132:    d300        ..      BCC      0x136 ; __scatterload_zeroinit + 22
        0x00000134:    c130        0.      STM      r1!,{r4,r5}
        0x00000136:    d500        ..      BPL      0x13a ; __scatterload_zeroinit + 26
        0x00000138:    600b        .`      STR      r3,[r1,#0]
        0x0000013a:    4770        pG      BX       lr
    .ARM.Collect$$_printf_percent$$00000000
    _printf_percent
        0x0000013c:    b510        ..      PUSH     {r4,lr}
    .ARM.Collect$$_printf_percent$$00000009
    _printf_d
        0x0000013e:    2964        d)      CMP      r1,#0x64
        0x00000140:    d102        ..      BNE      _printf_x ; 0x148
        0x00000142:    f000f87f    ....    BL       _printf_int_dec ; 0x244
        0x00000146:    bd10        ..      POP      {r4,pc}
    .ARM.Collect$$_printf_percent$$0000000C
    _printf_x
        0x00000148:    2978        x)      CMP      r1,#0x78
        0x0000014a:    d102        ..      BNE      _printf_percent_end ; 0x152
        0x0000014c:    f000f8b0    ....    BL       _printf_int_hex ; 0x2b0
        0x00000150:    bd10        ..      POP      {r4,pc}
    .ARM.Collect$$_printf_percent$$00000017
    _printf_percent_end
        0x00000152:    2000        .       MOVS     r0,#0
        0x00000154:    bd10        ..      POP      {r4,pc}
    .ARM.Collect$$libinit$$00000000
    __rt_lib_init
        0x00000156:    b51f        ..      PUSH     {r0-r4,lr}
        0x00000158:    46c0        .F      MOV      r8,r8
        0x0000015a:    46c0        .F      MOV      r8,r8
    .ARM.Collect$$libinit$$00000006
    .ARM.Collect$$libinit$$00000008
    .ARM.Collect$$libinit$$0000000A
    .ARM.Collect$$libinit$$0000000D
    .ARM.Collect$$libinit$$0000000F
    .ARM.Collect$$libinit$$00000011
    .ARM.Collect$$libinit$$00000013
    .ARM.Collect$$libinit$$00000015
    .ARM.Collect$$libinit$$00000017
    .ARM.Collect$$libinit$$00000019
    .ARM.Collect$$libinit$$0000001B
    .ARM.Collect$$libinit$$0000001D
    .ARM.Collect$$libinit$$0000001F
    .ARM.Collect$$libinit$$00000021
    .ARM.Collect$$libinit$$00000028
    .ARM.Collect$$libinit$$0000002A
    .ARM.Collect$$libinit$$0000002C
    .ARM.Collect$$libinit$$0000002E
    .ARM.Collect$$libinit$$0000002F
    __rt_lib_init_alloca_1
    __rt_lib_init_argv_1
    __rt_lib_init_atexit_1
    __rt_lib_init_clock_1
    __rt_lib_init_cpp_1
    __rt_lib_init_exceptions_1
    __rt_lib_init_fp_trap_1
    __rt_lib_init_getenv_1
    __rt_lib_init_heap_1
    __rt_lib_init_lc_collate_1
    __rt_lib_init_lc_ctype_1
    __rt_lib_init_lc_monetary_1
    __rt_lib_init_lc_numeric_1
    __rt_lib_init_lc_time_1
    __rt_lib_init_rand_1
    __rt_lib_init_return
    __rt_lib_init_signal_1
    __rt_lib_init_stdio_1
    __rt_lib_init_user_alloc_1
        0x0000015c:    bd1f        ..      POP      {r0-r4,pc}
    .ARM.Collect$$libshutdown$$00000000
    __rt_lib_shutdown
        0x0000015e:    b510        ..      PUSH     {r4,lr}
    .ARM.Collect$$libshutdown$$00000003
    .ARM.Collect$$libshutdown$$00000006
    .ARM.Collect$$libshutdown$$00000009
    .ARM.Collect$$libshutdown$$0000000B
    .ARM.Collect$$libshutdown$$0000000E
    .ARM.Collect$$libshutdown$$0000000F
    __rt_lib_shutdown_fp_trap_1
    __rt_lib_shutdown_heap_1
    __rt_lib_shutdown_return
    __rt_lib_shutdown_signal_1
    __rt_lib_shutdown_stdio_1
    __rt_lib_shutdown_user_alloc_1
        0x00000160:    bd10        ..      POP      {r4,pc}
    .ARM.Collect$$rtentry$$00000000
    .ARM.Collect$$rtentry$$00000002
    .ARM.Collect$$rtentry$$00000004
    __rt_entry
    __rt_entry_presh_1
    __rt_entry_sh
        0x00000162:    f000fa92    ....    BL       __user_setup_stackheap ; 0x68a
        0x00000166:    4611        .F      MOV      r1,r2
    .ARM.Collect$$rtentry$$00000009
    .ARM.Collect$$rtentry$$0000000A
    __rt_entry_li
    __rt_entry_postsh_1
        0x00000168:    f7fffff5    ....    BL       __rt_lib_init ; 0x156
    .ARM.Collect$$rtentry$$0000000C
    .ARM.Collect$$rtentry$$0000000D
    __rt_entry_main
    __rt_entry_postli_1
        0x0000016c:    f002f830    ..0.    BL       main ; 0x21d0
        0x00000170:    f000faaa    ....    BL       exit ; 0x6c8
    .ARM.Collect$$rtexit$$00000000
    __rt_exit
        0x00000174:    b403        ..      PUSH     {r0,r1}
    .ARM.Collect$$rtexit$$00000002
    .ARM.Collect$$rtexit$$00000003
    __rt_exit_ls
    __rt_exit_prels_1
        0x00000176:    f7fffff2    ....    BL       __rt_lib_shutdown ; 0x15e
    .ARM.Collect$$rtexit$$00000004
    __rt_exit_exit
        0x0000017a:    bc03        ..      POP      {r0,r1}
        0x0000017c:    f000faae    ....    BL       _sys_exit ; 0x6dc
    .emb_text
    __aeabi_memcpy4
    __aeabi_memcpy8
        0x00000180:    b570        p.      PUSH     {r4-r6,lr}
        0x00000182:    4605        .F      MOV      r5,r0
        0x00000184:    460c        .F      MOV      r4,r1
        0x00000186:    4616        .F      MOV      r6,r2
        0x00000188:    e002        ..      B        0x190 ; __aeabi_memcpy4 + 16
        0x0000018a:    cc0f        ..      LDM      r4!,{r0-r3}
        0x0000018c:    c50f        ..      STM      r5!,{r0-r3}
        0x0000018e:    3e10        .>      SUBS     r6,r6,#0x10
        0x00000190:    2e10        ..      CMP      r6,#0x10
        0x00000192:    d2fa        ..      BCS      0x18a ; __aeabi_memcpy4 + 10
        0x00000194:    2e08        ..      CMP      r6,#8
        0x00000196:    d302        ..      BCC      0x19e ; __aeabi_memcpy4 + 30
        0x00000198:    cc03        ..      LDM      r4!,{r0,r1}
        0x0000019a:    c503        ..      STM      r5!,{r0,r1}
        0x0000019c:    3e08        .>      SUBS     r6,r6,#8
        0x0000019e:    2e04        ..      CMP      r6,#4
        0x000001a0:    d307        ..      BCC      0x1b2 ; __aeabi_memcpy4 + 50
        0x000001a2:    cc01        ..      LDM      r4!,{r0}
        0x000001a4:    c501        ..      STM      r5!,{r0}
        0x000001a6:    1f36        6.      SUBS     r6,r6,#4
        0x000001a8:    e003        ..      B        0x1b2 ; __aeabi_memcpy4 + 50
        0x000001aa:    7821        !x      LDRB     r1,[r4,#0]
        0x000001ac:    7029        )p      STRB     r1,[r5,#0]
        0x000001ae:    1c64        d.      ADDS     r4,r4,#1
        0x000001b0:    1c6d        m.      ADDS     r5,r5,#1
        0x000001b2:    1e76        v.      SUBS     r6,r6,#1
        0x000001b4:    d2f9        ..      BCS      0x1aa ; __aeabi_memcpy4 + 42
        0x000001b6:    bd70        p.      POP      {r4-r6,pc}
    .text
    Reset_Handler
        0x000001b8:    480d        .H      LDR      r0,[pc,#52] ; [0x1f0] = 0x50000100
        0x000001ba:    490e        .I      LDR      r1,[pc,#56] ; [0x1f4] = 0x59
        0x000001bc:    6001        .`      STR      r1,[r0,#0]
        0x000001be:    490e        .I      LDR      r1,[pc,#56] ; [0x1f8] = 0x16
        0x000001c0:    6001        .`      STR      r1,[r0,#0]
        0x000001c2:    490e        .I      LDR      r1,[pc,#56] ; [0x1fc] = 0x88
        0x000001c4:    6001        .`      STR      r1,[r0,#0]
        0x000001c6:    4a0e        .J      LDR      r2,[pc,#56] ; [0x200] = 0x50000024
        0x000001c8:    490e        .I      LDR      r1,[pc,#56] ; [0x204] = 0x5aa5
        0x000001ca:    6011        .`      STR      r1,[r2,#0]
        0x000001cc:    2100        .!      MOVS     r1,#0
        0x000001ce:    6001        .`      STR      r1,[r0,#0]
        0x000001d0:    480d        .H      LDR      r0,[pc,#52] ; [0x208] = 0x1e75
        0x000001d2:    4780        .G      BLX      r0
        0x000001d4:    480d        .H      LDR      r0,[pc,#52] ; [0x20c] = 0xc1
        0x000001d6:    4700        .G      BX       r0
    NMI_Handler
        0x000001d8:    e7fe        ..      B        NMI_Handler ; 0x1d8
    HardFault_Handler
        0x000001da:    e7fe        ..      B        HardFault_Handler ; 0x1da
    SVC_Handler
        0x000001dc:    e7fe        ..      B        SVC_Handler ; 0x1dc
    PendSV_Handler
        0x000001de:    e7fe        ..      B        PendSV_Handler ; 0x1de
    SysTick_Handler
        0x000001e0:    e7fe        ..      B        SysTick_Handler ; 0x1e0
    Default_Handler
    ACMP_IRQHandler
    CAN0_IRQHandler
    I2S_IRQHandler
    PDMA_IRQHandler
    PS2_IRQHandler
    PWMA_IRQHandler
    PWMB_IRQHandler
    RTC_IRQHandler
    TMR2_IRQHandler
    TMR3_IRQHandler
    USBD_IRQHandler
    WDT_IRQHandler
        0x000001e2:    e7fe        ..      B        Default_Handler ; 0x1e2
    __user_initial_stackheap
        0x000001e4:    480a        .H      LDR      r0,[pc,#40] ; [0x210] = 0x20000718
        0x000001e6:    490b        .I      LDR      r1,[pc,#44] ; [0x214] = 0x20000b18
        0x000001e8:    4a09        .J      LDR      r2,[pc,#36] ; [0x210] = 0x20000718
        0x000001ea:    4b0b        .K      LDR      r3,[pc,#44] ; [0x218] = 0x20000718
        0x000001ec:    4770        pG      BX       lr
    $d
        0x000001ee:    0000        ..      DCW    0
        0x000001f0:    50000100    ...P    DCD    1342177536
        0x000001f4:    00000059    Y...    DCD    89
        0x000001f8:    00000016    ....    DCD    22
        0x000001fc:    00000088    ....    DCD    136
        0x00000200:    50000024    $..P    DCD    1342177316
        0x00000204:    00005aa5    .Z..    DCD    23205
        0x00000208:    00001e75    u...    DCD    7797
        0x0000020c:    000000c1    ....    DCD    193
        0x00000210:    20000718    ...     DCD    536872728
        0x00000214:    20000b18    ...     DCD    536873752
        0x00000218:    20000718    ...     DCD    536872728
    $t
    .text
    __2sprintf
        0x0000021c:    b40f        ..      PUSH     {r0-r3}
        0x0000021e:    b51c        ..      PUSH     {r2-r4,lr}
        0x00000220:    4b07        .K      LDR      r3,[pc,#28] ; [0x240] = 0x431
        0x00000222:    aa06        ..      ADD      r2,sp,#0x18
        0x00000224:    447b        {D      ADD      r3,r3,pc
        0x00000226:    4669        iF      MOV      r1,sp
        0x00000228:    9000        ..      STR      r0,[sp,#0]
        0x0000022a:    9805        ..      LDR      r0,[sp,#0x14]
        0x0000022c:    f000fa01    ....    BL       _printf_char_common ; 0x632
        0x00000230:    2000        .       MOVS     r0,#0
        0x00000232:    4669        iF      MOV      r1,sp
        0x00000234:    f000fa10    ....    BL       _sputc ; 0x658
        0x00000238:    bc1c        ..      POP      {r2-r4}
        0x0000023a:    bc08        ..      POP      {r3}
        0x0000023c:    b004        ..      ADD      sp,sp,#0x10
        0x0000023e:    4718        .G      BX       r3
    $d
        0x00000240:    00000431    1...    DCD    1073
    $t
    .text
    _printf_int_dec
        0x00000244:    b5f7        ..      PUSH     {r0-r2,r4-r7,lr}
        0x00000246:    2600        .&      MOVS     r6,#0
        0x00000248:    2975        u)      CMP      r1,#0x75
        0x0000024a:    6810        .h      LDR      r0,[r2,#0]
        0x0000024c:    9900        ..      LDR      r1,[sp,#0]
        0x0000024e:    a514        ..      ADR      r5,{pc}+0x52 ; 0x2a0
        0x00000250:    d011        ..      BEQ      0x276 ; _printf_int_dec + 50
        0x00000252:    46c0        .F      MOV      r8,r8
        0x00000254:    46c0        .F      MOV      r8,r8
        0x00000256:    2800        .(      CMP      r0,#0
        0x00000258:    da02        ..      BGE      0x260 ; _printf_int_dec + 28
        0x0000025a:    4240        @B      RSBS     r0,r0,#0
        0x0000025c:    a511        ..      ADR      r5,{pc}+0x48 ; 0x2a4
        0x0000025e:    e008        ..      B        0x272 ; _printf_int_dec + 46
        0x00000260:    9900        ..      LDR      r1,[sp,#0]
        0x00000262:    6809        .h      LDR      r1,[r1,#0]
        0x00000264:    078a        ..      LSLS     r2,r1,#30
        0x00000266:    d501        ..      BPL      0x26c ; _printf_int_dec + 40
        0x00000268:    a50f        ..      ADR      r5,{pc}+0x40 ; 0x2a8
        0x0000026a:    e002        ..      B        0x272 ; _printf_int_dec + 46
        0x0000026c:    0749        I.      LSLS     r1,r1,#29
        0x0000026e:    d504        ..      BPL      0x27a ; _printf_int_dec + 54
        0x00000270:    a50e        ..      ADR      r5,{pc}+0x3c ; 0x2ac
        0x00000272:    2601        .&      MOVS     r6,#1
        0x00000274:    e001        ..      B        0x27a ; _printf_int_dec + 54
        0x00000276:    46c0        .F      MOV      r8,r8
        0x00000278:    46c0        .F      MOV      r8,r8
        0x0000027a:    9f00        ..      LDR      r7,[sp,#0]
        0x0000027c:    2400        .$      MOVS     r4,#0
        0x0000027e:    3724        $7      ADDS     r7,r7,#0x24
        0x00000280:    e004        ..      B        0x28c ; _printf_int_dec + 72
        0x00000282:    f000f9ee    ....    BL       __rt_udiv10 ; 0x662
        0x00000286:    3130        01      ADDS     r1,r1,#0x30
        0x00000288:    5539        9U      STRB     r1,[r7,r4]
        0x0000028a:    1c64        d.      ADDS     r4,r4,#1
        0x0000028c:    2800        .(      CMP      r0,#0
        0x0000028e:    d1f8        ..      BNE      0x282 ; _printf_int_dec + 62
        0x00000290:    4633        3F      MOV      r3,r6
        0x00000292:    462a        *F      MOV      r2,r5
        0x00000294:    4621        !F      MOV      r1,r4
        0x00000296:    9800        ..      LDR      r0,[sp,#0]
        0x00000298:    f000f96e    ..n.    BL       _printf_int_common ; 0x578
        0x0000029c:    bdfe        ..      POP      {r1-r7,pc}
    $d
        0x0000029e:    0000        ..      DCW    0
        0x000002a0:    00000000    ....    DCD    0
        0x000002a4:    0000002d    -...    DCD    45
        0x000002a8:    0000002b    +...    DCD    43
        0x000002ac:    00000020     ...    DCD    32
    $t
    .text
    _printf_int_hex
    _printf_longlong_hex
        0x000002b0:    b570        p.      PUSH     {r4-r6,lr}
        0x000002b2:    4604        .F      MOV      r4,r0
        0x000002b4:    460d        .F      MOV      r5,r1
        0x000002b6:    4621        !F      MOV      r1,r4
        0x000002b8:    6810        .h      LDR      r0,[r2,#0]
        0x000002ba:    46c0        .F      MOV      r8,r8
        0x000002bc:    46c0        .F      MOV      r8,r8
        0x000002be:    6821        !h      LDR      r1,[r4,#0]
        0x000002c0:    0509        ..      LSLS     r1,r1,#20
        0x000002c2:    d502        ..      BPL      0x2ca ; _printf_int_hex + 26
        0x000002c4:    4a0f        .J      LDR      r2,[pc,#60] ; [0x304] = 0x20b2
        0x000002c6:    447a        zD      ADD      r2,r2,pc
        0x000002c8:    e002        ..      B        0x2d0 ; _printf_int_hex + 32
        0x000002ca:    4a0e        .J      LDR      r2,[pc,#56] ; [0x304] = 0x20b2
        0x000002cc:    447a        zD      ADD      r2,r2,pc
        0x000002ce:    320e        .2      ADDS     r2,r2,#0xe
        0x000002d0:    4623        #F      MOV      r3,r4
        0x000002d2:    2100        .!      MOVS     r1,#0
        0x000002d4:    3324        $3      ADDS     r3,r3,#0x24
        0x000002d6:    e005        ..      B        0x2e4 ; _printf_int_hex + 52
        0x000002d8:    0706        ..      LSLS     r6,r0,#28
        0x000002da:    0f36        6.      LSRS     r6,r6,#28
        0x000002dc:    5d96        .]      LDRB     r6,[r2,r6]
        0x000002de:    545e        ^T      STRB     r6,[r3,r1]
        0x000002e0:    1c49        I.      ADDS     r1,r1,#1
        0x000002e2:    0900        ..      LSRS     r0,r0,#4
        0x000002e4:    2800        .(      CMP      r0,#0
        0x000002e6:    d1f7        ..      BNE      0x2d8 ; _printf_int_hex + 40
        0x000002e8:    6820         h      LDR      r0,[r4,#0]
        0x000002ea:    2300        .#      MOVS     r3,#0
        0x000002ec:    0700        ..      LSLS     r0,r0,#28
        0x000002ee:    d505        ..      BPL      0x2fc ; _printf_int_hex + 76
        0x000002f0:    2d70        p-      CMP      r5,#0x70
        0x000002f2:    d003        ..      BEQ      0x2fc ; _printf_int_hex + 76
        0x000002f4:    2900        .)      CMP      r1,#0
        0x000002f6:    d001        ..      BEQ      0x2fc ; _printf_int_hex + 76
        0x000002f8:    3211        .2      ADDS     r2,r2,#0x11
        0x000002fa:    2302        .#      MOVS     r3,#2
        0x000002fc:    4620         F      MOV      r0,r4
        0x000002fe:    f000f93b    ..;.    BL       _printf_int_common ; 0x578
        0x00000302:    bd70        p.      POP      {r4-r6,pc}
    $d
        0x00000304:    000020b2    . ..    DCD    8370
    $t
    .text
    __printf
        0x00000308:    b5f3        ..      PUSH     {r0,r1,r4-r7,lr}
        0x0000030a:    4604        .F      MOV      r4,r0
        0x0000030c:    2000        .       MOVS     r0,#0
        0x0000030e:    b081        ..      SUB      sp,sp,#4
        0x00000310:    e07e        ~.      B        0x410 ; __printf + 264
        0x00000312:    68e1        .h      LDR      r1,[r4,#0xc]
        0x00000314:    4620         F      MOV      r0,r4
        0x00000316:    4788        .G      BLX      r1
        0x00000318:    2800        .(      CMP      r0,#0
        0x0000031a:    d07b        {.      BEQ      0x414 ; __printf + 268
        0x0000031c:    2825        %(      CMP      r0,#0x25
        0x0000031e:    d002        ..      BEQ      0x326 ; __printf + 30
        0x00000320:    6862        bh      LDR      r2,[r4,#4]
        0x00000322:    68a1        .h      LDR      r1,[r4,#8]
        0x00000324:    e071        q.      B        0x40a ; __printf + 258
        0x00000326:    68e1        .h      LDR      r1,[r4,#0xc]
        0x00000328:    4620         F      MOV      r0,r4
        0x0000032a:    2500        .%      MOVS     r5,#0
        0x0000032c:    4788        .G      BLX      r1
        0x0000032e:    4606        .F      MOV      r6,r0
        0x00000330:    2000        .       MOVS     r0,#0
        0x00000332:    61e0        .a      STR      r0,[r4,#0x1c]
        0x00000334:    4607        .F      MOV      r7,r0
        0x00000336:    61a0        .a      STR      r0,[r4,#0x18]
        0x00000338:    2e2a        *.      CMP      r6,#0x2a
        0x0000033a:    d00a        ..      BEQ      0x352 ; __printf + 74
        0x0000033c:    4630        0F      MOV      r0,r6
        0x0000033e:    f001ff15    ....    BL       _is_digit ; 0x216c
        0x00000342:    2800        .(      CMP      r0,#0
        0x00000344:    d027        '.      BEQ      0x396 ; __printf + 142
        0x00000346:    3e30        0>      SUBS     r6,r6,#0x30
        0x00000348:    00b8        ..      LSLS     r0,r7,#2
        0x0000034a:    1900        ..      ADDS     r0,r0,r4
        0x0000034c:    9000        ..      STR      r0,[sp,#0]
        0x0000034e:    6186        .a      STR      r6,[r0,#0x18]
        0x00000350:    e019        ..      B        0x386 ; __printf + 126
        0x00000352:    9802        ..      LDR      r0,[sp,#8]
        0x00000354:    00ba        ..      LSLS     r2,r7,#2
        0x00000356:    1912        ..      ADDS     r2,r2,r4
        0x00000358:    c802        ..      LDM      r0!,{r1}
        0x0000035a:    6191        .a      STR      r1,[r2,#0x18]
        0x0000035c:    9002        ..      STR      r0,[sp,#8]
        0x0000035e:    4620         F      MOV      r0,r4
        0x00000360:    68e1        .h      LDR      r1,[r4,#0xc]
        0x00000362:    4788        .G      BLX      r1
        0x00000364:    2f01        ./      CMP      r7,#1
        0x00000366:    4606        .F      MOV      r6,r0
        0x00000368:    d117        ..      BNE      0x39a ; __printf + 146
        0x0000036a:    69e0        .i      LDR      r0,[r4,#0x1c]
        0x0000036c:    2800        .(      CMP      r0,#0
        0x0000036e:    da1f        ..      BGE      0x3b0 ; __printf + 168
        0x00000370:    2020                MOVS     r0,#0x20
        0x00000372:    4385        .C      BICS     r5,r5,r0
        0x00000374:    e01c        ..      B        0x3b0 ; __printf + 168
        0x00000376:    9800        ..      LDR      r0,[sp,#0]
        0x00000378:    210a        .!      MOVS     r1,#0xa
        0x0000037a:    6980        .i      LDR      r0,[r0,#0x18]
        0x0000037c:    4348        HC      MULS     r0,r1,r0
        0x0000037e:    9900        ..      LDR      r1,[sp,#0]
        0x00000380:    1980        ..      ADDS     r0,r0,r6
        0x00000382:    3830        08      SUBS     r0,r0,#0x30
        0x00000384:    6188        .a      STR      r0,[r1,#0x18]
        0x00000386:    4620         F      MOV      r0,r4
        0x00000388:    68e1        .h      LDR      r1,[r4,#0xc]
        0x0000038a:    4788        .G      BLX      r1
        0x0000038c:    4606        .F      MOV      r6,r0
        0x0000038e:    f001feed    ....    BL       _is_digit ; 0x216c
        0x00000392:    2800        .(      CMP      r0,#0
        0x00000394:    d1ef        ..      BNE      0x376 ; __printf + 110
        0x00000396:    2f01        ./      CMP      r7,#1
        0x00000398:    d00a        ..      BEQ      0x3b0 ; __printf + 168
        0x0000039a:    2e2e        ..      CMP      r6,#0x2e
        0x0000039c:    d108        ..      BNE      0x3b0 ; __printf + 168
        0x0000039e:    4620         F      MOV      r0,r4
        0x000003a0:    68e1        .h      LDR      r1,[r4,#0xc]
        0x000003a2:    4788        .G      BLX      r1
        0x000003a4:    4606        .F      MOV      r6,r0
        0x000003a6:    2020                MOVS     r0,#0x20
        0x000003a8:    4305        .C      ORRS     r5,r5,r0
        0x000003aa:    1c7f        ..      ADDS     r7,r7,#1
        0x000003ac:    2f02        ./      CMP      r7,#2
        0x000003ae:    dbc3        ..      BLT      0x338 ; __printf + 48
        0x000003b0:    69a0        .i      LDR      r0,[r4,#0x18]
        0x000003b2:    2800        .(      CMP      r0,#0
        0x000003b4:    da03        ..      BGE      0x3be ; __printf + 182
        0x000003b6:    4240        @B      RSBS     r0,r0,#0
        0x000003b8:    61a0        .a      STR      r0,[r4,#0x18]
        0x000003ba:    2001        .       MOVS     r0,#1
        0x000003bc:    4305        .C      ORRS     r5,r5,r0
        0x000003be:    07e8        ..      LSLS     r0,r5,#31
        0x000003c0:    d001        ..      BEQ      0x3c6 ; __printf + 190
        0x000003c2:    2010        .       MOVS     r0,#0x10
        0x000003c4:    4385        .C      BICS     r5,r5,r0
        0x000003c6:    2e00        ..      CMP      r6,#0
        0x000003c8:    d024        $.      BEQ      0x414 ; __printf + 268
        0x000003ca:    4630        0F      MOV      r0,r6
        0x000003cc:    3841        A8      SUBS     r0,r0,#0x41
        0x000003ce:    2819        .(      CMP      r0,#0x19
        0x000003d0:    d803        ..      BHI      0x3da ; __printf + 210
        0x000003d2:    2001        .       MOVS     r0,#1
        0x000003d4:    02c0        ..      LSLS     r0,r0,#11
        0x000003d6:    4305        .C      ORRS     r5,r5,r0
        0x000003d8:    3620         6      ADDS     r6,r6,#0x20
        0x000003da:    4620         F      MOV      r0,r4
        0x000003dc:    6025        %`      STR      r5,[r4,#0]
        0x000003de:    4631        1F      MOV      r1,r6
        0x000003e0:    9a02        ..      LDR      r2,[sp,#8]
        0x000003e2:    4615        .F      MOV      r5,r2
        0x000003e4:    f7fffeaa    ....    BL       _printf_percent ; 0x13c
        0x000003e8:    2800        .(      CMP      r0,#0
        0x000003ea:    d00b        ..      BEQ      0x404 ; __printf + 252
        0x000003ec:    2801        .(      CMP      r0,#1
        0x000003ee:    d006        ..      BEQ      0x3fe ; __printf + 246
        0x000003f0:    1ded        ..      ADDS     r5,r5,#7
        0x000003f2:    08e8        ..      LSRS     r0,r5,#3
        0x000003f4:    00c0        ..      LSLS     r0,r0,#3
        0x000003f6:    3008        .0      ADDS     r0,r0,#8
        0x000003f8:    9002        ..      STR      r0,[sp,#8]
        0x000003fa:    e78a        ..      B        0x312 ; __printf + 10
        0x000003fc:    e00a        ..      B        0x414 ; __printf + 268
        0x000003fe:    1d2d        -.      ADDS     r5,r5,#4
        0x00000400:    9502        ..      STR      r5,[sp,#8]
        0x00000402:    e786        ..      B        0x312 ; __printf + 10
        0x00000404:    6862        bh      LDR      r2,[r4,#4]
        0x00000406:    4630        0F      MOV      r0,r6
        0x00000408:    68a1        .h      LDR      r1,[r4,#8]
        0x0000040a:    4790        .G      BLX      r2
        0x0000040c:    6a20         j      LDR      r0,[r4,#0x20]
        0x0000040e:    1c40        @.      ADDS     r0,r0,#1
        0x00000410:    6220         b      STR      r0,[r4,#0x20]
        0x00000412:    e77e        ~.      B        0x312 ; __printf + 10
        0x00000414:    6a20         j      LDR      r0,[r4,#0x20]
        0x00000416:    bdfe        ..      POP      {r1-r7,pc}
    .text
    __aeabi_uidiv
    __aeabi_uidivmod
        0x00000418:    2200        ."      MOVS     r2,#0
        0x0000041a:    0903        ..      LSRS     r3,r0,#4
        0x0000041c:    428b        .B      CMP      r3,r1
        0x0000041e:    d32c        ,.      BCC      0x47a ; __aeabi_idiv + 78
        0x00000420:    0a03        ..      LSRS     r3,r0,#8
        0x00000422:    428b        .B      CMP      r3,r1
        0x00000424:    d311        ..      BCC      0x44a ; __aeabi_idiv + 30
        0x00000426:    2300        .#      MOVS     r3,#0
        0x00000428:    469c        .F      MOV      r12,r3
        0x0000042a:    e04e        N.      B        0x4ca ; __aeabi_idiv + 158
    __aeabi_idiv
    __aeabi_idivmod
        0x0000042c:    4603        .F      MOV      r3,r0
        0x0000042e:    430b        .C      ORRS     r3,r3,r1
        0x00000430:    d43c        <.      BMI      0x4ac ; __aeabi_idiv + 128
        0x00000432:    2200        ."      MOVS     r2,#0
        0x00000434:    0843        C.      LSRS     r3,r0,#1
        0x00000436:    428b        .B      CMP      r3,r1
        0x00000438:    d331        1.      BCC      0x49e ; __aeabi_idiv + 114
        0x0000043a:    0903        ..      LSRS     r3,r0,#4
        0x0000043c:    428b        .B      CMP      r3,r1
        0x0000043e:    d31c        ..      BCC      0x47a ; __aeabi_idiv + 78
        0x00000440:    0a03        ..      LSRS     r3,r0,#8
        0x00000442:    428b        .B      CMP      r3,r1
        0x00000444:    d301        ..      BCC      0x44a ; __aeabi_idiv + 30
        0x00000446:    4694        .F      MOV      r12,r2
        0x00000448:    e03f        ?.      B        0x4ca ; __aeabi_idiv + 158
        0x0000044a:    09c3        ..      LSRS     r3,r0,#7
        0x0000044c:    428b        .B      CMP      r3,r1
        0x0000044e:    d301        ..      BCC      0x454 ; __aeabi_idiv + 40
        0x00000450:    01cb        ..      LSLS     r3,r1,#7
        0x00000452:    1ac0        ..      SUBS     r0,r0,r3
        0x00000454:    4152        RA      ADCS     r2,r2,r2
        0x00000456:    0983        ..      LSRS     r3,r0,#6
        0x00000458:    428b        .B      CMP      r3,r1
        0x0000045a:    d301        ..      BCC      0x460 ; __aeabi_idiv + 52
        0x0000045c:    018b        ..      LSLS     r3,r1,#6
        0x0000045e:    1ac0        ..      SUBS     r0,r0,r3
        0x00000460:    4152        RA      ADCS     r2,r2,r2
        0x00000462:    0943        C.      LSRS     r3,r0,#5
        0x00000464:    428b        .B      CMP      r3,r1
        0x00000466:    d301        ..      BCC      0x46c ; __aeabi_idiv + 64
        0x00000468:    014b        K.      LSLS     r3,r1,#5
        0x0000046a:    1ac0        ..      SUBS     r0,r0,r3
        0x0000046c:    4152        RA      ADCS     r2,r2,r2
        0x0000046e:    0903        ..      LSRS     r3,r0,#4
        0x00000470:    428b        .B      CMP      r3,r1
        0x00000472:    d301        ..      BCC      0x478 ; __aeabi_idiv + 76
        0x00000474:    010b        ..      LSLS     r3,r1,#4
        0x00000476:    1ac0        ..      SUBS     r0,r0,r3
        0x00000478:    4152        RA      ADCS     r2,r2,r2
        0x0000047a:    08c3        ..      LSRS     r3,r0,#3
        0x0000047c:    428b        .B      CMP      r3,r1
        0x0000047e:    d301        ..      BCC      0x484 ; __aeabi_idiv + 88
        0x00000480:    00cb        ..      LSLS     r3,r1,#3
        0x00000482:    1ac0        ..      SUBS     r0,r0,r3
        0x00000484:    4152        RA      ADCS     r2,r2,r2
        0x00000486:    0883        ..      LSRS     r3,r0,#2
        0x00000488:    428b        .B      CMP      r3,r1
        0x0000048a:    d301        ..      BCC      0x490 ; __aeabi_idiv + 100
        0x0000048c:    008b        ..      LSLS     r3,r1,#2
        0x0000048e:    1ac0        ..      SUBS     r0,r0,r3
        0x00000490:    4152        RA      ADCS     r2,r2,r2
        0x00000492:    0843        C.      LSRS     r3,r0,#1
        0x00000494:    428b        .B      CMP      r3,r1
        0x00000496:    d301        ..      BCC      0x49c ; __aeabi_idiv + 112
        0x00000498:    004b        K.      LSLS     r3,r1,#1
        0x0000049a:    1ac0        ..      SUBS     r0,r0,r3
        0x0000049c:    4152        RA      ADCS     r2,r2,r2
        0x0000049e:    1a41        A.      SUBS     r1,r0,r1
        0x000004a0:    d200        ..      BCS      0x4a4 ; __aeabi_idiv + 120
        0x000004a2:    4601        .F      MOV      r1,r0
        0x000004a4:    4152        RA      ADCS     r2,r2,r2
        0x000004a6:    4610        .F      MOV      r0,r2
        0x000004a8:    4770        pG      BX       lr
        0x000004aa:    e05d        ].      B        0x568 ; __aeabi_idiv + 316
        0x000004ac:    0fca        ..      LSRS     r2,r1,#31
        0x000004ae:    d000        ..      BEQ      0x4b2 ; __aeabi_idiv + 134
        0x000004b0:    4249        IB      RSBS     r1,r1,#0
        0x000004b2:    1003        ..      ASRS     r3,r0,#32
        0x000004b4:    d300        ..      BCC      0x4b8 ; __aeabi_idiv + 140
        0x000004b6:    4240        @B      RSBS     r0,r0,#0
        0x000004b8:    4053        S@      EORS     r3,r3,r2
        0x000004ba:    2200        ."      MOVS     r2,#0
        0x000004bc:    469c        .F      MOV      r12,r3
        0x000004be:    0903        ..      LSRS     r3,r0,#4
        0x000004c0:    428b        .B      CMP      r3,r1
        0x000004c2:    d32d        -.      BCC      0x520 ; __aeabi_idiv + 244
        0x000004c4:    0a03        ..      LSRS     r3,r0,#8
        0x000004c6:    428b        .B      CMP      r3,r1
        0x000004c8:    d312        ..      BCC      0x4f0 ; __aeabi_idiv + 196
        0x000004ca:    22fc        ."      MOVS     r2,#0xfc
        0x000004cc:    0189        ..      LSLS     r1,r1,#6
        0x000004ce:    ba12        ..      REV      r2,r2
        0x000004d0:    0a03        ..      LSRS     r3,r0,#8
        0x000004d2:    428b        .B      CMP      r3,r1
        0x000004d4:    d30c        ..      BCC      0x4f0 ; __aeabi_idiv + 196
        0x000004d6:    0189        ..      LSLS     r1,r1,#6
        0x000004d8:    1192        ..      ASRS     r2,r2,#6
        0x000004da:    428b        .B      CMP      r3,r1
        0x000004dc:    d308        ..      BCC      0x4f0 ; __aeabi_idiv + 196
        0x000004de:    0189        ..      LSLS     r1,r1,#6
        0x000004e0:    1192        ..      ASRS     r2,r2,#6
        0x000004e2:    428b        .B      CMP      r3,r1
        0x000004e4:    d304        ..      BCC      0x4f0 ; __aeabi_idiv + 196
        0x000004e6:    0189        ..      LSLS     r1,r1,#6
        0x000004e8:    d03a        :.      BEQ      0x560 ; __aeabi_idiv + 308
        0x000004ea:    1192        ..      ASRS     r2,r2,#6
        0x000004ec:    e000        ..      B        0x4f0 ; __aeabi_idiv + 196
        0x000004ee:    0989        ..      LSRS     r1,r1,#6
        0x000004f0:    09c3        ..      LSRS     r3,r0,#7
        0x000004f2:    428b        .B      CMP      r3,r1
        0x000004f4:    d301        ..      BCC      0x4fa ; __aeabi_idiv + 206
        0x000004f6:    01cb        ..      LSLS     r3,r1,#7
        0x000004f8:    1ac0        ..      SUBS     r0,r0,r3
        0x000004fa:    4152        RA      ADCS     r2,r2,r2
        0x000004fc:    0983        ..      LSRS     r3,r0,#6
        0x000004fe:    428b        .B      CMP      r3,r1
        0x00000500:    d301        ..      BCC      0x506 ; __aeabi_idiv + 218
        0x00000502:    018b        ..      LSLS     r3,r1,#6
        0x00000504:    1ac0        ..      SUBS     r0,r0,r3
        0x00000506:    4152        RA      ADCS     r2,r2,r2
        0x00000508:    0943        C.      LSRS     r3,r0,#5
        0x0000050a:    428b        .B      CMP      r3,r1
        0x0000050c:    d301        ..      BCC      0x512 ; __aeabi_idiv + 230
        0x0000050e:    014b        K.      LSLS     r3,r1,#5
        0x00000510:    1ac0        ..      SUBS     r0,r0,r3
        0x00000512:    4152        RA      ADCS     r2,r2,r2
        0x00000514:    0903        ..      LSRS     r3,r0,#4
        0x00000516:    428b        .B      CMP      r3,r1
        0x00000518:    d301        ..      BCC      0x51e ; __aeabi_idiv + 242
        0x0000051a:    010b        ..      LSLS     r3,r1,#4
        0x0000051c:    1ac0        ..      SUBS     r0,r0,r3
        0x0000051e:    4152        RA      ADCS     r2,r2,r2
        0x00000520:    08c3        ..      LSRS     r3,r0,#3
        0x00000522:    428b        .B      CMP      r3,r1
        0x00000524:    d301        ..      BCC      0x52a ; __aeabi_idiv + 254
        0x00000526:    00cb        ..      LSLS     r3,r1,#3
        0x00000528:    1ac0        ..      SUBS     r0,r0,r3
        0x0000052a:    4152        RA      ADCS     r2,r2,r2
        0x0000052c:    0883        ..      LSRS     r3,r0,#2
        0x0000052e:    428b        .B      CMP      r3,r1
        0x00000530:    d301        ..      BCC      0x536 ; __aeabi_idiv + 266
        0x00000532:    008b        ..      LSLS     r3,r1,#2
        0x00000534:    1ac0        ..      SUBS     r0,r0,r3
        0x00000536:    4152        RA      ADCS     r2,r2,r2
        0x00000538:    d2d9        ..      BCS      0x4ee ; __aeabi_idiv + 194
        0x0000053a:    0843        C.      LSRS     r3,r0,#1
        0x0000053c:    428b        .B      CMP      r3,r1
        0x0000053e:    d301        ..      BCC      0x544 ; __aeabi_idiv + 280
        0x00000540:    004b        K.      LSLS     r3,r1,#1
        0x00000542:    1ac0        ..      SUBS     r0,r0,r3
        0x00000544:    4152        RA      ADCS     r2,r2,r2
        0x00000546:    1a41        A.      SUBS     r1,r0,r1
        0x00000548:    d200        ..      BCS      0x54c ; __aeabi_idiv + 288
        0x0000054a:    4601        .F      MOV      r1,r0
        0x0000054c:    4663        cF      MOV      r3,r12
        0x0000054e:    4152        RA      ADCS     r2,r2,r2
        0x00000550:    105b        [.      ASRS     r3,r3,#1
        0x00000552:    4610        .F      MOV      r0,r2
        0x00000554:    d301        ..      BCC      0x55a ; __aeabi_idiv + 302
        0x00000556:    4240        @B      RSBS     r0,r0,#0
        0x00000558:    2b00        .+      CMP      r3,#0
        0x0000055a:    d500        ..      BPL      0x55e ; __aeabi_idiv + 306
        0x0000055c:    4249        IB      RSBS     r1,r1,#0
        0x0000055e:    4770        pG      BX       lr
        0x00000560:    4663        cF      MOV      r3,r12
        0x00000562:    105b        [.      ASRS     r3,r3,#1
        0x00000564:    d300        ..      BCC      0x568 ; __aeabi_idiv + 316
        0x00000566:    4240        @B      RSBS     r0,r0,#0
        0x00000568:    b501        ..      PUSH     {r0,lr}
        0x0000056a:    2000        .       MOVS     r0,#0
        0x0000056c:    46c0        .F      MOV      r8,r8
        0x0000056e:    46c0        .F      MOV      r8,r8
        0x00000570:    bd02        ..      POP      {r1,pc}
    .text
    __use_two_region_memory
        0x00000572:    4770        pG      BX       lr
    __rt_heap_escrow$2region
        0x00000574:    4770        pG      BX       lr
    __rt_heap_expand$2region
        0x00000576:    4770        pG      BX       lr
    .text
    _printf_int_common
        0x00000578:    b5ff        ..      PUSH     {r0-r7,lr}
        0x0000057a:    4604        .F      MOV      r4,r0
        0x0000057c:    460d        .F      MOV      r5,r1
        0x0000057e:    b081        ..      SUB      sp,sp,#4
        0x00000580:    3024        $0      ADDS     r0,r0,#0x24
        0x00000582:    9000        ..      STR      r0,[sp,#0]
        0x00000584:    6821        !h      LDR      r1,[r4,#0]
        0x00000586:    0688        ..      LSLS     r0,r1,#26
        0x00000588:    d504        ..      BPL      0x594 ; _printf_int_common + 28
        0x0000058a:    2210        ."      MOVS     r2,#0x10
        0x0000058c:    69e0        .i      LDR      r0,[r4,#0x1c]
        0x0000058e:    4391        .C      BICS     r1,r1,r2
        0x00000590:    6021        !`      STR      r1,[r4,#0]
        0x00000592:    e000        ..      B        0x596 ; _printf_int_common + 30
        0x00000594:    2001        .       MOVS     r0,#1
        0x00000596:    42a8        .B      CMP      r0,r5
        0x00000598:    dd01        ..      BLE      0x59e ; _printf_int_common + 38
        0x0000059a:    1b47        G.      SUBS     r7,r0,r5
        0x0000059c:    e000        ..      B        0x5a0 ; _printf_int_common + 40
        0x0000059e:    2700        .'      MOVS     r7,#0
        0x000005a0:    9804        ..      LDR      r0,[sp,#0x10]
        0x000005a2:    69a1        .i      LDR      r1,[r4,#0x18]
        0x000005a4:    197a        z.      ADDS     r2,r7,r5
        0x000005a6:    1810        ..      ADDS     r0,r2,r0
        0x000005a8:    1a08        ..      SUBS     r0,r1,r0
        0x000005aa:    61a0        .a      STR      r0,[r4,#0x18]
        0x000005ac:    6820         h      LDR      r0,[r4,#0]
        0x000005ae:    06c0        ..      LSLS     r0,r0,#27
        0x000005b0:    d402        ..      BMI      0x5b8 ; _printf_int_common + 64
        0x000005b2:    4620         F      MOV      r0,r4
        0x000005b4:    46c0        .F      MOV      r8,r8
        0x000005b6:    46c0        .F      MOV      r8,r8
        0x000005b8:    2600        .&      MOVS     r6,#0
        0x000005ba:    e008        ..      B        0x5ce ; _printf_int_common + 86
        0x000005bc:    9803        ..      LDR      r0,[sp,#0xc]
        0x000005be:    6862        bh      LDR      r2,[r4,#4]
        0x000005c0:    68a1        .h      LDR      r1,[r4,#8]
        0x000005c2:    5d80        .]      LDRB     r0,[r0,r6]
        0x000005c4:    4790        .G      BLX      r2
        0x000005c6:    6a20         j      LDR      r0,[r4,#0x20]
        0x000005c8:    1c40        @.      ADDS     r0,r0,#1
        0x000005ca:    1c76        v.      ADDS     r6,r6,#1
        0x000005cc:    6220         b      STR      r0,[r4,#0x20]
        0x000005ce:    9804        ..      LDR      r0,[sp,#0x10]
        0x000005d0:    4286        .B      CMP      r6,r0
        0x000005d2:    dbf3        ..      BLT      0x5bc ; _printf_int_common + 68
        0x000005d4:    6820         h      LDR      r0,[r4,#0]
        0x000005d6:    06c0        ..      LSLS     r0,r0,#27
        0x000005d8:    d50a        ..      BPL      0x5f0 ; _printf_int_common + 120
        0x000005da:    4620         F      MOV      r0,r4
        0x000005dc:    46c0        .F      MOV      r8,r8
        0x000005de:    46c0        .F      MOV      r8,r8
        0x000005e0:    e006        ..      B        0x5f0 ; _printf_int_common + 120
        0x000005e2:    6862        bh      LDR      r2,[r4,#4]
        0x000005e4:    68a1        .h      LDR      r1,[r4,#8]
        0x000005e6:    2030        0       MOVS     r0,#0x30
        0x000005e8:    4790        .G      BLX      r2
        0x000005ea:    6a20         j      LDR      r0,[r4,#0x20]
        0x000005ec:    1c40        @.      ADDS     r0,r0,#1
        0x000005ee:    6220         b      STR      r0,[r4,#0x20]
        0x000005f0:    4638        8F      MOV      r0,r7
        0x000005f2:    1e7f        ..      SUBS     r7,r7,#1
        0x000005f4:    2800        .(      CMP      r0,#0
        0x000005f6:    dcf4        ..      BGT      0x5e2 ; _printf_int_common + 106
        0x000005f8:    e007        ..      B        0x60a ; _printf_int_common + 146
        0x000005fa:    9800        ..      LDR      r0,[sp,#0]
        0x000005fc:    6862        bh      LDR      r2,[r4,#4]
        0x000005fe:    68a1        .h      LDR      r1,[r4,#8]
        0x00000600:    5d40        @]      LDRB     r0,[r0,r5]
        0x00000602:    4790        .G      BLX      r2
        0x00000604:    6a20         j      LDR      r0,[r4,#0x20]
        0x00000606:    1c40        @.      ADDS     r0,r0,#1
        0x00000608:    6220         b      STR      r0,[r4,#0x20]
        0x0000060a:    4628        (F      MOV      r0,r5
        0x0000060c:    1e6d        m.      SUBS     r5,r5,#1
        0x0000060e:    2800        .(      CMP      r0,#0
        0x00000610:    dcf3        ..      BGT      0x5fa ; _printf_int_common + 130
        0x00000612:    4620         F      MOV      r0,r4
        0x00000614:    46c0        .F      MOV      r8,r8
        0x00000616:    46c0        .F      MOV      r8,r8
        0x00000618:    6820         h      LDR      r0,[r4,#0]
        0x0000061a:    0600        ..      LSLS     r0,r0,#24
        0x0000061c:    d502        ..      BPL      0x624 ; _printf_int_common + 172
        0x0000061e:    2002        .       MOVS     r0,#2
        0x00000620:    b005        ..      ADD      sp,sp,#0x14
        0x00000622:    bdf0        ..      POP      {r4-r7,pc}
        0x00000624:    2001        .       MOVS     r0,#1
        0x00000626:    e7fb        ..      B        0x620 ; _printf_int_common + 168
    .text
    _printf_input_char
        0x00000628:    6901        .i      LDR      r1,[r0,#0x10]
        0x0000062a:    1c4a        J.      ADDS     r2,r1,#1
        0x0000062c:    6102        .a      STR      r2,[r0,#0x10]
        0x0000062e:    7808        .x      LDRB     r0,[r1,#0]
        0x00000630:    4770        pG      BX       lr
    _printf_char_common
        0x00000632:    b500        ..      PUSH     {lr}
        0x00000634:    b08f        ..      SUB      sp,sp,#0x3c
        0x00000636:    9102        ..      STR      r1,[sp,#8]
        0x00000638:    2100        .!      MOVS     r1,#0
        0x0000063a:    9105        ..      STR      r1,[sp,#0x14]
        0x0000063c:    4905        .I      LDR      r1,[pc,#20] ; [0x654] = 0xffffffe5
        0x0000063e:    9301        ..      STR      r3,[sp,#4]
        0x00000640:    4479        yD      ADD      r1,r1,pc
        0x00000642:    9103        ..      STR      r1,[sp,#0xc]
        0x00000644:    4611        .F      MOV      r1,r2
        0x00000646:    9004        ..      STR      r0,[sp,#0x10]
        0x00000648:    4668        hF      MOV      r0,sp
        0x0000064a:    f7fffe5d    ..].    BL       __printf ; 0x308
        0x0000064e:    b00f        ..      ADD      sp,sp,#0x3c
        0x00000650:    bd00        ..      POP      {pc}
    $d
        0x00000652:    0000        ..      DCW    0
        0x00000654:    ffffffe5    ....    DCD    4294967269
    $t
    .text
    _sputc
        0x00000658:    680a        .h      LDR      r2,[r1,#0]
        0x0000065a:    7010        .p      STRB     r0,[r2,#0]
        0x0000065c:    1c52        R.      ADDS     r2,r2,#1
        0x0000065e:    600a        .`      STR      r2,[r1,#0]
        0x00000660:    4770        pG      BX       lr
    .text
    __rt_udiv10
        0x00000662:    4601        .F      MOV      r1,r0
        0x00000664:    0880        ..      LSRS     r0,r0,#2
        0x00000666:    1a08        ..      SUBS     r0,r1,r0
        0x00000668:    0902        ..      LSRS     r2,r0,#4
        0x0000066a:    1810        ..      ADDS     r0,r2,r0
        0x0000066c:    0a02        ..      LSRS     r2,r0,#8
        0x0000066e:    1810        ..      ADDS     r0,r2,r0
        0x00000670:    0c02        ..      LSRS     r2,r0,#16
        0x00000672:    1810        ..      ADDS     r0,r2,r0
        0x00000674:    08c0        ..      LSRS     r0,r0,#3
        0x00000676:    0082        ..      LSLS     r2,r0,#2
        0x00000678:    1812        ..      ADDS     r2,r2,r0
        0x0000067a:    0052        R.      LSLS     r2,r2,#1
        0x0000067c:    1a89        ..      SUBS     r1,r1,r2
        0x0000067e:    e001        ..      B        0x684 ; __rt_udiv10 + 34
        0x00000680:    390a        .9      SUBS     r1,r1,#0xa
        0x00000682:    1c40        @.      ADDS     r0,r0,#1
        0x00000684:    290a        .)      CMP      r1,#0xa
        0x00000686:    d2fb        ..      BCS      0x680 ; __rt_udiv10 + 30
        0x00000688:    4770        pG      BX       lr
    .text
    __user_setup_stackheap
        0x0000068a:    4675        uF      MOV      r5,lr
        0x0000068c:    f000f822    ..".    BL       __user_libspace ; 0x6d4
        0x00000690:    46ae        .F      MOV      lr,r5
        0x00000692:    0005        ..      MOVS     r5,r0
        0x00000694:    4669        iF      MOV      r1,sp
        0x00000696:    4653        SF      MOV      r3,r10
        0x00000698:    08c0        ..      LSRS     r0,r0,#3
        0x0000069a:    00c0        ..      LSLS     r0,r0,#3
        0x0000069c:    4685        .F      MOV      sp,r0
        0x0000069e:    b018        ..      ADD      sp,sp,#0x60
        0x000006a0:    b520         .      PUSH     {r5,lr}
        0x000006a2:    f7fffd9f    ....    BL       __user_initial_stackheap ; 0x1e4
        0x000006a6:    bc60        `.      POP      {r5,r6}
        0x000006a8:    2700        .'      MOVS     r7,#0
        0x000006aa:    0849        I.      LSRS     r1,r1,#1
        0x000006ac:    46b6        .F      MOV      lr,r6
        0x000006ae:    2600        .&      MOVS     r6,#0
        0x000006b0:    c5c0        ..      STM      r5!,{r6,r7}
        0x000006b2:    c5c0        ..      STM      r5!,{r6,r7}
        0x000006b4:    c5c0        ..      STM      r5!,{r6,r7}
        0x000006b6:    c5c0        ..      STM      r5!,{r6,r7}
        0x000006b8:    c5c0        ..      STM      r5!,{r6,r7}
        0x000006ba:    c5c0        ..      STM      r5!,{r6,r7}
        0x000006bc:    c5c0        ..      STM      r5!,{r6,r7}
        0x000006be:    c5c0        ..      STM      r5!,{r6,r7}
        0x000006c0:    3d40        @=      SUBS     r5,r5,#0x40
        0x000006c2:    0049        I.      LSLS     r1,r1,#1
        0x000006c4:    468d        .F      MOV      sp,r1
        0x000006c6:    4770        pG      BX       lr
    .text
    exit
        0x000006c8:    4604        .F      MOV      r4,r0
        0x000006ca:    46c0        .F      MOV      r8,r8
        0x000006cc:    46c0        .F      MOV      r8,r8
        0x000006ce:    4620         F      MOV      r0,r4
        0x000006d0:    f7fffd50    ..P.    BL       __rt_exit ; 0x174
    .text
    __user_libspace
    __user_perproc_libspace
    __user_perthread_libspace
        0x000006d4:    4800        .H      LDR      r0,[pc,#0] ; [0x6d8] = 0x200006b4
        0x000006d6:    4770        pG      BX       lr
    $d
        0x000006d8:    200006b4    ...     DCD    536872628
    $t
    .text
    _sys_exit
        0x000006dc:    4901        .I      LDR      r1,[pc,#4] ; [0x6e4] = 0x20026
        0x000006de:    2018        .       MOVS     r0,#0x18
        0x000006e0:    beab        ..      BKPT     #0xab
        0x000006e2:    e7fe        ..      B        0x6e2 ; _sys_exit + 6
    $d
        0x000006e4:    00020026    &...    DCD    131110
    $t
    .text
    __I$use$semihosting
    __use_no_semihosting_swi
        0x000006e8:    4770        pG      BX       lr
    .text
    __semihosting_library_function
        0x000006ea:    0000        ..      MOVS     r0,r0
    i.ADC_IRQHandler
    ADC_IRQHandler
        0x000006ec:    2000        .       MOVS     r0,#0
        0x000006ee:    4905        .I      LDR      r1,[pc,#20] ; [0x704] = 0x50004280
        0x000006f0:    6308        .c      STR      r0,[r1,#0x30]
        0x000006f2:    6348        Hc      STR      r0,[r1,#0x34]
        0x000006f4:    4804        .H      LDR      r0,[pc,#16] ; [0x708] = 0x400e0000
        0x000006f6:    6a80        .j      LDR      r0,[r0,#0x28]
        0x000006f8:    2102        .!      MOVS     r1,#2
        0x000006fa:    4388        .C      BICS     r0,r0,r1
        0x000006fc:    4902        .I      LDR      r1,[pc,#8] ; [0x708] = 0x400e0000
        0x000006fe:    6288        .b      STR      r0,[r1,#0x28]
        0x00000700:    4770        pG      BX       lr
    $d
        0x00000702:    0000        ..      DCW    0
        0x00000704:    50004280    .B.P    DCD    1342194304
        0x00000708:    400e0000    ...@    DCD    1074659328
    $t
    i.BOD_IRQHandler
    BOD_IRQHandler
        0x0000070c:    b510        ..      PUSH     {r4,lr}
        0x0000070e:    2005        .       MOVS     r0,#5
        0x00000710:    0700        ..      LSLS     r0,r0,#28
        0x00000712:    6980        .i      LDR      r0,[r0,#0x18]
        0x00000714:    2110        .!      MOVS     r1,#0x10
        0x00000716:    4388        .C      BICS     r0,r0,r1
        0x00000718:    3010        .0      ADDS     r0,r0,#0x10
        0x0000071a:    2105        .!      MOVS     r1,#5
        0x0000071c:    0709        ..      LSLS     r1,r1,#28
        0x0000071e:    6188        .a      STR      r0,[r1,#0x18]
        0x00000720:    4803        .H      LDR      r0,[pc,#12] ; [0x730] = 0x20000620
        0x00000722:    6800        .h      LDR      r0,[r0,#0]
        0x00000724:    2800        .(      CMP      r0,#0
        0x00000726:    d002        ..      BEQ      0x72e ; BOD_IRQHandler + 34
        0x00000728:    4801        .H      LDR      r0,[pc,#4] ; [0x730] = 0x20000620
        0x0000072a:    6800        .h      LDR      r0,[r0,#0]
        0x0000072c:    4780        .G      BLX      r0
        0x0000072e:    bd10        ..      POP      {r4,pc}
    $d
        0x00000730:    20000620     ..     DCD    536872480
    $t
    i.DrvGPIO_InitFunction
    DrvGPIO_InitFunction
        0x00000734:    b510        ..      PUSH     {r4,lr}
        0x00000736:    4601        .F      MOV      r1,r0
        0x00000738:    000b        ..      MOVS     r3,r1
        0x0000073a:    f001fd09    ....    BL       __ARM_common_switch8 ; 0x2150
    $d
        0x0000073e:    203e        >       DCW    8254
        0x00000740:    5c4b412a    *AK\    DCD    1548435754
        0x00000744:    947e7d74    t}~.    DCD    2491317620
        0x00000748:    eff1b4a4    ....    DCD    4025595044
        0x0000074c:    ebecedee    ....    DCD    3958173166
        0x00000750:    e7e8e9ea    ....    DCD    3890801130
        0x00000754:    e3e4e5e6    ....    DCD    3823429094
        0x00000758:    dfe0e1e2    ....    DCD    3756057058
        0x0000075c:    dbdcddde    ....    DCD    3688685022
        0x00000760:    d7d8d9da    ....    DCD    3621312986
        0x00000764:    d3d4d5d6    ....    DCD    3553940950
        0x00000768:    cfd0d1d2    ....    DCD    3486568914
        0x0000076c:    cbcccdce    ....    DCD    3419196878
        0x00000770:    c7c8c9ca    ....    DCD    3351824842
        0x00000774:    c3c4c5c6    ....    DCD    3284452806
        0x00000778:    bfc0c1c2    ....    DCD    3217080770
        0x0000077c:    bdbe        ..      DCW    48574
    $t
        0x0000077e:    2000        .       MOVS     r0,#0
        0x00000780:    2305        .#      MOVS     r3,#5
        0x00000782:    071b        ..      LSLS     r3,r3,#28
        0x00000784:    6318        .c      STR      r0,[r3,#0x30]
        0x00000786:    6358        Xc      STR      r0,[r3,#0x34]
        0x00000788:    6398        .c      STR      r0,[r3,#0x38]
        0x0000078a:    63d8        .c      STR      r0,[r3,#0x3c]
        0x0000078c:    4bfa        .K      LDR      r3,[pc,#1000] ; [0xb78] = 0x50000040
        0x0000078e:    6018        .`      STR      r0,[r3,#0]
        0x00000790:    e371        q.      B        0xe76 ; DrvGPIO_InitFunction + 1858
        0x00000792:    2005        .       MOVS     r0,#5
        0x00000794:    0700        ..      LSLS     r0,r0,#28
        0x00000796:    6b40        @k      LDR      r0,[r0,#0x34]
        0x00000798:    2301        .#      MOVS     r3,#1
        0x0000079a:    031b        ..      LSLS     r3,r3,#12
        0x0000079c:    4318        .C      ORRS     r0,r0,r3
        0x0000079e:    2305        .#      MOVS     r3,#5
        0x000007a0:    071b        ..      LSLS     r3,r3,#28
        0x000007a2:    6358        Xc      STR      r0,[r3,#0x34]
        0x000007a4:    48f4        .H      LDR      r0,[pc,#976] ; [0xb78] = 0x50000040
        0x000007a6:    6900        .i      LDR      r0,[r0,#0x10]
        0x000007a8:    2301        .#      MOVS     r3,#1
        0x000007aa:    029b        ..      LSLS     r3,r3,#10
        0x000007ac:    4318        .C      ORRS     r0,r0,r3
        0x000007ae:    4bf2        .K      LDR      r3,[pc,#968] ; [0xb78] = 0x50000040
        0x000007b0:    6118        .a      STR      r0,[r3,#0x10]
        0x000007b2:    4618        .F      MOV      r0,r3
        0x000007b4:    6900        .i      LDR      r0,[r0,#0x10]
        0x000007b6:    015b        [.      LSLS     r3,r3,#5
        0x000007b8:    4398        .C      BICS     r0,r0,r3
        0x000007ba:    4bef        .K      LDR      r3,[pc,#956] ; [0xb78] = 0x50000040
        0x000007bc:    6118        .a      STR      r0,[r3,#0x10]
        0x000007be:    e35a        Z.      B        0xe76 ; DrvGPIO_InitFunction + 1858
        0x000007c0:    2005        .       MOVS     r0,#5
        0x000007c2:    0700        ..      LSLS     r0,r0,#28
        0x000007c4:    6b00        .k      LDR      r0,[r0,#0x30]
        0x000007c6:    2303        .#      MOVS     r3,#3
        0x000007c8:    021b        ..      LSLS     r3,r3,#8
        0x000007ca:    4318        .C      ORRS     r0,r0,r3
        0x000007cc:    2305        .#      MOVS     r3,#5
        0x000007ce:    071b        ..      LSLS     r3,r3,#28
        0x000007d0:    6318        .c      STR      r0,[r3,#0x30]
        0x000007d2:    e350        P.      B        0xe76 ; DrvGPIO_InitFunction + 1858
        0x000007d4:    2005        .       MOVS     r0,#5
        0x000007d6:    0700        ..      LSLS     r0,r0,#28
        0x000007d8:    6b00        .k      LDR      r0,[r0,#0x30]
        0x000007da:    2303        .#      MOVS     r3,#3
        0x000007dc:    029b        ..      LSLS     r3,r3,#10
        0x000007de:    4318        .C      ORRS     r0,r0,r3
        0x000007e0:    2305        .#      MOVS     r3,#5
        0x000007e2:    071b        ..      LSLS     r3,r3,#28
        0x000007e4:    6318        .c      STR      r0,[r3,#0x30]
        0x000007e6:    48e4        .H      LDR      r0,[pc,#912] ; [0xb78] = 0x50000040
        0x000007e8:    6900        .i      LDR      r0,[r0,#0x10]
        0x000007ea:    2301        .#      MOVS     r3,#1
        0x000007ec:    02db        ..      LSLS     r3,r3,#11
        0x000007ee:    4398        .C      BICS     r0,r0,r3
        0x000007f0:    4be1        .K      LDR      r3,[pc,#900] ; [0xb78] = 0x50000040
        0x000007f2:    6118        .a      STR      r0,[r3,#0x10]
        0x000007f4:    e33f        ?.      B        0xe76 ; DrvGPIO_InitFunction + 1858
        0x000007f6:    2005        .       MOVS     r0,#5
        0x000007f8:    0700        ..      LSLS     r0,r0,#28
        0x000007fa:    6b80        .k      LDR      r0,[r0,#0x38]
        0x000007fc:    230f        .#      MOVS     r3,#0xf
        0x000007fe:    4318        .C      ORRS     r0,r0,r3
        0x00000800:    2305        .#      MOVS     r3,#5
        0x00000802:    071b        ..      LSLS     r3,r3,#28
        0x00000804:    6398        .c      STR      r0,[r3,#0x38]
        0x00000806:    4618        .F      MOV      r0,r3
        0x00000808:    6b00        .k      LDR      r0,[r0,#0x30]
        0x0000080a:    2301        .#      MOVS     r3,#1
        0x0000080c:    03db        ..      LSLS     r3,r3,#15
        0x0000080e:    4318        .C      ORRS     r0,r0,r3
        0x00000810:    2305        .#      MOVS     r3,#5
        0x00000812:    071b        ..      LSLS     r3,r3,#28
        0x00000814:    6318        .c      STR      r0,[r3,#0x30]
        0x00000816:    48d8        .H      LDR      r0,[pc,#864] ; [0xb78] = 0x50000040
        0x00000818:    6900        .i      LDR      r0,[r0,#0x10]
        0x0000081a:    231f        .#      MOVS     r3,#0x1f
        0x0000081c:    015b        [.      LSLS     r3,r3,#5
        0x0000081e:    4318        .C      ORRS     r0,r0,r3
        0x00000820:    4bd5        .K      LDR      r3,[pc,#852] ; [0xb78] = 0x50000040
        0x00000822:    6118        .a      STR      r0,[r3,#0x10]
        0x00000824:    e327        '.      B        0xe76 ; DrvGPIO_InitFunction + 1858
        0x00000826:    2005        .       MOVS     r0,#5
        0x00000828:    0700        ..      LSLS     r0,r0,#28
        0x0000082a:    6bc0        .k      LDR      r0,[r0,#0x3c]
        0x0000082c:    23c0        .#      MOVS     r3,#0xc0
        0x0000082e:    4318        .C      ORRS     r0,r0,r3
        0x00000830:    2305        .#      MOVS     r3,#5
        0x00000832:    071b        ..      LSLS     r3,r3,#28
        0x00000834:    63d8        .c      STR      r0,[r3,#0x3c]
        0x00000836:    e31e        ..      B        0xe76 ; DrvGPIO_InitFunction + 1858
        0x00000838:    bf00        ..      NOP      
        0x0000083a:    2906        .)      CMP      r1,#6
        0x0000083c:    d101        ..      BNE      0x842 ; DrvGPIO_InitFunction + 270
        0x0000083e:    2206        ."      MOVS     r2,#6
        0x00000840:    e000        ..      B        0x844 ; DrvGPIO_InitFunction + 272
        0x00000842:    220e        ."      MOVS     r2,#0xe
        0x00000844:    2005        .       MOVS     r0,#5
        0x00000846:    0700        ..      LSLS     r0,r0,#28
        0x00000848:    6b80        .k      LDR      r0,[r0,#0x38]
        0x0000084a:    2303        .#      MOVS     r3,#3
        0x0000084c:    4093        .@      LSLS     r3,r3,r2
        0x0000084e:    4318        .C      ORRS     r0,r0,r3
        0x00000850:    2305        .#      MOVS     r3,#5
        0x00000852:    071b        ..      LSLS     r3,r3,#28
        0x00000854:    6398        .c      STR      r0,[r3,#0x38]
        0x00000856:    48c8        .H      LDR      r0,[pc,#800] ; [0xb78] = 0x50000040
        0x00000858:    6900        .i      LDR      r0,[r0,#0x10]
        0x0000085a:    2301        .#      MOVS     r3,#1
        0x0000085c:    02db        ..      LSLS     r3,r3,#11
        0x0000085e:    4398        .C      BICS     r0,r0,r3
        0x00000860:    4bc5        .K      LDR      r3,[pc,#788] ; [0xb78] = 0x50000040
        0x00000862:    6118        .a      STR      r0,[r3,#0x10]
        0x00000864:    e307        ..      B        0xe76 ; DrvGPIO_InitFunction + 1858
        0x00000866:    2005        .       MOVS     r0,#5
        0x00000868:    0700        ..      LSLS     r0,r0,#28
        0x0000086a:    6b80        .k      LDR      r0,[r0,#0x38]
        0x0000086c:    230f        .#      MOVS     r3,#0xf
        0x0000086e:    4318        .C      ORRS     r0,r0,r3
        0x00000870:    2305        .#      MOVS     r3,#5
        0x00000872:    071b        ..      LSLS     r3,r3,#28
        0x00000874:    6398        .c      STR      r0,[r3,#0x38]
        0x00000876:    48c0        .H      LDR      r0,[pc,#768] ; [0xb78] = 0x50000040
        0x00000878:    6900        .i      LDR      r0,[r0,#0x10]
        0x0000087a:    23ff        .#      MOVS     r3,#0xff
        0x0000087c:    33e1        .3      ADDS     r3,r3,#0xe1
        0x0000087e:    4398        .C      BICS     r0,r0,r3
        0x00000880:    4bbd        .K      LDR      r3,[pc,#756] ; [0xb78] = 0x50000040
        0x00000882:    6118        .a      STR      r0,[r3,#0x10]
        0x00000884:    e2f7        ..      B        0xe76 ; DrvGPIO_InitFunction + 1858
        0x00000886:    2005        .       MOVS     r0,#5
        0x00000888:    0700        ..      LSLS     r0,r0,#28
        0x0000088a:    6b40        @k      LDR      r0,[r0,#0x34]
        0x0000088c:    2301        .#      MOVS     r3,#1
        0x0000088e:    029b        ..      LSLS     r3,r3,#10
        0x00000890:    4318        .C      ORRS     r0,r0,r3
        0x00000892:    2305        .#      MOVS     r3,#5
        0x00000894:    071b        ..      LSLS     r3,r3,#28
        0x00000896:    6358        Xc      STR      r0,[r3,#0x34]
        0x00000898:    48b7        .H      LDR      r0,[pc,#732] ; [0xb78] = 0x50000040
        0x0000089a:    6900        .i      LDR      r0,[r0,#0x10]
        0x0000089c:    2301        .#      MOVS     r3,#1
        0x0000089e:    4318        .C      ORRS     r0,r0,r3
        0x000008a0:    4bb5        .K      LDR      r3,[pc,#724] ; [0xb78] = 0x50000040
        0x000008a2:    6118        .a      STR      r0,[r3,#0x10]
        0x000008a4:    e2e7        ..      B        0xe76 ; DrvGPIO_InitFunction + 1858
        0x000008a6:    2005        .       MOVS     r0,#5
        0x000008a8:    0700        ..      LSLS     r0,r0,#28
        0x000008aa:    6b80        .k      LDR      r0,[r0,#0x38]
        0x000008ac:    2330        0#      MOVS     r3,#0x30
        0x000008ae:    4318        .C      ORRS     r0,r0,r3
        0x000008b0:    2305        .#      MOVS     r3,#5
        0x000008b2:    071b        ..      LSLS     r3,r3,#28
        0x000008b4:    6398        .c      STR      r0,[r3,#0x38]
        0x000008b6:    e2de        ..      B        0xe76 ; DrvGPIO_InitFunction + 1858
        0x000008b8:    e2db        ..      B        0xe72 ; DrvGPIO_InitFunction + 1854
        0x000008ba:    e264        d.      B        0xd86 ; DrvGPIO_InitFunction + 1618
        0x000008bc:    e282        ..      B        0xdc4 ; DrvGPIO_InitFunction + 1680
        0x000008be:    e248        H.      B        0xd52 ; DrvGPIO_InitFunction + 1566
        0x000008c0:    e246        F.      B        0xd50 ; DrvGPIO_InitFunction + 1564
        0x000008c2:    e213        ..      B        0xcec ; DrvGPIO_InitFunction + 1464
        0x000008c4:    e211        ..      B        0xcea ; DrvGPIO_InitFunction + 1462
        0x000008c6:    e1d9        ..      B        0xc7c ; DrvGPIO_InitFunction + 1352
        0x000008c8:    e1d7        ..      B        0xc7a ; DrvGPIO_InitFunction + 1350
        0x000008ca:    e1b7        ..      B        0xc3c ; DrvGPIO_InitFunction + 1288
        0x000008cc:    e1b5        ..      B        0xc3a ; DrvGPIO_InitFunction + 1286
        0x000008ce:    e241        A.      B        0xd54 ; DrvGPIO_InitFunction + 1568
        0x000008d0:    e20d        ..      B        0xcee ; DrvGPIO_InitFunction + 1466
        0x000008d2:    e1d4        ..      B        0xc7e ; DrvGPIO_InitFunction + 1354
        0x000008d4:    e1b3        ..      B        0xc3e ; DrvGPIO_InitFunction + 1290
        0x000008d6:    e1a6        ..      B        0xc26 ; DrvGPIO_InitFunction + 1266
        0x000008d8:    e165        e.      B        0xba6 ; DrvGPIO_InitFunction + 1138
        0x000008da:    e163        c.      B        0xba4 ; DrvGPIO_InitFunction + 1136
        0x000008dc:    e161        a.      B        0xba2 ; DrvGPIO_InitFunction + 1134
        0x000008de:    e15f        _.      B        0xba0 ; DrvGPIO_InitFunction + 1132
        0x000008e0:    e15d        ].      B        0xb9e ; DrvGPIO_InitFunction + 1130
        0x000008e2:    e15b        [.      B        0xb9c ; DrvGPIO_InitFunction + 1128
        0x000008e4:    e14a        J.      B        0xb7c ; DrvGPIO_InitFunction + 1096
        0x000008e6:    e137        7.      B        0xb58 ; DrvGPIO_InitFunction + 1060
        0x000008e8:    e129        ).      B        0xb3e ; DrvGPIO_InitFunction + 1034
        0x000008ea:    e117        ..      B        0xb1c ; DrvGPIO_InitFunction + 1000
        0x000008ec:    e106        ..      B        0xafc ; DrvGPIO_InitFunction + 968
        0x000008ee:    e0f5        ..      B        0xadc ; DrvGPIO_InitFunction + 936
        0x000008f0:    e0e4        ..      B        0xabc ; DrvGPIO_InitFunction + 904
        0x000008f2:    e0d9        ..      B        0xaa8 ; DrvGPIO_InitFunction + 884
        0x000008f4:    e0cc        ..      B        0xa90 ; DrvGPIO_InitFunction + 860
        0x000008f6:    e0c4        ..      B        0xa82 ; DrvGPIO_InitFunction + 846
        0x000008f8:    e0a3        ..      B        0xa42 ; DrvGPIO_InitFunction + 782
        0x000008fa:    e0ae        ..      B        0xa5a ; DrvGPIO_InitFunction + 806
        0x000008fc:    e0ac        ..      B        0xa58 ; DrvGPIO_InitFunction + 804
        0x000008fe:    e0aa        ..      B        0xa56 ; DrvGPIO_InitFunction + 802
        0x00000900:    e0a8        ..      B        0xa54 ; DrvGPIO_InitFunction + 800
        0x00000902:    e0a6        ..      B        0xa52 ; DrvGPIO_InitFunction + 798
        0x00000904:    e0a4        ..      B        0xa50 ; DrvGPIO_InitFunction + 796
        0x00000906:    e0b0        ..      B        0xa6a ; DrvGPIO_InitFunction + 822
        0x00000908:    e092        ..      B        0xa30 ; DrvGPIO_InitFunction + 764
        0x0000090a:    e088        ..      B        0xa1e ; DrvGPIO_InitFunction + 746
        0x0000090c:    e07e        ~.      B        0xa0c ; DrvGPIO_InitFunction + 728
        0x0000090e:    e073        s.      B        0x9f8 ; DrvGPIO_InitFunction + 708
        0x00000910:    e062        b.      B        0x9d8 ; DrvGPIO_InitFunction + 676
        0x00000912:    e057        W.      B        0x9c4 ; DrvGPIO_InitFunction + 656
        0x00000914:    e04d        M.      B        0x9b2 ; DrvGPIO_InitFunction + 638
        0x00000916:    e037        7.      B        0x988 ; DrvGPIO_InitFunction + 596
        0x00000918:    e02d        -.      B        0x976 ; DrvGPIO_InitFunction + 578
        0x0000091a:    e022        ".      B        0x962 ; DrvGPIO_InitFunction + 558
        0x0000091c:    e011        ..      B        0x942 ; DrvGPIO_InitFunction + 526
        0x0000091e:    e7ff        ..      B        0x920 ; DrvGPIO_InitFunction + 492
        0x00000920:    2005        .       MOVS     r0,#5
        0x00000922:    0700        ..      LSLS     r0,r0,#28
        0x00000924:    6b80        .k      LDR      r0,[r0,#0x38]
        0x00000926:    230f        .#      MOVS     r3,#0xf
        0x00000928:    021b        ..      LSLS     r3,r3,#8
        0x0000092a:    4318        .C      ORRS     r0,r0,r3
        0x0000092c:    2305        .#      MOVS     r3,#5
        0x0000092e:    071b        ..      LSLS     r3,r3,#28
        0x00000930:    6398        .c      STR      r0,[r3,#0x38]
        0x00000932:    4891        .H      LDR      r0,[pc,#580] ; [0xb78] = 0x50000040
        0x00000934:    6900        .i      LDR      r0,[r0,#0x10]
        0x00000936:    2301        .#      MOVS     r3,#1
        0x00000938:    02db        ..      LSLS     r3,r3,#11
        0x0000093a:    4398        .C      BICS     r0,r0,r3
        0x0000093c:    4b8e        .K      LDR      r3,[pc,#568] ; [0xb78] = 0x50000040
        0x0000093e:    6118        .a      STR      r0,[r3,#0x10]
        0x00000940:    e299        ..      B        0xe76 ; DrvGPIO_InitFunction + 1858
        0x00000942:    2005        .       MOVS     r0,#5
        0x00000944:    0700        ..      LSLS     r0,r0,#28
        0x00000946:    6b40        @k      LDR      r0,[r0,#0x34]
        0x00000948:    2301        .#      MOVS     r3,#1
        0x0000094a:    025b        [.      LSLS     r3,r3,#9
        0x0000094c:    4318        .C      ORRS     r0,r0,r3
        0x0000094e:    2305        .#      MOVS     r3,#5
        0x00000950:    071b        ..      LSLS     r3,r3,#28
        0x00000952:    6358        Xc      STR      r0,[r3,#0x34]
        0x00000954:    4888        .H      LDR      r0,[pc,#544] ; [0xb78] = 0x50000040
        0x00000956:    6900        .i      LDR      r0,[r0,#0x10]
        0x00000958:    2302        .#      MOVS     r3,#2
        0x0000095a:    4318        .C      ORRS     r0,r0,r3
        0x0000095c:    4b86        .K      LDR      r3,[pc,#536] ; [0xb78] = 0x50000040
        0x0000095e:    6118        .a      STR      r0,[r3,#0x10]
        0x00000960:    e289        ..      B        0xe76 ; DrvGPIO_InitFunction + 1858
        0x00000962:    2005        .       MOVS     r0,#5
        0x00000964:    0700        ..      LSLS     r0,r0,#28
        0x00000966:    6b80        .k      LDR      r0,[r0,#0x38]
        0x00000968:    2303        .#      MOVS     r3,#3
        0x0000096a:    031b        ..      LSLS     r3,r3,#12
        0x0000096c:    4318        .C      ORRS     r0,r0,r3
        0x0000096e:    2305        .#      MOVS     r3,#5
        0x00000970:    071b        ..      LSLS     r3,r3,#28
        0x00000972:    6398        .c      STR      r0,[r3,#0x38]
        0x00000974:    e27f        ..      B        0xe76 ; DrvGPIO_InitFunction + 1858
        0x00000976:    2005        .       MOVS     r0,#5
        0x00000978:    0700        ..      LSLS     r0,r0,#28
        0x0000097a:    6bc0        .k      LDR      r0,[r0,#0x3c]
        0x0000097c:    230f        .#      MOVS     r3,#0xf
        0x0000097e:    4318        .C      ORRS     r0,r0,r3
        0x00000980:    2305        .#      MOVS     r3,#5
        0x00000982:    071b        ..      LSLS     r3,r3,#28
        0x00000984:    63d8        .c      STR      r0,[r3,#0x3c]
        0x00000986:    e276        v.      B        0xe76 ; DrvGPIO_InitFunction + 1858
        0x00000988:    2005        .       MOVS     r0,#5
        0x0000098a:    0700        ..      LSLS     r0,r0,#28
        0x0000098c:    6b00        .k      LDR      r0,[r0,#0x30]
        0x0000098e:    2380        .#      MOVS     r3,#0x80
        0x00000990:    4318        .C      ORRS     r0,r0,r3
        0x00000992:    2305        .#      MOVS     r3,#5
        0x00000994:    071b        ..      LSLS     r3,r3,#28
        0x00000996:    6318        .c      STR      r0,[r3,#0x30]
        0x00000998:    4877        wH      LDR      r0,[pc,#476] ; [0xb78] = 0x50000040
        0x0000099a:    6900        .i      LDR      r0,[r0,#0x10]
        0x0000099c:    2304        .#      MOVS     r3,#4
        0x0000099e:    4318        .C      ORRS     r0,r0,r3
        0x000009a0:    4b75        uK      LDR      r3,[pc,#468] ; [0xb78] = 0x50000040
        0x000009a2:    6118        .a      STR      r0,[r3,#0x10]
        0x000009a4:    4618        .F      MOV      r0,r3
        0x000009a6:    6900        .i      LDR      r0,[r0,#0x10]
        0x000009a8:    015b        [.      LSLS     r3,r3,#5
        0x000009aa:    4398        .C      BICS     r0,r0,r3
        0x000009ac:    4b72        rK      LDR      r3,[pc,#456] ; [0xb78] = 0x50000040
        0x000009ae:    6118        .a      STR      r0,[r3,#0x10]
        0x000009b0:    e261        a.      B        0xe76 ; DrvGPIO_InitFunction + 1858
        0x000009b2:    2005        .       MOVS     r0,#5
        0x000009b4:    0700        ..      LSLS     r0,r0,#28
        0x000009b6:    6bc0        .k      LDR      r0,[r0,#0x3c]
        0x000009b8:    2330        0#      MOVS     r3,#0x30
        0x000009ba:    4318        .C      ORRS     r0,r0,r3
        0x000009bc:    2305        .#      MOVS     r3,#5
        0x000009be:    071b        ..      LSLS     r3,r3,#28
        0x000009c0:    63d8        .c      STR      r0,[r3,#0x3c]
        0x000009c2:    e258        X.      B        0xe76 ; DrvGPIO_InitFunction + 1858
        0x000009c4:    2005        .       MOVS     r0,#5
        0x000009c6:    0700        ..      LSLS     r0,r0,#28
        0x000009c8:    6bc0        .k      LDR      r0,[r0,#0x3c]
        0x000009ca:    230f        .#      MOVS     r3,#0xf
        0x000009cc:    021b        ..      LSLS     r3,r3,#8
        0x000009ce:    4318        .C      ORRS     r0,r0,r3
        0x000009d0:    2305        .#      MOVS     r3,#5
        0x000009d2:    071b        ..      LSLS     r3,r3,#28
        0x000009d4:    63d8        .c      STR      r0,[r3,#0x3c]
        0x000009d6:    e24e        N.      B        0xe76 ; DrvGPIO_InitFunction + 1858
        0x000009d8:    2005        .       MOVS     r0,#5
        0x000009da:    0700        ..      LSLS     r0,r0,#28
        0x000009dc:    6b40        @k      LDR      r0,[r0,#0x34]
        0x000009de:    2301        .#      MOVS     r3,#1
        0x000009e0:    039b        ..      LSLS     r3,r3,#14
        0x000009e2:    4318        .C      ORRS     r0,r0,r3
        0x000009e4:    2305        .#      MOVS     r3,#5
        0x000009e6:    071b        ..      LSLS     r3,r3,#28
        0x000009e8:    6358        Xc      STR      r0,[r3,#0x34]
        0x000009ea:    4863        cH      LDR      r0,[pc,#396] ; [0xb78] = 0x50000040
        0x000009ec:    6900        .i      LDR      r0,[r0,#0x10]
        0x000009ee:    2308        .#      MOVS     r3,#8
        0x000009f0:    4318        .C      ORRS     r0,r0,r3
        0x000009f2:    4b61        aK      LDR      r3,[pc,#388] ; [0xb78] = 0x50000040
        0x000009f4:    6118        .a      STR      r0,[r3,#0x10]
        0x000009f6:    e23e        >.      B        0xe76 ; DrvGPIO_InitFunction + 1858
        0x000009f8:    2005        .       MOVS     r0,#5
        0x000009fa:    0700        ..      LSLS     r0,r0,#28
        0x000009fc:    6bc0        .k      LDR      r0,[r0,#0x3c]
        0x000009fe:    2303        .#      MOVS     r3,#3
        0x00000a00:    031b        ..      LSLS     r3,r3,#12
        0x00000a02:    4318        .C      ORRS     r0,r0,r3
        0x00000a04:    2305        .#      MOVS     r3,#5
        0x00000a06:    071b        ..      LSLS     r3,r3,#28
        0x00000a08:    63d8        .c      STR      r0,[r3,#0x3c]
        0x00000a0a:    e234        4.      B        0xe76 ; DrvGPIO_InitFunction + 1858
        0x00000a0c:    2005        .       MOVS     r0,#5
        0x00000a0e:    0700        ..      LSLS     r0,r0,#28
        0x00000a10:    6b80        .k      LDR      r0,[r0,#0x38]
        0x00000a12:    230f        .#      MOVS     r3,#0xf
        0x00000a14:    4318        .C      ORRS     r0,r0,r3
        0x00000a16:    2305        .#      MOVS     r3,#5
        0x00000a18:    071b        ..      LSLS     r3,r3,#28
        0x00000a1a:    6398        .c      STR      r0,[r3,#0x38]
        0x00000a1c:    e22b        +.      B        0xe76 ; DrvGPIO_InitFunction + 1858
        0x00000a1e:    2005        .       MOVS     r0,#5
        0x00000a20:    0700        ..      LSLS     r0,r0,#28
        0x00000a22:    6bc0        .k      LDR      r0,[r0,#0x3c]
        0x00000a24:    2302        .#      MOVS     r3,#2
        0x00000a26:    4318        .C      ORRS     r0,r0,r3
        0x00000a28:    2305        .#      MOVS     r3,#5
        0x00000a2a:    071b        ..      LSLS     r3,r3,#28
        0x00000a2c:    63d8        .c      STR      r0,[r3,#0x3c]
        0x00000a2e:    e222        ".      B        0xe76 ; DrvGPIO_InitFunction + 1858
        0x00000a30:    2005        .       MOVS     r0,#5
        0x00000a32:    0700        ..      LSLS     r0,r0,#28
        0x00000a34:    6bc0        .k      LDR      r0,[r0,#0x3c]
        0x00000a36:    2304        .#      MOVS     r3,#4
        0x00000a38:    4318        .C      ORRS     r0,r0,r3
        0x00000a3a:    2305        .#      MOVS     r3,#5
        0x00000a3c:    071b        ..      LSLS     r3,r3,#28
        0x00000a3e:    63d8        .c      STR      r0,[r3,#0x3c]
        0x00000a40:    e219        ..      B        0xe76 ; DrvGPIO_InitFunction + 1858
        0x00000a42:    484d        MH      LDR      r0,[pc,#308] ; [0xb78] = 0x50000040
        0x00000a44:    6900        .i      LDR      r0,[r0,#0x10]
        0x00000a46:    2304        .#      MOVS     r3,#4
        0x00000a48:    4398        .C      BICS     r0,r0,r3
        0x00000a4a:    4b4b        KK      LDR      r3,[pc,#300] ; [0xb78] = 0x50000040
        0x00000a4c:    6118        .a      STR      r0,[r3,#0x10]
        0x00000a4e:    bf00        ..      NOP      
        0x00000a50:    bf00        ..      NOP      
        0x00000a52:    bf00        ..      NOP      
        0x00000a54:    bf00        ..      NOP      
        0x00000a56:    bf00        ..      NOP      
        0x00000a58:    bf00        ..      NOP      
        0x00000a5a:    4847        GH      LDR      r0,[pc,#284] ; [0xb78] = 0x50000040
        0x00000a5c:    6900        .i      LDR      r0,[r0,#0x10]
        0x00000a5e:    2301        .#      MOVS     r3,#1
        0x00000a60:    02db        ..      LSLS     r3,r3,#11
        0x00000a62:    4398        .C      BICS     r0,r0,r3
        0x00000a64:    4b44        DK      LDR      r3,[pc,#272] ; [0xb78] = 0x50000040
        0x00000a66:    6118        .a      STR      r0,[r3,#0x10]
        0x00000a68:    bf00        ..      NOP      
        0x00000a6a:    2005        .       MOVS     r0,#5
        0x00000a6c:    0700        ..      LSLS     r0,r0,#28
        0x00000a6e:    6b00        .k      LDR      r0,[r0,#0x30]
        0x00000a70:    460b        .F      MOV      r3,r1
        0x00000a72:    3b17        .;      SUBS     r3,r3,#0x17
        0x00000a74:    2401        .$      MOVS     r4,#1
        0x00000a76:    409c        .@      LSLS     r4,r4,r3
        0x00000a78:    4320         C      ORRS     r0,r0,r4
        0x00000a7a:    2305        .#      MOVS     r3,#5
        0x00000a7c:    071b        ..      LSLS     r3,r3,#28
        0x00000a7e:    6318        .c      STR      r0,[r3,#0x30]
        0x00000a80:    e1f9        ..      B        0xe76 ; DrvGPIO_InitFunction + 1858
        0x00000a82:    483d        =H      LDR      r0,[pc,#244] ; [0xb78] = 0x50000040
        0x00000a84:    6900        .i      LDR      r0,[r0,#0x10]
        0x00000a86:    2308        .#      MOVS     r3,#8
        0x00000a88:    4398        .C      BICS     r0,r0,r3
        0x00000a8a:    4b3b        ;K      LDR      r3,[pc,#236] ; [0xb78] = 0x50000040
        0x00000a8c:    6118        .a      STR      r0,[r3,#0x10]
        0x00000a8e:    bf00        ..      NOP      
        0x00000a90:    2005        .       MOVS     r0,#5
        0x00000a92:    0700        ..      LSLS     r0,r0,#28
        0x00000a94:    6b43        Ck      LDR      r3,[r0,#0x34]
        0x00000a96:    4608        .F      MOV      r0,r1
        0x00000a98:    3811        .8      SUBS     r0,r0,#0x11
        0x00000a9a:    2401        .$      MOVS     r4,#1
        0x00000a9c:    4084        .@      LSLS     r4,r4,r0
        0x00000a9e:    4323        #C      ORRS     r3,r3,r4
        0x00000aa0:    2005        .       MOVS     r0,#5
        0x00000aa2:    0700        ..      LSLS     r0,r0,#28
        0x00000aa4:    6343        Cc      STR      r3,[r0,#0x34]
        0x00000aa6:    e1e6        ..      B        0xe76 ; DrvGPIO_InitFunction + 1858
        0x00000aa8:    2005        .       MOVS     r0,#5
        0x00000aaa:    0700        ..      LSLS     r0,r0,#28
        0x00000aac:    6b40        @k      LDR      r0,[r0,#0x34]
        0x00000aae:    23ff        .#      MOVS     r3,#0xff
        0x00000ab0:    3301        .3      ADDS     r3,#1
        0x00000ab2:    4318        .C      ORRS     r0,r0,r3
        0x00000ab4:    2305        .#      MOVS     r3,#5
        0x00000ab6:    071b        ..      LSLS     r3,r3,#28
        0x00000ab8:    6358        Xc      STR      r0,[r3,#0x34]
        0x00000aba:    e1dc        ..      B        0xe76 ; DrvGPIO_InitFunction + 1858
        0x00000abc:    2005        .       MOVS     r0,#5
        0x00000abe:    0700        ..      LSLS     r0,r0,#28
        0x00000ac0:    6b40        @k      LDR      r0,[r0,#0x34]
        0x00000ac2:    2301        .#      MOVS     r3,#1
        0x00000ac4:    025b        [.      LSLS     r3,r3,#9
        0x00000ac6:    4318        .C      ORRS     r0,r0,r3
        0x00000ac8:    2305        .#      MOVS     r3,#5
        0x00000aca:    071b        ..      LSLS     r3,r3,#28
        0x00000acc:    6358        Xc      STR      r0,[r3,#0x34]
        0x00000ace:    482a        *H      LDR      r0,[pc,#168] ; [0xb78] = 0x50000040
        0x00000ad0:    6900        .i      LDR      r0,[r0,#0x10]
        0x00000ad2:    2302        .#      MOVS     r3,#2
        0x00000ad4:    4398        .C      BICS     r0,r0,r3
        0x00000ad6:    4b28        (K      LDR      r3,[pc,#160] ; [0xb78] = 0x50000040
        0x00000ad8:    6118        .a      STR      r0,[r3,#0x10]
        0x00000ada:    e1cc        ..      B        0xe76 ; DrvGPIO_InitFunction + 1858
        0x00000adc:    2005        .       MOVS     r0,#5
        0x00000ade:    0700        ..      LSLS     r0,r0,#28
        0x00000ae0:    6b40        @k      LDR      r0,[r0,#0x34]
        0x00000ae2:    2301        .#      MOVS     r3,#1
        0x00000ae4:    029b        ..      LSLS     r3,r3,#10
        0x00000ae6:    4318        .C      ORRS     r0,r0,r3
        0x00000ae8:    2305        .#      MOVS     r3,#5
        0x00000aea:    071b        ..      LSLS     r3,r3,#28
        0x00000aec:    6358        Xc      STR      r0,[r3,#0x34]
        0x00000aee:    4822        "H      LDR      r0,[pc,#136] ; [0xb78] = 0x50000040
        0x00000af0:    6900        .i      LDR      r0,[r0,#0x10]
        0x00000af2:    0840        @.      LSRS     r0,r0,#1
        0x00000af4:    0040        @.      LSLS     r0,r0,#1
        0x00000af6:    4b20         K      LDR      r3,[pc,#128] ; [0xb78] = 0x50000040
        0x00000af8:    6118        .a      STR      r0,[r3,#0x10]
        0x00000afa:    e1bc        ..      B        0xe76 ; DrvGPIO_InitFunction + 1858
        0x00000afc:    2005        .       MOVS     r0,#5
        0x00000afe:    0700        ..      LSLS     r0,r0,#28
        0x00000b00:    6b40        @k      LDR      r0,[r0,#0x34]
        0x00000b02:    2301        .#      MOVS     r3,#1
        0x00000b04:    02db        ..      LSLS     r3,r3,#11
        0x00000b06:    4318        .C      ORRS     r0,r0,r3
        0x00000b08:    2305        .#      MOVS     r3,#5
        0x00000b0a:    071b        ..      LSLS     r3,r3,#28
        0x00000b0c:    6358        Xc      STR      r0,[r3,#0x34]
        0x00000b0e:    481a        .H      LDR      r0,[pc,#104] ; [0xb78] = 0x50000040
        0x00000b10:    6900        .i      LDR      r0,[r0,#0x10]
        0x00000b12:    2310        .#      MOVS     r3,#0x10
        0x00000b14:    4398        .C      BICS     r0,r0,r3
        0x00000b16:    4b18        .K      LDR      r3,[pc,#96] ; [0xb78] = 0x50000040
        0x00000b18:    6118        .a      STR      r0,[r3,#0x10]
        0x00000b1a:    e1ac        ..      B        0xe76 ; DrvGPIO_InitFunction + 1858
        0x00000b1c:    2005        .       MOVS     r0,#5
        0x00000b1e:    0700        ..      LSLS     r0,r0,#28
        0x00000b20:    6b40        @k      LDR      r0,[r0,#0x34]
        0x00000b22:    2301        .#      MOVS     r3,#1
        0x00000b24:    03db        ..      LSLS     r3,r3,#15
        0x00000b26:    4318        .C      ORRS     r0,r0,r3
        0x00000b28:    2305        .#      MOVS     r3,#5
        0x00000b2a:    071b        ..      LSLS     r3,r3,#28
        0x00000b2c:    6358        Xc      STR      r0,[r3,#0x34]
        0x00000b2e:    4812        .H      LDR      r0,[pc,#72] ; [0xb78] = 0x50000040
        0x00000b30:    6900        .i      LDR      r0,[r0,#0x10]
        0x00000b32:    2301        .#      MOVS     r3,#1
        0x00000b34:    061b        ..      LSLS     r3,r3,#24
        0x00000b36:    4318        .C      ORRS     r0,r0,r3
        0x00000b38:    4b0f        .K      LDR      r3,[pc,#60] ; [0xb78] = 0x50000040
        0x00000b3a:    6118        .a      STR      r0,[r3,#0x10]
        0x00000b3c:    e19b        ..      B        0xe76 ; DrvGPIO_InitFunction + 1858
        0x00000b3e:    480e        .H      LDR      r0,[pc,#56] ; [0xb78] = 0x50000040
        0x00000b40:    6800        .h      LDR      r0,[r0,#0]
        0x00000b42:    2320         #      MOVS     r3,#0x20
        0x00000b44:    4318        .C      ORRS     r0,r0,r3
        0x00000b46:    4b0c        .K      LDR      r3,[pc,#48] ; [0xb78] = 0x50000040
        0x00000b48:    6018        .`      STR      r0,[r3,#0]
        0x00000b4a:    4618        .F      MOV      r0,r3
        0x00000b4c:    6900        .i      LDR      r0,[r0,#0x10]
        0x00000b4e:    04db        ..      LSLS     r3,r3,#19
        0x00000b50:    4318        .C      ORRS     r0,r0,r3
        0x00000b52:    4b09        .K      LDR      r3,[pc,#36] ; [0xb78] = 0x50000040
        0x00000b54:    6118        .a      STR      r0,[r3,#0x10]
        0x00000b56:    e18e        ..      B        0xe76 ; DrvGPIO_InitFunction + 1858
        0x00000b58:    2005        .       MOVS     r0,#5
        0x00000b5a:    0700        ..      LSLS     r0,r0,#28
        0x00000b5c:    6b40        @k      LDR      r0,[r0,#0x34]
        0x00000b5e:    2304        .#      MOVS     r3,#4
        0x00000b60:    4318        .C      ORRS     r0,r0,r3
        0x00000b62:    2305        .#      MOVS     r3,#5
        0x00000b64:    071b        ..      LSLS     r3,r3,#28
        0x00000b66:    6358        Xc      STR      r0,[r3,#0x34]
        0x00000b68:    4803        .H      LDR      r0,[pc,#12] ; [0xb78] = 0x50000040
        0x00000b6a:    6900        .i      LDR      r0,[r0,#0x10]
        0x00000b6c:    2301        .#      MOVS     r3,#1
        0x00000b6e:    069b        ..      LSLS     r3,r3,#26
        0x00000b70:    4318        .C      ORRS     r0,r0,r3
        0x00000b72:    4b01        .K      LDR      r3,[pc,#4] ; [0xb78] = 0x50000040
        0x00000b74:    6118        .a      STR      r0,[r3,#0x10]
        0x00000b76:    e17e        ~.      B        0xe76 ; DrvGPIO_InitFunction + 1858
    $d
        0x00000b78:    50000040    @..P    DCD    1342177344
    $t
        0x00000b7c:    2005        .       MOVS     r0,#5
        0x00000b7e:    0700        ..      LSLS     r0,r0,#28
        0x00000b80:    6b40        @k      LDR      r0,[r0,#0x34]
        0x00000b82:    2308        .#      MOVS     r3,#8
        0x00000b84:    4318        .C      ORRS     r0,r0,r3
        0x00000b86:    2305        .#      MOVS     r3,#5
        0x00000b88:    071b        ..      LSLS     r3,r3,#28
        0x00000b8a:    6358        Xc      STR      r0,[r3,#0x34]
        0x00000b8c:    48bb        .H      LDR      r0,[pc,#748] ; [0xe7c] = 0x50000040
        0x00000b8e:    6900        .i      LDR      r0,[r0,#0x10]
        0x00000b90:    2301        .#      MOVS     r3,#1
        0x00000b92:    06db        ..      LSLS     r3,r3,#27
        0x00000b94:    4318        .C      ORRS     r0,r0,r3
        0x00000b96:    4bb9        .K      LDR      r3,[pc,#740] ; [0xe7c] = 0x50000040
        0x00000b98:    6118        .a      STR      r0,[r3,#0x10]
        0x00000b9a:    e16c        l.      B        0xe76 ; DrvGPIO_InitFunction + 1858
        0x00000b9c:    bf00        ..      NOP      
        0x00000b9e:    bf00        ..      NOP      
        0x00000ba0:    bf00        ..      NOP      
        0x00000ba2:    bf00        ..      NOP      
        0x00000ba4:    bf00        ..      NOP      
        0x00000ba6:    2929        ))      CMP      r1,#0x29
        0x00000ba8:    db03        ..      BLT      0xbb2 ; DrvGPIO_InitFunction + 1150
        0x00000baa:    292b        +)      CMP      r1,#0x2b
        0x00000bac:    dc01        ..      BGT      0xbb2 ; DrvGPIO_InitFunction + 1150
        0x00000bae:    2200        ."      MOVS     r2,#0
        0x00000bb0:    e000        ..      B        0xbb4 ; DrvGPIO_InitFunction + 1152
        0x00000bb2:    2204        ."      MOVS     r2,#4
        0x00000bb4:    2929        ))      CMP      r1,#0x29
        0x00000bb6:    d001        ..      BEQ      0xbbc ; DrvGPIO_InitFunction + 1160
        0x00000bb8:    292c        ,)      CMP      r1,#0x2c
        0x00000bba:    d110        ..      BNE      0xbde ; DrvGPIO_InitFunction + 1194
        0x00000bbc:    2005        .       MOVS     r0,#5
        0x00000bbe:    0700        ..      LSLS     r0,r0,#28
        0x00000bc0:    6b40        @k      LDR      r0,[r0,#0x34]
        0x00000bc2:    230f        .#      MOVS     r3,#0xf
        0x00000bc4:    4093        .@      LSLS     r3,r3,r2
        0x00000bc6:    4318        .C      ORRS     r0,r0,r3
        0x00000bc8:    2305        .#      MOVS     r3,#5
        0x00000bca:    071b        ..      LSLS     r3,r3,#28
        0x00000bcc:    6358        Xc      STR      r0,[r3,#0x34]
        0x00000bce:    48ab        .H      LDR      r0,[pc,#684] ; [0xe7c] = 0x50000040
        0x00000bd0:    6900        .i      LDR      r0,[r0,#0x10]
        0x00000bd2:    2301        .#      MOVS     r3,#1
        0x00000bd4:    02db        ..      LSLS     r3,r3,#11
        0x00000bd6:    4398        .C      BICS     r0,r0,r3
        0x00000bd8:    4ba8        .K      LDR      r3,[pc,#672] ; [0xe7c] = 0x50000040
        0x00000bda:    6118        .a      STR      r0,[r3,#0x10]
        0x00000bdc:    e022        ".      B        0xc24 ; DrvGPIO_InitFunction + 1264
        0x00000bde:    292a        *)      CMP      r1,#0x2a
        0x00000be0:    d001        ..      BEQ      0xbe6 ; DrvGPIO_InitFunction + 1202
        0x00000be2:    292d        -)      CMP      r1,#0x2d
        0x00000be4:    d109        ..      BNE      0xbfa ; DrvGPIO_InitFunction + 1222
        0x00000be6:    2005        .       MOVS     r0,#5
        0x00000be8:    0700        ..      LSLS     r0,r0,#28
        0x00000bea:    6b40        @k      LDR      r0,[r0,#0x34]
        0x00000bec:    2303        .#      MOVS     r3,#3
        0x00000bee:    4093        .@      LSLS     r3,r3,r2
        0x00000bf0:    4318        .C      ORRS     r0,r0,r3
        0x00000bf2:    2305        .#      MOVS     r3,#5
        0x00000bf4:    071b        ..      LSLS     r3,r3,#28
        0x00000bf6:    6358        Xc      STR      r0,[r3,#0x34]
        0x00000bf8:    e014        ..      B        0xc24 ; DrvGPIO_InitFunction + 1264
        0x00000bfa:    292b        +)      CMP      r1,#0x2b
        0x00000bfc:    d001        ..      BEQ      0xc02 ; DrvGPIO_InitFunction + 1230
        0x00000bfe:    292e        .)      CMP      r1,#0x2e
        0x00000c00:    d110        ..      BNE      0xc24 ; DrvGPIO_InitFunction + 1264
        0x00000c02:    2005        .       MOVS     r0,#5
        0x00000c04:    0700        ..      LSLS     r0,r0,#28
        0x00000c06:    6b40        @k      LDR      r0,[r0,#0x34]
        0x00000c08:    1c93        ..      ADDS     r3,r2,#2
        0x00000c0a:    2403        .$      MOVS     r4,#3
        0x00000c0c:    409c        .@      LSLS     r4,r4,r3
        0x00000c0e:    4320         C      ORRS     r0,r0,r4
        0x00000c10:    2305        .#      MOVS     r3,#5
        0x00000c12:    071b        ..      LSLS     r3,r3,#28
        0x00000c14:    6358        Xc      STR      r0,[r3,#0x34]
        0x00000c16:    4899        .H      LDR      r0,[pc,#612] ; [0xe7c] = 0x50000040
        0x00000c18:    6900        .i      LDR      r0,[r0,#0x10]
        0x00000c1a:    2301        .#      MOVS     r3,#1
        0x00000c1c:    02db        ..      LSLS     r3,r3,#11
        0x00000c1e:    4398        .C      BICS     r0,r0,r3
        0x00000c20:    4b96        .K      LDR      r3,[pc,#600] ; [0xe7c] = 0x50000040
        0x00000c22:    6118        .a      STR      r0,[r3,#0x10]
        0x00000c24:    e127        '.      B        0xe76 ; DrvGPIO_InitFunction + 1858
        0x00000c26:    2005        .       MOVS     r0,#5
        0x00000c28:    0700        ..      LSLS     r0,r0,#28
        0x00000c2a:    6bc0        .k      LDR      r0,[r0,#0x3c]
        0x00000c2c:    2303        .#      MOVS     r3,#3
        0x00000c2e:    039b        ..      LSLS     r3,r3,#14
        0x00000c30:    4318        .C      ORRS     r0,r0,r3
        0x00000c32:    2305        .#      MOVS     r3,#5
        0x00000c34:    071b        ..      LSLS     r3,r3,#28
        0x00000c36:    63d8        .c      STR      r0,[r3,#0x3c]
        0x00000c38:    e11d        ..      B        0xe76 ; DrvGPIO_InitFunction + 1858
        0x00000c3a:    bf00        ..      NOP      
        0x00000c3c:    bf00        ..      NOP      
        0x00000c3e:    2930        0)      CMP      r1,#0x30
        0x00000c40:    d108        ..      BNE      0xc54 ; DrvGPIO_InitFunction + 1312
        0x00000c42:    2005        .       MOVS     r0,#5
        0x00000c44:    0700        ..      LSLS     r0,r0,#28
        0x00000c46:    6b00        .k      LDR      r0,[r0,#0x30]
        0x00000c48:    020b        ..      LSLS     r3,r1,#8
        0x00000c4a:    4318        .C      ORRS     r0,r0,r3
        0x00000c4c:    2305        .#      MOVS     r3,#5
        0x00000c4e:    071b        ..      LSLS     r3,r3,#28
        0x00000c50:    6318        .c      STR      r0,[r3,#0x30]
        0x00000c52:    e00a        ..      B        0xc6a ; DrvGPIO_InitFunction + 1334
        0x00000c54:    2005        .       MOVS     r0,#5
        0x00000c56:    0700        ..      LSLS     r0,r0,#28
        0x00000c58:    6b03        .k      LDR      r3,[r0,#0x30]
        0x00000c5a:    4608        .F      MOV      r0,r1
        0x00000c5c:    3828        (8      SUBS     r0,r0,#0x28
        0x00000c5e:    2401        .$      MOVS     r4,#1
        0x00000c60:    4084        .@      LSLS     r4,r4,r0
        0x00000c62:    4323        #C      ORRS     r3,r3,r4
        0x00000c64:    2005        .       MOVS     r0,#5
        0x00000c66:    0700        ..      LSLS     r0,r0,#28
        0x00000c68:    6303        .c      STR      r3,[r0,#0x30]
        0x00000c6a:    4884        .H      LDR      r0,[pc,#528] ; [0xe7c] = 0x50000040
        0x00000c6c:    6900        .i      LDR      r0,[r0,#0x10]
        0x00000c6e:    2301        .#      MOVS     r3,#1
        0x00000c70:    02db        ..      LSLS     r3,r3,#11
        0x00000c72:    4398        .C      BICS     r0,r0,r3
        0x00000c74:    4b81        .K      LDR      r3,[pc,#516] ; [0xe7c] = 0x50000040
        0x00000c76:    6118        .a      STR      r0,[r3,#0x10]
        0x00000c78:    e0fd        ..      B        0xe76 ; DrvGPIO_InitFunction + 1858
        0x00000c7a:    bf00        ..      NOP      
        0x00000c7c:    bf00        ..      NOP      
        0x00000c7e:    2931        1)      CMP      r1,#0x31
        0x00000c80:    d116        ..      BNE      0xcb0 ; DrvGPIO_InitFunction + 1404
        0x00000c82:    2005        .       MOVS     r0,#5
        0x00000c84:    0700        ..      LSLS     r0,r0,#28
        0x00000c86:    6b00        .k      LDR      r0,[r0,#0x30]
        0x00000c88:    2303        .#      MOVS     r3,#3
        0x00000c8a:    039b        ..      LSLS     r3,r3,#14
        0x00000c8c:    4318        .C      ORRS     r0,r0,r3
        0x00000c8e:    2305        .#      MOVS     r3,#5
        0x00000c90:    071b        ..      LSLS     r3,r3,#28
        0x00000c92:    6318        .c      STR      r0,[r3,#0x30]
        0x00000c94:    4879        yH      LDR      r0,[pc,#484] ; [0xe7c] = 0x50000040
        0x00000c96:    6900        .i      LDR      r0,[r0,#0x10]
        0x00000c98:    2301        .#      MOVS     r3,#1
        0x00000c9a:    025b        [.      LSLS     r3,r3,#9
        0x00000c9c:    4398        .C      BICS     r0,r0,r3
        0x00000c9e:    4b77        wK      LDR      r3,[pc,#476] ; [0xe7c] = 0x50000040
        0x00000ca0:    6118        .a      STR      r0,[r3,#0x10]
        0x00000ca2:    4618        .F      MOV      r0,r3
        0x00000ca4:    6900        .i      LDR      r0,[r0,#0x10]
        0x00000ca6:    015b        [.      LSLS     r3,r3,#5
        0x00000ca8:    4398        .C      BICS     r0,r0,r3
        0x00000caa:    4b74        tK      LDR      r3,[pc,#464] ; [0xe7c] = 0x50000040
        0x00000cac:    6118        .a      STR      r0,[r3,#0x10]
        0x00000cae:    e01b        ..      B        0xce8 ; DrvGPIO_InitFunction + 1460
        0x00000cb0:    2005        .       MOVS     r0,#5
        0x00000cb2:    0700        ..      LSLS     r0,r0,#28
        0x00000cb4:    6b03        .k      LDR      r3,[r0,#0x30]
        0x00000cb6:    4608        .F      MOV      r0,r1
        0x00000cb8:    3828        (8      SUBS     r0,r0,#0x28
        0x00000cba:    2401        .$      MOVS     r4,#1
        0x00000cbc:    4084        .@      LSLS     r4,r4,r0
        0x00000cbe:    4323        #C      ORRS     r3,r3,r4
        0x00000cc0:    2005        .       MOVS     r0,#5
        0x00000cc2:    0700        ..      LSLS     r0,r0,#28
        0x00000cc4:    6303        .c      STR      r3,[r0,#0x30]
        0x00000cc6:    2936        6)      CMP      r1,#0x36
        0x00000cc8:    d107        ..      BNE      0xcda ; DrvGPIO_InitFunction + 1446
        0x00000cca:    486c        lH      LDR      r0,[pc,#432] ; [0xe7c] = 0x50000040
        0x00000ccc:    6900        .i      LDR      r0,[r0,#0x10]
        0x00000cce:    2301        .#      MOVS     r3,#1
        0x00000cd0:    02db        ..      LSLS     r3,r3,#11
        0x00000cd2:    4398        .C      BICS     r0,r0,r3
        0x00000cd4:    4b69        iK      LDR      r3,[pc,#420] ; [0xe7c] = 0x50000040
        0x00000cd6:    6118        .a      STR      r0,[r3,#0x10]
        0x00000cd8:    e006        ..      B        0xce8 ; DrvGPIO_InitFunction + 1460
        0x00000cda:    4868        hH      LDR      r0,[pc,#416] ; [0xe7c] = 0x50000040
        0x00000cdc:    6900        .i      LDR      r0,[r0,#0x10]
        0x00000cde:    2301        .#      MOVS     r3,#1
        0x00000ce0:    025b        [.      LSLS     r3,r3,#9
        0x00000ce2:    4398        .C      BICS     r0,r0,r3
        0x00000ce4:    4b65        eK      LDR      r3,[pc,#404] ; [0xe7c] = 0x50000040
        0x00000ce6:    6118        .a      STR      r0,[r3,#0x10]
        0x00000ce8:    e0c5        ..      B        0xe76 ; DrvGPIO_InitFunction + 1858
        0x00000cea:    bf00        ..      NOP      
        0x00000cec:    bf00        ..      NOP      
        0x00000cee:    2932        2)      CMP      r1,#0x32
        0x00000cf0:    d115        ..      BNE      0xd1e ; DrvGPIO_InitFunction + 1514
        0x00000cf2:    2005        .       MOVS     r0,#5
        0x00000cf4:    0700        ..      LSLS     r0,r0,#28
        0x00000cf6:    6b40        @k      LDR      r0,[r0,#0x34]
        0x00000cf8:    2301        .#      MOVS     r3,#1
        0x00000cfa:    02db        ..      LSLS     r3,r3,#11
        0x00000cfc:    4318        .C      ORRS     r0,r0,r3
        0x00000cfe:    2305        .#      MOVS     r3,#5
        0x00000d00:    071b        ..      LSLS     r3,r3,#28
        0x00000d02:    6358        Xc      STR      r0,[r3,#0x34]
        0x00000d04:    485d        ]H      LDR      r0,[pc,#372] ; [0xe7c] = 0x50000040
        0x00000d06:    6900        .i      LDR      r0,[r0,#0x10]
        0x00000d08:    2310        .#      MOVS     r3,#0x10
        0x00000d0a:    4318        .C      ORRS     r0,r0,r3
        0x00000d0c:    4b5b        [K      LDR      r3,[pc,#364] ; [0xe7c] = 0x50000040
        0x00000d0e:    6118        .a      STR      r0,[r3,#0x10]
        0x00000d10:    4618        .F      MOV      r0,r3
        0x00000d12:    6800        .h      LDR      r0,[r0,#0]
        0x00000d14:    2320         #      MOVS     r3,#0x20
        0x00000d16:    4318        .C      ORRS     r0,r0,r3
        0x00000d18:    4b58        XK      LDR      r3,[pc,#352] ; [0xe7c] = 0x50000040
        0x00000d1a:    6018        .`      STR      r0,[r3,#0]
        0x00000d1c:    e017        ..      B        0xd4e ; DrvGPIO_InitFunction + 1562
        0x00000d1e:    2938        8)      CMP      r1,#0x38
        0x00000d20:    d10f        ..      BNE      0xd42 ; DrvGPIO_InitFunction + 1550
        0x00000d22:    2005        .       MOVS     r0,#5
        0x00000d24:    0700        ..      LSLS     r0,r0,#28
        0x00000d26:    6b40        @k      LDR      r0,[r0,#0x34]
        0x00000d28:    2301        .#      MOVS     r3,#1
        0x00000d2a:    02db        ..      LSLS     r3,r3,#11
        0x00000d2c:    4318        .C      ORRS     r0,r0,r3
        0x00000d2e:    2305        .#      MOVS     r3,#5
        0x00000d30:    071b        ..      LSLS     r3,r3,#28
        0x00000d32:    6358        Xc      STR      r0,[r3,#0x34]
        0x00000d34:    4851        QH      LDR      r0,[pc,#324] ; [0xe7c] = 0x50000040
        0x00000d36:    6900        .i      LDR      r0,[r0,#0x10]
        0x00000d38:    2310        .#      MOVS     r3,#0x10
        0x00000d3a:    4318        .C      ORRS     r0,r0,r3
        0x00000d3c:    4b4f        OK      LDR      r3,[pc,#316] ; [0xe7c] = 0x50000040
        0x00000d3e:    6118        .a      STR      r0,[r3,#0x10]
        0x00000d40:    e005        ..      B        0xd4e ; DrvGPIO_InitFunction + 1562
        0x00000d42:    484e        NH      LDR      r0,[pc,#312] ; [0xe7c] = 0x50000040
        0x00000d44:    6800        .h      LDR      r0,[r0,#0]
        0x00000d46:    2320         #      MOVS     r3,#0x20
        0x00000d48:    4318        .C      ORRS     r0,r0,r3
        0x00000d4a:    4b4c        LK      LDR      r3,[pc,#304] ; [0xe7c] = 0x50000040
        0x00000d4c:    6018        .`      STR      r0,[r3,#0]
        0x00000d4e:    e092        ..      B        0xe76 ; DrvGPIO_InitFunction + 1858
        0x00000d50:    bf00        ..      NOP      
        0x00000d52:    bf00        ..      NOP      
        0x00000d54:    2933        3)      CMP      r1,#0x33
        0x00000d56:    d106        ..      BNE      0xd66 ; DrvGPIO_InitFunction + 1586
        0x00000d58:    4848        HH      LDR      r0,[pc,#288] ; [0xe7c] = 0x50000040
        0x00000d5a:    6800        .h      LDR      r0,[r0,#0]
        0x00000d5c:    2303        .#      MOVS     r3,#3
        0x00000d5e:    4318        .C      ORRS     r0,r0,r3
        0x00000d60:    4b46        FK      LDR      r3,[pc,#280] ; [0xe7c] = 0x50000040
        0x00000d62:    6018        .`      STR      r0,[r3,#0]
        0x00000d64:    e00e        ..      B        0xd84 ; DrvGPIO_InitFunction + 1616
        0x00000d66:    293a        :)      CMP      r1,#0x3a
        0x00000d68:    d106        ..      BNE      0xd78 ; DrvGPIO_InitFunction + 1604
        0x00000d6a:    4844        DH      LDR      r0,[pc,#272] ; [0xe7c] = 0x50000040
        0x00000d6c:    6800        .h      LDR      r0,[r0,#0]
        0x00000d6e:    2301        .#      MOVS     r3,#1
        0x00000d70:    4318        .C      ORRS     r0,r0,r3
        0x00000d72:    4b42        BK      LDR      r3,[pc,#264] ; [0xe7c] = 0x50000040
        0x00000d74:    6018        .`      STR      r0,[r3,#0]
        0x00000d76:    e005        ..      B        0xd84 ; DrvGPIO_InitFunction + 1616
        0x00000d78:    4840        @H      LDR      r0,[pc,#256] ; [0xe7c] = 0x50000040
        0x00000d7a:    6800        .h      LDR      r0,[r0,#0]
        0x00000d7c:    2302        .#      MOVS     r3,#2
        0x00000d7e:    4318        .C      ORRS     r0,r0,r3
        0x00000d80:    4b3e        >K      LDR      r3,[pc,#248] ; [0xe7c] = 0x50000040
        0x00000d82:    6018        .`      STR      r0,[r3,#0]
        0x00000d84:    e077        w.      B        0xe76 ; DrvGPIO_InitFunction + 1858
        0x00000d86:    2005        .       MOVS     r0,#5
        0x00000d88:    0700        ..      LSLS     r0,r0,#28
        0x00000d8a:    6b40        @k      LDR      r0,[r0,#0x34]
        0x00000d8c:    230c        .#      MOVS     r3,#0xc
        0x00000d8e:    4318        .C      ORRS     r0,r0,r3
        0x00000d90:    2305        .#      MOVS     r3,#5
        0x00000d92:    071b        ..      LSLS     r3,r3,#28
        0x00000d94:    6358        Xc      STR      r0,[r3,#0x34]
        0x00000d96:    4839        9H      LDR      r0,[pc,#228] ; [0xe7c] = 0x50000040
        0x00000d98:    6900        .i      LDR      r0,[r0,#0x10]
        0x00000d9a:    2303        .#      MOVS     r3,#3
        0x00000d9c:    035b        [.      LSLS     r3,r3,#13
        0x00000d9e:    4318        .C      ORRS     r0,r0,r3
        0x00000da0:    4b36        6K      LDR      r3,[pc,#216] ; [0xe7c] = 0x50000040
        0x00000da2:    6118        .a      STR      r0,[r3,#0x10]
        0x00000da4:    2005        .       MOVS     r0,#5
        0x00000da6:    0700        ..      LSLS     r0,r0,#28
        0x00000da8:    6b00        .k      LDR      r0,[r0,#0x30]
        0x00000daa:    4b35        5K      LDR      r3,[pc,#212] ; [0xe80] = 0x703e
        0x00000dac:    4318        .C      ORRS     r0,r0,r3
        0x00000dae:    2305        .#      MOVS     r3,#5
        0x00000db0:    071b        ..      LSLS     r3,r3,#28
        0x00000db2:    6318        .c      STR      r0,[r3,#0x30]
        0x00000db4:    4831        1H      LDR      r0,[pc,#196] ; [0xe7c] = 0x50000040
        0x00000db6:    6900        .i      LDR      r0,[r0,#0x10]
        0x00000db8:    23ff        .#      MOVS     r3,#0xff
        0x00000dba:    041b        ..      LSLS     r3,r3,#16
        0x00000dbc:    4318        .C      ORRS     r0,r0,r3
        0x00000dbe:    4b2f        /K      LDR      r3,[pc,#188] ; [0xe7c] = 0x50000040
        0x00000dc0:    6118        .a      STR      r0,[r3,#0x10]
        0x00000dc2:    bf00        ..      NOP      
        0x00000dc4:    293c        <)      CMP      r1,#0x3c
        0x00000dc6:    d11e        ..      BNE      0xe06 ; DrvGPIO_InitFunction + 1746
        0x00000dc8:    2005        .       MOVS     r0,#5
        0x00000dca:    0700        ..      LSLS     r0,r0,#28
        0x00000dcc:    6b40        @k      LDR      r0,[r0,#0x34]
        0x00000dce:    230c        .#      MOVS     r3,#0xc
        0x00000dd0:    4398        .C      BICS     r0,r0,r3
        0x00000dd2:    2305        .#      MOVS     r3,#5
        0x00000dd4:    071b        ..      LSLS     r3,r3,#28
        0x00000dd6:    6358        Xc      STR      r0,[r3,#0x34]
        0x00000dd8:    4828        (H      LDR      r0,[pc,#160] ; [0xe7c] = 0x50000040
        0x00000dda:    6900        .i      LDR      r0,[r0,#0x10]
        0x00000ddc:    2303        .#      MOVS     r3,#3
        0x00000dde:    035b        [.      LSLS     r3,r3,#13
        0x00000de0:    4398        .C      BICS     r0,r0,r3
        0x00000de2:    4b26        &K      LDR      r3,[pc,#152] ; [0xe7c] = 0x50000040
        0x00000de4:    6118        .a      STR      r0,[r3,#0x10]
        0x00000de6:    2005        .       MOVS     r0,#5
        0x00000de8:    0700        ..      LSLS     r0,r0,#28
        0x00000dea:    6b00        .k      LDR      r0,[r0,#0x30]
        0x00000dec:    4b24        $K      LDR      r3,[pc,#144] ; [0xe80] = 0x703e
        0x00000dee:    43db        .C      MVNS     r3,r3
        0x00000df0:    4018        .@      ANDS     r0,r0,r3
        0x00000df2:    2305        .#      MOVS     r3,#5
        0x00000df4:    071b        ..      LSLS     r3,r3,#28
        0x00000df6:    6318        .c      STR      r0,[r3,#0x30]
        0x00000df8:    4820         H      LDR      r0,[pc,#128] ; [0xe7c] = 0x50000040
        0x00000dfa:    6900        .i      LDR      r0,[r0,#0x10]
        0x00000dfc:    23ff        .#      MOVS     r3,#0xff
        0x00000dfe:    041b        ..      LSLS     r3,r3,#16
        0x00000e00:    4398        .C      BICS     r0,r0,r3
        0x00000e02:    4b1e        .K      LDR      r3,[pc,#120] ; [0xe7c] = 0x50000040
        0x00000e04:    6118        .a      STR      r0,[r3,#0x10]
        0x00000e06:    481d        .H      LDR      r0,[pc,#116] ; [0xe7c] = 0x50000040
        0x00000e08:    6900        .i      LDR      r0,[r0,#0x10]
        0x00000e0a:    2303        .#      MOVS     r3,#3
        0x00000e0c:    02db        ..      LSLS     r3,r3,#11
        0x00000e0e:    4318        .C      ORRS     r0,r0,r3
        0x00000e10:    4b1a        .K      LDR      r3,[pc,#104] ; [0xe7c] = 0x50000040
        0x00000e12:    6118        .a      STR      r0,[r3,#0x10]
        0x00000e14:    2005        .       MOVS     r0,#5
        0x00000e16:    0700        ..      LSLS     r0,r0,#28
        0x00000e18:    6b80        .k      LDR      r0,[r0,#0x38]
        0x00000e1a:    23ff        .#      MOVS     r3,#0xff
        0x00000e1c:    3301        .3      ADDS     r3,#1
        0x00000e1e:    4318        .C      ORRS     r0,r0,r3
        0x00000e20:    2305        .#      MOVS     r3,#5
        0x00000e22:    071b        ..      LSLS     r3,r3,#28
        0x00000e24:    6398        .c      STR      r0,[r3,#0x38]
        0x00000e26:    4618        .F      MOV      r0,r3
        0x00000e28:    6b00        .k      LDR      r0,[r0,#0x30]
        0x00000e2a:    2303        .#      MOVS     r3,#3
        0x00000e2c:    029b        ..      LSLS     r3,r3,#10
        0x00000e2e:    4318        .C      ORRS     r0,r0,r3
        0x00000e30:    2305        .#      MOVS     r3,#5
        0x00000e32:    071b        ..      LSLS     r3,r3,#28
        0x00000e34:    6318        .c      STR      r0,[r3,#0x30]
        0x00000e36:    4618        .F      MOV      r0,r3
        0x00000e38:    6b40        @k      LDR      r0,[r0,#0x34]
        0x00000e3a:    23c0        .#      MOVS     r3,#0xc0
        0x00000e3c:    4318        .C      ORRS     r0,r0,r3
        0x00000e3e:    2305        .#      MOVS     r3,#5
        0x00000e40:    071b        ..      LSLS     r3,r3,#28
        0x00000e42:    6358        Xc      STR      r0,[r3,#0x34]
        0x00000e44:    4618        .F      MOV      r0,r3
        0x00000e46:    6b00        .k      LDR      r0,[r0,#0x30]
        0x00000e48:    23c0        .#      MOVS     r3,#0xc0
        0x00000e4a:    4318        .C      ORRS     r0,r0,r3
        0x00000e4c:    2305        .#      MOVS     r3,#5
        0x00000e4e:    071b        ..      LSLS     r3,r3,#28
        0x00000e50:    6318        .c      STR      r0,[r3,#0x30]
        0x00000e52:    4618        .F      MOV      r0,r3
        0x00000e54:    6b80        .k      LDR      r0,[r0,#0x38]
        0x00000e56:    4b0b        .K      LDR      r3,[pc,#44] ; [0xe84] = 0xc0c0
        0x00000e58:    4318        .C      ORRS     r0,r0,r3
        0x00000e5a:    2305        .#      MOVS     r3,#5
        0x00000e5c:    071b        ..      LSLS     r3,r3,#28
        0x00000e5e:    6398        .c      STR      r0,[r3,#0x38]
        0x00000e60:    4618        .F      MOV      r0,r3
        0x00000e62:    6b40        @k      LDR      r0,[r0,#0x34]
        0x00000e64:    2303        .#      MOVS     r3,#3
        0x00000e66:    031b        ..      LSLS     r3,r3,#12
        0x00000e68:    4318        .C      ORRS     r0,r0,r3
        0x00000e6a:    2305        .#      MOVS     r3,#5
        0x00000e6c:    071b        ..      LSLS     r3,r3,#28
        0x00000e6e:    6358        Xc      STR      r0,[r3,#0x34]
        0x00000e70:    e001        ..      B        0xe76 ; DrvGPIO_InitFunction + 1858
        0x00000e72:    4805        .H      LDR      r0,[pc,#20] ; [0xe88] = 0xffff8901
        0x00000e74:    bd10        ..      POP      {r4,pc}
        0x00000e76:    bf00        ..      NOP      
        0x00000e78:    2000        .       MOVS     r0,#0
        0x00000e7a:    e7fb        ..      B        0xe74 ; DrvGPIO_InitFunction + 1856
    $d
        0x00000e7c:    50000040    @..P    DCD    1342177344
        0x00000e80:    0000703e    >p..    DCD    28734
        0x00000e84:    0000c0c0    ....    DCD    49344
        0x00000e88:    ffff8901    ....    DCD    4294936833
    $t
    i.DrvI2C_Close
    DrvI2C_Close
        0x00000e8c:    4601        .F      MOV      r1,r0
        0x00000e8e:    2900        .)      CMP      r1,#0
        0x00000e90:    d01e        ..      BEQ      0xed0 ; DrvI2C_Close + 68
        0x00000e92:    481f        .H      LDR      r0,[pc,#124] ; [0xf10] = 0x40120000
        0x00000e94:    6800        .h      LDR      r0,[r0,#0]
        0x00000e96:    2240        @"      MOVS     r2,#0x40
        0x00000e98:    4390        .C      BICS     r0,r0,r2
        0x00000e9a:    4a1d        .J      LDR      r2,[pc,#116] ; [0xf10] = 0x40120000
        0x00000e9c:    6010        .`      STR      r0,[r2,#0]
        0x00000e9e:    2005        .       MOVS     r0,#5
        0x00000ea0:    0700        ..      LSLS     r0,r0,#28
        0x00000ea2:    68c0        .h      LDR      r0,[r0,#0xc]
        0x00000ea4:    1552        R.      ASRS     r2,r2,#21
        0x00000ea6:    4390        .C      BICS     r0,r0,r2
        0x00000ea8:    1880        ..      ADDS     r0,r0,r2
        0x00000eaa:    2205        ."      MOVS     r2,#5
        0x00000eac:    0712        ..      LSLS     r2,r2,#28
        0x00000eae:    60d0        .`      STR      r0,[r2,#0xc]
        0x00000eb0:    4610        .F      MOV      r0,r2
        0x00000eb2:    68c0        .h      LDR      r0,[r0,#0xc]
        0x00000eb4:    2201        ."      MOVS     r2,#1
        0x00000eb6:    0252        R.      LSLS     r2,r2,#9
        0x00000eb8:    4390        .C      BICS     r0,r0,r2
        0x00000eba:    2205        ."      MOVS     r2,#5
        0x00000ebc:    0712        ..      LSLS     r2,r2,#28
        0x00000ebe:    60d0        .`      STR      r0,[r2,#0xc]
        0x00000ec0:    4814        .H      LDR      r0,[pc,#80] ; [0xf14] = 0x50000200
        0x00000ec2:    6880        .h      LDR      r0,[r0,#8]
        0x00000ec4:    2201        ."      MOVS     r2,#1
        0x00000ec6:    0252        R.      LSLS     r2,r2,#9
        0x00000ec8:    4390        .C      BICS     r0,r0,r2
        0x00000eca:    4a12        .J      LDR      r2,[pc,#72] ; [0xf14] = 0x50000200
        0x00000ecc:    6090        .`      STR      r0,[r2,#8]
        0x00000ece:    e01d        ..      B        0xf0c ; DrvI2C_Close + 128
        0x00000ed0:    4811        .H      LDR      r0,[pc,#68] ; [0xf18] = 0x40020000
        0x00000ed2:    6800        .h      LDR      r0,[r0,#0]
        0x00000ed4:    2240        @"      MOVS     r2,#0x40
        0x00000ed6:    4390        .C      BICS     r0,r0,r2
        0x00000ed8:    4a0f        .J      LDR      r2,[pc,#60] ; [0xf18] = 0x40020000
        0x00000eda:    6010        .`      STR      r0,[r2,#0]
        0x00000edc:    2005        .       MOVS     r0,#5
        0x00000ede:    0700        ..      LSLS     r0,r0,#28
        0x00000ee0:    68c0        .h      LDR      r0,[r0,#0xc]
        0x00000ee2:    1592        ..      ASRS     r2,r2,#22
        0x00000ee4:    4390        .C      BICS     r0,r0,r2
        0x00000ee6:    1880        ..      ADDS     r0,r0,r2
        0x00000ee8:    2205        ."      MOVS     r2,#5
        0x00000eea:    0712        ..      LSLS     r2,r2,#28
        0x00000eec:    60d0        .`      STR      r0,[r2,#0xc]
        0x00000eee:    4610        .F      MOV      r0,r2
        0x00000ef0:    68c0        .h      LDR      r0,[r0,#0xc]
        0x00000ef2:    22ff        ."      MOVS     r2,#0xff
        0x00000ef4:    3201        .2      ADDS     r2,#1
        0x00000ef6:    4390        .C      BICS     r0,r0,r2
        0x00000ef8:    2205        ."      MOVS     r2,#5
        0x00000efa:    0712        ..      LSLS     r2,r2,#28
        0x00000efc:    60d0        .`      STR      r0,[r2,#0xc]
        0x00000efe:    4805        .H      LDR      r0,[pc,#20] ; [0xf14] = 0x50000200
        0x00000f00:    6880        .h      LDR      r0,[r0,#8]
        0x00000f02:    22ff        ."      MOVS     r2,#0xff
        0x00000f04:    3201        .2      ADDS     r2,#1
        0x00000f06:    4390        .C      BICS     r0,r0,r2
        0x00000f08:    4a02        .J      LDR      r2,[pc,#8] ; [0xf14] = 0x50000200
        0x00000f0a:    6090        .`      STR      r0,[r2,#8]
        0x00000f0c:    2000        .       MOVS     r0,#0
        0x00000f0e:    4770        pG      BX       lr
    $d
        0x00000f10:    40120000    ...@    DCD    1074921472
        0x00000f14:    50000200    ...P    DCD    1342177792
        0x00000f18:    40020000    ...@    DCD    1073872896
    $t
    i.DrvI2C_Ctrl
    DrvI2C_Ctrl
        0x00000f1c:    b5f0        ..      PUSH     {r4-r7,lr}
        0x00000f1e:    9c05        ..      LDR      r4,[sp,#0x14]
        0x00000f20:    2500        .%      MOVS     r5,#0
        0x00000f22:    2900        .)      CMP      r1,#0
        0x00000f24:    d001        ..      BEQ      0xf2a ; DrvI2C_Ctrl + 14
        0x00000f26:    2620         &      MOVS     r6,#0x20
        0x00000f28:    4335        5C      ORRS     r5,r5,r6
        0x00000f2a:    2a00        .*      CMP      r2,#0
        0x00000f2c:    d001        ..      BEQ      0xf32 ; DrvI2C_Ctrl + 22
        0x00000f2e:    2610        .&      MOVS     r6,#0x10
        0x00000f30:    4335        5C      ORRS     r5,r5,r6
        0x00000f32:    2b00        .+      CMP      r3,#0
        0x00000f34:    d001        ..      BEQ      0xf3a ; DrvI2C_Ctrl + 30
        0x00000f36:    2608        .&      MOVS     r6,#8
        0x00000f38:    4335        5C      ORRS     r5,r5,r6
        0x00000f3a:    2c00        .,      CMP      r4,#0
        0x00000f3c:    d001        ..      BEQ      0xf42 ; DrvI2C_Ctrl + 38
        0x00000f3e:    2604        .&      MOVS     r6,#4
        0x00000f40:    4335        5C      ORRS     r5,r5,r6
        0x00000f42:    2800        .(      CMP      r0,#0
        0x00000f44:    d007        ..      BEQ      0xf56 ; DrvI2C_Ctrl + 58
        0x00000f46:    4e08        .N      LDR      r6,[pc,#32] ; [0xf68] = 0x40120000
        0x00000f48:    6836        6h      LDR      r6,[r6,#0]
        0x00000f4a:    273c        <'      MOVS     r7,#0x3c
        0x00000f4c:    43be        .C      BICS     r6,r6,r7
        0x00000f4e:    432e        .C      ORRS     r6,r6,r5
        0x00000f50:    4f05        .O      LDR      r7,[pc,#20] ; [0xf68] = 0x40120000
        0x00000f52:    603e        >`      STR      r6,[r7,#0]
        0x00000f54:    e006        ..      B        0xf64 ; DrvI2C_Ctrl + 72
        0x00000f56:    4e05        .N      LDR      r6,[pc,#20] ; [0xf6c] = 0x40020000
        0x00000f58:    6836        6h      LDR      r6,[r6,#0]
        0x00000f5a:    273c        <'      MOVS     r7,#0x3c
        0x00000f5c:    43be        .C      BICS     r6,r6,r7
        0x00000f5e:    432e        .C      ORRS     r6,r6,r5
        0x00000f60:    4f02        .O      LDR      r7,[pc,#8] ; [0xf6c] = 0x40020000
        0x00000f62:    603e        >`      STR      r6,[r7,#0]
        0x00000f64:    bdf0        ..      POP      {r4-r7,pc}
    $d
        0x00000f66:    0000        ..      DCW    0
        0x00000f68:    40120000    ...@    DCD    1074921472
        0x00000f6c:    40020000    ...@    DCD    1073872896
    $t
    i.DrvI2C_Open
    DrvI2C_Open
        0x00000f70:    b5f8        ..      PUSH     {r3-r7,lr}
        0x00000f72:    4605        .F      MOV      r5,r0
        0x00000f74:    460e        .F      MOV      r6,r1
        0x00000f76:    00b1        ..      LSLS     r1,r6,#2
        0x00000f78:    4a2d        -J      LDR      r2,[pc,#180] ; [0x1030] = 0x20000000
        0x00000f7a:    6812        .h      LDR      r2,[r2,#0]
        0x00000f7c:    230a        .#      MOVS     r3,#0xa
        0x00000f7e:    435a        ZC      MULS     r2,r3,r2
        0x00000f80:    4610        .F      MOV      r0,r2
        0x00000f82:    f7fffa49    ..I.    BL       __aeabi_uidiv ; 0x418
        0x00000f86:    1d47        G.      ADDS     r7,r0,#5
        0x00000f88:    210a        .!      MOVS     r1,#0xa
        0x00000f8a:    4638        8F      MOV      r0,r7
        0x00000f8c:    f7fffa44    ..D.    BL       __aeabi_uidiv ; 0x418
        0x00000f90:    1e44        D.      SUBS     r4,r0,#1
        0x00000f92:    2c04        .,      CMP      r4,#4
        0x00000f94:    d200        ..      BCS      0xf98 ; DrvI2C_Open + 40
        0x00000f96:    2404        .$      MOVS     r4,#4
        0x00000f98:    2d00        .-      CMP      r5,#0
        0x00000f9a:    d023        #.      BEQ      0xfe4 ; DrvI2C_Open + 116
        0x00000f9c:    4825        %H      LDR      r0,[pc,#148] ; [0x1034] = 0x50000200
        0x00000f9e:    6880        .h      LDR      r0,[r0,#8]
        0x00000fa0:    2101        .!      MOVS     r1,#1
        0x00000fa2:    0249        I.      LSLS     r1,r1,#9
        0x00000fa4:    4388        .C      BICS     r0,r0,r1
        0x00000fa6:    1840        @.      ADDS     r0,r0,r1
        0x00000fa8:    4922        "I      LDR      r1,[pc,#136] ; [0x1034] = 0x50000200
        0x00000faa:    6088        .`      STR      r0,[r1,#8]
        0x00000fac:    2005        .       MOVS     r0,#5
        0x00000fae:    0700        ..      LSLS     r0,r0,#28
        0x00000fb0:    68c0        .h      LDR      r0,[r0,#0xc]
        0x00000fb2:    2101        .!      MOVS     r1,#1
        0x00000fb4:    0249        I.      LSLS     r1,r1,#9
        0x00000fb6:    4388        .C      BICS     r0,r0,r1
        0x00000fb8:    1840        @.      ADDS     r0,r0,r1
        0x00000fba:    2105        .!      MOVS     r1,#5
        0x00000fbc:    0709        ..      LSLS     r1,r1,#28
        0x00000fbe:    60c8        .`      STR      r0,[r1,#0xc]
        0x00000fc0:    4608        .F      MOV      r0,r1
        0x00000fc2:    68c0        .h      LDR      r0,[r0,#0xc]
        0x00000fc4:    2101        .!      MOVS     r1,#1
        0x00000fc6:    0249        I.      LSLS     r1,r1,#9
        0x00000fc8:    4388        .C      BICS     r0,r0,r1
        0x00000fca:    2105        .!      MOVS     r1,#5
        0x00000fcc:    0709        ..      LSLS     r1,r1,#28
        0x00000fce:    60c8        .`      STR      r0,[r1,#0xc]
        0x00000fd0:    4819        .H      LDR      r0,[pc,#100] ; [0x1038] = 0x40120000
        0x00000fd2:    6800        .h      LDR      r0,[r0,#0]
        0x00000fd4:    2140        @!      MOVS     r1,#0x40
        0x00000fd6:    4388        .C      BICS     r0,r0,r1
        0x00000fd8:    3040        @0      ADDS     r0,r0,#0x40
        0x00000fda:    4917        .I      LDR      r1,[pc,#92] ; [0x1038] = 0x40120000
        0x00000fdc:    6008        .`      STR      r0,[r1,#0]
        0x00000fde:    4608        .F      MOV      r0,r1
        0x00000fe0:    6104        .a      STR      r4,[r0,#0x10]
        0x00000fe2:    e022        ".      B        0x102a ; DrvI2C_Open + 186
        0x00000fe4:    4813        .H      LDR      r0,[pc,#76] ; [0x1034] = 0x50000200
        0x00000fe6:    6880        .h      LDR      r0,[r0,#8]
        0x00000fe8:    21ff        .!      MOVS     r1,#0xff
        0x00000fea:    3101        .1      ADDS     r1,#1
        0x00000fec:    4388        .C      BICS     r0,r0,r1
        0x00000fee:    1840        @.      ADDS     r0,r0,r1
        0x00000ff0:    4910        .I      LDR      r1,[pc,#64] ; [0x1034] = 0x50000200
        0x00000ff2:    6088        .`      STR      r0,[r1,#8]
        0x00000ff4:    2005        .       MOVS     r0,#5
        0x00000ff6:    0700        ..      LSLS     r0,r0,#28
        0x00000ff8:    68c0        .h      LDR      r0,[r0,#0xc]
        0x00000ffa:    21ff        .!      MOVS     r1,#0xff
        0x00000ffc:    3101        .1      ADDS     r1,#1
        0x00000ffe:    4388        .C      BICS     r0,r0,r1
        0x00001000:    1840        @.      ADDS     r0,r0,r1
        0x00001002:    2105        .!      MOVS     r1,#5
        0x00001004:    0709        ..      LSLS     r1,r1,#28
        0x00001006:    60c8        .`      STR      r0,[r1,#0xc]
        0x00001008:    4608        .F      MOV      r0,r1
        0x0000100a:    68c0        .h      LDR      r0,[r0,#0xc]
        0x0000100c:    21ff        .!      MOVS     r1,#0xff
        0x0000100e:    3101        .1      ADDS     r1,#1
        0x00001010:    4388        .C      BICS     r0,r0,r1
        0x00001012:    2105        .!      MOVS     r1,#5
        0x00001014:    0709        ..      LSLS     r1,r1,#28
        0x00001016:    60c8        .`      STR      r0,[r1,#0xc]
        0x00001018:    4808        .H      LDR      r0,[pc,#32] ; [0x103c] = 0x40020000
        0x0000101a:    6800        .h      LDR      r0,[r0,#0]
        0x0000101c:    2140        @!      MOVS     r1,#0x40
        0x0000101e:    4388        .C      BICS     r0,r0,r1
        0x00001020:    3040        @0      ADDS     r0,r0,#0x40
        0x00001022:    4906        .I      LDR      r1,[pc,#24] ; [0x103c] = 0x40020000
        0x00001024:    6008        .`      STR      r0,[r1,#0]
        0x00001026:    4608        .F      MOV      r0,r1
        0x00001028:    6104        .a      STR      r4,[r0,#0x10]
        0x0000102a:    2000        .       MOVS     r0,#0
        0x0000102c:    bdf8        ..      POP      {r3-r7,pc}
    $d
        0x0000102e:    0000        ..      DCW    0
        0x00001030:    20000000    ...     DCD    536870912
        0x00001034:    50000200    ...P    DCD    1342177792
        0x00001038:    40120000    ...@    DCD    1074921472
        0x0000103c:    40020000    ...@    DCD    1073872896
    $t
    i.DrvSYS_GetHCLKFreq
    DrvSYS_GetHCLKFreq
        0x00001040:    b570        p.      PUSH     {r4-r6,lr}
        0x00001042:    2500        .%      MOVS     r5,#0
        0x00001044:    4815        .H      LDR      r0,[pc,#84] ; [0x109c] = 0x50000200
        0x00001046:    6900        .i      LDR      r0,[r0,#0x10]
        0x00001048:    0740        @.      LSLS     r0,r0,#29
        0x0000104a:    0f40        @.      LSRS     r0,r0,#29
        0x0000104c:    d101        ..      BNE      0x1052 ; DrvSYS_GetHCLKFreq + 18
        0x0000104e:    4d14        .M      LDR      r5,[pc,#80] ; [0x10a0] = 0xb71b00
        0x00001050:    e01a        ..      B        0x1088 ; DrvSYS_GetHCLKFreq + 72
        0x00001052:    4812        .H      LDR      r0,[pc,#72] ; [0x109c] = 0x50000200
        0x00001054:    6900        .i      LDR      r0,[r0,#0x10]
        0x00001056:    0740        @.      LSLS     r0,r0,#29
        0x00001058:    0f40        @.      LSRS     r0,r0,#29
        0x0000105a:    2801        .(      CMP      r0,#1
        0x0000105c:    d101        ..      BNE      0x1062 ; DrvSYS_GetHCLKFreq + 34
        0x0000105e:    03c5        ..      LSLS     r5,r0,#15
        0x00001060:    e012        ..      B        0x1088 ; DrvSYS_GetHCLKFreq + 72
        0x00001062:    480e        .H      LDR      r0,[pc,#56] ; [0x109c] = 0x50000200
        0x00001064:    6900        .i      LDR      r0,[r0,#0x10]
        0x00001066:    0740        @.      LSLS     r0,r0,#29
        0x00001068:    0f40        @.      LSRS     r0,r0,#29
        0x0000106a:    2802        .(      CMP      r0,#2
        0x0000106c:    d103        ..      BNE      0x1076 ; DrvSYS_GetHCLKFreq + 54
        0x0000106e:    f000f81d    ....    BL       DrvSYS_GetPLLClockFreq ; 0x10ac
        0x00001072:    4605        .F      MOV      r5,r0
        0x00001074:    e008        ..      B        0x1088 ; DrvSYS_GetHCLKFreq + 72
        0x00001076:    4809        .H      LDR      r0,[pc,#36] ; [0x109c] = 0x50000200
        0x00001078:    6900        .i      LDR      r0,[r0,#0x10]
        0x0000107a:    0740        @.      LSLS     r0,r0,#29
        0x0000107c:    0f40        @.      LSRS     r0,r0,#29
        0x0000107e:    2803        .(      CMP      r0,#3
        0x00001080:    d101        ..      BNE      0x1086 ; DrvSYS_GetHCLKFreq + 70
        0x00001082:    4d08        .M      LDR      r5,[pc,#32] ; [0x10a4] = 0x2710
        0x00001084:    e000        ..      B        0x1088 ; DrvSYS_GetHCLKFreq + 72
        0x00001086:    4d08        .M      LDR      r5,[pc,#32] ; [0x10a8] = 0x1518000
        0x00001088:    4804        .H      LDR      r0,[pc,#16] ; [0x109c] = 0x50000200
        0x0000108a:    6980        .i      LDR      r0,[r0,#0x18]
        0x0000108c:    0700        ..      LSLS     r0,r0,#28
        0x0000108e:    0f00        ..      LSRS     r0,r0,#28
        0x00001090:    1c44        D.      ADDS     r4,r0,#1
        0x00001092:    4621        !F      MOV      r1,r4
        0x00001094:    4628        (F      MOV      r0,r5
        0x00001096:    f7fff9bf    ....    BL       __aeabi_uidiv ; 0x418
        0x0000109a:    bd70        p.      POP      {r4-r6,pc}
    $d
        0x0000109c:    50000200    ...P    DCD    1342177792
        0x000010a0:    00b71b00    ....    DCD    12000000
        0x000010a4:    00002710    .'..    DCD    10000
        0x000010a8:    01518000    ..Q.    DCD    22118400
    $t
    i.DrvSYS_GetPLLClockFreq
    DrvSYS_GetPLLClockFreq
        0x000010ac:    b57f        ..      PUSH     {r0-r6,lr}
        0x000010ae:    2500        .%      MOVS     r5,#0
        0x000010b0:    4b18        .K      LDR      r3,[pc,#96] ; [0x1114] = 0x236c
        0x000010b2:    cb0f        ..      LDM      r3,{r0-r3}
        0x000010b4:    466c        lF      MOV      r4,sp
        0x000010b6:    c40f        ..      STM      r4!,{r0-r3}
        0x000010b8:    4817        .H      LDR      r0,[pc,#92] ; [0x1118] = 0x50000200
        0x000010ba:    6a00        .j      LDR      r0,[r0,#0x20]
        0x000010bc:    0300        ..      LSLS     r0,r0,#12
        0x000010be:    0fc0        ..      LSRS     r0,r0,#31
        0x000010c0:    2801        .(      CMP      r0,#1
        0x000010c2:    d101        ..      BNE      0x10c8 ; DrvSYS_GetPLLClockFreq + 28
        0x000010c4:    4c15        .L      LDR      r4,[pc,#84] ; [0x111c] = 0x1518000
        0x000010c6:    e000        ..      B        0x10ca ; DrvSYS_GetPLLClockFreq + 30
        0x000010c8:    4c15        .L      LDR      r4,[pc,#84] ; [0x1120] = 0xb71b00
        0x000010ca:    4813        .H      LDR      r0,[pc,#76] ; [0x1118] = 0x50000200
        0x000010cc:    6a00        .j      LDR      r0,[r0,#0x20]
        0x000010ce:    03c0        ..      LSLS     r0,r0,#15
        0x000010d0:    0fc0        ..      LSRS     r0,r0,#31
        0x000010d2:    2801        .(      CMP      r0,#1
        0x000010d4:    d101        ..      BNE      0x10da ; DrvSYS_GetPLLClockFreq + 46
        0x000010d6:    2500        .%      MOVS     r5,#0
        0x000010d8:    e019        ..      B        0x110e ; DrvSYS_GetPLLClockFreq + 98
        0x000010da:    4a0f        .J      LDR      r2,[pc,#60] ; [0x1118] = 0x50000200
        0x000010dc:    6a12        .j      LDR      r2,[r2,#0x20]
        0x000010de:    0492        ..      LSLS     r2,r2,#18
        0x000010e0:    0ed2        ..      LSRS     r2,r2,#27
        0x000010e2:    1c91        ..      ADDS     r1,r2,#2
        0x000010e4:    4a0c        .J      LDR      r2,[pc,#48] ; [0x1118] = 0x50000200
        0x000010e6:    6a12        .j      LDR      r2,[r2,#0x20]
        0x000010e8:    05d2        ..      LSLS     r2,r2,#23
        0x000010ea:    0dd2        ..      LSRS     r2,r2,#23
        0x000010ec:    1c92        ..      ADDS     r2,r2,#2
        0x000010ee:    4362        bC      MULS     r2,r4,r2
        0x000010f0:    4610        .F      MOV      r0,r2
        0x000010f2:    f7fff991    ....    BL       __aeabi_uidiv ; 0x418
        0x000010f6:    4606        .F      MOV      r6,r0
        0x000010f8:    4807        .H      LDR      r0,[pc,#28] ; [0x1118] = 0x50000200
        0x000010fa:    6a00        .j      LDR      r0,[r0,#0x20]
        0x000010fc:    0400        ..      LSLS     r0,r0,#16
        0x000010fe:    0f80        ..      LSRS     r0,r0,#30
        0x00001100:    0080        ..      LSLS     r0,r0,#2
        0x00001102:    466a        jF      MOV      r2,sp
        0x00001104:    5811        .X      LDR      r1,[r2,r0]
        0x00001106:    4630        0F      MOV      r0,r6
        0x00001108:    f7fff986    ....    BL       __aeabi_uidiv ; 0x418
        0x0000110c:    4605        .F      MOV      r5,r0
        0x0000110e:    4628        (F      MOV      r0,r5
        0x00001110:    b004        ..      ADD      sp,sp,#0x10
        0x00001112:    bd70        p.      POP      {r4-r6,pc}
    $d
        0x00001114:    0000236c    l#..    DCD    9068
        0x00001118:    50000200    ...P    DCD    1342177792
        0x0000111c:    01518000    ..Q.    DCD    22118400
        0x00001120:    00b71b00    ....    DCD    12000000
    $t
    i.DrvSYS_GetPLLContent
    DrvSYS_GetPLLContent
        0x00001124:    b5f3        ..      PUSH     {r0,r1,r4-r7,lr}
        0x00001126:    b083        ..      SUB      sp,sp,#0xc
        0x00001128:    460c        .F      MOV      r4,r1
        0x0000112a:    4827        'H      LDR      r0,[pc,#156] ; [0x11c8] = 0xb71b00
        0x0000112c:    9002        ..      STR      r0,[sp,#8]
        0x0000112e:    2000        .       MOVS     r0,#0
        0x00001130:    9001        ..      STR      r0,[sp,#4]
        0x00001132:    4826        &H      LDR      r0,[pc,#152] ; [0x11cc] = 0xbebc200
        0x00001134:    4284        .B      CMP      r4,r0
        0x00001136:    d804        ..      BHI      0x1142 ; DrvSYS_GetPLLContent + 30
        0x00001138:    1040        @.      ASRS     r0,r0,#1
        0x0000113a:    4284        .B      CMP      r4,r0
        0x0000113c:    d901        ..      BLS      0x1142 ; DrvSYS_GetPLLContent + 30
        0x0000113e:    2700        .'      MOVS     r7,#0
        0x00001140:    e014        ..      B        0x116c ; DrvSYS_GetPLLContent + 72
        0x00001142:    4823        #H      LDR      r0,[pc,#140] ; [0x11d0] = 0x5f5e100
        0x00001144:    4284        .B      CMP      r4,r0
        0x00001146:    d805        ..      BHI      0x1154 ; DrvSYS_GetPLLContent + 48
        0x00001148:    1040        @.      ASRS     r0,r0,#1
        0x0000114a:    4284        .B      CMP      r4,r0
        0x0000114c:    d902        ..      BLS      0x1154 ; DrvSYS_GetPLLContent + 48
        0x0000114e:    2701        .'      MOVS     r7,#1
        0x00001150:    0064        d.      LSLS     r4,r4,#1
        0x00001152:    e00b        ..      B        0x116c ; DrvSYS_GetPLLContent + 72
        0x00001154:    481f        .H      LDR      r0,[pc,#124] ; [0x11d4] = 0x2faf080
        0x00001156:    4284        .B      CMP      r4,r0
        0x00001158:    d805        ..      BHI      0x1166 ; DrvSYS_GetPLLContent + 66
        0x0000115a:    1040        @.      ASRS     r0,r0,#1
        0x0000115c:    4284        .B      CMP      r4,r0
        0x0000115e:    d302        ..      BCC      0x1166 ; DrvSYS_GetPLLContent + 66
        0x00001160:    2703        .'      MOVS     r7,#3
        0x00001162:    00a4        ..      LSLS     r4,r4,#2
        0x00001164:    e002        ..      B        0x116c ; DrvSYS_GetPLLContent + 72
        0x00001166:    481c        .H      LDR      r0,[pc,#112] ; [0x11d8] = 0xc22e
        0x00001168:    b005        ..      ADD      sp,sp,#0x14
        0x0000116a:    bdf0        ..      POP      {r4-r7,pc}
        0x0000116c:    9803        ..      LDR      r0,[sp,#0xc]
        0x0000116e:    2800        .(      CMP      r0,#0
        0x00001170:    d102        ..      BNE      0x1178 ; DrvSYS_GetPLLContent + 84
        0x00001172:    4815        .H      LDR      r0,[pc,#84] ; [0x11c8] = 0xb71b00
        0x00001174:    9002        ..      STR      r0,[sp,#8]
        0x00001176:    e004        ..      B        0x1182 ; DrvSYS_GetPLLContent + 94
        0x00001178:    9803        ..      LDR      r0,[sp,#0xc]
        0x0000117a:    2801        .(      CMP      r0,#1
        0x0000117c:    d101        ..      BNE      0x1182 ; DrvSYS_GetPLLContent + 94
        0x0000117e:    4817        .H      LDR      r0,[pc,#92] ; [0x11dc] = 0x1518000
        0x00001180:    9002        ..      STR      r0,[sp,#8]
        0x00001182:    4917        .I      LDR      r1,[pc,#92] ; [0x11e0] = 0xf4240
        0x00001184:    4620         F      MOV      r0,r4
        0x00001186:    f7fff947    ..G.    BL       __aeabi_uidiv ; 0x418
        0x0000118a:    4606        .F      MOV      r6,r0
        0x0000118c:    4914        .I      LDR      r1,[pc,#80] ; [0x11e0] = 0xf4240
        0x0000118e:    9802        ..      LDR      r0,[sp,#8]
        0x00001190:    f7fff942    ..B.    BL       __aeabi_uidiv ; 0x418
        0x00001194:    4605        .F      MOV      r5,r0
        0x00001196:    e00c        ..      B        0x11b2 ; DrvSYS_GetPLLContent + 142
        0x00001198:    07e8        ..      LSLS     r0,r5,#31
        0x0000119a:    0fc0        ..      LSRS     r0,r0,#31
        0x0000119c:    d106        ..      BNE      0x11ac ; DrvSYS_GetPLLContent + 136
        0x0000119e:    07f0        ..      LSLS     r0,r6,#31
        0x000011a0:    0fc0        ..      LSRS     r0,r0,#31
        0x000011a2:    d103        ..      BNE      0x11ac ; DrvSYS_GetPLLContent + 136
        0x000011a4:    2d02        .-      CMP      r5,#2
        0x000011a6:    d001        ..      BEQ      0x11ac ; DrvSYS_GetPLLContent + 136
        0x000011a8:    2e02        ..      CMP      r6,#2
        0x000011aa:    d100        ..      BNE      0x11ae ; DrvSYS_GetPLLContent + 138
        0x000011ac:    e002        ..      B        0x11b4 ; DrvSYS_GetPLLContent + 144
        0x000011ae:    086d        m.      LSRS     r5,r5,#1
        0x000011b0:    0876        v.      LSRS     r6,r6,#1
        0x000011b2:    e7f1        ..      B        0x1198 ; DrvSYS_GetPLLContent + 116
        0x000011b4:    bf00        ..      NOP      
        0x000011b6:    03b8        ..      LSLS     r0,r7,#14
        0x000011b8:    1ea9        ..      SUBS     r1,r5,#2
        0x000011ba:    0249        I.      LSLS     r1,r1,#9
        0x000011bc:    4308        .C      ORRS     r0,r0,r1
        0x000011be:    1eb1        ..      SUBS     r1,r6,#2
        0x000011c0:    4308        .C      ORRS     r0,r0,r1
        0x000011c2:    9001        ..      STR      r0,[sp,#4]
        0x000011c4:    9801        ..      LDR      r0,[sp,#4]
        0x000011c6:    e7cf        ..      B        0x1168 ; DrvSYS_GetPLLContent + 68
    $d
        0x000011c8:    00b71b00    ....    DCD    12000000
        0x000011cc:    0bebc200    ....    DCD    200000000
        0x000011d0:    05f5e100    ....    DCD    100000000
        0x000011d4:    02faf080    ....    DCD    50000000
        0x000011d8:    0000c22e    ....    DCD    49710
        0x000011dc:    01518000    ..Q.    DCD    22118400
        0x000011e0:    000f4240    @B..    DCD    1000000
    $t
    i.DrvSYS_IsProtectedRegLocked
    DrvSYS_IsProtectedRegLocked
        0x000011e4:    4802        .H      LDR      r0,[pc,#8] ; [0x11f0] = 0x50000100
        0x000011e6:    6800        .h      LDR      r0,[r0,#0]
        0x000011e8:    07c0        ..      LSLS     r0,r0,#31
        0x000011ea:    0fc0        ..      LSRS     r0,r0,#31
        0x000011ec:    4770        pG      BX       lr
    $d
        0x000011ee:    0000        ..      DCW    0
        0x000011f0:    50000100    ...P    DCD    1342177536
    $t
    i.DrvSYS_Open
    DrvSYS_Open
        0x000011f4:    b5f8        ..      PUSH     {r3-r7,lr}
        0x000011f6:    4605        .F      MOV      r5,r0
        0x000011f8:    2600        .&      MOVS     r6,#0
        0x000011fa:    4825        %H      LDR      r0,[pc,#148] ; [0x1290] = 0x2faf080
        0x000011fc:    4285        .B      CMP      r5,r0
        0x000011fe:    d802        ..      BHI      0x1206 ; DrvSYS_Open + 18
        0x00001200:    1040        @.      ASRS     r0,r0,#1
        0x00001202:    4285        .B      CMP      r5,r0
        0x00001204:    d201        ..      BCS      0x120a ; DrvSYS_Open + 22
        0x00001206:    4823        #H      LDR      r0,[pc,#140] ; [0x1294] = 0xffff9606
        0x00001208:    bdf8        ..      POP      {r3-r7,pc}
        0x0000120a:    f7ffffeb    ....    BL       DrvSYS_IsProtectedRegLocked ; 0x11e4
        0x0000120e:    2800        .(      CMP      r0,#0
        0x00001210:    d102        ..      BNE      0x1218 ; DrvSYS_Open + 36
        0x00001212:    4820         H      LDR      r0,[pc,#128] ; [0x1294] = 0xffff9606
        0x00001214:    1c40        @.      ADDS     r0,r0,#1
        0x00001216:    e7f7        ..      B        0x1208 ; DrvSYS_Open + 20
        0x00001218:    481f        .H      LDR      r0,[pc,#124] ; [0x1298] = 0x50000200
        0x0000121a:    6a00        .j      LDR      r0,[r0,#0x20]
        0x0000121c:    0300        ..      LSLS     r0,r0,#12
        0x0000121e:    0fc0        ..      LSRS     r0,r0,#31
        0x00001220:    d108        ..      BNE      0x1234 ; DrvSYS_Open + 64
        0x00001222:    481d        .H      LDR      r0,[pc,#116] ; [0x1298] = 0x50000200
        0x00001224:    6800        .h      LDR      r0,[r0,#0]
        0x00001226:    0840        @.      LSRS     r0,r0,#1
        0x00001228:    0040        @.      LSLS     r0,r0,#1
        0x0000122a:    1c40        @.      ADDS     r0,r0,#1
        0x0000122c:    491a        .I      LDR      r1,[pc,#104] ; [0x1298] = 0x50000200
        0x0000122e:    6008        .`      STR      r0,[r1,#0]
        0x00001230:    2600        .&      MOVS     r6,#0
        0x00001232:    e007        ..      B        0x1244 ; DrvSYS_Open + 80
        0x00001234:    4818        .H      LDR      r0,[pc,#96] ; [0x1298] = 0x50000200
        0x00001236:    6800        .h      LDR      r0,[r0,#0]
        0x00001238:    2104        .!      MOVS     r1,#4
        0x0000123a:    4388        .C      BICS     r0,r0,r1
        0x0000123c:    1d00        ..      ADDS     r0,r0,#4
        0x0000123e:    4916        .I      LDR      r1,[pc,#88] ; [0x1298] = 0x50000200
        0x00001240:    6008        .`      STR      r0,[r1,#0]
        0x00001242:    2601        .&      MOVS     r6,#1
        0x00001244:    4629        )F      MOV      r1,r5
        0x00001246:    4630        0F      MOV      r0,r6
        0x00001248:    f7ffff6c    ..l.    BL       DrvSYS_GetPLLContent ; 0x1124
        0x0000124c:    4607        .F      MOV      r7,r0
        0x0000124e:    2400        .$      MOVS     r4,#0
        0x00001250:    e000        ..      B        0x1254 ; DrvSYS_Open + 96
        0x00001252:    1c64        d.      ADDS     r4,r4,#1
        0x00001254:    4811        .H      LDR      r0,[pc,#68] ; [0x129c] = 0x2710
        0x00001256:    4284        .B      CMP      r4,r0
        0x00001258:    d3fb        ..      BCC      0x1252 ; DrvSYS_Open + 94
        0x0000125a:    4638        8F      MOV      r0,r7
        0x0000125c:    f000f880    ....    BL       DrvSYS_SetPLLContent ; 0x1360
        0x00001260:    480d        .H      LDR      r0,[pc,#52] ; [0x1298] = 0x50000200
        0x00001262:    6a00        .j      LDR      r0,[r0,#0x20]
        0x00001264:    2101        .!      MOVS     r1,#1
        0x00001266:    0489        ..      LSLS     r1,r1,#18
        0x00001268:    4388        .C      BICS     r0,r0,r1
        0x0000126a:    490b        .I      LDR      r1,[pc,#44] ; [0x1298] = 0x50000200
        0x0000126c:    6208        .b      STR      r0,[r1,#0x20]
        0x0000126e:    4608        .F      MOV      r0,r1
        0x00001270:    6a00        .j      LDR      r0,[r0,#0x20]
        0x00001272:    01c9        ..      LSLS     r1,r1,#7
        0x00001274:    4388        .C      BICS     r0,r0,r1
        0x00001276:    4908        .I      LDR      r1,[pc,#32] ; [0x1298] = 0x50000200
        0x00001278:    6208        .b      STR      r0,[r1,#0x20]
        0x0000127a:    2400        .$      MOVS     r4,#0
        0x0000127c:    e000        ..      B        0x1280 ; DrvSYS_Open + 140
        0x0000127e:    1c64        d.      ADDS     r4,r4,#1
        0x00001280:    4806        .H      LDR      r0,[pc,#24] ; [0x129c] = 0x2710
        0x00001282:    4284        .B      CMP      r4,r0
        0x00001284:    d3fb        ..      BCC      0x127e ; DrvSYS_Open + 138
        0x00001286:    2002        .       MOVS     r0,#2
        0x00001288:    f000f80a    ....    BL       DrvSYS_SelectHCLKSource ; 0x12a0
        0x0000128c:    2000        .       MOVS     r0,#0
        0x0000128e:    e7bb        ..      B        0x1208 ; DrvSYS_Open + 20
    $d
        0x00001290:    02faf080    ....    DCD    50000000
        0x00001294:    ffff9606    ....    DCD    4294940166
        0x00001298:    50000200    ...P    DCD    1342177792
        0x0000129c:    00002710    .'..    DCD    10000
    $t
    i.DrvSYS_SelectHCLKSource
    DrvSYS_SelectHCLKSource
        0x000012a0:    b510        ..      PUSH     {r4,lr}
        0x000012a2:    4604        .F      MOV      r4,r0
        0x000012a4:    2c07        .,      CMP      r4,#7
        0x000012a6:    dc03        ..      BGT      0x12b0 ; DrvSYS_SelectHCLKSource + 16
        0x000012a8:    2c03        .,      CMP      r4,#3
        0x000012aa:    dd03        ..      BLE      0x12b4 ; DrvSYS_SelectHCLKSource + 20
        0x000012ac:    2c07        .,      CMP      r4,#7
        0x000012ae:    da01        ..      BGE      0x12b4 ; DrvSYS_SelectHCLKSource + 20
        0x000012b0:    4807        .H      LDR      r0,[pc,#28] ; [0x12d0] = 0xffff9603
        0x000012b2:    bd10        ..      POP      {r4,pc}
        0x000012b4:    4807        .H      LDR      r0,[pc,#28] ; [0x12d4] = 0x50000200
        0x000012b6:    6900        .i      LDR      r0,[r0,#0x10]
        0x000012b8:    08c0        ..      LSRS     r0,r0,#3
        0x000012ba:    00c0        ..      LSLS     r0,r0,#3
        0x000012bc:    0761        a.      LSLS     r1,r4,#29
        0x000012be:    0f49        I.      LSRS     r1,r1,#29
        0x000012c0:    4308        .C      ORRS     r0,r0,r1
        0x000012c2:    4904        .I      LDR      r1,[pc,#16] ; [0x12d4] = 0x50000200
        0x000012c4:    6108        .a      STR      r0,[r1,#0x10]
        0x000012c6:    f000fd85    ....    BL       SystemCoreClockUpdate ; 0x1dd4
        0x000012ca:    2000        .       MOVS     r0,#0
        0x000012cc:    e7f1        ..      B        0x12b2 ; DrvSYS_SelectHCLKSource + 18
    $d
        0x000012ce:    0000        ..      DCW    0
        0x000012d0:    ffff9603    ....    DCD    4294940163
        0x000012d4:    50000200    ...P    DCD    1342177792
    $t
    i.DrvSYS_SetClockDivider
    DrvSYS_SetClockDivider
        0x000012d8:    b570        p.      PUSH     {r4-r6,lr}
        0x000012da:    4604        .F      MOV      r4,r0
        0x000012dc:    460d        .F      MOV      r5,r1
        0x000012de:    2c00        .,      CMP      r4,#0
        0x000012e0:    d10c        ..      BNE      0x12fc ; DrvSYS_SetClockDivider + 36
        0x000012e2:    481d        .H      LDR      r0,[pc,#116] ; [0x1358] = 0x50000200
        0x000012e4:    6980        .i      LDR      r0,[r0,#0x18]
        0x000012e6:    21ff        .!      MOVS     r1,#0xff
        0x000012e8:    0409        ..      LSLS     r1,r1,#16
        0x000012ea:    4388        .C      BICS     r0,r0,r1
        0x000012ec:    0429        ).      LSLS     r1,r5,#16
        0x000012ee:    22ff        ."      MOVS     r2,#0xff
        0x000012f0:    0412        ..      LSLS     r2,r2,#16
        0x000012f2:    4011        .@      ANDS     r1,r1,r2
        0x000012f4:    4308        .C      ORRS     r0,r0,r1
        0x000012f6:    4918        .I      LDR      r1,[pc,#96] ; [0x1358] = 0x50000200
        0x000012f8:    6188        .a      STR      r0,[r1,#0x18]
        0x000012fa:    e02b        +.      B        0x1354 ; DrvSYS_SetClockDivider + 124
        0x000012fc:    2c01        .,      CMP      r4,#1
        0x000012fe:    d10c        ..      BNE      0x131a ; DrvSYS_SetClockDivider + 66
        0x00001300:    4815        .H      LDR      r0,[pc,#84] ; [0x1358] = 0x50000200
        0x00001302:    6980        .i      LDR      r0,[r0,#0x18]
        0x00001304:    210f        .!      MOVS     r1,#0xf
        0x00001306:    0209        ..      LSLS     r1,r1,#8
        0x00001308:    4388        .C      BICS     r0,r0,r1
        0x0000130a:    0229        ).      LSLS     r1,r5,#8
        0x0000130c:    220f        ."      MOVS     r2,#0xf
        0x0000130e:    0212        ..      LSLS     r2,r2,#8
        0x00001310:    4011        .@      ANDS     r1,r1,r2
        0x00001312:    4308        .C      ORRS     r0,r0,r1
        0x00001314:    4910        .I      LDR      r1,[pc,#64] ; [0x1358] = 0x50000200
        0x00001316:    6188        .a      STR      r0,[r1,#0x18]
        0x00001318:    e01c        ..      B        0x1354 ; DrvSYS_SetClockDivider + 124
        0x0000131a:    2c02        .,      CMP      r4,#2
        0x0000131c:    d10a        ..      BNE      0x1334 ; DrvSYS_SetClockDivider + 92
        0x0000131e:    480e        .H      LDR      r0,[pc,#56] ; [0x1358] = 0x50000200
        0x00001320:    6980        .i      LDR      r0,[r0,#0x18]
        0x00001322:    21f0        .!      MOVS     r1,#0xf0
        0x00001324:    4388        .C      BICS     r0,r0,r1
        0x00001326:    0129        ).      LSLS     r1,r5,#4
        0x00001328:    22f0        ."      MOVS     r2,#0xf0
        0x0000132a:    4011        .@      ANDS     r1,r1,r2
        0x0000132c:    4308        .C      ORRS     r0,r0,r1
        0x0000132e:    490a        .I      LDR      r1,[pc,#40] ; [0x1358] = 0x50000200
        0x00001330:    6188        .a      STR      r0,[r1,#0x18]
        0x00001332:    e00f        ..      B        0x1354 ; DrvSYS_SetClockDivider + 124
        0x00001334:    2c03        .,      CMP      r4,#3
        0x00001336:    d10b        ..      BNE      0x1350 ; DrvSYS_SetClockDivider + 120
        0x00001338:    4807        .H      LDR      r0,[pc,#28] ; [0x1358] = 0x50000200
        0x0000133a:    6980        .i      LDR      r0,[r0,#0x18]
        0x0000133c:    0900        ..      LSRS     r0,r0,#4
        0x0000133e:    0100        ..      LSLS     r0,r0,#4
        0x00001340:    0729        ).      LSLS     r1,r5,#28
        0x00001342:    0f09        ..      LSRS     r1,r1,#28
        0x00001344:    4308        .C      ORRS     r0,r0,r1
        0x00001346:    4904        .I      LDR      r1,[pc,#16] ; [0x1358] = 0x50000200
        0x00001348:    6188        .a      STR      r0,[r1,#0x18]
        0x0000134a:    f000fd43    ..C.    BL       SystemCoreClockUpdate ; 0x1dd4
        0x0000134e:    e001        ..      B        0x1354 ; DrvSYS_SetClockDivider + 124
        0x00001350:    4802        .H      LDR      r0,[pc,#8] ; [0x135c] = 0xffff9605
        0x00001352:    bd70        p.      POP      {r4-r6,pc}
        0x00001354:    2000        .       MOVS     r0,#0
        0x00001356:    e7fc        ..      B        0x1352 ; DrvSYS_SetClockDivider + 122
    $d
        0x00001358:    50000200    ...P    DCD    1342177792
        0x0000135c:    ffff9605    ....    DCD    4294940165
    $t
    i.DrvSYS_SetPLLContent
    DrvSYS_SetPLLContent
        0x00001360:    4911        .I      LDR      r1,[pc,#68] ; [0x13a8] = 0x50000200
        0x00001362:    6a09        .j      LDR      r1,[r1,#0x20]
        0x00001364:    0a49        I.      LSRS     r1,r1,#9
        0x00001366:    0249        I.      LSLS     r1,r1,#9
        0x00001368:    05c2        ..      LSLS     r2,r0,#23
        0x0000136a:    0dd2        ..      LSRS     r2,r2,#23
        0x0000136c:    4311        .C      ORRS     r1,r1,r2
        0x0000136e:    4a0e        .J      LDR      r2,[pc,#56] ; [0x13a8] = 0x50000200
        0x00001370:    6211        .b      STR      r1,[r2,#0x20]
        0x00001372:    4611        .F      MOV      r1,r2
        0x00001374:    6a09        .j      LDR      r1,[r1,#0x20]
        0x00001376:    221f        ."      MOVS     r2,#0x1f
        0x00001378:    0252        R.      LSLS     r2,r2,#9
        0x0000137a:    4391        .C      BICS     r1,r1,r2
        0x0000137c:    0a42        B.      LSRS     r2,r0,#9
        0x0000137e:    0252        R.      LSLS     r2,r2,#9
        0x00001380:    231f        .#      MOVS     r3,#0x1f
        0x00001382:    025b        [.      LSLS     r3,r3,#9
        0x00001384:    401a        .@      ANDS     r2,r2,r3
        0x00001386:    4311        .C      ORRS     r1,r1,r2
        0x00001388:    4a07        .J      LDR      r2,[pc,#28] ; [0x13a8] = 0x50000200
        0x0000138a:    6211        .b      STR      r1,[r2,#0x20]
        0x0000138c:    4611        .F      MOV      r1,r2
        0x0000138e:    6a09        .j      LDR      r1,[r1,#0x20]
        0x00001390:    2203        ."      MOVS     r2,#3
        0x00001392:    0392        ..      LSLS     r2,r2,#14
        0x00001394:    4391        .C      BICS     r1,r1,r2
        0x00001396:    0b82        ..      LSRS     r2,r0,#14
        0x00001398:    0392        ..      LSLS     r2,r2,#14
        0x0000139a:    2303        .#      MOVS     r3,#3
        0x0000139c:    039b        ..      LSLS     r3,r3,#14
        0x0000139e:    401a        .@      ANDS     r2,r2,r3
        0x000013a0:    4311        .C      ORRS     r1,r1,r2
        0x000013a2:    4a01        .J      LDR      r2,[pc,#4] ; [0x13a8] = 0x50000200
        0x000013a4:    6211        .b      STR      r1,[r2,#0x20]
        0x000013a6:    4770        pG      BX       lr
    $d
        0x000013a8:    50000200    ...P    DCD    1342177792
    $t
    i.EINT0_IRQHandler
    EINT0_IRQHandler
        0x000013ac:    b510        ..      PUSH     {r4,lr}
        0x000013ae:    2001        .       MOVS     r0,#1
        0x000013b0:    0380        ..      LSLS     r0,r0,#14
        0x000013b2:    4905        .I      LDR      r1,[pc,#20] ; [0x13c8] = 0x50004040
        0x000013b4:    6208        .b      STR      r0,[r1,#0x20]
        0x000013b6:    4805        .H      LDR      r0,[pc,#20] ; [0x13cc] = 0x2000063c
        0x000013b8:    6800        .h      LDR      r0,[r0,#0]
        0x000013ba:    2800        .(      CMP      r0,#0
        0x000013bc:    d002        ..      BEQ      0x13c4 ; EINT0_IRQHandler + 24
        0x000013be:    4803        .H      LDR      r0,[pc,#12] ; [0x13cc] = 0x2000063c
        0x000013c0:    6800        .h      LDR      r0,[r0,#0]
        0x000013c2:    4780        .G      BLX      r0
        0x000013c4:    bd10        ..      POP      {r4,pc}
    $d
        0x000013c6:    0000        ..      DCW    0
        0x000013c8:    50004040    @@.P    DCD    1342193728
        0x000013cc:    2000063c    <..     DCD    536872508
    $t
    i.EINT1_IRQHandler
    EINT1_IRQHandler
        0x000013d0:    b510        ..      PUSH     {r4,lr}
        0x000013d2:    2001        .       MOVS     r0,#1
        0x000013d4:    03c0        ..      LSLS     r0,r0,#15
        0x000013d6:    4905        .I      LDR      r1,[pc,#20] ; [0x13ec] = 0x50004040
        0x000013d8:    6208        .b      STR      r0,[r1,#0x20]
        0x000013da:    4805        .H      LDR      r0,[pc,#20] ; [0x13f0] = 0x20000640
        0x000013dc:    6800        .h      LDR      r0,[r0,#0]
        0x000013de:    2800        .(      CMP      r0,#0
        0x000013e0:    d002        ..      BEQ      0x13e8 ; EINT1_IRQHandler + 24
        0x000013e2:    4803        .H      LDR      r0,[pc,#12] ; [0x13f0] = 0x20000640
        0x000013e4:    6800        .h      LDR      r0,[r0,#0]
        0x000013e6:    4780        .G      BLX      r0
        0x000013e8:    bd10        ..      POP      {r4,pc}
    $d
        0x000013ea:    0000        ..      DCW    0
        0x000013ec:    50004040    @@.P    DCD    1342193728
        0x000013f0:    20000640    @..     DCD    536872512
    $t
    i.GPAB_IRQHandler
    GPAB_IRQHandler
        0x000013f4:    b570        p.      PUSH     {r4-r6,lr}
        0x000013f6:    480c        .H      LDR      r0,[pc,#48] ; [0x1428] = 0x50004000
        0x000013f8:    6a05        .j      LDR      r5,[r0,#0x20]
        0x000013fa:    480b        .H      LDR      r0,[pc,#44] ; [0x1428] = 0x50004000
        0x000013fc:    3040        @0      ADDS     r0,r0,#0x40
        0x000013fe:    6a04        .j      LDR      r4,[r0,#0x20]
        0x00001400:    2103        .!      MOVS     r1,#3
        0x00001402:    0389        ..      LSLS     r1,r1,#14
        0x00001404:    4620         F      MOV      r0,r4
        0x00001406:    4388        .C      BICS     r0,r0,r1
        0x00001408:    4604        .F      MOV      r4,r0
        0x0000140a:    4807        .H      LDR      r0,[pc,#28] ; [0x1428] = 0x50004000
        0x0000140c:    6205        .b      STR      r5,[r0,#0x20]
        0x0000140e:    4806        .H      LDR      r0,[pc,#24] ; [0x1428] = 0x50004000
        0x00001410:    3040        @0      ADDS     r0,r0,#0x40
        0x00001412:    6204        .b      STR      r4,[r0,#0x20]
        0x00001414:    4805        .H      LDR      r0,[pc,#20] ; [0x142c] = 0x20000634
        0x00001416:    6800        .h      LDR      r0,[r0,#0]
        0x00001418:    2800        .(      CMP      r0,#0
        0x0000141a:    d004        ..      BEQ      0x1426 ; GPAB_IRQHandler + 50
        0x0000141c:    4621        !F      MOV      r1,r4
        0x0000141e:    4628        (F      MOV      r0,r5
        0x00001420:    4a02        .J      LDR      r2,[pc,#8] ; [0x142c] = 0x20000634
        0x00001422:    6812        .h      LDR      r2,[r2,#0]
        0x00001424:    4790        .G      BLX      r2
        0x00001426:    bd70        p.      POP      {r4-r6,pc}
    $d
        0x00001428:    50004000    .@.P    DCD    1342193664
        0x0000142c:    20000634    4..     DCD    536872500
    $t
    i.GPCDE_IRQHandler
    GPCDE_IRQHandler
        0x00001430:    b570        p.      PUSH     {r4-r6,lr}
        0x00001432:    480d        .H      LDR      r0,[pc,#52] ; [0x1468] = 0x50004080
        0x00001434:    6a04        .j      LDR      r4,[r0,#0x20]
        0x00001436:    480c        .H      LDR      r0,[pc,#48] ; [0x1468] = 0x50004080
        0x00001438:    3040        @0      ADDS     r0,r0,#0x40
        0x0000143a:    6a05        .j      LDR      r5,[r0,#0x20]
        0x0000143c:    480a        .H      LDR      r0,[pc,#40] ; [0x1468] = 0x50004080
        0x0000143e:    3080        .0      ADDS     r0,r0,#0x80
        0x00001440:    6a06        .j      LDR      r6,[r0,#0x20]
        0x00001442:    4809        .H      LDR      r0,[pc,#36] ; [0x1468] = 0x50004080
        0x00001444:    6204        .b      STR      r4,[r0,#0x20]
        0x00001446:    4808        .H      LDR      r0,[pc,#32] ; [0x1468] = 0x50004080
        0x00001448:    3040        @0      ADDS     r0,r0,#0x40
        0x0000144a:    6205        .b      STR      r5,[r0,#0x20]
        0x0000144c:    4806        .H      LDR      r0,[pc,#24] ; [0x1468] = 0x50004080
        0x0000144e:    3080        .0      ADDS     r0,r0,#0x80
        0x00001450:    6206        .b      STR      r6,[r0,#0x20]
        0x00001452:    4806        .H      LDR      r0,[pc,#24] ; [0x146c] = 0x20000638
        0x00001454:    6800        .h      LDR      r0,[r0,#0]
        0x00001456:    2800        .(      CMP      r0,#0
        0x00001458:    d005        ..      BEQ      0x1466 ; GPCDE_IRQHandler + 54
        0x0000145a:    4632        2F      MOV      r2,r6
        0x0000145c:    4629        )F      MOV      r1,r5
        0x0000145e:    4620         F      MOV      r0,r4
        0x00001460:    4b02        .K      LDR      r3,[pc,#8] ; [0x146c] = 0x20000638
        0x00001462:    681b        .h      LDR      r3,[r3,#0]
        0x00001464:    4798        .G      BLX      r3
        0x00001466:    bd70        p.      POP      {r4-r6,pc}
    $d
        0x00001468:    50004080    .@.P    DCD    1342193792
        0x0000146c:    20000638    8..     DCD    536872504
    $t
    i.HEX2Disp
    HEX2Disp
        0x00001470:    4601        .F      MOV      r1,r0
        0x00001472:    4a01        .J      LDR      r2,[pc,#4] ; [0x1478] = 0x2324
        0x00001474:    5c50        P\      LDRB     r0,[r2,r1]
        0x00001476:    4770        pG      BX       lr
    $d
        0x00001478:    00002324    $#..    DCD    8996
    $t
    i.I2C0_IRQHandler
    I2C0_IRQHandler
        0x0000147c:    b510        ..      PUSH     {r4,lr}
        0x0000147e:    481b        .H      LDR      r0,[pc,#108] ; [0x14ec] = 0x40020000
        0x00001480:    68c4        .h      LDR      r4,[r0,#0xc]
        0x00001482:    6940        @i      LDR      r0,[r0,#0x14]
        0x00001484:    07c0        ..      LSLS     r0,r0,#31
        0x00001486:    0fc0        ..      LSRS     r0,r0,#31
        0x00001488:    d00f        ..      BEQ      0x14aa ; I2C0_IRQHandler + 46
        0x0000148a:    4818        .H      LDR      r0,[pc,#96] ; [0x14ec] = 0x40020000
        0x0000148c:    6940        @i      LDR      r0,[r0,#0x14]
        0x0000148e:    0840        @.      LSRS     r0,r0,#1
        0x00001490:    0040        @.      LSLS     r0,r0,#1
        0x00001492:    1c40        @.      ADDS     r0,r0,#1
        0x00001494:    4915        .I      LDR      r1,[pc,#84] ; [0x14ec] = 0x40020000
        0x00001496:    6148        Ha      STR      r0,[r1,#0x14]
        0x00001498:    4815        .H      LDR      r0,[pc,#84] ; [0x14f0] = 0x20000644
        0x0000149a:    68c0        .h      LDR      r0,[r0,#0xc]
        0x0000149c:    2800        .(      CMP      r0,#0
        0x0000149e:    d024        $.      BEQ      0x14ea ; I2C0_IRQHandler + 110
        0x000014a0:    4813        .H      LDR      r0,[pc,#76] ; [0x14f0] = 0x20000644
        0x000014a2:    68c1        .h      LDR      r1,[r0,#0xc]
        0x000014a4:    4620         F      MOV      r0,r4
        0x000014a6:    4788        .G      BLX      r1
        0x000014a8:    e01f        ..      B        0x14ea ; I2C0_IRQHandler + 110
        0x000014aa:    2c00        .,      CMP      r4,#0
        0x000014ac:    d00a        ..      BEQ      0x14c4 ; I2C0_IRQHandler + 72
        0x000014ae:    2c38        8,      CMP      r4,#0x38
        0x000014b0:    d111        ..      BNE      0x14d6 ; I2C0_IRQHandler + 90
        0x000014b2:    480f        .H      LDR      r0,[pc,#60] ; [0x14f0] = 0x20000644
        0x000014b4:    6840        @h      LDR      r0,[r0,#4]
        0x000014b6:    2800        .(      CMP      r0,#0
        0x000014b8:    d003        ..      BEQ      0x14c2 ; I2C0_IRQHandler + 70
        0x000014ba:    480d        .H      LDR      r0,[pc,#52] ; [0x14f0] = 0x20000644
        0x000014bc:    6841        Ah      LDR      r1,[r0,#4]
        0x000014be:    4620         F      MOV      r0,r4
        0x000014c0:    4788        .G      BLX      r1
        0x000014c2:    e011        ..      B        0x14e8 ; I2C0_IRQHandler + 108
        0x000014c4:    480a        .H      LDR      r0,[pc,#40] ; [0x14f0] = 0x20000644
        0x000014c6:    6880        .h      LDR      r0,[r0,#8]
        0x000014c8:    2800        .(      CMP      r0,#0
        0x000014ca:    d003        ..      BEQ      0x14d4 ; I2C0_IRQHandler + 88
        0x000014cc:    4808        .H      LDR      r0,[pc,#32] ; [0x14f0] = 0x20000644
        0x000014ce:    6881        .h      LDR      r1,[r0,#8]
        0x000014d0:    4620         F      MOV      r0,r4
        0x000014d2:    4788        .G      BLX      r1
        0x000014d4:    e008        ..      B        0x14e8 ; I2C0_IRQHandler + 108
        0x000014d6:    4806        .H      LDR      r0,[pc,#24] ; [0x14f0] = 0x20000644
        0x000014d8:    6800        .h      LDR      r0,[r0,#0]
        0x000014da:    2800        .(      CMP      r0,#0
        0x000014dc:    d003        ..      BEQ      0x14e6 ; I2C0_IRQHandler + 106
        0x000014de:    4804        .H      LDR      r0,[pc,#16] ; [0x14f0] = 0x20000644
        0x000014e0:    6801        .h      LDR      r1,[r0,#0]
        0x000014e2:    4620         F      MOV      r0,r4
        0x000014e4:    4788        .G      BLX      r1
        0x000014e6:    bf00        ..      NOP      
        0x000014e8:    bf00        ..      NOP      
        0x000014ea:    bd10        ..      POP      {r4,pc}
    $d
        0x000014ec:    40020000    ...@    DCD    1073872896
        0x000014f0:    20000644    D..     DCD    536872516
    $t
    i.I2C1_IRQHandler
    I2C1_IRQHandler
        0x000014f4:    b510        ..      PUSH     {r4,lr}
        0x000014f6:    481b        .H      LDR      r0,[pc,#108] ; [0x1564] = 0x40120000
        0x000014f8:    68c4        .h      LDR      r4,[r0,#0xc]
        0x000014fa:    6940        @i      LDR      r0,[r0,#0x14]
        0x000014fc:    07c0        ..      LSLS     r0,r0,#31
        0x000014fe:    0fc0        ..      LSRS     r0,r0,#31
        0x00001500:    d00f        ..      BEQ      0x1522 ; I2C1_IRQHandler + 46
        0x00001502:    4818        .H      LDR      r0,[pc,#96] ; [0x1564] = 0x40120000
        0x00001504:    6940        @i      LDR      r0,[r0,#0x14]
        0x00001506:    0840        @.      LSRS     r0,r0,#1
        0x00001508:    0040        @.      LSLS     r0,r0,#1
        0x0000150a:    1c40        @.      ADDS     r0,r0,#1
        0x0000150c:    4915        .I      LDR      r1,[pc,#84] ; [0x1564] = 0x40120000
        0x0000150e:    6148        Ha      STR      r0,[r1,#0x14]
        0x00001510:    4815        .H      LDR      r0,[pc,#84] ; [0x1568] = 0x20000654
        0x00001512:    68c0        .h      LDR      r0,[r0,#0xc]
        0x00001514:    2800        .(      CMP      r0,#0
        0x00001516:    d024        $.      BEQ      0x1562 ; I2C1_IRQHandler + 110
        0x00001518:    4813        .H      LDR      r0,[pc,#76] ; [0x1568] = 0x20000654
        0x0000151a:    68c1        .h      LDR      r1,[r0,#0xc]
        0x0000151c:    4620         F      MOV      r0,r4
        0x0000151e:    4788        .G      BLX      r1
        0x00001520:    e01f        ..      B        0x1562 ; I2C1_IRQHandler + 110
        0x00001522:    2c00        .,      CMP      r4,#0
        0x00001524:    d00a        ..      BEQ      0x153c ; I2C1_IRQHandler + 72
        0x00001526:    2c38        8,      CMP      r4,#0x38
        0x00001528:    d111        ..      BNE      0x154e ; I2C1_IRQHandler + 90
        0x0000152a:    480f        .H      LDR      r0,[pc,#60] ; [0x1568] = 0x20000654
        0x0000152c:    6840        @h      LDR      r0,[r0,#4]
        0x0000152e:    2800        .(      CMP      r0,#0
        0x00001530:    d003        ..      BEQ      0x153a ; I2C1_IRQHandler + 70
        0x00001532:    480d        .H      LDR      r0,[pc,#52] ; [0x1568] = 0x20000654
        0x00001534:    6841        Ah      LDR      r1,[r0,#4]
        0x00001536:    4620         F      MOV      r0,r4
        0x00001538:    4788        .G      BLX      r1
        0x0000153a:    e011        ..      B        0x1560 ; I2C1_IRQHandler + 108
        0x0000153c:    480a        .H      LDR      r0,[pc,#40] ; [0x1568] = 0x20000654
        0x0000153e:    6880        .h      LDR      r0,[r0,#8]
        0x00001540:    2800        .(      CMP      r0,#0
        0x00001542:    d003        ..      BEQ      0x154c ; I2C1_IRQHandler + 88
        0x00001544:    4808        .H      LDR      r0,[pc,#32] ; [0x1568] = 0x20000654
        0x00001546:    6881        .h      LDR      r1,[r0,#8]
        0x00001548:    4620         F      MOV      r0,r4
        0x0000154a:    4788        .G      BLX      r1
        0x0000154c:    e008        ..      B        0x1560 ; I2C1_IRQHandler + 108
        0x0000154e:    4806        .H      LDR      r0,[pc,#24] ; [0x1568] = 0x20000654
        0x00001550:    6800        .h      LDR      r0,[r0,#0]
        0x00001552:    2800        .(      CMP      r0,#0
        0x00001554:    d003        ..      BEQ      0x155e ; I2C1_IRQHandler + 106
        0x00001556:    4804        .H      LDR      r0,[pc,#16] ; [0x1568] = 0x20000654
        0x00001558:    6801        .h      LDR      r1,[r0,#0]
        0x0000155a:    4620         F      MOV      r0,r4
        0x0000155c:    4788        .G      BLX      r1
        0x0000155e:    bf00        ..      NOP      
        0x00001560:    bf00        ..      NOP      
        0x00001562:    bd10        ..      POP      {r4,pc}
    $d
        0x00001564:    40120000    ...@    DCD    1074921472
        0x00001568:    20000654    T..     DCD    536872532
    $t
    i.InitADC4
    InitADC4
        0x0000156c:    b510        ..      PUSH     {r4,lr}
        0x0000156e:    4838        8H      LDR      r0,[pc,#224] ; [0x1650] = 0x50004000
        0x00001570:    6840        @h      LDR      r0,[r0,#4]
        0x00001572:    2101        .!      MOVS     r1,#1
        0x00001574:    0409        ..      LSLS     r1,r1,#16
        0x00001576:    4308        .C      ORRS     r0,r0,r1
        0x00001578:    4935        5I      LDR      r1,[pc,#212] ; [0x1650] = 0x50004000
        0x0000157a:    6048        H`      STR      r0,[r1,#4]
        0x0000157c:    2005        .       MOVS     r0,#5
        0x0000157e:    0700        ..      LSLS     r0,r0,#28
        0x00001580:    6b00        .k      LDR      r0,[r0,#0x30]
        0x00001582:    2110        .!      MOVS     r1,#0x10
        0x00001584:    4388        .C      BICS     r0,r0,r1
        0x00001586:    3010        .0      ADDS     r0,r0,#0x10
        0x00001588:    2105        .!      MOVS     r1,#5
        0x0000158a:    0709        ..      LSLS     r1,r1,#28
        0x0000158c:    6308        .c      STR      r0,[r1,#0x30]
        0x0000158e:    4831        1H      LDR      r0,[pc,#196] ; [0x1654] = 0x50000200
        0x00001590:    6940        @i      LDR      r0,[r0,#0x14]
        0x00001592:    210c        .!      MOVS     r1,#0xc
        0x00001594:    4388        .C      BICS     r0,r0,r1
        0x00001596:    300c        .0      ADDS     r0,r0,#0xc
        0x00001598:    492e        .I      LDR      r1,[pc,#184] ; [0x1654] = 0x50000200
        0x0000159a:    6148        Ha      STR      r0,[r1,#0x14]
        0x0000159c:    4608        .F      MOV      r0,r1
        0x0000159e:    6980        .i      LDR      r0,[r0,#0x18]
        0x000015a0:    21ff        .!      MOVS     r1,#0xff
        0x000015a2:    0409        ..      LSLS     r1,r1,#16
        0x000015a4:    4388        .C      BICS     r0,r0,r1
        0x000015a6:    2101        .!      MOVS     r1,#1
        0x000015a8:    0409        ..      LSLS     r1,r1,#16
        0x000015aa:    1840        @.      ADDS     r0,r0,r1
        0x000015ac:    4929        )I      LDR      r1,[pc,#164] ; [0x1654] = 0x50000200
        0x000015ae:    6188        .a      STR      r0,[r1,#0x18]
        0x000015b0:    4608        .F      MOV      r0,r1
        0x000015b2:    6880        .h      LDR      r0,[r0,#8]
        0x000015b4:    04c9        ..      LSLS     r1,r1,#19
        0x000015b6:    4388        .C      BICS     r0,r0,r1
        0x000015b8:    1840        @.      ADDS     r0,r0,r1
        0x000015ba:    4926        &I      LDR      r1,[pc,#152] ; [0x1654] = 0x50000200
        0x000015bc:    6088        .`      STR      r0,[r1,#8]
        0x000015be:    4826        &H      LDR      r0,[pc,#152] ; [0x1658] = 0x400e0000
        0x000015c0:    6a00        .j      LDR      r0,[r0,#0x20]
        0x000015c2:    0840        @.      LSRS     r0,r0,#1
        0x000015c4:    0040        @.      LSLS     r0,r0,#1
        0x000015c6:    1c40        @.      ADDS     r0,r0,#1
        0x000015c8:    4923        #I      LDR      r1,[pc,#140] ; [0x1658] = 0x400e0000
        0x000015ca:    6208        .b      STR      r0,[r1,#0x20]
        0x000015cc:    4608        .F      MOV      r0,r1
        0x000015ce:    6a00        .j      LDR      r0,[r0,#0x20]
        0x000015d0:    1509        ..      ASRS     r1,r1,#20
        0x000015d2:    4388        .C      BICS     r0,r0,r1
        0x000015d4:    4920         I      LDR      r1,[pc,#128] ; [0x1658] = 0x400e0000
        0x000015d6:    6208        .b      STR      r0,[r1,#0x20]
        0x000015d8:    4608        .F      MOV      r0,r1
        0x000015da:    6a00        .j      LDR      r0,[r0,#0x20]
        0x000015dc:    210c        .!      MOVS     r1,#0xc
        0x000015de:    4388        .C      BICS     r0,r0,r1
        0x000015e0:    491d        .I      LDR      r1,[pc,#116] ; [0x1658] = 0x400e0000
        0x000015e2:    6208        .b      STR      r0,[r1,#0x20]
        0x000015e4:    4608        .F      MOV      r0,r1
        0x000015e6:    6a40        @j      LDR      r0,[r0,#0x24]
        0x000015e8:    0a00        ..      LSRS     r0,r0,#8
        0x000015ea:    0200        ..      LSLS     r0,r0,#8
        0x000015ec:    3010        .0      ADDS     r0,r0,#0x10
        0x000015ee:    6248        Hb      STR      r0,[r1,#0x24]
        0x000015f0:    4608        .F      MOV      r0,r1
        0x000015f2:    6a80        .j      LDR      r0,[r0,#0x28]
        0x000015f4:    4919        .I      LDR      r1,[pc,#100] ; [0x165c] = 0xf000ffff
        0x000015f6:    4008        .@      ANDS     r0,r0,r1
        0x000015f8:    2125        %!      MOVS     r1,#0x25
        0x000015fa:    0509        ..      LSLS     r1,r1,#20
        0x000015fc:    1840        @.      ADDS     r0,r0,r1
        0x000015fe:    4916        .I      LDR      r1,[pc,#88] ; [0x1658] = 0x400e0000
        0x00001600:    6288        .b      STR      r0,[r1,#0x28]
        0x00001602:    4608        .F      MOV      r0,r1
        0x00001604:    6a80        .j      LDR      r0,[r0,#0x28]
        0x00001606:    2138        8!      MOVS     r1,#0x38
        0x00001608:    4388        .C      BICS     r0,r0,r1
        0x0000160a:    3020         0      ADDS     r0,r0,#0x20
        0x0000160c:    4912        .I      LDR      r1,[pc,#72] ; [0x1658] = 0x400e0000
        0x0000160e:    6288        .b      STR      r0,[r1,#0x28]
        0x00001610:    4608        .F      MOV      r0,r1
        0x00001612:    6a80        .j      LDR      r0,[r0,#0x28]
        0x00001614:    2104        .!      MOVS     r1,#4
        0x00001616:    4388        .C      BICS     r0,r0,r1
        0x00001618:    490f        .I      LDR      r1,[pc,#60] ; [0x1658] = 0x400e0000
        0x0000161a:    6288        .b      STR      r0,[r1,#0x28]
        0x0000161c:    4608        .F      MOV      r0,r1
        0x0000161e:    6a80        .j      LDR      r0,[r0,#0x28]
        0x00001620:    2102        .!      MOVS     r1,#2
        0x00001622:    4388        .C      BICS     r0,r0,r1
        0x00001624:    1c80        ..      ADDS     r0,r0,#2
        0x00001626:    490c        .I      LDR      r1,[pc,#48] ; [0x1658] = 0x400e0000
        0x00001628:    6288        .b      STR      r0,[r1,#0x28]
        0x0000162a:    4608        .F      MOV      r0,r1
        0x0000162c:    6a80        .j      LDR      r0,[r0,#0x28]
        0x0000162e:    0840        @.      LSRS     r0,r0,#1
        0x00001630:    0040        @.      LSLS     r0,r0,#1
        0x00001632:    1c40        @.      ADDS     r0,r0,#1
        0x00001634:    6288        .b      STR      r0,[r1,#0x28]
        0x00001636:    201d        .       MOVS     r0,#0x1d
        0x00001638:    f000f9ae    ....    BL       NVIC_EnableIRQ ; 0x1998
        0x0000163c:    4806        .H      LDR      r0,[pc,#24] ; [0x1658] = 0x400e0000
        0x0000163e:    6a00        .j      LDR      r0,[r0,#0x20]
        0x00001640:    2101        .!      MOVS     r1,#1
        0x00001642:    02c9        ..      LSLS     r1,r1,#11
        0x00001644:    4388        .C      BICS     r0,r0,r1
        0x00001646:    1840        @.      ADDS     r0,r0,r1
        0x00001648:    4903        .I      LDR      r1,[pc,#12] ; [0x1658] = 0x400e0000
        0x0000164a:    6208        .b      STR      r0,[r1,#0x20]
        0x0000164c:    bd10        ..      POP      {r4,pc}
    $d
        0x0000164e:    0000        ..      DCW    0
        0x00001650:    50004000    .@.P    DCD    1342193664
        0x00001654:    50000200    ...P    DCD    1342177792
        0x00001658:    400e0000    ...@    DCD    1074659328
        0x0000165c:    f000ffff    ....    DCD    4026597375
    $t
    i.InitTIMER0
    InitTIMER0
        0x00001660:    b510        ..      PUSH     {r4,lr}
        0x00001662:    4820         H      LDR      r0,[pc,#128] ; [0x16e4] = 0x50000200
        0x00001664:    6940        @i      LDR      r0,[r0,#0x14]
        0x00001666:    2107        .!      MOVS     r1,#7
        0x00001668:    0209        ..      LSLS     r1,r1,#8
        0x0000166a:    4388        .C      BICS     r0,r0,r1
        0x0000166c:    491d        .I      LDR      r1,[pc,#116] ; [0x16e4] = 0x50000200
        0x0000166e:    6148        Ha      STR      r0,[r1,#0x14]
        0x00001670:    4608        .F      MOV      r0,r1
        0x00001672:    6880        .h      LDR      r0,[r0,#8]
        0x00001674:    2104        .!      MOVS     r1,#4
        0x00001676:    4388        .C      BICS     r0,r0,r1
        0x00001678:    1d00        ..      ADDS     r0,r0,#4
        0x0000167a:    491a        .I      LDR      r1,[pc,#104] ; [0x16e4] = 0x50000200
        0x0000167c:    6088        .`      STR      r0,[r1,#8]
        0x0000167e:    481a        .H      LDR      r0,[pc,#104] ; [0x16e8] = 0x40010000
        0x00001680:    6800        .h      LDR      r0,[r0,#0]
        0x00001682:    2103        .!      MOVS     r1,#3
        0x00001684:    06c9        ..      LSLS     r1,r1,#27
        0x00001686:    4388        .C      BICS     r0,r0,r1
        0x00001688:    2101        .!      MOVS     r1,#1
        0x0000168a:    06c9        ..      LSLS     r1,r1,#27
        0x0000168c:    1840        @.      ADDS     r0,r0,r1
        0x0000168e:    4916        .I      LDR      r1,[pc,#88] ; [0x16e8] = 0x40010000
        0x00001690:    6008        .`      STR      r0,[r1,#0]
        0x00001692:    4608        .F      MOV      r0,r1
        0x00001694:    6800        .h      LDR      r0,[r0,#0]
        0x00001696:    0a00        ..      LSRS     r0,r0,#8
        0x00001698:    0200        ..      LSLS     r0,r0,#8
        0x0000169a:    300b        .0      ADDS     r0,r0,#0xb
        0x0000169c:    6008        .`      STR      r0,[r1,#0]
        0x0000169e:    4813        .H      LDR      r0,[pc,#76] ; [0x16ec] = 0x493e0
        0x000016a0:    6048        H`      STR      r0,[r1,#4]
        0x000016a2:    4608        .F      MOV      r0,r1
        0x000016a4:    6800        .h      LDR      r0,[r0,#0]
        0x000016a6:    0349        I.      LSLS     r1,r1,#13
        0x000016a8:    4388        .C      BICS     r0,r0,r1
        0x000016aa:    1840        @.      ADDS     r0,r0,r1
        0x000016ac:    490e        .I      LDR      r1,[pc,#56] ; [0x16e8] = 0x40010000
        0x000016ae:    6008        .`      STR      r0,[r1,#0]
        0x000016b0:    4608        .F      MOV      r0,r1
        0x000016b2:    6880        .h      LDR      r0,[r0,#8]
        0x000016b4:    0840        @.      LSRS     r0,r0,#1
        0x000016b6:    0040        @.      LSLS     r0,r0,#1
        0x000016b8:    1c40        @.      ADDS     r0,r0,#1
        0x000016ba:    6088        .`      STR      r0,[r1,#8]
        0x000016bc:    2008        .       MOVS     r0,#8
        0x000016be:    f000f96b    ..k.    BL       NVIC_EnableIRQ ; 0x1998
        0x000016c2:    4809        .H      LDR      r0,[pc,#36] ; [0x16e8] = 0x40010000
        0x000016c4:    6800        .h      LDR      r0,[r0,#0]
        0x000016c6:    2101        .!      MOVS     r1,#1
        0x000016c8:    0689        ..      LSLS     r1,r1,#26
        0x000016ca:    4388        .C      BICS     r0,r0,r1
        0x000016cc:    1840        @.      ADDS     r0,r0,r1
        0x000016ce:    4906        .I      LDR      r1,[pc,#24] ; [0x16e8] = 0x40010000
        0x000016d0:    6008        .`      STR      r0,[r1,#0]
        0x000016d2:    4608        .F      MOV      r0,r1
        0x000016d4:    6800        .h      LDR      r0,[r0,#0]
        0x000016d6:    0389        ..      LSLS     r1,r1,#14
        0x000016d8:    4388        .C      BICS     r0,r0,r1
        0x000016da:    1840        @.      ADDS     r0,r0,r1
        0x000016dc:    4902        .I      LDR      r1,[pc,#8] ; [0x16e8] = 0x40010000
        0x000016de:    6008        .`      STR      r0,[r1,#0]
        0x000016e0:    bd10        ..      POP      {r4,pc}
    $d
        0x000016e2:    0000        ..      DCW    0
        0x000016e4:    50000200    ...P    DCD    1342177792
        0x000016e8:    40010000    ...@    DCD    1073807360
        0x000016ec:    000493e0    ....    DCD    300000
    $t
    i.InitTIMER1
    InitTIMER1
        0x000016f0:    b510        ..      PUSH     {r4,lr}
        0x000016f2:    4820         H      LDR      r0,[pc,#128] ; [0x1774] = 0x50000200
        0x000016f4:    6940        @i      LDR      r0,[r0,#0x14]
        0x000016f6:    2107        .!      MOVS     r1,#7
        0x000016f8:    0309        ..      LSLS     r1,r1,#12
        0x000016fa:    4388        .C      BICS     r0,r0,r1
        0x000016fc:    491d        .I      LDR      r1,[pc,#116] ; [0x1774] = 0x50000200
        0x000016fe:    6148        Ha      STR      r0,[r1,#0x14]
        0x00001700:    4608        .F      MOV      r0,r1
        0x00001702:    6880        .h      LDR      r0,[r0,#8]
        0x00001704:    2108        .!      MOVS     r1,#8
        0x00001706:    4388        .C      BICS     r0,r0,r1
        0x00001708:    3008        .0      ADDS     r0,r0,#8
        0x0000170a:    491a        .I      LDR      r1,[pc,#104] ; [0x1774] = 0x50000200
        0x0000170c:    6088        .`      STR      r0,[r1,#8]
        0x0000170e:    481a        .H      LDR      r0,[pc,#104] ; [0x1778] = 0x40010000
        0x00001710:    6a00        .j      LDR      r0,[r0,#0x20]
        0x00001712:    2103        .!      MOVS     r1,#3
        0x00001714:    06c9        ..      LSLS     r1,r1,#27
        0x00001716:    4388        .C      BICS     r0,r0,r1
        0x00001718:    2101        .!      MOVS     r1,#1
        0x0000171a:    06c9        ..      LSLS     r1,r1,#27
        0x0000171c:    1840        @.      ADDS     r0,r0,r1
        0x0000171e:    4916        .I      LDR      r1,[pc,#88] ; [0x1778] = 0x40010000
        0x00001720:    6208        .b      STR      r0,[r1,#0x20]
        0x00001722:    4608        .F      MOV      r0,r1
        0x00001724:    6a00        .j      LDR      r0,[r0,#0x20]
        0x00001726:    0a00        ..      LSRS     r0,r0,#8
        0x00001728:    0200        ..      LSLS     r0,r0,#8
        0x0000172a:    300b        .0      ADDS     r0,r0,#0xb
        0x0000172c:    6208        .b      STR      r0,[r1,#0x20]
        0x0000172e:    4813        .H      LDR      r0,[pc,#76] ; [0x177c] = 0xf4240
        0x00001730:    6248        Hb      STR      r0,[r1,#0x24]
        0x00001732:    4608        .F      MOV      r0,r1
        0x00001734:    6a00        .j      LDR      r0,[r0,#0x20]
        0x00001736:    0349        I.      LSLS     r1,r1,#13
        0x00001738:    4388        .C      BICS     r0,r0,r1
        0x0000173a:    1840        @.      ADDS     r0,r0,r1
        0x0000173c:    490e        .I      LDR      r1,[pc,#56] ; [0x1778] = 0x40010000
        0x0000173e:    6208        .b      STR      r0,[r1,#0x20]
        0x00001740:    4608        .F      MOV      r0,r1
        0x00001742:    6a80        .j      LDR      r0,[r0,#0x28]
        0x00001744:    0840        @.      LSRS     r0,r0,#1
        0x00001746:    0040        @.      LSLS     r0,r0,#1
        0x00001748:    1c40        @.      ADDS     r0,r0,#1
        0x0000174a:    6288        .b      STR      r0,[r1,#0x28]
        0x0000174c:    2009        .       MOVS     r0,#9
        0x0000174e:    f000f923    ..#.    BL       NVIC_EnableIRQ ; 0x1998
        0x00001752:    4809        .H      LDR      r0,[pc,#36] ; [0x1778] = 0x40010000
        0x00001754:    6a00        .j      LDR      r0,[r0,#0x20]
        0x00001756:    2101        .!      MOVS     r1,#1
        0x00001758:    0689        ..      LSLS     r1,r1,#26
        0x0000175a:    4388        .C      BICS     r0,r0,r1
        0x0000175c:    1840        @.      ADDS     r0,r0,r1
        0x0000175e:    4906        .I      LDR      r1,[pc,#24] ; [0x1778] = 0x40010000
        0x00001760:    6208        .b      STR      r0,[r1,#0x20]
        0x00001762:    4608        .F      MOV      r0,r1
        0x00001764:    6a00        .j      LDR      r0,[r0,#0x20]
        0x00001766:    0389        ..      LSLS     r1,r1,#14
        0x00001768:    4388        .C      BICS     r0,r0,r1
        0x0000176a:    1840        @.      ADDS     r0,r0,r1
        0x0000176c:    4902        .I      LDR      r1,[pc,#8] ; [0x1778] = 0x40010000
        0x0000176e:    6208        .b      STR      r0,[r1,#0x20]
        0x00001770:    bd10        ..      POP      {r4,pc}
    $d
        0x00001772:    0000        ..      DCW    0
        0x00001774:    50000200    ...P    DCD    1342177792
        0x00001778:    40010000    ...@    DCD    1073807360
        0x0000177c:    000f4240    @B..    DCD    1000000
    $t
    i.Initial_pannel
    Initial_pannel
        0x00001780:    4883        .H      LDR      r0,[pc,#524] ; [0x1990] = 0x50000200
        0x00001782:    6880        .h      LDR      r0,[r0,#8]
        0x00001784:    2101        .!      MOVS     r1,#1
        0x00001786:    03c9        ..      LSLS     r1,r1,#15
        0x00001788:    4388        .C      BICS     r0,r0,r1
        0x0000178a:    1840        @.      ADDS     r0,r0,r1
        0x0000178c:    4980        .I      LDR      r1,[pc,#512] ; [0x1990] = 0x50000200
        0x0000178e:    6088        .`      STR      r0,[r1,#8]
        0x00001790:    2005        .       MOVS     r0,#5
        0x00001792:    0700        ..      LSLS     r0,r0,#28
        0x00001794:    68c0        .h      LDR      r0,[r0,#0xc]
        0x00001796:    0189        ..      LSLS     r1,r1,#6
        0x00001798:    4388        .C      BICS     r0,r0,r1
        0x0000179a:    1840        @.      ADDS     r0,r0,r1
        0x0000179c:    2105        .!      MOVS     r1,#5
        0x0000179e:    0709        ..      LSLS     r1,r1,#28
        0x000017a0:    60c8        .`      STR      r0,[r1,#0xc]
        0x000017a2:    4608        .F      MOV      r0,r1
        0x000017a4:    68c0        .h      LDR      r0,[r0,#0xc]
        0x000017a6:    2101        .!      MOVS     r1,#1
        0x000017a8:    03c9        ..      LSLS     r1,r1,#15
        0x000017aa:    4388        .C      BICS     r0,r0,r1
        0x000017ac:    2105        .!      MOVS     r1,#5
        0x000017ae:    0709        ..      LSLS     r1,r1,#28
        0x000017b0:    60c8        .`      STR      r0,[r1,#0xc]
        0x000017b2:    4608        .F      MOV      r0,r1
        0x000017b4:    6bc0        .k      LDR      r0,[r0,#0x3c]
        0x000017b6:    21ff        .!      MOVS     r1,#0xff
        0x000017b8:    3101        .1      ADDS     r1,#1
        0x000017ba:    4388        .C      BICS     r0,r0,r1
        0x000017bc:    1840        @.      ADDS     r0,r0,r1
        0x000017be:    2105        .!      MOVS     r1,#5
        0x000017c0:    0709        ..      LSLS     r1,r1,#28
        0x000017c2:    63c8        .c      STR      r0,[r1,#0x3c]
        0x000017c4:    4608        .F      MOV      r0,r1
        0x000017c6:    6bc0        .k      LDR      r0,[r0,#0x3c]
        0x000017c8:    2101        .!      MOVS     r1,#1
        0x000017ca:    0249        I.      LSLS     r1,r1,#9
        0x000017cc:    4388        .C      BICS     r0,r0,r1
        0x000017ce:    1840        @.      ADDS     r0,r0,r1
        0x000017d0:    2105        .!      MOVS     r1,#5
        0x000017d2:    0709        ..      LSLS     r1,r1,#28
        0x000017d4:    63c8        .c      STR      r0,[r1,#0x3c]
        0x000017d6:    4608        .F      MOV      r0,r1
        0x000017d8:    6bc0        .k      LDR      r0,[r0,#0x3c]
        0x000017da:    2101        .!      MOVS     r1,#1
        0x000017dc:    02c9        ..      LSLS     r1,r1,#11
        0x000017de:    4388        .C      BICS     r0,r0,r1
        0x000017e0:    1840        @.      ADDS     r0,r0,r1
        0x000017e2:    2105        .!      MOVS     r1,#5
        0x000017e4:    0709        ..      LSLS     r1,r1,#28
        0x000017e6:    63c8        .c      STR      r0,[r1,#0x3c]
        0x000017e8:    486a        jH      LDR      r0,[pc,#424] ; [0x1994] = 0x20000020
        0x000017ea:    68c0        .h      LDR      r0,[r0,#0xc]
        0x000017ec:    6800        .h      LDR      r0,[r0,#0]
        0x000017ee:    2101        .!      MOVS     r1,#1
        0x000017f0:    02c9        ..      LSLS     r1,r1,#11
        0x000017f2:    4388        .C      BICS     r0,r0,r1
        0x000017f4:    1840        @.      ADDS     r0,r0,r1
        0x000017f6:    4967        gI      LDR      r1,[pc,#412] ; [0x1994] = 0x20000020
        0x000017f8:    68c9        .h      LDR      r1,[r1,#0xc]
        0x000017fa:    6008        .`      STR      r0,[r1,#0]
        0x000017fc:    4865        eH      LDR      r0,[pc,#404] ; [0x1994] = 0x20000020
        0x000017fe:    68c0        .h      LDR      r0,[r0,#0xc]
        0x00001800:    6800        .h      LDR      r0,[r0,#0]
        0x00001802:    21f8        .!      MOVS     r1,#0xf8
        0x00001804:    4388        .C      BICS     r0,r0,r1
        0x00001806:    3048        H0      ADDS     r0,r0,#0x48
        0x00001808:    4962        bI      LDR      r1,[pc,#392] ; [0x1994] = 0x20000020
        0x0000180a:    68c9        .h      LDR      r1,[r1,#0xc]
        0x0000180c:    6008        .`      STR      r0,[r1,#0]
        0x0000180e:    4861        aH      LDR      r0,[pc,#388] ; [0x1994] = 0x20000020
        0x00001810:    68c0        .h      LDR      r0,[r0,#0xc]
        0x00001812:    6800        .h      LDR      r0,[r0,#0]
        0x00001814:    2104        .!      MOVS     r1,#4
        0x00001816:    4388        .C      BICS     r0,r0,r1
        0x00001818:    1d00        ..      ADDS     r0,r0,#4
        0x0000181a:    495e        ^I      LDR      r1,[pc,#376] ; [0x1994] = 0x20000020
        0x0000181c:    68c9        .h      LDR      r1,[r1,#0xc]
        0x0000181e:    6008        .`      STR      r0,[r1,#0]
        0x00001820:    485c        \H      LDR      r0,[pc,#368] ; [0x1994] = 0x20000020
        0x00001822:    68c0        .h      LDR      r0,[r0,#0xc]
        0x00001824:    6840        @h      LDR      r0,[r0,#4]
        0x00001826:    0c00        ..      LSRS     r0,r0,#16
        0x00001828:    0400        ..      LSLS     r0,r0,#16
        0x0000182a:    1cc0        ..      ADDS     r0,r0,#3
        0x0000182c:    4959        YI      LDR      r1,[pc,#356] ; [0x1994] = 0x20000020
        0x0000182e:    68c9        .h      LDR      r1,[r1,#0xc]
        0x00001830:    6048        H`      STR      r0,[r1,#4]
        0x00001832:    4858        XH      LDR      r0,[pc,#352] ; [0x1994] = 0x20000020
        0x00001834:    68c0        .h      LDR      r0,[r0,#0xc]
        0x00001836:    6880        .h      LDR      r0,[r0,#8]
        0x00001838:    0880        ..      LSRS     r0,r0,#2
        0x0000183a:    0080        ..      LSLS     r0,r0,#2
        0x0000183c:    1c40        @.      ADDS     r0,r0,#1
        0x0000183e:    4955        UI      LDR      r1,[pc,#340] ; [0x1994] = 0x20000020
        0x00001840:    68c9        .h      LDR      r1,[r1,#0xc]
        0x00001842:    6088        .`      STR      r0,[r1,#8]
        0x00001844:    20eb        .       MOVS     r0,#0xeb
        0x00001846:    4953        SI      LDR      r1,[pc,#332] ; [0x1994] = 0x20000020
        0x00001848:    68c9        .h      LDR      r1,[r1,#0xc]
        0x0000184a:    6208        .b      STR      r0,[r1,#0x20]
        0x0000184c:    4851        QH      LDR      r0,[pc,#324] ; [0x1994] = 0x20000020
        0x0000184e:    68c0        .h      LDR      r0,[r0,#0xc]
        0x00001850:    6800        .h      LDR      r0,[r0,#0]
        0x00001852:    0840        @.      LSRS     r0,r0,#1
        0x00001854:    0040        @.      LSLS     r0,r0,#1
        0x00001856:    1c40        @.      ADDS     r0,r0,#1
        0x00001858:    494e        NI      LDR      r1,[pc,#312] ; [0x1994] = 0x20000020
        0x0000185a:    68c9        .h      LDR      r1,[r1,#0xc]
        0x0000185c:    6008        .`      STR      r0,[r1,#0]
        0x0000185e:    bf00        ..      NOP      
        0x00001860:    484c        LH      LDR      r0,[pc,#304] ; [0x1994] = 0x20000020
        0x00001862:    68c0        .h      LDR      r0,[r0,#0xc]
        0x00001864:    6800        .h      LDR      r0,[r0,#0]
        0x00001866:    07c0        ..      LSLS     r0,r0,#31
        0x00001868:    0fc0        ..      LSRS     r0,r0,#31
        0x0000186a:    2801        .(      CMP      r0,#1
        0x0000186c:    d0f8        ..      BEQ      0x1860 ; Initial_pannel + 224
        0x0000186e:    4849        IH      LDR      r0,[pc,#292] ; [0x1994] = 0x20000020
        0x00001870:    68c0        .h      LDR      r0,[r0,#0xc]
        0x00001872:    6880        .h      LDR      r0,[r0,#8]
        0x00001874:    0880        ..      LSRS     r0,r0,#2
        0x00001876:    0080        ..      LSLS     r0,r0,#2
        0x00001878:    4946        FI      LDR      r1,[pc,#280] ; [0x1994] = 0x20000020
        0x0000187a:    68c9        .h      LDR      r1,[r1,#0xc]
        0x0000187c:    6088        .`      STR      r0,[r1,#8]
        0x0000187e:    4845        EH      LDR      r0,[pc,#276] ; [0x1994] = 0x20000020
        0x00001880:    68c0        .h      LDR      r0,[r0,#0xc]
        0x00001882:    6880        .h      LDR      r0,[r0,#8]
        0x00001884:    0880        ..      LSRS     r0,r0,#2
        0x00001886:    0080        ..      LSLS     r0,r0,#2
        0x00001888:    1c40        @.      ADDS     r0,r0,#1
        0x0000188a:    4942        BI      LDR      r1,[pc,#264] ; [0x1994] = 0x20000020
        0x0000188c:    68c9        .h      LDR      r1,[r1,#0xc]
        0x0000188e:    6088        .`      STR      r0,[r1,#8]
        0x00001890:    2081        .       MOVS     r0,#0x81
        0x00001892:    4940        @I      LDR      r1,[pc,#256] ; [0x1994] = 0x20000020
        0x00001894:    68c9        .h      LDR      r1,[r1,#0xc]
        0x00001896:    6208        .b      STR      r0,[r1,#0x20]
        0x00001898:    483e        >H      LDR      r0,[pc,#248] ; [0x1994] = 0x20000020
        0x0000189a:    68c0        .h      LDR      r0,[r0,#0xc]
        0x0000189c:    6800        .h      LDR      r0,[r0,#0]
        0x0000189e:    0840        @.      LSRS     r0,r0,#1
        0x000018a0:    0040        @.      LSLS     r0,r0,#1
        0x000018a2:    1c40        @.      ADDS     r0,r0,#1
        0x000018a4:    493b        ;I      LDR      r1,[pc,#236] ; [0x1994] = 0x20000020
        0x000018a6:    68c9        .h      LDR      r1,[r1,#0xc]
        0x000018a8:    6008        .`      STR      r0,[r1,#0]
        0x000018aa:    bf00        ..      NOP      
        0x000018ac:    4839        9H      LDR      r0,[pc,#228] ; [0x1994] = 0x20000020
        0x000018ae:    68c0        .h      LDR      r0,[r0,#0xc]
        0x000018b0:    6800        .h      LDR      r0,[r0,#0]
        0x000018b2:    07c0        ..      LSLS     r0,r0,#31
        0x000018b4:    0fc0        ..      LSRS     r0,r0,#31
        0x000018b6:    2801        .(      CMP      r0,#1
        0x000018b8:    d0f8        ..      BEQ      0x18ac ; Initial_pannel + 300
        0x000018ba:    20a0        .       MOVS     r0,#0xa0
        0x000018bc:    4935        5I      LDR      r1,[pc,#212] ; [0x1994] = 0x20000020
        0x000018be:    68c9        .h      LDR      r1,[r1,#0xc]
        0x000018c0:    6208        .b      STR      r0,[r1,#0x20]
        0x000018c2:    4834        4H      LDR      r0,[pc,#208] ; [0x1994] = 0x20000020
        0x000018c4:    68c0        .h      LDR      r0,[r0,#0xc]
        0x000018c6:    6800        .h      LDR      r0,[r0,#0]
        0x000018c8:    0840        @.      LSRS     r0,r0,#1
        0x000018ca:    0040        @.      LSLS     r0,r0,#1
        0x000018cc:    1c40        @.      ADDS     r0,r0,#1
        0x000018ce:    4931        1I      LDR      r1,[pc,#196] ; [0x1994] = 0x20000020
        0x000018d0:    68c9        .h      LDR      r1,[r1,#0xc]
        0x000018d2:    6008        .`      STR      r0,[r1,#0]
        0x000018d4:    bf00        ..      NOP      
        0x000018d6:    482f        /H      LDR      r0,[pc,#188] ; [0x1994] = 0x20000020
        0x000018d8:    68c0        .h      LDR      r0,[r0,#0xc]
        0x000018da:    6800        .h      LDR      r0,[r0,#0]
        0x000018dc:    07c0        ..      LSLS     r0,r0,#31
        0x000018de:    0fc0        ..      LSRS     r0,r0,#31
        0x000018e0:    2801        .(      CMP      r0,#1
        0x000018e2:    d0f8        ..      BEQ      0x18d6 ; Initial_pannel + 342
        0x000018e4:    482b        +H      LDR      r0,[pc,#172] ; [0x1994] = 0x20000020
        0x000018e6:    68c0        .h      LDR      r0,[r0,#0xc]
        0x000018e8:    6880        .h      LDR      r0,[r0,#8]
        0x000018ea:    0880        ..      LSRS     r0,r0,#2
        0x000018ec:    0080        ..      LSLS     r0,r0,#2
        0x000018ee:    4929        )I      LDR      r1,[pc,#164] ; [0x1994] = 0x20000020
        0x000018f0:    68c9        .h      LDR      r1,[r1,#0xc]
        0x000018f2:    6088        .`      STR      r0,[r1,#8]
        0x000018f4:    4827        'H      LDR      r0,[pc,#156] ; [0x1994] = 0x20000020
        0x000018f6:    68c0        .h      LDR      r0,[r0,#0xc]
        0x000018f8:    6880        .h      LDR      r0,[r0,#8]
        0x000018fa:    0880        ..      LSRS     r0,r0,#2
        0x000018fc:    0080        ..      LSLS     r0,r0,#2
        0x000018fe:    1c40        @.      ADDS     r0,r0,#1
        0x00001900:    4924        $I      LDR      r1,[pc,#144] ; [0x1994] = 0x20000020
        0x00001902:    68c9        .h      LDR      r1,[r1,#0xc]
        0x00001904:    6088        .`      STR      r0,[r1,#8]
        0x00001906:    20c0        .       MOVS     r0,#0xc0
        0x00001908:    4922        "I      LDR      r1,[pc,#136] ; [0x1994] = 0x20000020
        0x0000190a:    68c9        .h      LDR      r1,[r1,#0xc]
        0x0000190c:    6208        .b      STR      r0,[r1,#0x20]
        0x0000190e:    4821        !H      LDR      r0,[pc,#132] ; [0x1994] = 0x20000020
        0x00001910:    68c0        .h      LDR      r0,[r0,#0xc]
        0x00001912:    6800        .h      LDR      r0,[r0,#0]
        0x00001914:    0840        @.      LSRS     r0,r0,#1
        0x00001916:    0040        @.      LSLS     r0,r0,#1
        0x00001918:    1c40        @.      ADDS     r0,r0,#1
        0x0000191a:    491e        .I      LDR      r1,[pc,#120] ; [0x1994] = 0x20000020
        0x0000191c:    68c9        .h      LDR      r1,[r1,#0xc]
        0x0000191e:    6008        .`      STR      r0,[r1,#0]
        0x00001920:    bf00        ..      NOP      
        0x00001922:    481c        .H      LDR      r0,[pc,#112] ; [0x1994] = 0x20000020
        0x00001924:    68c0        .h      LDR      r0,[r0,#0xc]
        0x00001926:    6800        .h      LDR      r0,[r0,#0]
        0x00001928:    07c0        ..      LSLS     r0,r0,#31
        0x0000192a:    0fc0        ..      LSRS     r0,r0,#31
        0x0000192c:    2801        .(      CMP      r0,#1
        0x0000192e:    d0f8        ..      BEQ      0x1922 ; Initial_pannel + 418
        0x00001930:    4818        .H      LDR      r0,[pc,#96] ; [0x1994] = 0x20000020
        0x00001932:    68c0        .h      LDR      r0,[r0,#0xc]
        0x00001934:    6880        .h      LDR      r0,[r0,#8]
        0x00001936:    0880        ..      LSRS     r0,r0,#2
        0x00001938:    0080        ..      LSLS     r0,r0,#2
        0x0000193a:    4916        .I      LDR      r1,[pc,#88] ; [0x1994] = 0x20000020
        0x0000193c:    68c9        .h      LDR      r1,[r1,#0xc]
        0x0000193e:    6088        .`      STR      r0,[r1,#8]
        0x00001940:    4814        .H      LDR      r0,[pc,#80] ; [0x1994] = 0x20000020
        0x00001942:    68c0        .h      LDR      r0,[r0,#0xc]
        0x00001944:    6880        .h      LDR      r0,[r0,#8]
        0x00001946:    0880        ..      LSRS     r0,r0,#2
        0x00001948:    0080        ..      LSLS     r0,r0,#2
        0x0000194a:    1c40        @.      ADDS     r0,r0,#1
        0x0000194c:    4911        .I      LDR      r1,[pc,#68] ; [0x1994] = 0x20000020
        0x0000194e:    68c9        .h      LDR      r1,[r1,#0xc]
        0x00001950:    6088        .`      STR      r0,[r1,#8]
        0x00001952:    20af        .       MOVS     r0,#0xaf
        0x00001954:    490f        .I      LDR      r1,[pc,#60] ; [0x1994] = 0x20000020
        0x00001956:    68c9        .h      LDR      r1,[r1,#0xc]
        0x00001958:    6208        .b      STR      r0,[r1,#0x20]
        0x0000195a:    480e        .H      LDR      r0,[pc,#56] ; [0x1994] = 0x20000020
        0x0000195c:    68c0        .h      LDR      r0,[r0,#0xc]
        0x0000195e:    6800        .h      LDR      r0,[r0,#0]
        0x00001960:    0840        @.      LSRS     r0,r0,#1
        0x00001962:    0040        @.      LSLS     r0,r0,#1
        0x00001964:    1c40        @.      ADDS     r0,r0,#1
        0x00001966:    490b        .I      LDR      r1,[pc,#44] ; [0x1994] = 0x20000020
        0x00001968:    68c9        .h      LDR      r1,[r1,#0xc]
        0x0000196a:    6008        .`      STR      r0,[r1,#0]
        0x0000196c:    bf00        ..      NOP      
        0x0000196e:    4809        .H      LDR      r0,[pc,#36] ; [0x1994] = 0x20000020
        0x00001970:    68c0        .h      LDR      r0,[r0,#0xc]
        0x00001972:    6800        .h      LDR      r0,[r0,#0]
        0x00001974:    07c0        ..      LSLS     r0,r0,#31
        0x00001976:    0fc0        ..      LSRS     r0,r0,#31
        0x00001978:    2801        .(      CMP      r0,#1
        0x0000197a:    d0f8        ..      BEQ      0x196e ; Initial_pannel + 494
        0x0000197c:    4805        .H      LDR      r0,[pc,#20] ; [0x1994] = 0x20000020
        0x0000197e:    68c0        .h      LDR      r0,[r0,#0xc]
        0x00001980:    6880        .h      LDR      r0,[r0,#8]
        0x00001982:    0880        ..      LSRS     r0,r0,#2
        0x00001984:    0080        ..      LSLS     r0,r0,#2
        0x00001986:    4903        .I      LDR      r1,[pc,#12] ; [0x1994] = 0x20000020
        0x00001988:    68c9        .h      LDR      r1,[r1,#0xc]
        0x0000198a:    6088        .`      STR      r0,[r1,#8]
        0x0000198c:    4770        pG      BX       lr
    $d
        0x0000198e:    0000        ..      DCW    0
        0x00001990:    50000200    ...P    DCD    1342177792
        0x00001994:    20000020     ..     DCD    536870944
    $t
    i.NVIC_EnableIRQ
    NVIC_EnableIRQ
        0x00001998:    06c2        ..      LSLS     r2,r0,#27
        0x0000199a:    0ed2        ..      LSRS     r2,r2,#27
        0x0000199c:    2101        .!      MOVS     r1,#1
        0x0000199e:    4091        .@      LSLS     r1,r1,r2
        0x000019a0:    4a01        .J      LDR      r2,[pc,#4] ; [0x19a8] = 0xe000e100
        0x000019a2:    6011        .`      STR      r1,[r2,#0]
        0x000019a4:    4770        pG      BX       lr
    $d
        0x000019a6:    0000        ..      DCW    0
        0x000019a8:    e000e100    ....    DCD    3758153984
    $t
    i.PWRWU_IRQHandler
    PWRWU_IRQHandler
        0x000019ac:    b510        ..      PUSH     {r4,lr}
        0x000019ae:    4807        .H      LDR      r0,[pc,#28] ; [0x19cc] = 0x50000200
        0x000019b0:    6800        .h      LDR      r0,[r0,#0]
        0x000019b2:    2140        @!      MOVS     r1,#0x40
        0x000019b4:    4388        .C      BICS     r0,r0,r1
        0x000019b6:    3040        @0      ADDS     r0,r0,#0x40
        0x000019b8:    4904        .I      LDR      r1,[pc,#16] ; [0x19cc] = 0x50000200
        0x000019ba:    6008        .`      STR      r0,[r1,#0]
        0x000019bc:    4804        .H      LDR      r0,[pc,#16] ; [0x19d0] = 0x20000624
        0x000019be:    6800        .h      LDR      r0,[r0,#0]
        0x000019c0:    2800        .(      CMP      r0,#0
        0x000019c2:    d002        ..      BEQ      0x19ca ; PWRWU_IRQHandler + 30
        0x000019c4:    4802        .H      LDR      r0,[pc,#8] ; [0x19d0] = 0x20000624
        0x000019c6:    6800        .h      LDR      r0,[r0,#0]
        0x000019c8:    4780        .G      BLX      r0
        0x000019ca:    bd10        ..      POP      {r4,pc}
    $d
        0x000019cc:    50000200    ...P    DCD    1342177792
        0x000019d0:    20000624    $..     DCD    536872484
    $t
    i.Read_A2D_8591
    Read_A2D_8591
        0x000019d4:    b538        8.      PUSH     {r3-r5,lr}
        0x000019d6:    f7fffb33    ..3.    BL       DrvSYS_GetHCLKFreq ; 0x1040
        0x000019da:    493c        <I      LDR      r1,[pc,#240] ; [0x1acc] = 0x20000000
        0x000019dc:    6008        .`      STR      r0,[r1,#0]
        0x000019de:    493c        <I      LDR      r1,[pc,#240] ; [0x1ad0] = 0xc350
        0x000019e0:    2001        .       MOVS     r0,#1
        0x000019e2:    f7fffac5    ....    BL       DrvI2C_Open ; 0xf70
        0x000019e6:    2000        .       MOVS     r0,#0
        0x000019e8:    2301        .#      MOVS     r3,#1
        0x000019ea:    4602        .F      MOV      r2,r0
        0x000019ec:    4619        .F      MOV      r1,r3
        0x000019ee:    9000        ..      STR      r0,[sp,#0]
        0x000019f0:    4618        .F      MOV      r0,r3
        0x000019f2:    f7fffa93    ....    BL       DrvI2C_Ctrl ; 0xf1c
        0x000019f6:    bf00        ..      NOP      
        0x000019f8:    4836        6H      LDR      r0,[pc,#216] ; [0x1ad4] = 0x40120000
        0x000019fa:    6800        .h      LDR      r0,[r0,#0]
        0x000019fc:    0700        ..      LSLS     r0,r0,#28
        0x000019fe:    0fc0        ..      LSRS     r0,r0,#31
        0x00001a00:    d0fa        ..      BEQ      0x19f8 ; Read_A2D_8591 + 36
        0x00001a02:    2090        .       MOVS     r0,#0x90
        0x00001a04:    4933        3I      LDR      r1,[pc,#204] ; [0x1ad4] = 0x40120000
        0x00001a06:    6088        .`      STR      r0,[r1,#8]
        0x00001a08:    2000        .       MOVS     r0,#0
        0x00001a0a:    2301        .#      MOVS     r3,#1
        0x00001a0c:    4602        .F      MOV      r2,r0
        0x00001a0e:    4601        .F      MOV      r1,r0
        0x00001a10:    9000        ..      STR      r0,[sp,#0]
        0x00001a12:    4618        .F      MOV      r0,r3
        0x00001a14:    f7fffa82    ....    BL       DrvI2C_Ctrl ; 0xf1c
        0x00001a18:    bf00        ..      NOP      
        0x00001a1a:    482e        .H      LDR      r0,[pc,#184] ; [0x1ad4] = 0x40120000
        0x00001a1c:    6800        .h      LDR      r0,[r0,#0]
        0x00001a1e:    0700        ..      LSLS     r0,r0,#28
        0x00001a20:    0fc0        ..      LSRS     r0,r0,#31
        0x00001a22:    d0fa        ..      BEQ      0x1a1a ; Read_A2D_8591 + 70
        0x00001a24:    2000        .       MOVS     r0,#0
        0x00001a26:    492b        +I      LDR      r1,[pc,#172] ; [0x1ad4] = 0x40120000
        0x00001a28:    6088        .`      STR      r0,[r1,#8]
        0x00001a2a:    2301        .#      MOVS     r3,#1
        0x00001a2c:    4602        .F      MOV      r2,r0
        0x00001a2e:    4601        .F      MOV      r1,r0
        0x00001a30:    9000        ..      STR      r0,[sp,#0]
        0x00001a32:    4618        .F      MOV      r0,r3
        0x00001a34:    f7fffa72    ..r.    BL       DrvI2C_Ctrl ; 0xf1c
        0x00001a38:    bf00        ..      NOP      
        0x00001a3a:    4826        &H      LDR      r0,[pc,#152] ; [0x1ad4] = 0x40120000
        0x00001a3c:    6800        .h      LDR      r0,[r0,#0]
        0x00001a3e:    0700        ..      LSLS     r0,r0,#28
        0x00001a40:    0fc0        ..      LSRS     r0,r0,#31
        0x00001a42:    d0fa        ..      BEQ      0x1a3a ; Read_A2D_8591 + 102
        0x00001a44:    2000        .       MOVS     r0,#0
        0x00001a46:    2301        .#      MOVS     r3,#1
        0x00001a48:    4602        .F      MOV      r2,r0
        0x00001a4a:    4619        .F      MOV      r1,r3
        0x00001a4c:    9000        ..      STR      r0,[sp,#0]
        0x00001a4e:    4618        .F      MOV      r0,r3
        0x00001a50:    f7fffa64    ..d.    BL       DrvI2C_Ctrl ; 0xf1c
        0x00001a54:    bf00        ..      NOP      
        0x00001a56:    481f        .H      LDR      r0,[pc,#124] ; [0x1ad4] = 0x40120000
        0x00001a58:    6800        .h      LDR      r0,[r0,#0]
        0x00001a5a:    0700        ..      LSLS     r0,r0,#28
        0x00001a5c:    0fc0        ..      LSRS     r0,r0,#31
        0x00001a5e:    d0fa        ..      BEQ      0x1a56 ; Read_A2D_8591 + 130
        0x00001a60:    2091        .       MOVS     r0,#0x91
        0x00001a62:    491c        .I      LDR      r1,[pc,#112] ; [0x1ad4] = 0x40120000
        0x00001a64:    6088        .`      STR      r0,[r1,#8]
        0x00001a66:    2000        .       MOVS     r0,#0
        0x00001a68:    2301        .#      MOVS     r3,#1
        0x00001a6a:    4602        .F      MOV      r2,r0
        0x00001a6c:    4601        .F      MOV      r1,r0
        0x00001a6e:    9000        ..      STR      r0,[sp,#0]
        0x00001a70:    4618        .F      MOV      r0,r3
        0x00001a72:    f7fffa53    ..S.    BL       DrvI2C_Ctrl ; 0xf1c
        0x00001a76:    bf00        ..      NOP      
        0x00001a78:    4816        .H      LDR      r0,[pc,#88] ; [0x1ad4] = 0x40120000
        0x00001a7a:    6800        .h      LDR      r0,[r0,#0]
        0x00001a7c:    0700        ..      LSLS     r0,r0,#28
        0x00001a7e:    0fc0        ..      LSRS     r0,r0,#31
        0x00001a80:    d0fa        ..      BEQ      0x1a78 ; Read_A2D_8591 + 164
        0x00001a82:    2000        .       MOVS     r0,#0
        0x00001a84:    2301        .#      MOVS     r3,#1
        0x00001a86:    4602        .F      MOV      r2,r0
        0x00001a88:    4601        .F      MOV      r1,r0
        0x00001a8a:    9000        ..      STR      r0,[sp,#0]
        0x00001a8c:    4618        .F      MOV      r0,r3
        0x00001a8e:    f7fffa45    ..E.    BL       DrvI2C_Ctrl ; 0xf1c
        0x00001a92:    bf00        ..      NOP      
        0x00001a94:    480f        .H      LDR      r0,[pc,#60] ; [0x1ad4] = 0x40120000
        0x00001a96:    6800        .h      LDR      r0,[r0,#0]
        0x00001a98:    0700        ..      LSLS     r0,r0,#28
        0x00001a9a:    0fc0        ..      LSRS     r0,r0,#31
        0x00001a9c:    d0fa        ..      BEQ      0x1a94 ; Read_A2D_8591 + 192
        0x00001a9e:    480d        .H      LDR      r0,[pc,#52] ; [0x1ad4] = 0x40120000
        0x00001aa0:    6880        .h      LDR      r0,[r0,#8]
        0x00001aa2:    b2c4        ..      UXTB     r4,r0
        0x00001aa4:    2000        .       MOVS     r0,#0
        0x00001aa6:    2301        .#      MOVS     r3,#1
        0x00001aa8:    461a        .F      MOV      r2,r3
        0x00001aaa:    4601        .F      MOV      r1,r0
        0x00001aac:    9000        ..      STR      r0,[sp,#0]
        0x00001aae:    4618        .F      MOV      r0,r3
        0x00001ab0:    f7fffa34    ..4.    BL       DrvI2C_Ctrl ; 0xf1c
        0x00001ab4:    bf00        ..      NOP      
        0x00001ab6:    4807        .H      LDR      r0,[pc,#28] ; [0x1ad4] = 0x40120000
        0x00001ab8:    6800        .h      LDR      r0,[r0,#0]
        0x00001aba:    06c0        ..      LSLS     r0,r0,#27
        0x00001abc:    0fc0        ..      LSRS     r0,r0,#31
        0x00001abe:    d1fa        ..      BNE      0x1ab6 ; Read_A2D_8591 + 226
        0x00001ac0:    2001        .       MOVS     r0,#1
        0x00001ac2:    f7fff9e3    ....    BL       DrvI2C_Close ; 0xe8c
        0x00001ac6:    4620         F      MOV      r0,r4
        0x00001ac8:    bd38        8.      POP      {r3-r5,pc}
    $d
        0x00001aca:    0000        ..      DCW    0
        0x00001acc:    20000000    ...     DCD    536870912
        0x00001ad0:    0000c350    P...    DCD    50000
        0x00001ad4:    40120000    ...@    DCD    1074921472
    $t
    i.SPI0_IRQHandler
    SPI0_IRQHandler
        0x00001ad8:    b510        ..      PUSH     {r4,lr}
        0x00001ada:    4816        .H      LDR      r0,[pc,#88] ; [0x1b34] = 0x40030000
        0x00001adc:    6800        .h      LDR      r0,[r0,#0]
        0x00001ade:    03c0        ..      LSLS     r0,r0,#15
        0x00001ae0:    0fc0        ..      LSRS     r0,r0,#31
        0x00001ae2:    2801        .(      CMP      r0,#1
        0x00001ae4:    d10f        ..      BNE      0x1b06 ; SPI0_IRQHandler + 46
        0x00001ae6:    4813        .H      LDR      r0,[pc,#76] ; [0x1b34] = 0x40030000
        0x00001ae8:    6800        .h      LDR      r0,[r0,#0]
        0x00001aea:    2101        .!      MOVS     r1,#1
        0x00001aec:    0409        ..      LSLS     r1,r1,#16
        0x00001aee:    4388        .C      BICS     r0,r0,r1
        0x00001af0:    1840        @.      ADDS     r0,r0,r1
        0x00001af2:    4910        .I      LDR      r1,[pc,#64] ; [0x1b34] = 0x40030000
        0x00001af4:    6008        .`      STR      r0,[r1,#0]
        0x00001af6:    4810        .H      LDR      r0,[pc,#64] ; [0x1b38] = 0x20000664
        0x00001af8:    6840        @h      LDR      r0,[r0,#4]
        0x00001afa:    2800        .(      CMP      r0,#0
        0x00001afc:    d003        ..      BEQ      0x1b06 ; SPI0_IRQHandler + 46
        0x00001afe:    4a0e        .J      LDR      r2,[pc,#56] ; [0x1b38] = 0x20000664
        0x00001b00:    6890        .h      LDR      r0,[r2,#8]
        0x00001b02:    6851        Qh      LDR      r1,[r2,#4]
        0x00001b04:    4788        .G      BLX      r1
        0x00001b06:    480b        .H      LDR      r0,[pc,#44] ; [0x1b34] = 0x40030000
        0x00001b08:    6bc0        .k      LDR      r0,[r0,#0x3c]
        0x00001b0a:    0500        ..      LSLS     r0,r0,#20
        0x00001b0c:    0fc0        ..      LSRS     r0,r0,#31
        0x00001b0e:    2801        .(      CMP      r0,#1
        0x00001b10:    d10f        ..      BNE      0x1b32 ; SPI0_IRQHandler + 90
        0x00001b12:    4808        .H      LDR      r0,[pc,#32] ; [0x1b34] = 0x40030000
        0x00001b14:    6bc0        .k      LDR      r0,[r0,#0x3c]
        0x00001b16:    2101        .!      MOVS     r1,#1
        0x00001b18:    02c9        ..      LSLS     r1,r1,#11
        0x00001b1a:    4388        .C      BICS     r0,r0,r1
        0x00001b1c:    1840        @.      ADDS     r0,r0,r1
        0x00001b1e:    4905        .I      LDR      r1,[pc,#20] ; [0x1b34] = 0x40030000
        0x00001b20:    63c8        .c      STR      r0,[r1,#0x3c]
        0x00001b22:    4805        .H      LDR      r0,[pc,#20] ; [0x1b38] = 0x20000664
        0x00001b24:    68c0        .h      LDR      r0,[r0,#0xc]
        0x00001b26:    2800        .(      CMP      r0,#0
        0x00001b28:    d003        ..      BEQ      0x1b32 ; SPI0_IRQHandler + 90
        0x00001b2a:    4a03        .J      LDR      r2,[pc,#12] ; [0x1b38] = 0x20000664
        0x00001b2c:    6910        .i      LDR      r0,[r2,#0x10]
        0x00001b2e:    68d1        .h      LDR      r1,[r2,#0xc]
        0x00001b30:    4788        .G      BLX      r1
        0x00001b32:    bd10        ..      POP      {r4,pc}
    $d
        0x00001b34:    40030000    ...@    DCD    1073938432
        0x00001b38:    20000664    d..     DCD    536872548
    $t
    i.SPI1_IRQHandler
    SPI1_IRQHandler
        0x00001b3c:    b510        ..      PUSH     {r4,lr}
        0x00001b3e:    4816        .H      LDR      r0,[pc,#88] ; [0x1b98] = 0x40034000
        0x00001b40:    6800        .h      LDR      r0,[r0,#0]
        0x00001b42:    03c0        ..      LSLS     r0,r0,#15
        0x00001b44:    0fc0        ..      LSRS     r0,r0,#31
        0x00001b46:    2801        .(      CMP      r0,#1
        0x00001b48:    d10f        ..      BNE      0x1b6a ; SPI1_IRQHandler + 46
        0x00001b4a:    4813        .H      LDR      r0,[pc,#76] ; [0x1b98] = 0x40034000
        0x00001b4c:    6800        .h      LDR      r0,[r0,#0]
        0x00001b4e:    2101        .!      MOVS     r1,#1
        0x00001b50:    0409        ..      LSLS     r1,r1,#16
        0x00001b52:    4388        .C      BICS     r0,r0,r1
        0x00001b54:    1840        @.      ADDS     r0,r0,r1
        0x00001b56:    4910        .I      LDR      r1,[pc,#64] ; [0x1b98] = 0x40034000
        0x00001b58:    6008        .`      STR      r0,[r1,#0]
        0x00001b5a:    4810        .H      LDR      r0,[pc,#64] ; [0x1b9c] = 0x20000664
        0x00001b5c:    6980        .i      LDR      r0,[r0,#0x18]
        0x00001b5e:    2800        .(      CMP      r0,#0
        0x00001b60:    d003        ..      BEQ      0x1b6a ; SPI1_IRQHandler + 46
        0x00001b62:    4a0e        .J      LDR      r2,[pc,#56] ; [0x1b9c] = 0x20000664
        0x00001b64:    69d0        .i      LDR      r0,[r2,#0x1c]
        0x00001b66:    6991        .i      LDR      r1,[r2,#0x18]
        0x00001b68:    4788        .G      BLX      r1
        0x00001b6a:    480b        .H      LDR      r0,[pc,#44] ; [0x1b98] = 0x40034000
        0x00001b6c:    6bc0        .k      LDR      r0,[r0,#0x3c]
        0x00001b6e:    0500        ..      LSLS     r0,r0,#20
        0x00001b70:    0fc0        ..      LSRS     r0,r0,#31
        0x00001b72:    2801        .(      CMP      r0,#1
        0x00001b74:    d10f        ..      BNE      0x1b96 ; SPI1_IRQHandler + 90
        0x00001b76:    4808        .H      LDR      r0,[pc,#32] ; [0x1b98] = 0x40034000
        0x00001b78:    6bc0        .k      LDR      r0,[r0,#0x3c]
        0x00001b7a:    2101        .!      MOVS     r1,#1
        0x00001b7c:    02c9        ..      LSLS     r1,r1,#11
        0x00001b7e:    4388        .C      BICS     r0,r0,r1
        0x00001b80:    1840        @.      ADDS     r0,r0,r1
        0x00001b82:    4905        .I      LDR      r1,[pc,#20] ; [0x1b98] = 0x40034000
        0x00001b84:    63c8        .c      STR      r0,[r1,#0x3c]
        0x00001b86:    4805        .H      LDR      r0,[pc,#20] ; [0x1b9c] = 0x20000664
        0x00001b88:    6a00        .j      LDR      r0,[r0,#0x20]
        0x00001b8a:    2800        .(      CMP      r0,#0
        0x00001b8c:    d003        ..      BEQ      0x1b96 ; SPI1_IRQHandler + 90
        0x00001b8e:    4a03        .J      LDR      r2,[pc,#12] ; [0x1b9c] = 0x20000664
        0x00001b90:    6a50        Pj      LDR      r0,[r2,#0x24]
        0x00001b92:    6a11        .j      LDR      r1,[r2,#0x20]
        0x00001b94:    4788        .G      BLX      r1
        0x00001b96:    bd10        ..      POP      {r4,pc}
    $d
        0x00001b98:    40034000    .@.@    DCD    1073954816
        0x00001b9c:    20000664    d..     DCD    536872548
    $t
    i.SPI2_IRQHandler
    SPI2_IRQHandler
        0x00001ba0:    b510        ..      PUSH     {r4,lr}
        0x00001ba2:    4816        .H      LDR      r0,[pc,#88] ; [0x1bfc] = 0x40130000
        0x00001ba4:    6800        .h      LDR      r0,[r0,#0]
        0x00001ba6:    03c0        ..      LSLS     r0,r0,#15
        0x00001ba8:    0fc0        ..      LSRS     r0,r0,#31
        0x00001baa:    2801        .(      CMP      r0,#1
        0x00001bac:    d10f        ..      BNE      0x1bce ; SPI2_IRQHandler + 46
        0x00001bae:    4813        .H      LDR      r0,[pc,#76] ; [0x1bfc] = 0x40130000
        0x00001bb0:    6800        .h      LDR      r0,[r0,#0]
        0x00001bb2:    2101        .!      MOVS     r1,#1
        0x00001bb4:    0409        ..      LSLS     r1,r1,#16
        0x00001bb6:    4388        .C      BICS     r0,r0,r1
        0x00001bb8:    1840        @.      ADDS     r0,r0,r1
        0x00001bba:    4910        .I      LDR      r1,[pc,#64] ; [0x1bfc] = 0x40130000
        0x00001bbc:    6008        .`      STR      r0,[r1,#0]
        0x00001bbe:    4810        .H      LDR      r0,[pc,#64] ; [0x1c00] = 0x20000664
        0x00001bc0:    6ac0        .j      LDR      r0,[r0,#0x2c]
        0x00001bc2:    2800        .(      CMP      r0,#0
        0x00001bc4:    d003        ..      BEQ      0x1bce ; SPI2_IRQHandler + 46
        0x00001bc6:    4a0e        .J      LDR      r2,[pc,#56] ; [0x1c00] = 0x20000664
        0x00001bc8:    6b10        .k      LDR      r0,[r2,#0x30]
        0x00001bca:    6ad1        .j      LDR      r1,[r2,#0x2c]
        0x00001bcc:    4788        .G      BLX      r1
        0x00001bce:    480b        .H      LDR      r0,[pc,#44] ; [0x1bfc] = 0x40130000
        0x00001bd0:    6bc0        .k      LDR      r0,[r0,#0x3c]
        0x00001bd2:    0500        ..      LSLS     r0,r0,#20
        0x00001bd4:    0fc0        ..      LSRS     r0,r0,#31
        0x00001bd6:    2801        .(      CMP      r0,#1
        0x00001bd8:    d10f        ..      BNE      0x1bfa ; SPI2_IRQHandler + 90
        0x00001bda:    4808        .H      LDR      r0,[pc,#32] ; [0x1bfc] = 0x40130000
        0x00001bdc:    6bc0        .k      LDR      r0,[r0,#0x3c]
        0x00001bde:    2101        .!      MOVS     r1,#1
        0x00001be0:    02c9        ..      LSLS     r1,r1,#11
        0x00001be2:    4388        .C      BICS     r0,r0,r1
        0x00001be4:    1840        @.      ADDS     r0,r0,r1
        0x00001be6:    4905        .I      LDR      r1,[pc,#20] ; [0x1bfc] = 0x40130000
        0x00001be8:    63c8        .c      STR      r0,[r1,#0x3c]
        0x00001bea:    4805        .H      LDR      r0,[pc,#20] ; [0x1c00] = 0x20000664
        0x00001bec:    6b40        @k      LDR      r0,[r0,#0x34]
        0x00001bee:    2800        .(      CMP      r0,#0
        0x00001bf0:    d003        ..      BEQ      0x1bfa ; SPI2_IRQHandler + 90
        0x00001bf2:    4a03        .J      LDR      r2,[pc,#12] ; [0x1c00] = 0x20000664
        0x00001bf4:    6b90        .k      LDR      r0,[r2,#0x38]
        0x00001bf6:    6b51        Qk      LDR      r1,[r2,#0x34]
        0x00001bf8:    4788        .G      BLX      r1
        0x00001bfa:    bd10        ..      POP      {r4,pc}
    $d
        0x00001bfc:    40130000    ...@    DCD    1074987008
        0x00001c00:    20000664    d..     DCD    536872548
    $t
    i.SPI3_IRQHandler
    SPI3_IRQHandler
        0x00001c04:    b510        ..      PUSH     {r4,lr}
        0x00001c06:    4816        .H      LDR      r0,[pc,#88] ; [0x1c60] = 0x40134000
        0x00001c08:    6800        .h      LDR      r0,[r0,#0]
        0x00001c0a:    03c0        ..      LSLS     r0,r0,#15
        0x00001c0c:    0fc0        ..      LSRS     r0,r0,#31
        0x00001c0e:    2801        .(      CMP      r0,#1
        0x00001c10:    d10f        ..      BNE      0x1c32 ; SPI3_IRQHandler + 46
        0x00001c12:    4813        .H      LDR      r0,[pc,#76] ; [0x1c60] = 0x40134000
        0x00001c14:    6800        .h      LDR      r0,[r0,#0]
        0x00001c16:    2101        .!      MOVS     r1,#1
        0x00001c18:    0409        ..      LSLS     r1,r1,#16
        0x00001c1a:    4388        .C      BICS     r0,r0,r1
        0x00001c1c:    1840        @.      ADDS     r0,r0,r1
        0x00001c1e:    4910        .I      LDR      r1,[pc,#64] ; [0x1c60] = 0x40134000
        0x00001c20:    6008        .`      STR      r0,[r1,#0]
        0x00001c22:    4810        .H      LDR      r0,[pc,#64] ; [0x1c64] = 0x20000664
        0x00001c24:    6c00        .l      LDR      r0,[r0,#0x40]
        0x00001c26:    2800        .(      CMP      r0,#0
        0x00001c28:    d003        ..      BEQ      0x1c32 ; SPI3_IRQHandler + 46
        0x00001c2a:    4a0e        .J      LDR      r2,[pc,#56] ; [0x1c64] = 0x20000664
        0x00001c2c:    6c50        Pl      LDR      r0,[r2,#0x44]
        0x00001c2e:    6c11        .l      LDR      r1,[r2,#0x40]
        0x00001c30:    4788        .G      BLX      r1
        0x00001c32:    480b        .H      LDR      r0,[pc,#44] ; [0x1c60] = 0x40134000
        0x00001c34:    6bc0        .k      LDR      r0,[r0,#0x3c]
        0x00001c36:    0500        ..      LSLS     r0,r0,#20
        0x00001c38:    0fc0        ..      LSRS     r0,r0,#31
        0x00001c3a:    2801        .(      CMP      r0,#1
        0x00001c3c:    d10f        ..      BNE      0x1c5e ; SPI3_IRQHandler + 90
        0x00001c3e:    4808        .H      LDR      r0,[pc,#32] ; [0x1c60] = 0x40134000
        0x00001c40:    6bc0        .k      LDR      r0,[r0,#0x3c]
        0x00001c42:    2101        .!      MOVS     r1,#1
        0x00001c44:    02c9        ..      LSLS     r1,r1,#11
        0x00001c46:    4388        .C      BICS     r0,r0,r1
        0x00001c48:    1840        @.      ADDS     r0,r0,r1
        0x00001c4a:    4905        .I      LDR      r1,[pc,#20] ; [0x1c60] = 0x40134000
        0x00001c4c:    63c8        .c      STR      r0,[r1,#0x3c]
        0x00001c4e:    4805        .H      LDR      r0,[pc,#20] ; [0x1c64] = 0x20000664
        0x00001c50:    6c80        .l      LDR      r0,[r0,#0x48]
        0x00001c52:    2800        .(      CMP      r0,#0
        0x00001c54:    d003        ..      BEQ      0x1c5e ; SPI3_IRQHandler + 90
        0x00001c56:    4a03        .J      LDR      r2,[pc,#12] ; [0x1c64] = 0x20000664
        0x00001c58:    6cd0        .l      LDR      r0,[r2,#0x4c]
        0x00001c5a:    6c91        .l      LDR      r1,[r2,#0x48]
        0x00001c5c:    4788        .G      BLX      r1
        0x00001c5e:    bd10        ..      POP      {r4,pc}
    $d
        0x00001c60:    40134000    .@.@    DCD    1075003392
        0x00001c64:    20000664    d..     DCD    536872548
    $t
    i.SetPACA
    SetPACA
        0x00001c68:    4a3b        ;J      LDR      r2,[pc,#236] ; [0x1d58] = 0x20000020
        0x00001c6a:    68d2        .h      LDR      r2,[r2,#0xc]
        0x00001c6c:    6892        .h      LDR      r2,[r2,#8]
        0x00001c6e:    0892        ..      LSRS     r2,r2,#2
        0x00001c70:    0092        ..      LSLS     r2,r2,#2
        0x00001c72:    1c52        R.      ADDS     r2,r2,#1
        0x00001c74:    4b38        8K      LDR      r3,[pc,#224] ; [0x1d58] = 0x20000020
        0x00001c76:    68db        .h      LDR      r3,[r3,#0xc]
        0x00001c78:    609a        .`      STR      r2,[r3,#8]
        0x00001c7a:    22b0        ."      MOVS     r2,#0xb0
        0x00001c7c:    4302        .C      ORRS     r2,r2,r0
        0x00001c7e:    4b36        6K      LDR      r3,[pc,#216] ; [0x1d58] = 0x20000020
        0x00001c80:    68db        .h      LDR      r3,[r3,#0xc]
        0x00001c82:    621a        .b      STR      r2,[r3,#0x20]
        0x00001c84:    4a34        4J      LDR      r2,[pc,#208] ; [0x1d58] = 0x20000020
        0x00001c86:    68d2        .h      LDR      r2,[r2,#0xc]
        0x00001c88:    6812        .h      LDR      r2,[r2,#0]
        0x00001c8a:    0852        R.      LSRS     r2,r2,#1
        0x00001c8c:    0052        R.      LSLS     r2,r2,#1
        0x00001c8e:    1c52        R.      ADDS     r2,r2,#1
        0x00001c90:    4b31        1K      LDR      r3,[pc,#196] ; [0x1d58] = 0x20000020
        0x00001c92:    68db        .h      LDR      r3,[r3,#0xc]
        0x00001c94:    601a        .`      STR      r2,[r3,#0]
        0x00001c96:    bf00        ..      NOP      
        0x00001c98:    4a2f        /J      LDR      r2,[pc,#188] ; [0x1d58] = 0x20000020
        0x00001c9a:    68d2        .h      LDR      r2,[r2,#0xc]
        0x00001c9c:    6812        .h      LDR      r2,[r2,#0]
        0x00001c9e:    07d2        ..      LSLS     r2,r2,#31
        0x00001ca0:    0fd2        ..      LSRS     r2,r2,#31
        0x00001ca2:    2a01        .*      CMP      r2,#1
        0x00001ca4:    d0f8        ..      BEQ      0x1c98 ; SetPACA + 48
        0x00001ca6:    4a2c        ,J      LDR      r2,[pc,#176] ; [0x1d58] = 0x20000020
        0x00001ca8:    68d2        .h      LDR      r2,[r2,#0xc]
        0x00001caa:    6892        .h      LDR      r2,[r2,#8]
        0x00001cac:    0892        ..      LSRS     r2,r2,#2
        0x00001cae:    0092        ..      LSLS     r2,r2,#2
        0x00001cb0:    4b29        )K      LDR      r3,[pc,#164] ; [0x1d58] = 0x20000020
        0x00001cb2:    68db        .h      LDR      r3,[r3,#0xc]
        0x00001cb4:    609a        .`      STR      r2,[r3,#8]
        0x00001cb6:    4a28        (J      LDR      r2,[pc,#160] ; [0x1d58] = 0x20000020
        0x00001cb8:    68d2        .h      LDR      r2,[r2,#0xc]
        0x00001cba:    6892        .h      LDR      r2,[r2,#8]
        0x00001cbc:    0892        ..      LSRS     r2,r2,#2
        0x00001cbe:    0092        ..      LSLS     r2,r2,#2
        0x00001cc0:    1c52        R.      ADDS     r2,r2,#1
        0x00001cc2:    4b25        %K      LDR      r3,[pc,#148] ; [0x1d58] = 0x20000020
        0x00001cc4:    68db        .h      LDR      r3,[r3,#0xc]
        0x00001cc6:    609a        .`      STR      r2,[r3,#8]
        0x00001cc8:    110a        ..      ASRS     r2,r1,#4
        0x00001cca:    2310        .#      MOVS     r3,#0x10
        0x00001ccc:    431a        .C      ORRS     r2,r2,r3
        0x00001cce:    4b22        "K      LDR      r3,[pc,#136] ; [0x1d58] = 0x20000020
        0x00001cd0:    68db        .h      LDR      r3,[r3,#0xc]
        0x00001cd2:    621a        .b      STR      r2,[r3,#0x20]
        0x00001cd4:    4a20         J      LDR      r2,[pc,#128] ; [0x1d58] = 0x20000020
        0x00001cd6:    68d2        .h      LDR      r2,[r2,#0xc]
        0x00001cd8:    6812        .h      LDR      r2,[r2,#0]
        0x00001cda:    0852        R.      LSRS     r2,r2,#1
        0x00001cdc:    0052        R.      LSLS     r2,r2,#1
        0x00001cde:    1c52        R.      ADDS     r2,r2,#1
        0x00001ce0:    4b1d        .K      LDR      r3,[pc,#116] ; [0x1d58] = 0x20000020
        0x00001ce2:    68db        .h      LDR      r3,[r3,#0xc]
        0x00001ce4:    601a        .`      STR      r2,[r3,#0]
        0x00001ce6:    bf00        ..      NOP      
        0x00001ce8:    4a1b        .J      LDR      r2,[pc,#108] ; [0x1d58] = 0x20000020
        0x00001cea:    68d2        .h      LDR      r2,[r2,#0xc]
        0x00001cec:    6812        .h      LDR      r2,[r2,#0]
        0x00001cee:    07d2        ..      LSLS     r2,r2,#31
        0x00001cf0:    0fd2        ..      LSRS     r2,r2,#31
        0x00001cf2:    2a01        .*      CMP      r2,#1
        0x00001cf4:    d0f8        ..      BEQ      0x1ce8 ; SetPACA + 128
        0x00001cf6:    4a18        .J      LDR      r2,[pc,#96] ; [0x1d58] = 0x20000020
        0x00001cf8:    68d2        .h      LDR      r2,[r2,#0xc]
        0x00001cfa:    6892        .h      LDR      r2,[r2,#8]
        0x00001cfc:    0892        ..      LSRS     r2,r2,#2
        0x00001cfe:    0092        ..      LSLS     r2,r2,#2
        0x00001d00:    4b15        .K      LDR      r3,[pc,#84] ; [0x1d58] = 0x20000020
        0x00001d02:    68db        .h      LDR      r3,[r3,#0xc]
        0x00001d04:    609a        .`      STR      r2,[r3,#8]
        0x00001d06:    4a14        .J      LDR      r2,[pc,#80] ; [0x1d58] = 0x20000020
        0x00001d08:    68d2        .h      LDR      r2,[r2,#0xc]
        0x00001d0a:    6892        .h      LDR      r2,[r2,#8]
        0x00001d0c:    0892        ..      LSRS     r2,r2,#2
        0x00001d0e:    0092        ..      LSLS     r2,r2,#2
        0x00001d10:    1c52        R.      ADDS     r2,r2,#1
        0x00001d12:    4b11        .K      LDR      r3,[pc,#68] ; [0x1d58] = 0x20000020
        0x00001d14:    68db        .h      LDR      r3,[r3,#0xc]
        0x00001d16:    609a        .`      STR      r2,[r3,#8]
        0x00001d18:    070a        ..      LSLS     r2,r1,#28
        0x00001d1a:    0f12        ..      LSRS     r2,r2,#28
        0x00001d1c:    4b0e        .K      LDR      r3,[pc,#56] ; [0x1d58] = 0x20000020
        0x00001d1e:    68db        .h      LDR      r3,[r3,#0xc]
        0x00001d20:    621a        .b      STR      r2,[r3,#0x20]
        0x00001d22:    4a0d        .J      LDR      r2,[pc,#52] ; [0x1d58] = 0x20000020
        0x00001d24:    68d2        .h      LDR      r2,[r2,#0xc]
        0x00001d26:    6812        .h      LDR      r2,[r2,#0]
        0x00001d28:    0852        R.      LSRS     r2,r2,#1
        0x00001d2a:    0052        R.      LSLS     r2,r2,#1
        0x00001d2c:    1c52        R.      ADDS     r2,r2,#1
        0x00001d2e:    4b0a        .K      LDR      r3,[pc,#40] ; [0x1d58] = 0x20000020
        0x00001d30:    68db        .h      LDR      r3,[r3,#0xc]
        0x00001d32:    601a        .`      STR      r2,[r3,#0]
        0x00001d34:    bf00        ..      NOP      
        0x00001d36:    4a08        .J      LDR      r2,[pc,#32] ; [0x1d58] = 0x20000020
        0x00001d38:    68d2        .h      LDR      r2,[r2,#0xc]
        0x00001d3a:    6812        .h      LDR      r2,[r2,#0]
        0x00001d3c:    07d2        ..      LSLS     r2,r2,#31
        0x00001d3e:    0fd2        ..      LSRS     r2,r2,#31
        0x00001d40:    2a01        .*      CMP      r2,#1
        0x00001d42:    d0f8        ..      BEQ      0x1d36 ; SetPACA + 206
        0x00001d44:    4a04        .J      LDR      r2,[pc,#16] ; [0x1d58] = 0x20000020
        0x00001d46:    68d2        .h      LDR      r2,[r2,#0xc]
        0x00001d48:    6892        .h      LDR      r2,[r2,#8]
        0x00001d4a:    0892        ..      LSRS     r2,r2,#2
        0x00001d4c:    0092        ..      LSLS     r2,r2,#2
        0x00001d4e:    4b02        .K      LDR      r3,[pc,#8] ; [0x1d58] = 0x20000020
        0x00001d50:    68db        .h      LDR      r3,[r3,#0xc]
        0x00001d52:    609a        .`      STR      r2,[r3,#8]
        0x00001d54:    4770        pG      BX       lr
    $d
        0x00001d56:    0000        ..      DCW    0
        0x00001d58:    20000020     ..     DCD    536870944
    $t
    i.Show_Word
    Show_Word
        0x00001d5c:    b5fc        ..      PUSH     {r2-r7,lr}
        0x00001d5e:    4605        .F      MOV      r5,r0
        0x00001d60:    460e        .F      MOV      r6,r1
        0x00001d62:    4617        .F      MOV      r7,r2
        0x00001d64:    2400        .$      MOVS     r4,#0
        0x00001d66:    2000        .       MOVS     r0,#0
        0x00001d68:    9001        ..      STR      r0,[sp,#4]
        0x00001d6a:    4638        8F      MOV      r0,r7
        0x00001d6c:    3820         8      SUBS     r0,r0,#0x20
        0x00001d6e:    0100        ..      LSLS     r0,r0,#4
        0x00001d70:    9001        ..      STR      r0,[sp,#4]
        0x00001d72:    bf00        ..      NOP      
        0x00001d74:    e011        ..      B        0x1d9a ; Show_Word + 62
        0x00001d76:    00f2        ..      LSLS     r2,r6,#3
        0x00001d78:    2381        .#      MOVS     r3,#0x81
        0x00001d7a:    1a9a        ..      SUBS     r2,r3,r2
        0x00001d7c:    1b12        ..      SUBS     r2,r2,r4
        0x00001d7e:    b2d1        ..      UXTB     r1,r2
        0x00001d80:    066a        j.      LSLS     r2,r5,#25
        0x00001d82:    0e10        ..      LSRS     r0,r2,#24
        0x00001d84:    f7ffff70    ..p.    BL       SetPACA ; 0x1c68
        0x00001d88:    9801        ..      LDR      r0,[sp,#4]
        0x00001d8a:    1900        ..      ADDS     r0,r0,r4
        0x00001d8c:    4910        .I      LDR      r1,[pc,#64] ; [0x1dd0] = 0x20000030
        0x00001d8e:    5c08        .\      LDRB     r0,[r1,r0]
        0x00001d90:    9000        ..      STR      r0,[sp,#0]
        0x00001d92:    9800        ..      LDR      r0,[sp,#0]
        0x00001d94:    f000f960    ..`.    BL       WriteData ; 0x2058
        0x00001d98:    1c64        d.      ADDS     r4,r4,#1
        0x00001d9a:    2c08        .,      CMP      r4,#8
        0x00001d9c:    dbeb        ..      BLT      0x1d76 ; Show_Word + 26
        0x00001d9e:    2400        .$      MOVS     r4,#0
        0x00001da0:    e013        ..      B        0x1dca ; Show_Word + 110
        0x00001da2:    00f2        ..      LSLS     r2,r6,#3
        0x00001da4:    2381        .#      MOVS     r3,#0x81
        0x00001da6:    1a9a        ..      SUBS     r2,r3,r2
        0x00001da8:    1b12        ..      SUBS     r2,r2,r4
        0x00001daa:    b2d1        ..      UXTB     r1,r2
        0x00001dac:    006a        j.      LSLS     r2,r5,#1
        0x00001dae:    1c52        R.      ADDS     r2,r2,#1
        0x00001db0:    b2d0        ..      UXTB     r0,r2
        0x00001db2:    f7ffff59    ..Y.    BL       SetPACA ; 0x1c68
        0x00001db6:    9801        ..      LDR      r0,[sp,#4]
        0x00001db8:    1900        ..      ADDS     r0,r0,r4
        0x00001dba:    3008        .0      ADDS     r0,r0,#8
        0x00001dbc:    4904        .I      LDR      r1,[pc,#16] ; [0x1dd0] = 0x20000030
        0x00001dbe:    5c08        .\      LDRB     r0,[r1,r0]
        0x00001dc0:    9000        ..      STR      r0,[sp,#0]
        0x00001dc2:    9800        ..      LDR      r0,[sp,#0]
        0x00001dc4:    f000f948    ..H.    BL       WriteData ; 0x2058
        0x00001dc8:    1c64        d.      ADDS     r4,r4,#1
        0x00001dca:    2c08        .,      CMP      r4,#8
        0x00001dcc:    dbe9        ..      BLT      0x1da2 ; Show_Word + 70
        0x00001dce:    bdfc        ..      POP      {r2-r7,pc}
    $d
        0x00001dd0:    20000030    0..     DCD    536870960
    $t
    i.SystemCoreClockUpdate
    SystemCoreClockUpdate
        0x00001dd4:    b570        p.      PUSH     {r4-r6,lr}
        0x00001dd6:    4820         H      LDR      r0,[pc,#128] ; [0x1e58] = 0x50000200
        0x00001dd8:    6900        .i      LDR      r0,[r0,#0x10]
        0x00001dda:    0746        F.      LSLS     r6,r0,#29
        0x00001ddc:    0f76        v.      LSRS     r6,r6,#29
        0x00001dde:    2e05        ..      CMP      r6,#5
        0x00001de0:    d900        ..      BLS      0x1de4 ; SystemCoreClockUpdate + 16
        0x00001de2:    2604        .&      MOVS     r6,#4
        0x00001de4:    2e02        ..      CMP      r6,#2
        0x00001de6:    d003        ..      BEQ      0x1df0 ; SystemCoreClockUpdate + 28
        0x00001de8:    00b0        ..      LSLS     r0,r6,#2
        0x00001dea:    491c        .I      LDR      r1,[pc,#112] ; [0x1e5c] = 0x20000008
        0x00001dec:    580d        .X      LDR      r5,[r1,r0]
        0x00001dee:    e01e        ..      B        0x1e2e ; SystemCoreClockUpdate + 90
        0x00001df0:    4819        .H      LDR      r0,[pc,#100] ; [0x1e58] = 0x50000200
        0x00001df2:    6a00        .j      LDR      r0,[r0,#0x20]
        0x00001df4:    0400        ..      LSLS     r0,r0,#16
        0x00001df6:    0f84        ..      LSRS     r4,r0,#30
        0x00001df8:    2c01        .,      CMP      r4,#1
        0x00001dfa:    d900        ..      BLS      0x1dfe ; SystemCoreClockUpdate + 42
        0x00001dfc:    1e64        d.      SUBS     r4,r4,#1
        0x00001dfe:    4a16        .J      LDR      r2,[pc,#88] ; [0x1e58] = 0x50000200
        0x00001e00:    6a12        .j      LDR      r2,[r2,#0x20]
        0x00001e02:    0312        ..      LSLS     r2,r2,#12
        0x00001e04:    0fd2        ..      LSRS     r2,r2,#31
        0x00001e06:    d001        ..      BEQ      0x1e0c ; SystemCoreClockUpdate + 56
        0x00001e08:    4a15        .J      LDR      r2,[pc,#84] ; [0x1e60] = 0x1518000
        0x00001e0a:    e000        ..      B        0x1e0e ; SystemCoreClockUpdate + 58
        0x00001e0c:    4a15        .J      LDR      r2,[pc,#84] ; [0x1e64] = 0xb71b00
        0x00001e0e:    4b12        .K      LDR      r3,[pc,#72] ; [0x1e58] = 0x50000200
        0x00001e10:    6a1b        .j      LDR      r3,[r3,#0x20]
        0x00001e12:    05db        ..      LSLS     r3,r3,#23
        0x00001e14:    0ddb        ..      LSRS     r3,r3,#23
        0x00001e16:    1c9b        ..      ADDS     r3,r3,#2
        0x00001e18:    4610        .F      MOV      r0,r2
        0x00001e1a:    4358        XC      MULS     r0,r3,r0
        0x00001e1c:    4a0e        .J      LDR      r2,[pc,#56] ; [0x1e58] = 0x50000200
        0x00001e1e:    6a12        .j      LDR      r2,[r2,#0x20]
        0x00001e20:    0492        ..      LSLS     r2,r2,#18
        0x00001e22:    0ed2        ..      LSRS     r2,r2,#27
        0x00001e24:    1c91        ..      ADDS     r1,r2,#2
        0x00001e26:    f7fefaf7    ....    BL       __aeabi_uidiv ; 0x418
        0x00001e2a:    40e0        .@      LSRS     r0,r0,r4
        0x00001e2c:    4605        .F      MOV      r5,r0
        0x00001e2e:    480a        .H      LDR      r0,[pc,#40] ; [0x1e58] = 0x50000200
        0x00001e30:    6980        .i      LDR      r0,[r0,#0x18]
        0x00001e32:    0700        ..      LSLS     r0,r0,#28
        0x00001e34:    0f00        ..      LSRS     r0,r0,#28
        0x00001e36:    1c41        A.      ADDS     r1,r0,#1
        0x00001e38:    4628        (F      MOV      r0,r5
        0x00001e3a:    f7fefaed    ....    BL       __aeabi_uidiv ; 0x418
        0x00001e3e:    490a        .I      LDR      r1,[pc,#40] ; [0x1e68] = 0x20000000
        0x00001e40:    6008        .`      STR      r0,[r1,#0]
        0x00001e42:    490a        .I      LDR      r1,[pc,#40] ; [0x1e6c] = 0xf4240
        0x00001e44:    4808        .H      LDR      r0,[pc,#32] ; [0x1e68] = 0x20000000
        0x00001e46:    6800        .h      LDR      r0,[r0,#0]
        0x00001e48:    104a        J.      ASRS     r2,r1,#1
        0x00001e4a:    1880        ..      ADDS     r0,r0,r2
        0x00001e4c:    f7fefae4    ....    BL       __aeabi_uidiv ; 0x418
        0x00001e50:    4907        .I      LDR      r1,[pc,#28] ; [0x1e70] = 0x20000004
        0x00001e52:    6008        .`      STR      r0,[r1,#0]
        0x00001e54:    bd70        p.      POP      {r4-r6,pc}
    $d
        0x00001e56:    0000        ..      DCW    0
        0x00001e58:    50000200    ...P    DCD    1342177792
        0x00001e5c:    20000008    ...     DCD    536870920
        0x00001e60:    01518000    ..Q.    DCD    22118400
        0x00001e64:    00b71b00    ....    DCD    12000000
        0x00001e68:    20000000    ...     DCD    536870912
        0x00001e6c:    000f4240    @B..    DCD    1000000
        0x00001e70:    20000004    ...     DCD    536870916
    $t
    i.SystemInit
    SystemInit
        0x00001e74:    4770        pG      BX       lr
        0x00001e76:    0000        ..      MOVS     r0,r0
    i.TMR0_IRQHandler
    TMR0_IRQHandler
        0x00001e78:    b500        ..      PUSH     {lr}
        0x00001e7a:    b089        ..      SUB      sp,sp,#0x24
        0x00001e7c:    4b2e        .K      LDR      r3,[pc,#184] ; [0x1f38] = 0x235c
        0x00001e7e:    cb0f        ..      LDM      r3,{r0-r3}
        0x00001e80:    9308        ..      STR      r3,[sp,#0x20]
        0x00001e82:    ab05        ..      ADD      r3,sp,#0x14
        0x00001e84:    c307        ..      STM      r3!,{r0-r2}
        0x00001e86:    a32d        -.      ADR      r3,{pc}+0xb6 ; 0x1f3c
        0x00001e88:    cb0f        ..      LDM      r3,{r0-r3}
        0x00001e8a:    9304        ..      STR      r3,[sp,#0x10]
        0x00001e8c:    ab01        ..      ADD      r3,sp,#4
        0x00001e8e:    c307        ..      STM      r3!,{r0-r2}
        0x00001e90:    bf00        ..      NOP      
        0x00001e92:    482e        .H      LDR      r0,[pc,#184] ; [0x1f4c] = 0x400e0000
        0x00001e94:    6b00        .k      LDR      r0,[r0,#0x30]
        0x00001e96:    07c0        ..      LSLS     r0,r0,#31
        0x00001e98:    0fc0        ..      LSRS     r0,r0,#31
        0x00001e9a:    d0fa        ..      BEQ      0x1e92 ; TMR0_IRQHandler + 26
        0x00001e9c:    482b        +H      LDR      r0,[pc,#172] ; [0x1f4c] = 0x400e0000
        0x00001e9e:    6b00        .k      LDR      r0,[r0,#0x30]
        0x00001ea0:    0840        @.      LSRS     r0,r0,#1
        0x00001ea2:    0040        @.      LSLS     r0,r0,#1
        0x00001ea4:    1c40        @.      ADDS     r0,r0,#1
        0x00001ea6:    4929        )I      LDR      r1,[pc,#164] ; [0x1f4c] = 0x400e0000
        0x00001ea8:    6308        .c      STR      r0,[r1,#0x30]
        0x00001eaa:    4608        .F      MOV      r0,r1
        0x00001eac:    6900        .i      LDR      r0,[r0,#0x10]
        0x00001eae:    b282        ..      UXTH     r2,r0
        0x00001eb0:    a127        '.      ADR      r1,{pc}+0xa0 ; 0x1f50
        0x00001eb2:    a807        ..      ADD      r0,sp,#0x1c
        0x00001eb4:    3003        .0      ADDS     r0,#3
        0x00001eb6:    f7fef9b1    ....    BL       __2sprintf ; 0x21c
        0x00001eba:    a905        ..      ADD      r1,sp,#0x14
        0x00001ebc:    2002        .       MOVS     r0,#2
        0x00001ebe:    f000fa1d    ....    BL       print_lcd ; 0x22fc
        0x00001ec2:    4822        "H      LDR      r0,[pc,#136] ; [0x1f4c] = 0x400e0000
        0x00001ec4:    6900        .i      LDR      r0,[r0,#0x10]
        0x00001ec6:    b283        ..      UXTH     r3,r0
        0x00001ec8:    4820         H      LDR      r0,[pc,#128] ; [0x1f4c] = 0x400e0000
        0x00001eca:    6900        .i      LDR      r0,[r0,#0x10]
        0x00001ecc:    b282        ..      UXTH     r2,r0
        0x00001ece:    a122        ".      ADR      r1,{pc}+0x8a ; 0x1f58
        0x00001ed0:    a802        ..      ADD      r0,sp,#8
        0x00001ed2:    3001        .0      ADDS     r0,#1
        0x00001ed4:    f7fef9a2    ....    BL       __2sprintf ; 0x21c
        0x00001ed8:    a901        ..      ADD      r1,sp,#4
        0x00001eda:    2003        .       MOVS     r0,#3
        0x00001edc:    f000fa0e    ....    BL       print_lcd ; 0x22fc
        0x00001ee0:    481a        .H      LDR      r0,[pc,#104] ; [0x1f4c] = 0x400e0000
        0x00001ee2:    6a00        .j      LDR      r0,[r0,#0x20]
        0x00001ee4:    2101        .!      MOVS     r1,#1
        0x00001ee6:    02c9        ..      LSLS     r1,r1,#11
        0x00001ee8:    4388        .C      BICS     r0,r0,r1
        0x00001eea:    1840        @.      ADDS     r0,r0,r1
        0x00001eec:    4917        .I      LDR      r1,[pc,#92] ; [0x1f4c] = 0x400e0000
        0x00001eee:    6208        .b      STR      r0,[r1,#0x20]
        0x00001ef0:    4608        .F      MOV      r0,r1
        0x00001ef2:    6900        .i      LDR      r0,[r0,#0x10]
        0x00001ef4:    b280        ..      UXTH     r0,r0
        0x00001ef6:    2125        %!      MOVS     r1,#0x25
        0x00001ef8:    0109        ..      LSLS     r1,r1,#4
        0x00001efa:    4288        .B      CMP      r0,r1
        0x00001efc:    dd13        ..      BLE      0x1f26 ; TMR0_IRQHandler + 174
        0x00001efe:    2001        .       MOVS     r0,#1
        0x00001f00:    4918        .I      LDR      r1,[pc,#96] ; [0x1f64] = 0x50004280
        0x00001f02:    6308        .c      STR      r0,[r1,#0x30]
        0x00001f04:    6348        Hc      STR      r0,[r1,#0x34]
        0x00001f06:    4811        .H      LDR      r0,[pc,#68] ; [0x1f4c] = 0x400e0000
        0x00001f08:    6a80        .j      LDR      r0,[r0,#0x28]
        0x00001f0a:    2102        .!      MOVS     r1,#2
        0x00001f0c:    4388        .C      BICS     r0,r0,r1
        0x00001f0e:    1c80        ..      ADDS     r0,r0,#2
        0x00001f10:    490e        .I      LDR      r1,[pc,#56] ; [0x1f4c] = 0x400e0000
        0x00001f12:    6288        .b      STR      r0,[r1,#0x28]
        0x00001f14:    4608        .F      MOV      r0,r1
        0x00001f16:    6a80        .j      LDR      r0,[r0,#0x28]
        0x00001f18:    0840        @.      LSRS     r0,r0,#1
        0x00001f1a:    0040        @.      LSLS     r0,r0,#1
        0x00001f1c:    1c40        @.      ADDS     r0,r0,#1
        0x00001f1e:    6288        .b      STR      r0,[r1,#0x28]
        0x00001f20:    201d        .       MOVS     r0,#0x1d
        0x00001f22:    f7fffd39    ..9.    BL       NVIC_EnableIRQ ; 0x1998
        0x00001f26:    4810        .H      LDR      r0,[pc,#64] ; [0x1f68] = 0x40010000
        0x00001f28:    6880        .h      LDR      r0,[r0,#8]
        0x00001f2a:    0840        @.      LSRS     r0,r0,#1
        0x00001f2c:    0040        @.      LSLS     r0,r0,#1
        0x00001f2e:    1c40        @.      ADDS     r0,r0,#1
        0x00001f30:    490d        .I      LDR      r1,[pc,#52] ; [0x1f68] = 0x40010000
        0x00001f32:    6088        .`      STR      r0,[r1,#8]
        0x00001f34:    b009        ..      ADD      sp,sp,#0x24
        0x00001f36:    bd00        ..      POP      {pc}
    $d
        0x00001f38:    0000235c    \#..    DCD    9052
        0x00001f3c:    30203441    A4 0    DCD    807416897
        0x00001f40:    43424178    xABC    DCD    1128415608
        0x00001f44:    5a5a5a20     ZZZ    DCD    1515870752
        0x00001f48:    0000645a    Zd..    DCD    25690
        0x00001f4c:    400e0000    ...@    DCD    1074659328
        0x00001f50:    20206425    %d      DCD    538993701
        0x00001f54:    00000020     ...    DCD    32
        0x00001f58:    25205825    %X %    DCD    622876709
        0x00001f5c:    20206464    dd      DCD    538993764
        0x00001f60:    00002020      ..    DCD    8224
        0x00001f64:    50004280    .B.P    DCD    1342194304
        0x00001f68:    40010000    ...@    DCD    1073807360
    $t
    i.TMR1_IRQHandler
    TMR1_IRQHandler
        0x00001f6c:    b510        ..      PUSH     {r4,lr}
        0x00001f6e:    b08a        ..      SUB      sp,sp,#0x28
        0x00001f70:    2214        ."      MOVS     r2,#0x14
        0x00001f72:    491b        .I      LDR      r1,[pc,#108] ; [0x1fe0] = 0x2334
        0x00001f74:    a805        ..      ADD      r0,sp,#0x14
        0x00001f76:    f7fef903    ....    BL       __aeabi_memcpy4 ; 0x180
        0x00001f7a:    2400        .$      MOVS     r4,#0
        0x00001f7c:    2214        ."      MOVS     r2,#0x14
        0x00001f7e:    4918        .I      LDR      r1,[pc,#96] ; [0x1fe0] = 0x2334
        0x00001f80:    3114        .1      ADDS     r1,r1,#0x14
        0x00001f82:    4668        hF      MOV      r0,sp
        0x00001f84:    f7fef8fc    ....    BL       __aeabi_memcpy4 ; 0x180
        0x00001f88:    4816        .H      LDR      r0,[pc,#88] ; [0x1fe4] = 0x2000001c
        0x00001f8a:    8800        ..      LDRH     r0,[r0,#0]
        0x00001f8c:    1c40        @.      ADDS     r0,r0,#1
        0x00001f8e:    4915        .I      LDR      r1,[pc,#84] ; [0x1fe4] = 0x2000001c
        0x00001f90:    8008        ..      STRH     r0,[r1,#0]
        0x00001f92:    4608        .F      MOV      r0,r1
        0x00001f94:    8802        ..      LDRH     r2,[r0,#0]
        0x00001f96:    a114        ..      ADR      r1,{pc}+0x52 ; 0x1fe8
        0x00001f98:    a806        ..      ADD      r0,sp,#0x18
        0x00001f9a:    3003        .0      ADDS     r0,#3
        0x00001f9c:    f7fef93e    ..>.    BL       __2sprintf ; 0x21c
        0x00001fa0:    a905        ..      ADD      r1,sp,#0x14
        0x00001fa2:    2000        .       MOVS     r0,#0
        0x00001fa4:    f000f9aa    ....    BL       print_lcd ; 0x22fc
        0x00001fa8:    f7fffd14    ....    BL       Read_A2D_8591 ; 0x19d4
        0x00001fac:    4604        .F      MOV      r4,r0
        0x00001fae:    4622        "F      MOV      r2,r4
        0x00001fb0:    a110        ..      ADR      r1,{pc}+0x44 ; 0x1ff4
        0x00001fb2:    a802        ..      ADD      r0,sp,#8
        0x00001fb4:    3003        .0      ADDS     r0,#3
        0x00001fb6:    f7fef931    ..1.    BL       __2sprintf ; 0x21c
        0x00001fba:    4669        iF      MOV      r1,sp
        0x00001fbc:    2001        .       MOVS     r0,#1
        0x00001fbe:    f000f99d    ....    BL       print_lcd ; 0x22fc
        0x00001fc2:    4620         F      MOV      r0,r4
        0x00001fc4:    f000f938    ..8.    BL       out_D2A_8591 ; 0x2238
        0x00001fc8:    4620         F      MOV      r0,r4
        0x00001fca:    f000f8ea    ....    BL       disp2Digit8574 ; 0x21a2
        0x00001fce:    480a        .H      LDR      r0,[pc,#40] ; [0x1ff8] = 0x40010000
        0x00001fd0:    6a80        .j      LDR      r0,[r0,#0x28]
        0x00001fd2:    0840        @.      LSRS     r0,r0,#1
        0x00001fd4:    0040        @.      LSLS     r0,r0,#1
        0x00001fd6:    1c40        @.      ADDS     r0,r0,#1
        0x00001fd8:    4907        .I      LDR      r1,[pc,#28] ; [0x1ff8] = 0x40010000
        0x00001fda:    6288        .b      STR      r0,[r1,#0x28]
        0x00001fdc:    b00a        ..      ADD      sp,sp,#0x28
        0x00001fde:    bd10        ..      POP      {r4,pc}
    $d
        0x00001fe0:    00002334    4#..    DCD    9012
        0x00001fe4:    2000001c    ...     DCD    536870940
        0x00001fe8:    20642520     %d     DCD    543434016
        0x00001fec:    20202e73    s.      DCD    538979955
        0x00001ff0:    00000000    ....    DCD    0
        0x00001ff4:    00207825    %x .    DCD    2127909
        0x00001ff8:    40010000    ...@    DCD    1073807360
    $t
    i.UART02_IRQHandler
    UART02_IRQHandler
        0x00001ffc:    b570        p.      PUSH     {r4-r6,lr}
        0x00001ffe:    480a        .H      LDR      r0,[pc,#40] ; [0x2028] = 0x40050000
        0x00002000:    69c4        .i      LDR      r4,[r0,#0x1c]
        0x00002002:    480a        .H      LDR      r0,[pc,#40] ; [0x202c] = 0x40154000
        0x00002004:    69c5        .i      LDR      r5,[r0,#0x1c]
        0x00002006:    480a        .H      LDR      r0,[pc,#40] ; [0x2030] = 0x20000628
        0x00002008:    6800        .h      LDR      r0,[r0,#0]
        0x0000200a:    2800        .(      CMP      r0,#0
        0x0000200c:    d003        ..      BEQ      0x2016 ; UART02_IRQHandler + 26
        0x0000200e:    4620         F      MOV      r0,r4
        0x00002010:    4907        .I      LDR      r1,[pc,#28] ; [0x2030] = 0x20000628
        0x00002012:    6809        .h      LDR      r1,[r1,#0]
        0x00002014:    4788        .G      BLX      r1
        0x00002016:    4807        .H      LDR      r0,[pc,#28] ; [0x2034] = 0x20000630
        0x00002018:    6800        .h      LDR      r0,[r0,#0]
        0x0000201a:    2800        .(      CMP      r0,#0
        0x0000201c:    d003        ..      BEQ      0x2026 ; UART02_IRQHandler + 42
        0x0000201e:    4628        (F      MOV      r0,r5
        0x00002020:    4904        .I      LDR      r1,[pc,#16] ; [0x2034] = 0x20000630
        0x00002022:    6809        .h      LDR      r1,[r1,#0]
        0x00002024:    4788        .G      BLX      r1
        0x00002026:    bd70        p.      POP      {r4-r6,pc}
    $d
        0x00002028:    40050000    ...@    DCD    1074069504
        0x0000202c:    40154000    .@.@    DCD    1075134464
        0x00002030:    20000628    (..     DCD    536872488
        0x00002034:    20000630    0..     DCD    536872496
    $t
    i.UART1_IRQHandler
    UART1_IRQHandler
        0x00002038:    b510        ..      PUSH     {r4,lr}
        0x0000203a:    4805        .H      LDR      r0,[pc,#20] ; [0x2050] = 0x40150000
        0x0000203c:    69c4        .i      LDR      r4,[r0,#0x1c]
        0x0000203e:    4805        .H      LDR      r0,[pc,#20] ; [0x2054] = 0x2000062c
        0x00002040:    6800        .h      LDR      r0,[r0,#0]
        0x00002042:    2800        .(      CMP      r0,#0
        0x00002044:    d003        ..      BEQ      0x204e ; UART1_IRQHandler + 22
        0x00002046:    4620         F      MOV      r0,r4
        0x00002048:    4902        .I      LDR      r1,[pc,#8] ; [0x2054] = 0x2000062c
        0x0000204a:    6809        .h      LDR      r1,[r1,#0]
        0x0000204c:    4788        .G      BLX      r1
        0x0000204e:    bd10        ..      POP      {r4,pc}
    $d
        0x00002050:    40150000    ...@    DCD    1075118080
        0x00002054:    2000062c    ,..     DCD    536872492
    $t
    i.WriteData
    WriteData
        0x00002058:    4914        .I      LDR      r1,[pc,#80] ; [0x20ac] = 0x20000020
        0x0000205a:    68c9        .h      LDR      r1,[r1,#0xc]
        0x0000205c:    6889        .h      LDR      r1,[r1,#8]
        0x0000205e:    0889        ..      LSRS     r1,r1,#2
        0x00002060:    0089        ..      LSLS     r1,r1,#2
        0x00002062:    1c49        I.      ADDS     r1,r1,#1
        0x00002064:    4a11        .J      LDR      r2,[pc,#68] ; [0x20ac] = 0x20000020
        0x00002066:    68d2        .h      LDR      r2,[r2,#0xc]
        0x00002068:    6091        .`      STR      r1,[r2,#8]
        0x0000206a:    21ff        .!      MOVS     r1,#0xff
        0x0000206c:    3101        .1      ADDS     r1,#1
        0x0000206e:    4301        .C      ORRS     r1,r1,r0
        0x00002070:    4a0e        .J      LDR      r2,[pc,#56] ; [0x20ac] = 0x20000020
        0x00002072:    68d2        .h      LDR      r2,[r2,#0xc]
        0x00002074:    6211        .b      STR      r1,[r2,#0x20]
        0x00002076:    490d        .I      LDR      r1,[pc,#52] ; [0x20ac] = 0x20000020
        0x00002078:    68c9        .h      LDR      r1,[r1,#0xc]
        0x0000207a:    6809        .h      LDR      r1,[r1,#0]
        0x0000207c:    0849        I.      LSRS     r1,r1,#1
        0x0000207e:    0049        I.      LSLS     r1,r1,#1
        0x00002080:    1c49        I.      ADDS     r1,r1,#1
        0x00002082:    4a0a        .J      LDR      r2,[pc,#40] ; [0x20ac] = 0x20000020
        0x00002084:    68d2        .h      LDR      r2,[r2,#0xc]
        0x00002086:    6011        .`      STR      r1,[r2,#0]
        0x00002088:    bf00        ..      NOP      
        0x0000208a:    4908        .I      LDR      r1,[pc,#32] ; [0x20ac] = 0x20000020
        0x0000208c:    68c9        .h      LDR      r1,[r1,#0xc]
        0x0000208e:    6809        .h      LDR      r1,[r1,#0]
        0x00002090:    07c9        ..      LSLS     r1,r1,#31
        0x00002092:    0fc9        ..      LSRS     r1,r1,#31
        0x00002094:    2901        .)      CMP      r1,#1
        0x00002096:    d0f8        ..      BEQ      0x208a ; WriteData + 50
        0x00002098:    4904        .I      LDR      r1,[pc,#16] ; [0x20ac] = 0x20000020
        0x0000209a:    68c9        .h      LDR      r1,[r1,#0xc]
        0x0000209c:    6889        .h      LDR      r1,[r1,#8]
        0x0000209e:    0889        ..      LSRS     r1,r1,#2
        0x000020a0:    0089        ..      LSLS     r1,r1,#2
        0x000020a2:    4a02        .J      LDR      r2,[pc,#8] ; [0x20ac] = 0x20000020
        0x000020a4:    68d2        .h      LDR      r2,[r2,#0xc]
        0x000020a6:    6091        .`      STR      r1,[r2,#8]
        0x000020a8:    4770        pG      BX       lr
    $d
        0x000020aa:    0000        ..      DCW    0
        0x000020ac:    20000020     ..     DCD    536870944
    $t
    i.Write_to_any8574
    Write_to_any8574
        0x000020b0:    b538        8.      PUSH     {r3-r5,lr}
        0x000020b2:    4604        .F      MOV      r4,r0
        0x000020b4:    460d        .F      MOV      r5,r1
        0x000020b6:    f7feffc3    ....    BL       DrvSYS_GetHCLKFreq ; 0x1040
        0x000020ba:    4922        "I      LDR      r1,[pc,#136] ; [0x2144] = 0x20000000
        0x000020bc:    6008        .`      STR      r0,[r1,#0]
        0x000020be:    4922        "I      LDR      r1,[pc,#136] ; [0x2148] = 0xc350
        0x000020c0:    2001        .       MOVS     r0,#1
        0x000020c2:    f7feff55    ..U.    BL       DrvI2C_Open ; 0xf70
        0x000020c6:    2000        .       MOVS     r0,#0
        0x000020c8:    4603        .F      MOV      r3,r0
        0x000020ca:    4602        .F      MOV      r2,r0
        0x000020cc:    2101        .!      MOVS     r1,#1
        0x000020ce:    9000        ..      STR      r0,[sp,#0]
        0x000020d0:    4608        .F      MOV      r0,r1
        0x000020d2:    f7feff23    ..#.    BL       DrvI2C_Ctrl ; 0xf1c
        0x000020d6:    bf00        ..      NOP      
        0x000020d8:    481c        .H      LDR      r0,[pc,#112] ; [0x214c] = 0x40120000
        0x000020da:    6800        .h      LDR      r0,[r0,#0]
        0x000020dc:    0700        ..      LSLS     r0,r0,#28
        0x000020de:    0fc0        ..      LSRS     r0,r0,#31
        0x000020e0:    d0fa        ..      BEQ      0x20d8 ; Write_to_any8574 + 40
        0x000020e2:    481a        .H      LDR      r0,[pc,#104] ; [0x214c] = 0x40120000
        0x000020e4:    6084        .`      STR      r4,[r0,#8]
        0x000020e6:    2000        .       MOVS     r0,#0
        0x000020e8:    2301        .#      MOVS     r3,#1
        0x000020ea:    4602        .F      MOV      r2,r0
        0x000020ec:    4601        .F      MOV      r1,r0
        0x000020ee:    9000        ..      STR      r0,[sp,#0]
        0x000020f0:    4618        .F      MOV      r0,r3
        0x000020f2:    f7feff13    ....    BL       DrvI2C_Ctrl ; 0xf1c
        0x000020f6:    bf00        ..      NOP      
        0x000020f8:    4814        .H      LDR      r0,[pc,#80] ; [0x214c] = 0x40120000
        0x000020fa:    6800        .h      LDR      r0,[r0,#0]
        0x000020fc:    0700        ..      LSLS     r0,r0,#28
        0x000020fe:    0fc0        ..      LSRS     r0,r0,#31
        0x00002100:    d0fa        ..      BEQ      0x20f8 ; Write_to_any8574 + 72
        0x00002102:    4812        .H      LDR      r0,[pc,#72] ; [0x214c] = 0x40120000
        0x00002104:    6085        .`      STR      r5,[r0,#8]
        0x00002106:    2001        .       MOVS     r0,#1
        0x00002108:    4603        .F      MOV      r3,r0
        0x0000210a:    2200        ."      MOVS     r2,#0
        0x0000210c:    4611        .F      MOV      r1,r2
        0x0000210e:    9000        ..      STR      r0,[sp,#0]
        0x00002110:    f7feff04    ....    BL       DrvI2C_Ctrl ; 0xf1c
        0x00002114:    bf00        ..      NOP      
        0x00002116:    480d        .H      LDR      r0,[pc,#52] ; [0x214c] = 0x40120000
        0x00002118:    6800        .h      LDR      r0,[r0,#0]
        0x0000211a:    0700        ..      LSLS     r0,r0,#28
        0x0000211c:    0fc0        ..      LSRS     r0,r0,#31
        0x0000211e:    d0fa        ..      BEQ      0x2116 ; Write_to_any8574 + 102
        0x00002120:    2000        .       MOVS     r0,#0
        0x00002122:    2301        .#      MOVS     r3,#1
        0x00002124:    461a        .F      MOV      r2,r3
        0x00002126:    4601        .F      MOV      r1,r0
        0x00002128:    9000        ..      STR      r0,[sp,#0]
        0x0000212a:    4618        .F      MOV      r0,r3
        0x0000212c:    f7fefef6    ....    BL       DrvI2C_Ctrl ; 0xf1c
        0x00002130:    bf00        ..      NOP      
        0x00002132:    4806        .H      LDR      r0,[pc,#24] ; [0x214c] = 0x40120000
        0x00002134:    6800        .h      LDR      r0,[r0,#0]
        0x00002136:    06c0        ..      LSLS     r0,r0,#27
        0x00002138:    0fc0        ..      LSRS     r0,r0,#31
        0x0000213a:    d1fa        ..      BNE      0x2132 ; Write_to_any8574 + 130
        0x0000213c:    2001        .       MOVS     r0,#1
        0x0000213e:    f7fefea5    ....    BL       DrvI2C_Close ; 0xe8c
        0x00002142:    bd38        8.      POP      {r3-r5,pc}
    $d
        0x00002144:    20000000    ...     DCD    536870912
        0x00002148:    0000c350    P...    DCD    50000
        0x0000214c:    40120000    ...@    DCD    1074921472
    $t
    i.__ARM_common_switch8
    __ARM_common_switch8
        0x00002150:    b430        0.      PUSH     {r4,r5}
        0x00002152:    4674        tF      MOV      r4,lr
        0x00002154:    1e64        d.      SUBS     r4,r4,#1
        0x00002156:    7825        %x      LDRB     r5,[r4,#0]
        0x00002158:    1c64        d.      ADDS     r4,r4,#1
        0x0000215a:    42ab        .B      CMP      r3,r5
        0x0000215c:    d304        ..      BCC      0x2168 ; __ARM_common_switch8 + 24
        0x0000215e:    5d63        c]      LDRB     r3,[r4,r5]
        0x00002160:    005b        [.      LSLS     r3,r3,#1
        0x00002162:    18e3        ..      ADDS     r3,r4,r3
        0x00002164:    bc30        0.      POP      {r4,r5}
        0x00002166:    4718        .G      BX       r3
        0x00002168:    461d        .F      MOV      r5,r3
        0x0000216a:    e7f8        ..      B        0x215e ; __ARM_common_switch8 + 14
    i._is_digit
    _is_digit
        0x0000216c:    3830        08      SUBS     r0,r0,#0x30
        0x0000216e:    280a        .(      CMP      r0,#0xa
        0x00002170:    d201        ..      BCS      0x2176 ; _is_digit + 10
        0x00002172:    2001        .       MOVS     r0,#1
        0x00002174:    4770        pG      BX       lr
        0x00002176:    2000        .       MOVS     r0,#0
        0x00002178:    4770        pG      BX       lr
    i.clr_all_pannal
    clr_all_pannal
        0x0000217a:    b510        ..      PUSH     {r4,lr}
        0x0000217c:    2400        .$      MOVS     r4,#0
        0x0000217e:    2100        .!      MOVS     r1,#0
        0x00002180:    4608        .F      MOV      r0,r1
        0x00002182:    f7fffd71    ..q.    BL       SetPACA ; 0x1c68
        0x00002186:    bf00        ..      NOP      
        0x00002188:    e003        ..      B        0x2192 ; clr_all_pannal + 24
        0x0000218a:    2000        .       MOVS     r0,#0
        0x0000218c:    f7ffff64    ..d.    BL       WriteData ; 0x2058
        0x00002190:    1c64        d.      ADDS     r4,r4,#1
        0x00002192:    2021        !       MOVS     r0,#0x21
        0x00002194:    0140        @.      LSLS     r0,r0,#5
        0x00002196:    4284        .B      CMP      r4,r0
        0x00002198:    dbf7        ..      BLT      0x218a ; clr_all_pannal + 16
        0x0000219a:    200f        .       MOVS     r0,#0xf
        0x0000219c:    f7ffff5c    ..\.    BL       WriteData ; 0x2058
        0x000021a0:    bd10        ..      POP      {r4,pc}
    i.disp2Digit8574
    disp2Digit8574
        0x000021a2:    b570        p.      PUSH     {r4-r6,lr}
        0x000021a4:    4604        .F      MOV      r4,r0
        0x000021a6:    1120         .      ASRS     r0,r4,#4
        0x000021a8:    f7fff962    ..b.    BL       HEX2Disp ; 0x1470
        0x000021ac:    4605        .F      MOV      r5,r0
        0x000021ae:    4629        )F      MOV      r1,r5
        0x000021b0:    2072        r       MOVS     r0,#0x72
        0x000021b2:    f7ffff7d    ..}.    BL       Write_to_any8574 ; 0x20b0
        0x000021b6:    0721        !.      LSLS     r1,r4,#28
        0x000021b8:    0f09        ..      LSRS     r1,r1,#28
        0x000021ba:    460c        .F      MOV      r4,r1
        0x000021bc:    4608        .F      MOV      r0,r1
        0x000021be:    f7fff957    ..W.    BL       HEX2Disp ; 0x1470
        0x000021c2:    4605        .F      MOV      r5,r0
        0x000021c4:    4629        )F      MOV      r1,r5
        0x000021c6:    2070        p       MOVS     r0,#0x70
        0x000021c8:    f7ffff72    ..r.    BL       Write_to_any8574 ; 0x20b0
        0x000021cc:    bd70        p.      POP      {r4-r6,pc}
        0x000021ce:    0000        ..      MOVS     r0,r0
    i.main
    main
        0x000021d0:    2059        Y       MOVS     r0,#0x59
        0x000021d2:    4912        .I      LDR      r1,[pc,#72] ; [0x221c] = 0x50000100
        0x000021d4:    6008        .`      STR      r0,[r1,#0]
        0x000021d6:    2016        .       MOVS     r0,#0x16
        0x000021d8:    6008        .`      STR      r0,[r1,#0]
        0x000021da:    2088        .       MOVS     r0,#0x88
        0x000021dc:    6008        .`      STR      r0,[r1,#0]
        0x000021de:    4810        .H      LDR      r0,[pc,#64] ; [0x2220] = 0x2dc6c00
        0x000021e0:    f7fff808    ....    BL       DrvSYS_Open ; 0x11f4
        0x000021e4:    2000        .       MOVS     r0,#0
        0x000021e6:    490d        .I      LDR      r1,[pc,#52] ; [0x221c] = 0x50000100
        0x000021e8:    6008        .`      STR      r0,[r1,#0]
        0x000021ea:    2100        .!      MOVS     r1,#0
        0x000021ec:    2003        .       MOVS     r0,#3
        0x000021ee:    f7fff873    ..s.    BL       DrvSYS_SetClockDivider ; 0x12d8
        0x000021f2:    f7fffac5    ....    BL       Initial_pannel ; 0x1780
        0x000021f6:    f7ffffc0    ....    BL       clr_all_pannal ; 0x217a
        0x000021fa:    f7fffa31    ..1.    BL       InitTIMER0 ; 0x1660
        0x000021fe:    f7fffa77    ..w.    BL       InitTIMER1 ; 0x16f0
        0x00002202:    f7fff9b3    ....    BL       InitADC4 ; 0x156c
        0x00002206:    a107        ..      ADR      r1,{pc}+0x1e ; 0x2224
        0x00002208:    2003        .       MOVS     r0,#3
        0x0000220a:    f000f877    ..w.    BL       print_lcd ; 0x22fc
        0x0000220e:    2003        .       MOVS     r0,#3
        0x00002210:    f7fefa90    ....    BL       DrvGPIO_InitFunction ; 0x734
        0x00002214:    e000        ..      B        0x2218 ; main + 72
        0x00002216:    bf00        ..      NOP      
        0x00002218:    e7fd        ..      B        0x2216 ; main + 70
    $d
        0x0000221a:    0000        ..      DCW    0
        0x0000221c:    50000100    ...P    DCD    1342177536
        0x00002220:    02dc6c00    .l..    DCD    48000000
        0x00002224:    6b206f6e    no k    DCD    1797287790
        0x00002228:    61507965    eyPa    DCD    1632663909
        0x0000222c:    30412064    d A0    DCD    809574500
        0x00002230:    2035412d    -A5     DCD    540361005
        0x00002234:    00000000    ....    DCD    0
    $t
    i.out_D2A_8591
    out_D2A_8591
        0x00002238:    b538        8.      PUSH     {r3-r5,lr}
        0x0000223a:    4604        .F      MOV      r4,r0
        0x0000223c:    f7feff00    ....    BL       DrvSYS_GetHCLKFreq ; 0x1040
        0x00002240:    492b        +I      LDR      r1,[pc,#172] ; [0x22f0] = 0x20000000
        0x00002242:    6008        .`      STR      r0,[r1,#0]
        0x00002244:    492b        +I      LDR      r1,[pc,#172] ; [0x22f4] = 0xc350
        0x00002246:    2001        .       MOVS     r0,#1
        0x00002248:    f7fefe92    ....    BL       DrvI2C_Open ; 0xf70
        0x0000224c:    2000        .       MOVS     r0,#0
        0x0000224e:    2301        .#      MOVS     r3,#1
        0x00002250:    4602        .F      MOV      r2,r0
        0x00002252:    4619        .F      MOV      r1,r3
        0x00002254:    9000        ..      STR      r0,[sp,#0]
        0x00002256:    4618        .F      MOV      r0,r3
        0x00002258:    f7fefe60    ..`.    BL       DrvI2C_Ctrl ; 0xf1c
        0x0000225c:    bf00        ..      NOP      
        0x0000225e:    4826        &H      LDR      r0,[pc,#152] ; [0x22f8] = 0x40120000
        0x00002260:    6800        .h      LDR      r0,[r0,#0]
        0x00002262:    0700        ..      LSLS     r0,r0,#28
        0x00002264:    0fc0        ..      LSRS     r0,r0,#31
        0x00002266:    d0fa        ..      BEQ      0x225e ; out_D2A_8591 + 38
        0x00002268:    2090        .       MOVS     r0,#0x90
        0x0000226a:    4923        #I      LDR      r1,[pc,#140] ; [0x22f8] = 0x40120000
        0x0000226c:    6088        .`      STR      r0,[r1,#8]
        0x0000226e:    2000        .       MOVS     r0,#0
        0x00002270:    2301        .#      MOVS     r3,#1
        0x00002272:    4602        .F      MOV      r2,r0
        0x00002274:    4601        .F      MOV      r1,r0
        0x00002276:    9000        ..      STR      r0,[sp,#0]
        0x00002278:    4618        .F      MOV      r0,r3
        0x0000227a:    f7fefe4f    ..O.    BL       DrvI2C_Ctrl ; 0xf1c
        0x0000227e:    bf00        ..      NOP      
        0x00002280:    481d        .H      LDR      r0,[pc,#116] ; [0x22f8] = 0x40120000
        0x00002282:    6800        .h      LDR      r0,[r0,#0]
        0x00002284:    0700        ..      LSLS     r0,r0,#28
        0x00002286:    0fc0        ..      LSRS     r0,r0,#31
        0x00002288:    d0fa        ..      BEQ      0x2280 ; out_D2A_8591 + 72
        0x0000228a:    2040        @       MOVS     r0,#0x40
        0x0000228c:    491a        .I      LDR      r1,[pc,#104] ; [0x22f8] = 0x40120000
        0x0000228e:    6088        .`      STR      r0,[r1,#8]
        0x00002290:    2000        .       MOVS     r0,#0
        0x00002292:    2301        .#      MOVS     r3,#1
        0x00002294:    4602        .F      MOV      r2,r0
        0x00002296:    4601        .F      MOV      r1,r0
        0x00002298:    9000        ..      STR      r0,[sp,#0]
        0x0000229a:    4618        .F      MOV      r0,r3
        0x0000229c:    f7fefe3e    ..>.    BL       DrvI2C_Ctrl ; 0xf1c
        0x000022a0:    bf00        ..      NOP      
        0x000022a2:    4815        .H      LDR      r0,[pc,#84] ; [0x22f8] = 0x40120000
        0x000022a4:    6800        .h      LDR      r0,[r0,#0]
        0x000022a6:    0700        ..      LSLS     r0,r0,#28
        0x000022a8:    0fc0        ..      LSRS     r0,r0,#31
        0x000022aa:    d0fa        ..      BEQ      0x22a2 ; out_D2A_8591 + 106
        0x000022ac:    4812        .H      LDR      r0,[pc,#72] ; [0x22f8] = 0x40120000
        0x000022ae:    6084        .`      STR      r4,[r0,#8]
        0x000022b0:    2000        .       MOVS     r0,#0
        0x000022b2:    2301        .#      MOVS     r3,#1
        0x000022b4:    4602        .F      MOV      r2,r0
        0x000022b6:    4601        .F      MOV      r1,r0
        0x000022b8:    9000        ..      STR      r0,[sp,#0]
        0x000022ba:    4618        .F      MOV      r0,r3
        0x000022bc:    f7fefe2e    ....    BL       DrvI2C_Ctrl ; 0xf1c
        0x000022c0:    bf00        ..      NOP      
        0x000022c2:    480d        .H      LDR      r0,[pc,#52] ; [0x22f8] = 0x40120000
        0x000022c4:    6800        .h      LDR      r0,[r0,#0]
        0x000022c6:    0700        ..      LSLS     r0,r0,#28
        0x000022c8:    0fc0        ..      LSRS     r0,r0,#31
        0x000022ca:    d0fa        ..      BEQ      0x22c2 ; out_D2A_8591 + 138
        0x000022cc:    2000        .       MOVS     r0,#0
        0x000022ce:    2301        .#      MOVS     r3,#1
        0x000022d0:    461a        .F      MOV      r2,r3
        0x000022d2:    4601        .F      MOV      r1,r0
        0x000022d4:    9000        ..      STR      r0,[sp,#0]
        0x000022d6:    4618        .F      MOV      r0,r3
        0x000022d8:    f7fefe20    .. .    BL       DrvI2C_Ctrl ; 0xf1c
        0x000022dc:    bf00        ..      NOP      
        0x000022de:    4806        .H      LDR      r0,[pc,#24] ; [0x22f8] = 0x40120000
        0x000022e0:    6800        .h      LDR      r0,[r0,#0]
        0x000022e2:    06c0        ..      LSLS     r0,r0,#27
        0x000022e4:    0fc0        ..      LSRS     r0,r0,#31
        0x000022e6:    d1fa        ..      BNE      0x22de ; out_D2A_8591 + 166
        0x000022e8:    2001        .       MOVS     r0,#1
        0x000022ea:    f7fefdcf    ....    BL       DrvI2C_Close ; 0xe8c
        0x000022ee:    bd38        8.      POP      {r3-r5,pc}
    $d
        0x000022f0:    20000000    ...     DCD    536870912
        0x000022f4:    0000c350    P...    DCD    50000
        0x000022f8:    40120000    ...@    DCD    1074921472
    $t
    i.print_lcd
    print_lcd
        0x000022fc:    b570        p.      PUSH     {r4-r6,lr}
        0x000022fe:    4606        .F      MOV      r6,r0
        0x00002300:    460c        .F      MOV      r4,r1
        0x00002302:    2500        .%      MOVS     r5,#0
        0x00002304:    bf00        ..      NOP      
        0x00002306:    7822        "x      LDRB     r2,[r4,#0]
        0x00002308:    1c64        d.      ADDS     r4,r4,#1
        0x0000230a:    b2e9        ..      UXTB     r1,r5
        0x0000230c:    4630        0F      MOV      r0,r6
        0x0000230e:    f7fffd25    ..%.    BL       Show_Word ; 0x1d5c
        0x00002312:    1c6d        m.      ADDS     r5,r5,#1
        0x00002314:    2d0f        .-      CMP      r5,#0xf
        0x00002316:    dd00        ..      BLE      0x231a ; print_lcd + 30
        0x00002318:    e002        ..      B        0x2320 ; print_lcd + 36
        0x0000231a:    7820         x      LDRB     r0,[r4,#0]
        0x0000231c:    2800        .(      CMP      r0,#0
        0x0000231e:    d1f2        ..      BNE      0x2306 ; print_lcd + 10
        0x00002320:    bf00        ..      NOP      
        0x00002322:    bd70        p.      POP      {r4-r6,pc}
    $d.realdata
    .constdata
    lookUp
        0x00002324:    b0a4f9c0    ....    DCD    2963601856
        0x00002328:    f8829299    ....    DCD    4169306777
        0x0000232c:    83889080    ....    DCD    2206765184
        0x00002330:    8e86a1c6    ....    DCD    2391187910
        0x00002334:    656d6954    Time    DCD    1701669204
        0x00002338:    003a3172    r1:.    DCD    3813746
        0x0000233c:    00000000    ....    DCD    0
        0x00002340:    00000000    ....    DCD    0
        0x00002344:    00000000    ....    DCD    0
        0x00002348:    41306863    ch0A    DCD    1093691491
        0x0000234c:    35384432    2D85    DCD    892879922
        0x00002350:    003a3139    91:.    DCD    3813689
        0x00002354:    00000000    ....    DCD    0
        0x00002358:    00000000    ....    DCD    0
        0x0000235c:    34434441    ADC4    DCD    876823617
        0x00002360:    6c615620     Val    DCD    1818318368
        0x00002364:    003a6575    ue:.    DCD    3827061
        0x00002368:    00000000    ....    DCD    0
    .constdata
        0x0000236c:    00000001    ....    DCD    1
        0x00002370:    00000002    ....    DCD    2
        0x00002374:    00000002    ....    DCD    2
        0x00002378:    00000004    ....    DCD    4
    .constdata
    uc_hextab
        0x0000237c:    33323130    0123    DCD    858927408
        0x00002380:    37363534    4567    DCD    926299444
        0x00002384:    42413938    89AB    DCD    1111570744
        0x00002388:    46454443    CDEF    DCD    1178944579
        0x0000238c:    00583040    @0X.    DCD    5779520
    lc_hextab
        0x00002390:    33323130    0123    DCD    858927408
        0x00002394:    37363534    4567    DCD    926299444
        0x00002398:    62613938    89ab    DCD    1650538808
        0x0000239c:    66656463    cdef    DCD    1717920867
        0x000023a0:    00783040    @0x.    DCD    7876672
    Region$$Table$$Base
        0x000023a4:    000023c4    .#..    DCD    9156
        0x000023a8:    20000000    ...     DCD    536870912
        0x000023ac:    00000644    D...    DCD    1604
        0x000023b0:    00000104    ....    DCD    260
        0x000023b4:    00002a08    .*..    DCD    10760
        0x000023b8:    20000644    D..     DCD    536872516
        0x000023bc:    000004d4    ....    DCD    1236
        0x000023c0:    00000120     ...    DCD    288
    Region$$Table$$Limit

** Section #2 'ER_RW' (SHT_PROGBITS) [SHF_ALLOC + SHF_WRITE]
    Size   : 1604 bytes (alignment 4)
    Address: 0x20000000


** Section #3 'ER_ZI' (SHT_NOBITS) [SHF_ALLOC + SHF_WRITE]
    Size   : 1236 bytes (alignment 8)
    Address: 0x20000644


** Section #4 '.debug_abbrev' (SHT_PROGBITS)
    Size   : 1476 bytes


** Section #5 '.debug_frame' (SHT_PROGBITS)
    Size   : 2096 bytes


** Section #6 '.debug_info' (SHT_PROGBITS)
    Size   : 124668 bytes


** Section #7 '.debug_line' (SHT_PROGBITS)
    Size   : 10276 bytes


** Section #8 '.debug_loc' (SHT_PROGBITS)
    Size   : 2848 bytes


** Section #9 '.debug_macinfo' (SHT_PROGBITS)
    Size   : 150140 bytes


** Section #10 '.debug_pubnames' (SHT_PROGBITS)
    Size   : 1883 bytes


** Section #11 '.symtab' (SHT_SYMTAB)
    Size   : 8320 bytes (alignment 4)
    String table #12 '.strtab'
    Last local symbol no. 360


** Section #12 '.strtab' (SHT_STRTAB)
    Size   : 6556 bytes


** Section #13 '.note' (SHT_NOTE)
    Size   : 28 bytes (alignment 4)


** Section #14 '.comment' (SHT_PROGBITS)
    Size   : 6516 bytes


** Section #15 '.shstrtab' (SHT_STRTAB)
    Size   : 156 bytes


