
========================================================================

** ELF Header Information

    File Name: .\obj\Smpl_Start_Kit.axf

    Machine class: ELFCLASS32 (32-bit)
    Data encoding: ELFDATA2LSB (Little endian)
    Header version: EV_CURRENT (Current version)
    Operating System ABI: none
    ABI Version: 0
    File Type: ET_EXEC (Executable) (2)
    Machine: EM_ARM (ARM)

    Image Entry point: 0x000001b9
    Flags: EF_ARM_HASENTRY (0x05000002)

    ARM ELF revision: 5 (ABI version 2)

    Built with
    ARM C/C++ Compiler, 4.1 [Build 894]
    ARM Assembler, 4.1 [Build 894]
    ARM Linker, 4.1 [Build 894] 

    Header size: 52 bytes (0x34)
    Program header entry size: 32 bytes (0x20)
    Section header entry size: 40 bytes (0x28)

    Program header entries: 1
    Section header entries: 16

    Program header offset: 354168 (0x00056778)
    Section header offset: 354200 (0x00056798)

    Section header string table index: 15

========================================================================

** Program header #0 (PT_LOAD) [PF_X + PF_W + PF_R + PF_ARM_ENTRY]
    Size : 14804 bytes (13552 bytes in file)
    Virtual address: 0x00000000 (Alignment 8)


========================================================================

** Section #1 'ER_RO' (SHT_PROGBITS) [SHF_ALLOC + SHF_EXECINSTR]
    Size   : 11868 bytes (alignment 4)
    Address: 0x00000000

    $d.realdata
    RESET
    __Vectors
        0x00000000:    20000b78    x..     DCD    536873848
        0x00000004:    000001b9    ....    DCD    441
        0x00000008:    000001d9    ....    DCD    473
        0x0000000c:    000001db    ....    DCD    475
        0x00000010:    00000000    ....    DCD    0
        0x00000014:    00000000    ....    DCD    0
        0x00000018:    00000000    ....    DCD    0
        0x0000001c:    00000000    ....    DCD    0
        0x00000020:    00000000    ....    DCD    0
        0x00000024:    00000000    ....    DCD    0
        0x00000028:    00000000    ....    DCD    0
        0x0000002c:    000001dd    ....    DCD    477
        0x00000030:    00000000    ....    DCD    0
        0x00000034:    00000000    ....    DCD    0
        0x00000038:    000001df    ....    DCD    479
        0x0000003c:    000001e1    ....    DCD    481
        0x00000040:    00000719    ....    DCD    1817
        0x00000044:    000001e3    ....    DCD    483
        0x00000048:    000018ed    ....    DCD    6381
        0x0000004c:    00001911    ....    DCD    6417
        0x00000050:    00001935    5...    DCD    6453
        0x00000054:    00001971    q...    DCD    6513
        0x00000058:    00002081    . ..    DCD    8321
        0x0000005c:    000001e3    ....    DCD    483
        0x00000060:    000001e3    ....    DCD    483
        0x00000064:    000001e3    ....    DCD    483
        0x00000068:    000025f9    .%..    DCD    9721
        0x0000006c:    00002665    e&..    DCD    9829
        0x00000070:    00002815    .(..    DCD    10261
        0x00000074:    00002851    Q(..    DCD    10321
        0x00000078:    00002259    Y"..    DCD    8793
        0x0000007c:    000022bd    ."..    DCD    8893
        0x00000080:    00002321    !#..    DCD    8993
        0x00000084:    00002385    .#..    DCD    9093
        0x00000088:    00001a05    ....    DCD    6661
        0x0000008c:    00001a7d    }...    DCD    6781
        0x00000090:    000001e3    ....    DCD    483
        0x00000094:    000001e3    ....    DCD    483
        0x00000098:    000001e3    ....    DCD    483
        0x0000009c:    000001e3    ....    DCD    483
        0x000000a0:    000001e3    ....    DCD    483
        0x000000a4:    000001e3    ....    DCD    483
        0x000000a8:    000001e3    ....    DCD    483
        0x000000ac:    000001e3    ....    DCD    483
        0x000000b0:    0000212d    -!..    DCD    8493
        0x000000b4:    000001e3    ....    DCD    483
        0x000000b8:    000001e3    ....    DCD    483
        0x000000bc:    000001e3    ....    DCD    483
    $t
    !!!main
    __main
        0x000000c0:    f000f802    ....    BL       __scatterload ; 0xc8
        0x000000c4:    f000f84d    ..M.    BL       __rt_entry ; 0x162
    !!!scatter
    __scatterload
    __scatterload_rt2
    __scatterload_rt2_thumb_only
        0x000000c8:    a00c        ..      ADR      r0,{pc}+0x34 ; 0xfc
        0x000000ca:    c830        0.      LDM      r0!,{r4,r5}
        0x000000cc:    3808        .8      SUBS     r0,r0,#8
        0x000000ce:    1824        $.      ADDS     r4,r4,r0
        0x000000d0:    182d        -.      ADDS     r5,r5,r0
        0x000000d2:    46a2        .F      MOV      r10,r4
        0x000000d4:    1e67        g.      SUBS     r7,r4,#1
        0x000000d6:    46ab        .F      MOV      r11,r5
    __scatterload_null
        0x000000d8:    4654        TF      MOV      r4,r10
        0x000000da:    465d        ]F      MOV      r5,r11
        0x000000dc:    42ac        .B      CMP      r4,r5
        0x000000de:    d101        ..      BNE      0xe4 ; __scatterload_null + 12
        0x000000e0:    f000f83f    ..?.    BL       __rt_entry ; 0x162
        0x000000e4:    467e        ~F      MOV      r6,pc
        0x000000e6:    3e0f        .>      SUBS     r6,r6,#0xf
        0x000000e8:    cc0f        ..      LDM      r4!,{r0-r3}
        0x000000ea:    46b6        .F      MOV      lr,r6
        0x000000ec:    2601        .&      MOVS     r6,#1
        0x000000ee:    4233        3B      TST      r3,r6
        0x000000f0:    d000        ..      BEQ      0xf4 ; __scatterload_null + 28
        0x000000f2:    1afb        ..      SUBS     r3,r7,r3
        0x000000f4:    46a2        .F      MOV      r10,r4
        0x000000f6:    46ab        .F      MOV      r11,r5
        0x000000f8:    4333        3C      ORRS     r3,r3,r6
        0x000000fa:    4718        .G      BX       r3
    $d
        0x000000fc:    00002d40    @-..    DCD    11584
        0x00000100:    00002d60    `-..    DCD    11616
    $t
    !!handler_copy
    __scatterload_copy
        0x00000104:    3a10        .:      SUBS     r2,r2,#0x10
        0x00000106:    d302        ..      BCC      0x10e ; __scatterload_copy + 10
        0x00000108:    c878        x.      LDM      r0!,{r3-r6}
        0x0000010a:    c178        x.      STM      r1!,{r3-r6}
        0x0000010c:    d8fa        ..      BHI      __scatterload_copy ; 0x104
        0x0000010e:    0752        R.      LSLS     r2,r2,#29
        0x00000110:    d301        ..      BCC      0x116 ; __scatterload_copy + 18
        0x00000112:    c830        0.      LDM      r0!,{r4,r5}
        0x00000114:    c130        0.      STM      r1!,{r4,r5}
        0x00000116:    d501        ..      BPL      0x11c ; __scatterload_copy + 24
        0x00000118:    6804        .h      LDR      r4,[r0,#0]
        0x0000011a:    600c        .`      STR      r4,[r1,#0]
        0x0000011c:    4770        pG      BX       lr
        0x0000011e:    0000        ..      MOVS     r0,r0
    !!handler_zi
    __scatterload_zeroinit
        0x00000120:    2300        .#      MOVS     r3,#0
        0x00000122:    2400        .$      MOVS     r4,#0
        0x00000124:    2500        .%      MOVS     r5,#0
        0x00000126:    2600        .&      MOVS     r6,#0
        0x00000128:    3a10        .:      SUBS     r2,r2,#0x10
        0x0000012a:    d301        ..      BCC      0x130 ; __scatterload_zeroinit + 16
        0x0000012c:    c178        x.      STM      r1!,{r3-r6}
        0x0000012e:    d8fb        ..      BHI      0x128 ; __scatterload_zeroinit + 8
        0x00000130:    0752        R.      LSLS     r2,r2,#29
        0x00000132:    d300        ..      BCC      0x136 ; __scatterload_zeroinit + 22
        0x00000134:    c130        0.      STM      r1!,{r4,r5}
        0x00000136:    d500        ..      BPL      0x13a ; __scatterload_zeroinit + 26
        0x00000138:    600b        .`      STR      r3,[r1,#0]
        0x0000013a:    4770        pG      BX       lr
    .ARM.Collect$$_printf_percent$$00000000
    _printf_percent
        0x0000013c:    b510        ..      PUSH     {r4,lr}
    .ARM.Collect$$_printf_percent$$00000009
    _printf_d
        0x0000013e:    2964        d)      CMP      r1,#0x64
        0x00000140:    d102        ..      BNE      _printf_s ; 0x148
        0x00000142:    f000f8a9    ....    BL       _printf_int_dec ; 0x298
        0x00000146:    bd10        ..      POP      {r4,pc}
    .ARM.Collect$$_printf_percent$$00000014
    _printf_s
        0x00000148:    2973        s)      CMP      r1,#0x73
        0x0000014a:    d102        ..      BNE      _printf_percent_end ; 0x152
        0x0000014c:    f000fa9a    ....    BL       _printf_string ; 0x684
        0x00000150:    bd10        ..      POP      {r4,pc}
    .ARM.Collect$$_printf_percent$$00000017
    _printf_percent_end
        0x00000152:    2000        .       MOVS     r0,#0
        0x00000154:    bd10        ..      POP      {r4,pc}
    .ARM.Collect$$libinit$$00000000
    __rt_lib_init
        0x00000156:    b51f        ..      PUSH     {r0-r4,lr}
        0x00000158:    46c0        .F      MOV      r8,r8
        0x0000015a:    46c0        .F      MOV      r8,r8
    .ARM.Collect$$libinit$$00000006
    .ARM.Collect$$libinit$$00000008
    .ARM.Collect$$libinit$$0000000A
    .ARM.Collect$$libinit$$0000000D
    .ARM.Collect$$libinit$$0000000F
    .ARM.Collect$$libinit$$00000011
    .ARM.Collect$$libinit$$00000013
    .ARM.Collect$$libinit$$00000015
    .ARM.Collect$$libinit$$00000017
    .ARM.Collect$$libinit$$00000019
    .ARM.Collect$$libinit$$0000001B
    .ARM.Collect$$libinit$$0000001D
    .ARM.Collect$$libinit$$0000001F
    .ARM.Collect$$libinit$$00000021
    .ARM.Collect$$libinit$$00000028
    .ARM.Collect$$libinit$$0000002A
    .ARM.Collect$$libinit$$0000002C
    .ARM.Collect$$libinit$$0000002E
    .ARM.Collect$$libinit$$0000002F
    __rt_lib_init_alloca_1
    __rt_lib_init_argv_1
    __rt_lib_init_atexit_1
    __rt_lib_init_clock_1
    __rt_lib_init_cpp_1
    __rt_lib_init_exceptions_1
    __rt_lib_init_fp_trap_1
    __rt_lib_init_getenv_1
    __rt_lib_init_heap_1
    __rt_lib_init_lc_collate_1
    __rt_lib_init_lc_ctype_1
    __rt_lib_init_lc_monetary_1
    __rt_lib_init_lc_numeric_1
    __rt_lib_init_lc_time_1
    __rt_lib_init_rand_1
    __rt_lib_init_return
    __rt_lib_init_signal_1
    __rt_lib_init_stdio_1
    __rt_lib_init_user_alloc_1
        0x0000015c:    bd1f        ..      POP      {r0-r4,pc}
    .ARM.Collect$$libshutdown$$00000000
    __rt_lib_shutdown
        0x0000015e:    b510        ..      PUSH     {r4,lr}
    .ARM.Collect$$libshutdown$$00000003
    .ARM.Collect$$libshutdown$$00000006
    .ARM.Collect$$libshutdown$$00000009
    .ARM.Collect$$libshutdown$$0000000B
    .ARM.Collect$$libshutdown$$0000000E
    .ARM.Collect$$libshutdown$$0000000F
    __rt_lib_shutdown_fp_trap_1
    __rt_lib_shutdown_heap_1
    __rt_lib_shutdown_return
    __rt_lib_shutdown_signal_1
    __rt_lib_shutdown_stdio_1
    __rt_lib_shutdown_user_alloc_1
        0x00000160:    bd10        ..      POP      {r4,pc}
    .ARM.Collect$$rtentry$$00000000
    .ARM.Collect$$rtentry$$00000002
    .ARM.Collect$$rtentry$$00000004
    __rt_entry
    __rt_entry_presh_1
    __rt_entry_sh
        0x00000162:    f000faa7    ....    BL       __user_setup_stackheap ; 0x6b4
        0x00000166:    4611        .F      MOV      r1,r2
    .ARM.Collect$$rtentry$$00000009
    .ARM.Collect$$rtentry$$0000000A
    __rt_entry_li
    __rt_entry_postsh_1
        0x00000168:    f7fffff5    ....    BL       __rt_lib_init ; 0x156
    .ARM.Collect$$rtentry$$0000000C
    .ARM.Collect$$rtentry$$0000000D
    __rt_entry_main
    __rt_entry_postli_1
        0x0000016c:    f002fcac    ....    BL       main ; 0x2ac8
        0x00000170:    f000fabf    ....    BL       exit ; 0x6f2
    .ARM.Collect$$rtexit$$00000000
    __rt_exit
        0x00000174:    b403        ..      PUSH     {r0,r1}
    .ARM.Collect$$rtexit$$00000002
    .ARM.Collect$$rtexit$$00000003
    __rt_exit_ls
    __rt_exit_prels_1
        0x00000176:    f7fffff2    ....    BL       __rt_lib_shutdown ; 0x15e
    .ARM.Collect$$rtexit$$00000004
    __rt_exit_exit
        0x0000017a:    bc03        ..      POP      {r0,r1}
        0x0000017c:    f000fac4    ....    BL       _sys_exit ; 0x708
    .emb_text
    __aeabi_memcpy4
    __aeabi_memcpy8
        0x00000180:    b570        p.      PUSH     {r4-r6,lr}
        0x00000182:    4605        .F      MOV      r5,r0
        0x00000184:    460c        .F      MOV      r4,r1
        0x00000186:    4616        .F      MOV      r6,r2
        0x00000188:    e002        ..      B        0x190 ; __aeabi_memcpy4 + 16
        0x0000018a:    cc0f        ..      LDM      r4!,{r0-r3}
        0x0000018c:    c50f        ..      STM      r5!,{r0-r3}
        0x0000018e:    3e10        .>      SUBS     r6,r6,#0x10
        0x00000190:    2e10        ..      CMP      r6,#0x10
        0x00000192:    d2fa        ..      BCS      0x18a ; __aeabi_memcpy4 + 10
        0x00000194:    2e08        ..      CMP      r6,#8
        0x00000196:    d302        ..      BCC      0x19e ; __aeabi_memcpy4 + 30
        0x00000198:    cc03        ..      LDM      r4!,{r0,r1}
        0x0000019a:    c503        ..      STM      r5!,{r0,r1}
        0x0000019c:    3e08        .>      SUBS     r6,r6,#8
        0x0000019e:    2e04        ..      CMP      r6,#4
        0x000001a0:    d307        ..      BCC      0x1b2 ; __aeabi_memcpy4 + 50
        0x000001a2:    cc01        ..      LDM      r4!,{r0}
        0x000001a4:    c501        ..      STM      r5!,{r0}
        0x000001a6:    1f36        6.      SUBS     r6,r6,#4
        0x000001a8:    e003        ..      B        0x1b2 ; __aeabi_memcpy4 + 50
        0x000001aa:    7821        !x      LDRB     r1,[r4,#0]
        0x000001ac:    7029        )p      STRB     r1,[r5,#0]
        0x000001ae:    1c64        d.      ADDS     r4,r4,#1
        0x000001b0:    1c6d        m.      ADDS     r5,r5,#1
        0x000001b2:    1e76        v.      SUBS     r6,r6,#1
        0x000001b4:    d2f9        ..      BCS      0x1aa ; __aeabi_memcpy4 + 42
        0x000001b6:    bd70        p.      POP      {r4-r6,pc}
    .text
    Reset_Handler
        0x000001b8:    480d        .H      LDR      r0,[pc,#52] ; [0x1f0] = 0x50000100
        0x000001ba:    490e        .I      LDR      r1,[pc,#56] ; [0x1f4] = 0x59
        0x000001bc:    6001        .`      STR      r1,[r0,#0]
        0x000001be:    490e        .I      LDR      r1,[pc,#56] ; [0x1f8] = 0x16
        0x000001c0:    6001        .`      STR      r1,[r0,#0]
        0x000001c2:    490e        .I      LDR      r1,[pc,#56] ; [0x1fc] = 0x88
        0x000001c4:    6001        .`      STR      r1,[r0,#0]
        0x000001c6:    4a0e        .J      LDR      r2,[pc,#56] ; [0x200] = 0x50000024
        0x000001c8:    490e        .I      LDR      r1,[pc,#56] ; [0x204] = 0x5aa5
        0x000001ca:    6011        .`      STR      r1,[r2,#0]
        0x000001cc:    2100        .!      MOVS     r1,#0
        0x000001ce:    6001        .`      STR      r1,[r0,#0]
        0x000001d0:    480d        .H      LDR      r0,[pc,#52] ; [0x208] = 0x25f5
        0x000001d2:    4780        .G      BLX      r0
        0x000001d4:    480d        .H      LDR      r0,[pc,#52] ; [0x20c] = 0xc1
        0x000001d6:    4700        .G      BX       r0
    NMI_Handler
        0x000001d8:    e7fe        ..      B        NMI_Handler ; 0x1d8
    HardFault_Handler
        0x000001da:    e7fe        ..      B        HardFault_Handler ; 0x1da
    SVC_Handler
        0x000001dc:    e7fe        ..      B        SVC_Handler ; 0x1dc
    PendSV_Handler
        0x000001de:    e7fe        ..      B        PendSV_Handler ; 0x1de
    SysTick_Handler
        0x000001e0:    e7fe        ..      B        SysTick_Handler ; 0x1e0
    Default_Handler
    ACMP_IRQHandler
    ADC_IRQHandler
    CAN0_IRQHandler
    I2S_IRQHandler
    PDMA_IRQHandler
    PS2_IRQHandler
    PWMB_IRQHandler
    RTC_IRQHandler
    TMR0_IRQHandler
    TMR1_IRQHandler
    USBD_IRQHandler
    WDT_IRQHandler
        0x000001e2:    e7fe        ..      B        Default_Handler ; 0x1e2
    __user_initial_stackheap
        0x000001e4:    480a        .H      LDR      r0,[pc,#40] ; [0x210] = 0x20000778
        0x000001e6:    490b        .I      LDR      r1,[pc,#44] ; [0x214] = 0x20000b78
        0x000001e8:    4a09        .J      LDR      r2,[pc,#36] ; [0x210] = 0x20000778
        0x000001ea:    4b0b        .K      LDR      r3,[pc,#44] ; [0x218] = 0x20000778
        0x000001ec:    4770        pG      BX       lr
    $d
        0x000001ee:    0000        ..      DCW    0
        0x000001f0:    50000100    ...P    DCD    1342177536
        0x000001f4:    00000059    Y...    DCD    89
        0x000001f8:    00000016    ....    DCD    22
        0x000001fc:    00000088    ....    DCD    136
        0x00000200:    50000024    $..P    DCD    1342177316
        0x00000204:    00005aa5    .Z..    DCD    23205
        0x00000208:    000025f5    .%..    DCD    9717
        0x0000020c:    000000c1    ....    DCD    193
        0x00000210:    20000778    x..     DCD    536872824
        0x00000214:    20000b78    x..     DCD    536873848
        0x00000218:    20000778    x..     DCD    536872824
    $t
    .text
    __2sprintf
        0x0000021c:    b40f        ..      PUSH     {r0-r3}
        0x0000021e:    b51c        ..      PUSH     {r2-r4,lr}
        0x00000220:    4b07        .K      LDR      r3,[pc,#28] ; [0x240] = 0x42d
        0x00000222:    aa06        ..      ADD      r2,sp,#0x18
        0x00000224:    447b        {D      ADD      r3,r3,pc
        0x00000226:    4669        iF      MOV      r1,sp
        0x00000228:    9000        ..      STR      r0,[sp,#0]
        0x0000022a:    9805        ..      LDR      r0,[sp,#0x14]
        0x0000022c:    f000f9ff    ....    BL       _printf_char_common ; 0x62e
        0x00000230:    2000        .       MOVS     r0,#0
        0x00000232:    4669        iF      MOV      r1,sp
        0x00000234:    f000fa0e    ....    BL       _sputc ; 0x654
        0x00000238:    bc1c        ..      POP      {r2-r4}
        0x0000023a:    bc08        ..      POP      {r3}
        0x0000023c:    b004        ..      ADD      sp,sp,#0x10
        0x0000023e:    4718        .G      BX       r3
    $d
        0x00000240:    0000042d    -...    DCD    1069
    $t
    .text
    _printf_str
        0x00000244:    b570        p.      PUSH     {r4-r6,lr}
        0x00000246:    4605        .F      MOV      r5,r0
        0x00000248:    460c        .F      MOV      r4,r1
        0x0000024a:    2a01        .*      CMP      r2,#1
        0x0000024c:    d005        ..      BEQ      0x25a ; _printf_str + 22
        0x0000024e:    6828        (h      LDR      r0,[r5,#0]
        0x00000250:    0680        ..      LSLS     r0,r0,#26
        0x00000252:    d500        ..      BPL      0x256 ; _printf_str + 18
        0x00000254:    69ea        .i      LDR      r2,[r5,#0x1c]
        0x00000256:    2300        .#      MOVS     r3,#0
        0x00000258:    e002        ..      B        0x260 ; _printf_str + 28
        0x0000025a:    2301        .#      MOVS     r3,#1
        0x0000025c:    e005        ..      B        0x26a ; _printf_str + 38
        0x0000025e:    1c5b        [.      ADDS     r3,r3,#1
        0x00000260:    4293        .B      CMP      r3,r2
        0x00000262:    d202        ..      BCS      0x26a ; _printf_str + 38
        0x00000264:    5ce0        .\      LDRB     r0,[r4,r3]
        0x00000266:    2800        .(      CMP      r0,#0
        0x00000268:    d1f9        ..      BNE      0x25e ; _printf_str + 26
        0x0000026a:    69a8        .i      LDR      r0,[r5,#0x18]
        0x0000026c:    18e6        ..      ADDS     r6,r4,r3
        0x0000026e:    1ac0        ..      SUBS     r0,r0,r3
        0x00000270:    61a8        .a      STR      r0,[r5,#0x18]
        0x00000272:    6a28        (j      LDR      r0,[r5,#0x20]
        0x00000274:    18c0        ..      ADDS     r0,r0,r3
        0x00000276:    6228        (b      STR      r0,[r5,#0x20]
        0x00000278:    4628        (F      MOV      r0,r5
        0x0000027a:    46c0        .F      MOV      r8,r8
        0x0000027c:    46c0        .F      MOV      r8,r8
        0x0000027e:    e004        ..      B        0x28a ; _printf_str + 70
        0x00000280:    686a        jh      LDR      r2,[r5,#4]
        0x00000282:    7820         x      LDRB     r0,[r4,#0]
        0x00000284:    68a9        .h      LDR      r1,[r5,#8]
        0x00000286:    1c64        d.      ADDS     r4,r4,#1
        0x00000288:    4790        .G      BLX      r2
        0x0000028a:    42b4        .B      CMP      r4,r6
        0x0000028c:    d3f8        ..      BCC      0x280 ; _printf_str + 60
        0x0000028e:    4628        (F      MOV      r0,r5
        0x00000290:    46c0        .F      MOV      r8,r8
        0x00000292:    46c0        .F      MOV      r8,r8
        0x00000294:    bd70        p.      POP      {r4-r6,pc}
        0x00000296:    0000        ..      MOVS     r0,r0
    .text
    _printf_int_dec
        0x00000298:    b5f7        ..      PUSH     {r0-r2,r4-r7,lr}
        0x0000029a:    2600        .&      MOVS     r6,#0
        0x0000029c:    2975        u)      CMP      r1,#0x75
        0x0000029e:    6810        .h      LDR      r0,[r2,#0]
        0x000002a0:    9900        ..      LDR      r1,[sp,#0]
        0x000002a2:    a514        ..      ADR      r5,{pc}+0x52 ; 0x2f4
        0x000002a4:    d011        ..      BEQ      0x2ca ; _printf_int_dec + 50
        0x000002a6:    46c0        .F      MOV      r8,r8
        0x000002a8:    46c0        .F      MOV      r8,r8
        0x000002aa:    2800        .(      CMP      r0,#0
        0x000002ac:    da02        ..      BGE      0x2b4 ; _printf_int_dec + 28
        0x000002ae:    4240        @B      RSBS     r0,r0,#0
        0x000002b0:    a511        ..      ADR      r5,{pc}+0x48 ; 0x2f8
        0x000002b2:    e008        ..      B        0x2c6 ; _printf_int_dec + 46
        0x000002b4:    9900        ..      LDR      r1,[sp,#0]
        0x000002b6:    6809        .h      LDR      r1,[r1,#0]
        0x000002b8:    078a        ..      LSLS     r2,r1,#30
        0x000002ba:    d501        ..      BPL      0x2c0 ; _printf_int_dec + 40
        0x000002bc:    a50f        ..      ADR      r5,{pc}+0x40 ; 0x2fc
        0x000002be:    e002        ..      B        0x2c6 ; _printf_int_dec + 46
        0x000002c0:    0749        I.      LSLS     r1,r1,#29
        0x000002c2:    d504        ..      BPL      0x2ce ; _printf_int_dec + 54
        0x000002c4:    a50e        ..      ADR      r5,{pc}+0x3c ; 0x300
        0x000002c6:    2601        .&      MOVS     r6,#1
        0x000002c8:    e001        ..      B        0x2ce ; _printf_int_dec + 54
        0x000002ca:    46c0        .F      MOV      r8,r8
        0x000002cc:    46c0        .F      MOV      r8,r8
        0x000002ce:    9f00        ..      LDR      r7,[sp,#0]
        0x000002d0:    2400        .$      MOVS     r4,#0
        0x000002d2:    3724        $7      ADDS     r7,r7,#0x24
        0x000002d4:    e004        ..      B        0x2e0 ; _printf_int_dec + 72
        0x000002d6:    f000f9d9    ....    BL       __rt_udiv10 ; 0x68c
        0x000002da:    3130        01      ADDS     r1,r1,#0x30
        0x000002dc:    5539        9U      STRB     r1,[r7,r4]
        0x000002de:    1c64        d.      ADDS     r4,r4,#1
        0x000002e0:    2800        .(      CMP      r0,#0
        0x000002e2:    d1f8        ..      BNE      0x2d6 ; _printf_int_dec + 62
        0x000002e4:    4633        3F      MOV      r3,r6
        0x000002e6:    462a        *F      MOV      r2,r5
        0x000002e8:    4621        !F      MOV      r1,r4
        0x000002ea:    9800        ..      LDR      r0,[sp,#0]
        0x000002ec:    f000f942    ..B.    BL       _printf_int_common ; 0x574
        0x000002f0:    bdfe        ..      POP      {r1-r7,pc}
    $d
        0x000002f2:    0000        ..      DCW    0
        0x000002f4:    00000000    ....    DCD    0
        0x000002f8:    0000002d    -...    DCD    45
        0x000002fc:    0000002b    +...    DCD    43
        0x00000300:    00000020     ...    DCD    32
    $t
    .text
    __printf
        0x00000304:    b5f3        ..      PUSH     {r0,r1,r4-r7,lr}
        0x00000306:    4604        .F      MOV      r4,r0
        0x00000308:    2000        .       MOVS     r0,#0
        0x0000030a:    b081        ..      SUB      sp,sp,#4
        0x0000030c:    e07e        ~.      B        0x40c ; __printf + 264
        0x0000030e:    68e1        .h      LDR      r1,[r4,#0xc]
        0x00000310:    4620         F      MOV      r0,r4
        0x00000312:    4788        .G      BLX      r1
        0x00000314:    2800        .(      CMP      r0,#0
        0x00000316:    d07b        {.      BEQ      0x410 ; __printf + 268
        0x00000318:    2825        %(      CMP      r0,#0x25
        0x0000031a:    d002        ..      BEQ      0x322 ; __printf + 30
        0x0000031c:    6862        bh      LDR      r2,[r4,#4]
        0x0000031e:    68a1        .h      LDR      r1,[r4,#8]
        0x00000320:    e071        q.      B        0x406 ; __printf + 258
        0x00000322:    68e1        .h      LDR      r1,[r4,#0xc]
        0x00000324:    4620         F      MOV      r0,r4
        0x00000326:    2500        .%      MOVS     r5,#0
        0x00000328:    4788        .G      BLX      r1
        0x0000032a:    4606        .F      MOV      r6,r0
        0x0000032c:    2000        .       MOVS     r0,#0
        0x0000032e:    61e0        .a      STR      r0,[r4,#0x1c]
        0x00000330:    4607        .F      MOV      r7,r0
        0x00000332:    61a0        .a      STR      r0,[r4,#0x18]
        0x00000334:    2e2a        *.      CMP      r6,#0x2a
        0x00000336:    d00a        ..      BEQ      0x34e ; __printf + 74
        0x00000338:    4630        0F      MOV      r0,r6
        0x0000033a:    f002fb67    ..g.    BL       _is_digit ; 0x2a0c
        0x0000033e:    2800        .(      CMP      r0,#0
        0x00000340:    d027        '.      BEQ      0x392 ; __printf + 142
        0x00000342:    3e30        0>      SUBS     r6,r6,#0x30
        0x00000344:    00b8        ..      LSLS     r0,r7,#2
        0x00000346:    1900        ..      ADDS     r0,r0,r4
        0x00000348:    9000        ..      STR      r0,[sp,#0]
        0x0000034a:    6186        .a      STR      r6,[r0,#0x18]
        0x0000034c:    e019        ..      B        0x382 ; __printf + 126
        0x0000034e:    9802        ..      LDR      r0,[sp,#8]
        0x00000350:    00ba        ..      LSLS     r2,r7,#2
        0x00000352:    1912        ..      ADDS     r2,r2,r4
        0x00000354:    c802        ..      LDM      r0!,{r1}
        0x00000356:    6191        .a      STR      r1,[r2,#0x18]
        0x00000358:    9002        ..      STR      r0,[sp,#8]
        0x0000035a:    4620         F      MOV      r0,r4
        0x0000035c:    68e1        .h      LDR      r1,[r4,#0xc]
        0x0000035e:    4788        .G      BLX      r1
        0x00000360:    2f01        ./      CMP      r7,#1
        0x00000362:    4606        .F      MOV      r6,r0
        0x00000364:    d117        ..      BNE      0x396 ; __printf + 146
        0x00000366:    69e0        .i      LDR      r0,[r4,#0x1c]
        0x00000368:    2800        .(      CMP      r0,#0
        0x0000036a:    da1f        ..      BGE      0x3ac ; __printf + 168
        0x0000036c:    2020                MOVS     r0,#0x20
        0x0000036e:    4385        .C      BICS     r5,r5,r0
        0x00000370:    e01c        ..      B        0x3ac ; __printf + 168
        0x00000372:    9800        ..      LDR      r0,[sp,#0]
        0x00000374:    210a        .!      MOVS     r1,#0xa
        0x00000376:    6980        .i      LDR      r0,[r0,#0x18]
        0x00000378:    4348        HC      MULS     r0,r1,r0
        0x0000037a:    9900        ..      LDR      r1,[sp,#0]
        0x0000037c:    1980        ..      ADDS     r0,r0,r6
        0x0000037e:    3830        08      SUBS     r0,r0,#0x30
        0x00000380:    6188        .a      STR      r0,[r1,#0x18]
        0x00000382:    4620         F      MOV      r0,r4
        0x00000384:    68e1        .h      LDR      r1,[r4,#0xc]
        0x00000386:    4788        .G      BLX      r1
        0x00000388:    4606        .F      MOV      r6,r0
        0x0000038a:    f002fb3f    ..?.    BL       _is_digit ; 0x2a0c
        0x0000038e:    2800        .(      CMP      r0,#0
        0x00000390:    d1ef        ..      BNE      0x372 ; __printf + 110
        0x00000392:    2f01        ./      CMP      r7,#1
        0x00000394:    d00a        ..      BEQ      0x3ac ; __printf + 168
        0x00000396:    2e2e        ..      CMP      r6,#0x2e
        0x00000398:    d108        ..      BNE      0x3ac ; __printf + 168
        0x0000039a:    4620         F      MOV      r0,r4
        0x0000039c:    68e1        .h      LDR      r1,[r4,#0xc]
        0x0000039e:    4788        .G      BLX      r1
        0x000003a0:    4606        .F      MOV      r6,r0
        0x000003a2:    2020                MOVS     r0,#0x20
        0x000003a4:    4305        .C      ORRS     r5,r5,r0
        0x000003a6:    1c7f        ..      ADDS     r7,r7,#1
        0x000003a8:    2f02        ./      CMP      r7,#2
        0x000003aa:    dbc3        ..      BLT      0x334 ; __printf + 48
        0x000003ac:    69a0        .i      LDR      r0,[r4,#0x18]
        0x000003ae:    2800        .(      CMP      r0,#0
        0x000003b0:    da03        ..      BGE      0x3ba ; __printf + 182
        0x000003b2:    4240        @B      RSBS     r0,r0,#0
        0x000003b4:    61a0        .a      STR      r0,[r4,#0x18]
        0x000003b6:    2001        .       MOVS     r0,#1
        0x000003b8:    4305        .C      ORRS     r5,r5,r0
        0x000003ba:    07e8        ..      LSLS     r0,r5,#31
        0x000003bc:    d001        ..      BEQ      0x3c2 ; __printf + 190
        0x000003be:    2010        .       MOVS     r0,#0x10
        0x000003c0:    4385        .C      BICS     r5,r5,r0
        0x000003c2:    2e00        ..      CMP      r6,#0
        0x000003c4:    d024        $.      BEQ      0x410 ; __printf + 268
        0x000003c6:    4630        0F      MOV      r0,r6
        0x000003c8:    3841        A8      SUBS     r0,r0,#0x41
        0x000003ca:    2819        .(      CMP      r0,#0x19
        0x000003cc:    d803        ..      BHI      0x3d6 ; __printf + 210
        0x000003ce:    2001        .       MOVS     r0,#1
        0x000003d0:    02c0        ..      LSLS     r0,r0,#11
        0x000003d2:    4305        .C      ORRS     r5,r5,r0
        0x000003d4:    3620         6      ADDS     r6,r6,#0x20
        0x000003d6:    4620         F      MOV      r0,r4
        0x000003d8:    6025        %`      STR      r5,[r4,#0]
        0x000003da:    4631        1F      MOV      r1,r6
        0x000003dc:    9a02        ..      LDR      r2,[sp,#8]
        0x000003de:    4615        .F      MOV      r5,r2
        0x000003e0:    f7fffeac    ....    BL       _printf_percent ; 0x13c
        0x000003e4:    2800        .(      CMP      r0,#0
        0x000003e6:    d00b        ..      BEQ      0x400 ; __printf + 252
        0x000003e8:    2801        .(      CMP      r0,#1
        0x000003ea:    d006        ..      BEQ      0x3fa ; __printf + 246
        0x000003ec:    1ded        ..      ADDS     r5,r5,#7
        0x000003ee:    08e8        ..      LSRS     r0,r5,#3
        0x000003f0:    00c0        ..      LSLS     r0,r0,#3
        0x000003f2:    3008        .0      ADDS     r0,r0,#8
        0x000003f4:    9002        ..      STR      r0,[sp,#8]
        0x000003f6:    e78a        ..      B        0x30e ; __printf + 10
        0x000003f8:    e00a        ..      B        0x410 ; __printf + 268
        0x000003fa:    1d2d        -.      ADDS     r5,r5,#4
        0x000003fc:    9502        ..      STR      r5,[sp,#8]
        0x000003fe:    e786        ..      B        0x30e ; __printf + 10
        0x00000400:    6862        bh      LDR      r2,[r4,#4]
        0x00000402:    4630        0F      MOV      r0,r6
        0x00000404:    68a1        .h      LDR      r1,[r4,#8]
        0x00000406:    4790        .G      BLX      r2
        0x00000408:    6a20         j      LDR      r0,[r4,#0x20]
        0x0000040a:    1c40        @.      ADDS     r0,r0,#1
        0x0000040c:    6220         b      STR      r0,[r4,#0x20]
        0x0000040e:    e77e        ~.      B        0x30e ; __printf + 10
        0x00000410:    6a20         j      LDR      r0,[r4,#0x20]
        0x00000412:    bdfe        ..      POP      {r1-r7,pc}
    .text
    __aeabi_uidiv
    __aeabi_uidivmod
        0x00000414:    2200        ."      MOVS     r2,#0
        0x00000416:    0903        ..      LSRS     r3,r0,#4
        0x00000418:    428b        .B      CMP      r3,r1
        0x0000041a:    d32c        ,.      BCC      0x476 ; __aeabi_idiv + 78
        0x0000041c:    0a03        ..      LSRS     r3,r0,#8
        0x0000041e:    428b        .B      CMP      r3,r1
        0x00000420:    d311        ..      BCC      0x446 ; __aeabi_idiv + 30
        0x00000422:    2300        .#      MOVS     r3,#0
        0x00000424:    469c        .F      MOV      r12,r3
        0x00000426:    e04e        N.      B        0x4c6 ; __aeabi_idiv + 158
    __aeabi_idiv
    __aeabi_idivmod
        0x00000428:    4603        .F      MOV      r3,r0
        0x0000042a:    430b        .C      ORRS     r3,r3,r1
        0x0000042c:    d43c        <.      BMI      0x4a8 ; __aeabi_idiv + 128
        0x0000042e:    2200        ."      MOVS     r2,#0
        0x00000430:    0843        C.      LSRS     r3,r0,#1
        0x00000432:    428b        .B      CMP      r3,r1
        0x00000434:    d331        1.      BCC      0x49a ; __aeabi_idiv + 114
        0x00000436:    0903        ..      LSRS     r3,r0,#4
        0x00000438:    428b        .B      CMP      r3,r1
        0x0000043a:    d31c        ..      BCC      0x476 ; __aeabi_idiv + 78
        0x0000043c:    0a03        ..      LSRS     r3,r0,#8
        0x0000043e:    428b        .B      CMP      r3,r1
        0x00000440:    d301        ..      BCC      0x446 ; __aeabi_idiv + 30
        0x00000442:    4694        .F      MOV      r12,r2
        0x00000444:    e03f        ?.      B        0x4c6 ; __aeabi_idiv + 158
        0x00000446:    09c3        ..      LSRS     r3,r0,#7
        0x00000448:    428b        .B      CMP      r3,r1
        0x0000044a:    d301        ..      BCC      0x450 ; __aeabi_idiv + 40
        0x0000044c:    01cb        ..      LSLS     r3,r1,#7
        0x0000044e:    1ac0        ..      SUBS     r0,r0,r3
        0x00000450:    4152        RA      ADCS     r2,r2,r2
        0x00000452:    0983        ..      LSRS     r3,r0,#6
        0x00000454:    428b        .B      CMP      r3,r1
        0x00000456:    d301        ..      BCC      0x45c ; __aeabi_idiv + 52
        0x00000458:    018b        ..      LSLS     r3,r1,#6
        0x0000045a:    1ac0        ..      SUBS     r0,r0,r3
        0x0000045c:    4152        RA      ADCS     r2,r2,r2
        0x0000045e:    0943        C.      LSRS     r3,r0,#5
        0x00000460:    428b        .B      CMP      r3,r1
        0x00000462:    d301        ..      BCC      0x468 ; __aeabi_idiv + 64
        0x00000464:    014b        K.      LSLS     r3,r1,#5
        0x00000466:    1ac0        ..      SUBS     r0,r0,r3
        0x00000468:    4152        RA      ADCS     r2,r2,r2
        0x0000046a:    0903        ..      LSRS     r3,r0,#4
        0x0000046c:    428b        .B      CMP      r3,r1
        0x0000046e:    d301        ..      BCC      0x474 ; __aeabi_idiv + 76
        0x00000470:    010b        ..      LSLS     r3,r1,#4
        0x00000472:    1ac0        ..      SUBS     r0,r0,r3
        0x00000474:    4152        RA      ADCS     r2,r2,r2
        0x00000476:    08c3        ..      LSRS     r3,r0,#3
        0x00000478:    428b        .B      CMP      r3,r1
        0x0000047a:    d301        ..      BCC      0x480 ; __aeabi_idiv + 88
        0x0000047c:    00cb        ..      LSLS     r3,r1,#3
        0x0000047e:    1ac0        ..      SUBS     r0,r0,r3
        0x00000480:    4152        RA      ADCS     r2,r2,r2
        0x00000482:    0883        ..      LSRS     r3,r0,#2
        0x00000484:    428b        .B      CMP      r3,r1
        0x00000486:    d301        ..      BCC      0x48c ; __aeabi_idiv + 100
        0x00000488:    008b        ..      LSLS     r3,r1,#2
        0x0000048a:    1ac0        ..      SUBS     r0,r0,r3
        0x0000048c:    4152        RA      ADCS     r2,r2,r2
        0x0000048e:    0843        C.      LSRS     r3,r0,#1
        0x00000490:    428b        .B      CMP      r3,r1
        0x00000492:    d301        ..      BCC      0x498 ; __aeabi_idiv + 112
        0x00000494:    004b        K.      LSLS     r3,r1,#1
        0x00000496:    1ac0        ..      SUBS     r0,r0,r3
        0x00000498:    4152        RA      ADCS     r2,r2,r2
        0x0000049a:    1a41        A.      SUBS     r1,r0,r1
        0x0000049c:    d200        ..      BCS      0x4a0 ; __aeabi_idiv + 120
        0x0000049e:    4601        .F      MOV      r1,r0
        0x000004a0:    4152        RA      ADCS     r2,r2,r2
        0x000004a2:    4610        .F      MOV      r0,r2
        0x000004a4:    4770        pG      BX       lr
        0x000004a6:    e05d        ].      B        0x564 ; __aeabi_idiv + 316
        0x000004a8:    0fca        ..      LSRS     r2,r1,#31
        0x000004aa:    d000        ..      BEQ      0x4ae ; __aeabi_idiv + 134
        0x000004ac:    4249        IB      RSBS     r1,r1,#0
        0x000004ae:    1003        ..      ASRS     r3,r0,#32
        0x000004b0:    d300        ..      BCC      0x4b4 ; __aeabi_idiv + 140
        0x000004b2:    4240        @B      RSBS     r0,r0,#0
        0x000004b4:    4053        S@      EORS     r3,r3,r2
        0x000004b6:    2200        ."      MOVS     r2,#0
        0x000004b8:    469c        .F      MOV      r12,r3
        0x000004ba:    0903        ..      LSRS     r3,r0,#4
        0x000004bc:    428b        .B      CMP      r3,r1
        0x000004be:    d32d        -.      BCC      0x51c ; __aeabi_idiv + 244
        0x000004c0:    0a03        ..      LSRS     r3,r0,#8
        0x000004c2:    428b        .B      CMP      r3,r1
        0x000004c4:    d312        ..      BCC      0x4ec ; __aeabi_idiv + 196
        0x000004c6:    22fc        ."      MOVS     r2,#0xfc
        0x000004c8:    0189        ..      LSLS     r1,r1,#6
        0x000004ca:    ba12        ..      REV      r2,r2
        0x000004cc:    0a03        ..      LSRS     r3,r0,#8
        0x000004ce:    428b        .B      CMP      r3,r1
        0x000004d0:    d30c        ..      BCC      0x4ec ; __aeabi_idiv + 196
        0x000004d2:    0189        ..      LSLS     r1,r1,#6
        0x000004d4:    1192        ..      ASRS     r2,r2,#6
        0x000004d6:    428b        .B      CMP      r3,r1
        0x000004d8:    d308        ..      BCC      0x4ec ; __aeabi_idiv + 196
        0x000004da:    0189        ..      LSLS     r1,r1,#6
        0x000004dc:    1192        ..      ASRS     r2,r2,#6
        0x000004de:    428b        .B      CMP      r3,r1
        0x000004e0:    d304        ..      BCC      0x4ec ; __aeabi_idiv + 196
        0x000004e2:    0189        ..      LSLS     r1,r1,#6
        0x000004e4:    d03a        :.      BEQ      0x55c ; __aeabi_idiv + 308
        0x000004e6:    1192        ..      ASRS     r2,r2,#6
        0x000004e8:    e000        ..      B        0x4ec ; __aeabi_idiv + 196
        0x000004ea:    0989        ..      LSRS     r1,r1,#6
        0x000004ec:    09c3        ..      LSRS     r3,r0,#7
        0x000004ee:    428b        .B      CMP      r3,r1
        0x000004f0:    d301        ..      BCC      0x4f6 ; __aeabi_idiv + 206
        0x000004f2:    01cb        ..      LSLS     r3,r1,#7
        0x000004f4:    1ac0        ..      SUBS     r0,r0,r3
        0x000004f6:    4152        RA      ADCS     r2,r2,r2
        0x000004f8:    0983        ..      LSRS     r3,r0,#6
        0x000004fa:    428b        .B      CMP      r3,r1
        0x000004fc:    d301        ..      BCC      0x502 ; __aeabi_idiv + 218
        0x000004fe:    018b        ..      LSLS     r3,r1,#6
        0x00000500:    1ac0        ..      SUBS     r0,r0,r3
        0x00000502:    4152        RA      ADCS     r2,r2,r2
        0x00000504:    0943        C.      LSRS     r3,r0,#5
        0x00000506:    428b        .B      CMP      r3,r1
        0x00000508:    d301        ..      BCC      0x50e ; __aeabi_idiv + 230
        0x0000050a:    014b        K.      LSLS     r3,r1,#5
        0x0000050c:    1ac0        ..      SUBS     r0,r0,r3
        0x0000050e:    4152        RA      ADCS     r2,r2,r2
        0x00000510:    0903        ..      LSRS     r3,r0,#4
        0x00000512:    428b        .B      CMP      r3,r1
        0x00000514:    d301        ..      BCC      0x51a ; __aeabi_idiv + 242
        0x00000516:    010b        ..      LSLS     r3,r1,#4
        0x00000518:    1ac0        ..      SUBS     r0,r0,r3
        0x0000051a:    4152        RA      ADCS     r2,r2,r2
        0x0000051c:    08c3        ..      LSRS     r3,r0,#3
        0x0000051e:    428b        .B      CMP      r3,r1
        0x00000520:    d301        ..      BCC      0x526 ; __aeabi_idiv + 254
        0x00000522:    00cb        ..      LSLS     r3,r1,#3
        0x00000524:    1ac0        ..      SUBS     r0,r0,r3
        0x00000526:    4152        RA      ADCS     r2,r2,r2
        0x00000528:    0883        ..      LSRS     r3,r0,#2
        0x0000052a:    428b        .B      CMP      r3,r1
        0x0000052c:    d301        ..      BCC      0x532 ; __aeabi_idiv + 266
        0x0000052e:    008b        ..      LSLS     r3,r1,#2
        0x00000530:    1ac0        ..      SUBS     r0,r0,r3
        0x00000532:    4152        RA      ADCS     r2,r2,r2
        0x00000534:    d2d9        ..      BCS      0x4ea ; __aeabi_idiv + 194
        0x00000536:    0843        C.      LSRS     r3,r0,#1
        0x00000538:    428b        .B      CMP      r3,r1
        0x0000053a:    d301        ..      BCC      0x540 ; __aeabi_idiv + 280
        0x0000053c:    004b        K.      LSLS     r3,r1,#1
        0x0000053e:    1ac0        ..      SUBS     r0,r0,r3
        0x00000540:    4152        RA      ADCS     r2,r2,r2
        0x00000542:    1a41        A.      SUBS     r1,r0,r1
        0x00000544:    d200        ..      BCS      0x548 ; __aeabi_idiv + 288
        0x00000546:    4601        .F      MOV      r1,r0
        0x00000548:    4663        cF      MOV      r3,r12
        0x0000054a:    4152        RA      ADCS     r2,r2,r2
        0x0000054c:    105b        [.      ASRS     r3,r3,#1
        0x0000054e:    4610        .F      MOV      r0,r2
        0x00000550:    d301        ..      BCC      0x556 ; __aeabi_idiv + 302
        0x00000552:    4240        @B      RSBS     r0,r0,#0
        0x00000554:    2b00        .+      CMP      r3,#0
        0x00000556:    d500        ..      BPL      0x55a ; __aeabi_idiv + 306
        0x00000558:    4249        IB      RSBS     r1,r1,#0
        0x0000055a:    4770        pG      BX       lr
        0x0000055c:    4663        cF      MOV      r3,r12
        0x0000055e:    105b        [.      ASRS     r3,r3,#1
        0x00000560:    d300        ..      BCC      0x564 ; __aeabi_idiv + 316
        0x00000562:    4240        @B      RSBS     r0,r0,#0
        0x00000564:    b501        ..      PUSH     {r0,lr}
        0x00000566:    2000        .       MOVS     r0,#0
        0x00000568:    46c0        .F      MOV      r8,r8
        0x0000056a:    46c0        .F      MOV      r8,r8
        0x0000056c:    bd02        ..      POP      {r1,pc}
    .text
    __use_two_region_memory
        0x0000056e:    4770        pG      BX       lr
    __rt_heap_escrow$2region
        0x00000570:    4770        pG      BX       lr
    __rt_heap_expand$2region
        0x00000572:    4770        pG      BX       lr
    .text
    _printf_int_common
        0x00000574:    b5ff        ..      PUSH     {r0-r7,lr}
        0x00000576:    4604        .F      MOV      r4,r0
        0x00000578:    460d        .F      MOV      r5,r1
        0x0000057a:    b081        ..      SUB      sp,sp,#4
        0x0000057c:    3024        $0      ADDS     r0,r0,#0x24
        0x0000057e:    9000        ..      STR      r0,[sp,#0]
        0x00000580:    6821        !h      LDR      r1,[r4,#0]
        0x00000582:    0688        ..      LSLS     r0,r1,#26
        0x00000584:    d504        ..      BPL      0x590 ; _printf_int_common + 28
        0x00000586:    2210        ."      MOVS     r2,#0x10
        0x00000588:    69e0        .i      LDR      r0,[r4,#0x1c]
        0x0000058a:    4391        .C      BICS     r1,r1,r2
        0x0000058c:    6021        !`      STR      r1,[r4,#0]
        0x0000058e:    e000        ..      B        0x592 ; _printf_int_common + 30
        0x00000590:    2001        .       MOVS     r0,#1
        0x00000592:    42a8        .B      CMP      r0,r5
        0x00000594:    dd01        ..      BLE      0x59a ; _printf_int_common + 38
        0x00000596:    1b47        G.      SUBS     r7,r0,r5
        0x00000598:    e000        ..      B        0x59c ; _printf_int_common + 40
        0x0000059a:    2700        .'      MOVS     r7,#0
        0x0000059c:    9804        ..      LDR      r0,[sp,#0x10]
        0x0000059e:    69a1        .i      LDR      r1,[r4,#0x18]
        0x000005a0:    197a        z.      ADDS     r2,r7,r5
        0x000005a2:    1810        ..      ADDS     r0,r2,r0
        0x000005a4:    1a08        ..      SUBS     r0,r1,r0
        0x000005a6:    61a0        .a      STR      r0,[r4,#0x18]
        0x000005a8:    6820         h      LDR      r0,[r4,#0]
        0x000005aa:    06c0        ..      LSLS     r0,r0,#27
        0x000005ac:    d402        ..      BMI      0x5b4 ; _printf_int_common + 64
        0x000005ae:    4620         F      MOV      r0,r4
        0x000005b0:    46c0        .F      MOV      r8,r8
        0x000005b2:    46c0        .F      MOV      r8,r8
        0x000005b4:    2600        .&      MOVS     r6,#0
        0x000005b6:    e008        ..      B        0x5ca ; _printf_int_common + 86
        0x000005b8:    9803        ..      LDR      r0,[sp,#0xc]
        0x000005ba:    6862        bh      LDR      r2,[r4,#4]
        0x000005bc:    68a1        .h      LDR      r1,[r4,#8]
        0x000005be:    5d80        .]      LDRB     r0,[r0,r6]
        0x000005c0:    4790        .G      BLX      r2
        0x000005c2:    6a20         j      LDR      r0,[r4,#0x20]
        0x000005c4:    1c40        @.      ADDS     r0,r0,#1
        0x000005c6:    1c76        v.      ADDS     r6,r6,#1
        0x000005c8:    6220         b      STR      r0,[r4,#0x20]
        0x000005ca:    9804        ..      LDR      r0,[sp,#0x10]
        0x000005cc:    4286        .B      CMP      r6,r0
        0x000005ce:    dbf3        ..      BLT      0x5b8 ; _printf_int_common + 68
        0x000005d0:    6820         h      LDR      r0,[r4,#0]
        0x000005d2:    06c0        ..      LSLS     r0,r0,#27
        0x000005d4:    d50a        ..      BPL      0x5ec ; _printf_int_common + 120
        0x000005d6:    4620         F      MOV      r0,r4
        0x000005d8:    46c0        .F      MOV      r8,r8
        0x000005da:    46c0        .F      MOV      r8,r8
        0x000005dc:    e006        ..      B        0x5ec ; _printf_int_common + 120
        0x000005de:    6862        bh      LDR      r2,[r4,#4]
        0x000005e0:    68a1        .h      LDR      r1,[r4,#8]
        0x000005e2:    2030        0       MOVS     r0,#0x30
        0x000005e4:    4790        .G      BLX      r2
        0x000005e6:    6a20         j      LDR      r0,[r4,#0x20]
        0x000005e8:    1c40        @.      ADDS     r0,r0,#1
        0x000005ea:    6220         b      STR      r0,[r4,#0x20]
        0x000005ec:    4638        8F      MOV      r0,r7
        0x000005ee:    1e7f        ..      SUBS     r7,r7,#1
        0x000005f0:    2800        .(      CMP      r0,#0
        0x000005f2:    dcf4        ..      BGT      0x5de ; _printf_int_common + 106
        0x000005f4:    e007        ..      B        0x606 ; _printf_int_common + 146
        0x000005f6:    9800        ..      LDR      r0,[sp,#0]
        0x000005f8:    6862        bh      LDR      r2,[r4,#4]
        0x000005fa:    68a1        .h      LDR      r1,[r4,#8]
        0x000005fc:    5d40        @]      LDRB     r0,[r0,r5]
        0x000005fe:    4790        .G      BLX      r2
        0x00000600:    6a20         j      LDR      r0,[r4,#0x20]
        0x00000602:    1c40        @.      ADDS     r0,r0,#1
        0x00000604:    6220         b      STR      r0,[r4,#0x20]
        0x00000606:    4628        (F      MOV      r0,r5
        0x00000608:    1e6d        m.      SUBS     r5,r5,#1
        0x0000060a:    2800        .(      CMP      r0,#0
        0x0000060c:    dcf3        ..      BGT      0x5f6 ; _printf_int_common + 130
        0x0000060e:    4620         F      MOV      r0,r4
        0x00000610:    46c0        .F      MOV      r8,r8
        0x00000612:    46c0        .F      MOV      r8,r8
        0x00000614:    6820         h      LDR      r0,[r4,#0]
        0x00000616:    0600        ..      LSLS     r0,r0,#24
        0x00000618:    d502        ..      BPL      0x620 ; _printf_int_common + 172
        0x0000061a:    2002        .       MOVS     r0,#2
        0x0000061c:    b005        ..      ADD      sp,sp,#0x14
        0x0000061e:    bdf0        ..      POP      {r4-r7,pc}
        0x00000620:    2001        .       MOVS     r0,#1
        0x00000622:    e7fb        ..      B        0x61c ; _printf_int_common + 168
    .text
    _printf_input_char
        0x00000624:    6901        .i      LDR      r1,[r0,#0x10]
        0x00000626:    1c4a        J.      ADDS     r2,r1,#1
        0x00000628:    6102        .a      STR      r2,[r0,#0x10]
        0x0000062a:    7808        .x      LDRB     r0,[r1,#0]
        0x0000062c:    4770        pG      BX       lr
    _printf_char_common
        0x0000062e:    b500        ..      PUSH     {lr}
        0x00000630:    b08f        ..      SUB      sp,sp,#0x3c
        0x00000632:    9102        ..      STR      r1,[sp,#8]
        0x00000634:    2100        .!      MOVS     r1,#0
        0x00000636:    9105        ..      STR      r1,[sp,#0x14]
        0x00000638:    4905        .I      LDR      r1,[pc,#20] ; [0x650] = 0xffffffe5
        0x0000063a:    9301        ..      STR      r3,[sp,#4]
        0x0000063c:    4479        yD      ADD      r1,r1,pc
        0x0000063e:    9103        ..      STR      r1,[sp,#0xc]
        0x00000640:    4611        .F      MOV      r1,r2
        0x00000642:    9004        ..      STR      r0,[sp,#0x10]
        0x00000644:    4668        hF      MOV      r0,sp
        0x00000646:    f7fffe5d    ..].    BL       __printf ; 0x304
        0x0000064a:    b00f        ..      ADD      sp,sp,#0x3c
        0x0000064c:    bd00        ..      POP      {pc}
    $d
        0x0000064e:    0000        ..      DCW    0
        0x00000650:    ffffffe5    ....    DCD    4294967269
    $t
    .text
    _sputc
        0x00000654:    680a        .h      LDR      r2,[r1,#0]
        0x00000656:    7010        .p      STRB     r0,[r2,#0]
        0x00000658:    1c52        R.      ADDS     r2,r2,#1
        0x0000065a:    600a        .`      STR      r2,[r1,#0]
        0x0000065c:    4770        pG      BX       lr
    .text
    _printf_cs_common
        0x0000065e:    b510        ..      PUSH     {r4,lr}
        0x00000660:    6943        Ci      LDR      r3,[r0,#0x14]
        0x00000662:    2b00        .+      CMP      r3,#0
        0x00000664:    d002        ..      BEQ      0x66c ; _printf_cs_common + 14
        0x00000666:    46c0        .F      MOV      r8,r8
        0x00000668:    46c0        .F      MOV      r8,r8
        0x0000066a:    e001        ..      B        0x670 ; _printf_cs_common + 18
        0x0000066c:    f7fffdea    ....    BL       _printf_str ; 0x244
        0x00000670:    2001        .       MOVS     r0,#1
        0x00000672:    bd10        ..      POP      {r4,pc}
    _printf_char
        0x00000674:    6812        .h      LDR      r2,[r2,#0]
        0x00000676:    4601        .F      MOV      r1,r0
        0x00000678:    3124        $1      ADDS     r1,r1,#0x24
        0x0000067a:    700a        .p      STRB     r2,[r1,#0]
        0x0000067c:    2200        ."      MOVS     r2,#0
        0x0000067e:    704a        Jp      STRB     r2,[r1,#1]
        0x00000680:    2201        ."      MOVS     r2,#1
        0x00000682:    e7ec        ..      B        _printf_cs_common ; 0x65e
    _printf_string
        0x00000684:    6811        .h      LDR      r1,[r2,#0]
        0x00000686:    2200        ."      MOVS     r2,#0
        0x00000688:    43d2        .C      MVNS     r2,r2
        0x0000068a:    e7e8        ..      B        _printf_cs_common ; 0x65e
    .text
    __rt_udiv10
        0x0000068c:    4601        .F      MOV      r1,r0
        0x0000068e:    0880        ..      LSRS     r0,r0,#2
        0x00000690:    1a08        ..      SUBS     r0,r1,r0
        0x00000692:    0902        ..      LSRS     r2,r0,#4
        0x00000694:    1810        ..      ADDS     r0,r2,r0
        0x00000696:    0a02        ..      LSRS     r2,r0,#8
        0x00000698:    1810        ..      ADDS     r0,r2,r0
        0x0000069a:    0c02        ..      LSRS     r2,r0,#16
        0x0000069c:    1810        ..      ADDS     r0,r2,r0
        0x0000069e:    08c0        ..      LSRS     r0,r0,#3
        0x000006a0:    0082        ..      LSLS     r2,r0,#2
        0x000006a2:    1812        ..      ADDS     r2,r2,r0
        0x000006a4:    0052        R.      LSLS     r2,r2,#1
        0x000006a6:    1a89        ..      SUBS     r1,r1,r2
        0x000006a8:    e001        ..      B        0x6ae ; __rt_udiv10 + 34
        0x000006aa:    390a        .9      SUBS     r1,r1,#0xa
        0x000006ac:    1c40        @.      ADDS     r0,r0,#1
        0x000006ae:    290a        .)      CMP      r1,#0xa
        0x000006b0:    d2fb        ..      BCS      0x6aa ; __rt_udiv10 + 30
        0x000006b2:    4770        pG      BX       lr
    .text
    __user_setup_stackheap
        0x000006b4:    4675        uF      MOV      r5,lr
        0x000006b6:    f000f823    ..#.    BL       __user_libspace ; 0x700
        0x000006ba:    46ae        .F      MOV      lr,r5
        0x000006bc:    0005        ..      MOVS     r5,r0
        0x000006be:    4669        iF      MOV      r1,sp
        0x000006c0:    4653        SF      MOV      r3,r10
        0x000006c2:    08c0        ..      LSRS     r0,r0,#3
        0x000006c4:    00c0        ..      LSLS     r0,r0,#3
        0x000006c6:    4685        .F      MOV      sp,r0
        0x000006c8:    b018        ..      ADD      sp,sp,#0x60
        0x000006ca:    b520         .      PUSH     {r5,lr}
        0x000006cc:    f7fffd8a    ....    BL       __user_initial_stackheap ; 0x1e4
        0x000006d0:    bc60        `.      POP      {r5,r6}
        0x000006d2:    2700        .'      MOVS     r7,#0
        0x000006d4:    0849        I.      LSRS     r1,r1,#1
        0x000006d6:    46b6        .F      MOV      lr,r6
        0x000006d8:    2600        .&      MOVS     r6,#0
        0x000006da:    c5c0        ..      STM      r5!,{r6,r7}
        0x000006dc:    c5c0        ..      STM      r5!,{r6,r7}
        0x000006de:    c5c0        ..      STM      r5!,{r6,r7}
        0x000006e0:    c5c0        ..      STM      r5!,{r6,r7}
        0x000006e2:    c5c0        ..      STM      r5!,{r6,r7}
        0x000006e4:    c5c0        ..      STM      r5!,{r6,r7}
        0x000006e6:    c5c0        ..      STM      r5!,{r6,r7}
        0x000006e8:    c5c0        ..      STM      r5!,{r6,r7}
        0x000006ea:    3d40        @=      SUBS     r5,r5,#0x40
        0x000006ec:    0049        I.      LSLS     r1,r1,#1
        0x000006ee:    468d        .F      MOV      sp,r1
        0x000006f0:    4770        pG      BX       lr
    .text
    exit
        0x000006f2:    4604        .F      MOV      r4,r0
        0x000006f4:    46c0        .F      MOV      r8,r8
        0x000006f6:    46c0        .F      MOV      r8,r8
        0x000006f8:    4620         F      MOV      r0,r4
        0x000006fa:    f7fffd3b    ..;.    BL       __rt_exit ; 0x174
        0x000006fe:    0000        ..      MOVS     r0,r0
    .text
    __user_libspace
    __user_perproc_libspace
    __user_perthread_libspace
        0x00000700:    4800        .H      LDR      r0,[pc,#0] ; [0x704] = 0x20000714
        0x00000702:    4770        pG      BX       lr
    $d
        0x00000704:    20000714    ...     DCD    536872724
    $t
    .text
    _sys_exit
        0x00000708:    4901        .I      LDR      r1,[pc,#4] ; [0x710] = 0x20026
        0x0000070a:    2018        .       MOVS     r0,#0x18
        0x0000070c:    beab        ..      BKPT     #0xab
        0x0000070e:    e7fe        ..      B        0x70e ; _sys_exit + 6
    $d
        0x00000710:    00020026    &...    DCD    131110
    $t
    .text
    __I$use$semihosting
    __use_no_semihosting_swi
        0x00000714:    4770        pG      BX       lr
    .text
    __semihosting_library_function
        0x00000716:    0000        ..      MOVS     r0,r0
    i.BOD_IRQHandler
    BOD_IRQHandler
        0x00000718:    b510        ..      PUSH     {r4,lr}
        0x0000071a:    2005        .       MOVS     r0,#5
        0x0000071c:    0700        ..      LSLS     r0,r0,#28
        0x0000071e:    6980        .i      LDR      r0,[r0,#0x18]
        0x00000720:    2110        .!      MOVS     r1,#0x10
        0x00000722:    4388        .C      BICS     r0,r0,r1
        0x00000724:    3010        .0      ADDS     r0,r0,#0x10
        0x00000726:    2105        .!      MOVS     r1,#5
        0x00000728:    0709        ..      LSLS     r1,r1,#28
        0x0000072a:    6188        .a      STR      r0,[r1,#0x18]
        0x0000072c:    4803        .H      LDR      r0,[pc,#12] ; [0x73c] = 0x20000670
        0x0000072e:    6800        .h      LDR      r0,[r0,#0]
        0x00000730:    2800        .(      CMP      r0,#0
        0x00000732:    d002        ..      BEQ      0x73a ; BOD_IRQHandler + 34
        0x00000734:    4801        .H      LDR      r0,[pc,#4] ; [0x73c] = 0x20000670
        0x00000736:    6800        .h      LDR      r0,[r0,#0]
        0x00000738:    4780        .G      BLX      r0
        0x0000073a:    bd10        ..      POP      {r4,pc}
    $d
        0x0000073c:    20000670    p..     DCD    536872560
    $t
    i.BaudRateCalculator
    BaudRateCalculator
        0x00000740:    b5f7        ..      PUSH     {r0-r2,r4-r7,lr}
        0x00000742:    b082        ..      SUB      sp,sp,#8
        0x00000744:    4617        .F      MOV      r7,r2
        0x00000746:    4831        1H      LDR      r0,[pc,#196] ; [0x80c] = 0x40050000
        0x00000748:    183c        <.      ADDS     r4,r7,r0
        0x0000074a:    9903        ..      LDR      r1,[sp,#0xc]
        0x0000074c:    9802        ..      LDR      r0,[sp,#8]
        0x0000074e:    f7fffe61    ..a.    BL       __aeabi_uidiv ; 0x414
        0x00000752:    0700        ..      LSLS     r0,r0,#28
        0x00000754:    0f00        ..      LSRS     r0,r0,#28
        0x00000756:    2803        .(      CMP      r0,#3
        0x00000758:    d20f        ..      BCS      0x77a ; BaudRateCalculator + 58
        0x0000075a:    6a60        `j      LDR      r0,[r4,#0x24]
        0x0000075c:    2101        .!      MOVS     r1,#1
        0x0000075e:    0749        I.      LSLS     r1,r1,#29
        0x00000760:    4388        .C      BICS     r0,r0,r1
        0x00000762:    6260        `b      STR      r0,[r4,#0x24]
        0x00000764:    6a60        `j      LDR      r0,[r4,#0x24]
        0x00000766:    1049        I.      ASRS     r1,r1,#1
        0x00000768:    4388        .C      BICS     r0,r0,r1
        0x0000076a:    6260        `b      STR      r0,[r4,#0x24]
        0x0000076c:    9903        ..      LDR      r1,[sp,#0xc]
        0x0000076e:    9802        ..      LDR      r0,[sp,#8]
        0x00000770:    f7fffe50    ..P.    BL       __aeabi_uidiv ; 0x414
        0x00000774:    0900        ..      LSRS     r0,r0,#4
        0x00000776:    1e86        ..      SUBS     r6,r0,#2
        0x00000778:    e040        @.      B        0x7fc ; BaudRateCalculator + 188
        0x0000077a:    6a60        `j      LDR      r0,[r4,#0x24]
        0x0000077c:    2101        .!      MOVS     r1,#1
        0x0000077e:    0749        I.      LSLS     r1,r1,#29
        0x00000780:    4388        .C      BICS     r0,r0,r1
        0x00000782:    1840        @.      ADDS     r0,r0,r1
        0x00000784:    6260        `b      STR      r0,[r4,#0x24]
        0x00000786:    6a60        `j      LDR      r0,[r4,#0x24]
        0x00000788:    1049        I.      ASRS     r1,r1,#1
        0x0000078a:    4388        .C      BICS     r0,r0,r1
        0x0000078c:    1840        @.      ADDS     r0,r0,r1
        0x0000078e:    6260        `b      STR      r0,[r4,#0x24]
        0x00000790:    9903        ..      LDR      r1,[sp,#0xc]
        0x00000792:    9802        ..      LDR      r0,[sp,#8]
        0x00000794:    f7fffe3e    ..>.    BL       __aeabi_uidiv ; 0x414
        0x00000798:    1e86        ..      SUBS     r6,r0,#2
        0x0000079a:    481d        .H      LDR      r0,[pc,#116] ; [0x810] = 0xffff
        0x0000079c:    4286        .B      CMP      r6,r0
        0x0000079e:    dd2d        -.      BLE      0x7fc ; BaudRateCalculator + 188
        0x000007a0:    6a60        `j      LDR      r0,[r4,#0x24]
        0x000007a2:    2101        .!      MOVS     r1,#1
        0x000007a4:    0749        I.      LSLS     r1,r1,#29
        0x000007a6:    4388        .C      BICS     r0,r0,r1
        0x000007a8:    1840        @.      ADDS     r0,r0,r1
        0x000007aa:    6260        `b      STR      r0,[r4,#0x24]
        0x000007ac:    6a60        `j      LDR      r0,[r4,#0x24]
        0x000007ae:    1049        I.      ASRS     r1,r1,#1
        0x000007b0:    4388        .C      BICS     r0,r0,r1
        0x000007b2:    6260        `b      STR      r0,[r4,#0x24]
        0x000007b4:    2508        .%      MOVS     r5,#8
        0x000007b6:    e01e        ..      B        0x7f6 ; BaudRateCalculator + 182
        0x000007b8:    9903        ..      LDR      r1,[sp,#0xc]
        0x000007ba:    9802        ..      LDR      r0,[sp,#8]
        0x000007bc:    f7fffe2a    ..*.    BL       __aeabi_uidiv ; 0x414
        0x000007c0:    1c69        i.      ADDS     r1,r5,#1
        0x000007c2:    9001        ..      STR      r0,[sp,#4]
        0x000007c4:    f7fffe26    ..&.    BL       __aeabi_uidiv ; 0x414
        0x000007c8:    2903        .)      CMP      r1,#3
        0x000007ca:    d213        ..      BCS      0x7f4 ; BaudRateCalculator + 180
        0x000007cc:    6a60        `j      LDR      r0,[r4,#0x24]
        0x000007ce:    210f        .!      MOVS     r1,#0xf
        0x000007d0:    0609        ..      LSLS     r1,r1,#24
        0x000007d2:    4388        .C      BICS     r0,r0,r1
        0x000007d4:    0629        ).      LSLS     r1,r5,#24
        0x000007d6:    220f        ."      MOVS     r2,#0xf
        0x000007d8:    0612        ..      LSLS     r2,r2,#24
        0x000007da:    4011        .@      ANDS     r1,r1,r2
        0x000007dc:    4308        .C      ORRS     r0,r0,r1
        0x000007de:    6260        `b      STR      r0,[r4,#0x24]
        0x000007e0:    9903        ..      LDR      r1,[sp,#0xc]
        0x000007e2:    9802        ..      LDR      r0,[sp,#8]
        0x000007e4:    f7fffe16    ....    BL       __aeabi_uidiv ; 0x414
        0x000007e8:    1c69        i.      ADDS     r1,r5,#1
        0x000007ea:    9001        ..      STR      r0,[sp,#4]
        0x000007ec:    f7fffe12    ....    BL       __aeabi_uidiv ; 0x414
        0x000007f0:    1e86        ..      SUBS     r6,r0,#2
        0x000007f2:    e002        ..      B        0x7fa ; BaudRateCalculator + 186
        0x000007f4:    1c6d        m.      ADDS     r5,r5,#1
        0x000007f6:    2d10        .-      CMP      r5,#0x10
        0x000007f8:    dbde        ..      BLT      0x7b8 ; BaudRateCalculator + 120
        0x000007fa:    bf00        ..      NOP      
        0x000007fc:    6a60        `j      LDR      r0,[r4,#0x24]
        0x000007fe:    0c00        ..      LSRS     r0,r0,#16
        0x00000800:    0400        ..      LSLS     r0,r0,#16
        0x00000802:    b2b1        ..      UXTH     r1,r6
        0x00000804:    4308        .C      ORRS     r0,r0,r1
        0x00000806:    6260        `b      STR      r0,[r4,#0x24]
        0x00000808:    b005        ..      ADD      sp,sp,#0x14
        0x0000080a:    bdf0        ..      POP      {r4-r7,pc}
    $d
        0x0000080c:    40050000    ...@    DCD    1074069504
        0x00000810:    0000ffff    ....    DCD    65535
    $t
    i.DrvGPIO_ClrBit
    DrvGPIO_ClrBit
        0x00000814:    b510        ..      PUSH     {r4,lr}
        0x00000816:    4603        .F      MOV      r3,r0
        0x00000818:    2900        .)      CMP      r1,#0
        0x0000081a:    db01        ..      BLT      0x820 ; DrvGPIO_ClrBit + 12
        0x0000081c:    2910        .)      CMP      r1,#0x10
        0x0000081e:    dd01        ..      BLE      0x824 ; DrvGPIO_ClrBit + 16
        0x00000820:    4805        .H      LDR      r0,[pc,#20] ; [0x838] = 0xffff8901
        0x00000822:    bd10        ..      POP      {r4,pc}
        0x00000824:    0198        ..      LSLS     r0,r3,#6
        0x00000826:    4c05        .L      LDR      r4,[pc,#20] ; [0x83c] = 0x50004000
        0x00000828:    1902        ..      ADDS     r2,r0,r4
        0x0000082a:    6890        .h      LDR      r0,[r2,#8]
        0x0000082c:    2401        .$      MOVS     r4,#1
        0x0000082e:    408c        .@      LSLS     r4,r4,r1
        0x00000830:    43a0        .C      BICS     r0,r0,r4
        0x00000832:    6090        .`      STR      r0,[r2,#8]
        0x00000834:    2000        .       MOVS     r0,#0
        0x00000836:    e7f4        ..      B        0x822 ; DrvGPIO_ClrBit + 14
    $d
        0x00000838:    ffff8901    ....    DCD    4294936833
        0x0000083c:    50004000    .@.P    DCD    1342193664
    $t
    i.DrvGPIO_InitFunction
    DrvGPIO_InitFunction
        0x00000840:    b510        ..      PUSH     {r4,lr}
        0x00000842:    4601        .F      MOV      r1,r0
        0x00000844:    000b        ..      MOVS     r3,r1
        0x00000846:    f002f8d3    ....    BL       __ARM_common_switch8 ; 0x29f0
    $d
        0x0000084a:    203e        >       DCW    8254
        0x0000084c:    5c4b412a    *AK\    DCD    1548435754
        0x00000850:    947e7d74    t}~.    DCD    2491317620
        0x00000854:    eff1b4a4    ....    DCD    4025595044
        0x00000858:    ebecedee    ....    DCD    3958173166
        0x0000085c:    e7e8e9ea    ....    DCD    3890801130
        0x00000860:    e3e4e5e6    ....    DCD    3823429094
        0x00000864:    dfe0e1e2    ....    DCD    3756057058
        0x00000868:    dbdcddde    ....    DCD    3688685022
        0x0000086c:    d7d8d9da    ....    DCD    3621312986
        0x00000870:    d3d4d5d6    ....    DCD    3553940950
        0x00000874:    cfd0d1d2    ....    DCD    3486568914
        0x00000878:    cbcccdce    ....    DCD    3419196878
        0x0000087c:    c7c8c9ca    ....    DCD    3351824842
        0x00000880:    c3c4c5c6    ....    DCD    3284452806
        0x00000884:    bfc0c1c2    ....    DCD    3217080770
        0x00000888:    bdbe        ..      DCW    48574
    $t
        0x0000088a:    2000        .       MOVS     r0,#0
        0x0000088c:    2305        .#      MOVS     r3,#5
        0x0000088e:    071b        ..      LSLS     r3,r3,#28
        0x00000890:    6318        .c      STR      r0,[r3,#0x30]
        0x00000892:    6358        Xc      STR      r0,[r3,#0x34]
        0x00000894:    6398        .c      STR      r0,[r3,#0x38]
        0x00000896:    63d8        .c      STR      r0,[r3,#0x3c]
        0x00000898:    4bfa        .K      LDR      r3,[pc,#1000] ; [0xc84] = 0x50000040
        0x0000089a:    6018        .`      STR      r0,[r3,#0]
        0x0000089c:    e371        q.      B        0xf82 ; DrvGPIO_InitFunction + 1858
        0x0000089e:    2005        .       MOVS     r0,#5
        0x000008a0:    0700        ..      LSLS     r0,r0,#28
        0x000008a2:    6b40        @k      LDR      r0,[r0,#0x34]
        0x000008a4:    2301        .#      MOVS     r3,#1
        0x000008a6:    031b        ..      LSLS     r3,r3,#12
        0x000008a8:    4318        .C      ORRS     r0,r0,r3
        0x000008aa:    2305        .#      MOVS     r3,#5
        0x000008ac:    071b        ..      LSLS     r3,r3,#28
        0x000008ae:    6358        Xc      STR      r0,[r3,#0x34]
        0x000008b0:    48f4        .H      LDR      r0,[pc,#976] ; [0xc84] = 0x50000040
        0x000008b2:    6900        .i      LDR      r0,[r0,#0x10]
        0x000008b4:    2301        .#      MOVS     r3,#1
        0x000008b6:    029b        ..      LSLS     r3,r3,#10
        0x000008b8:    4318        .C      ORRS     r0,r0,r3
        0x000008ba:    4bf2        .K      LDR      r3,[pc,#968] ; [0xc84] = 0x50000040
        0x000008bc:    6118        .a      STR      r0,[r3,#0x10]
        0x000008be:    4618        .F      MOV      r0,r3
        0x000008c0:    6900        .i      LDR      r0,[r0,#0x10]
        0x000008c2:    015b        [.      LSLS     r3,r3,#5
        0x000008c4:    4398        .C      BICS     r0,r0,r3
        0x000008c6:    4bef        .K      LDR      r3,[pc,#956] ; [0xc84] = 0x50000040
        0x000008c8:    6118        .a      STR      r0,[r3,#0x10]
        0x000008ca:    e35a        Z.      B        0xf82 ; DrvGPIO_InitFunction + 1858
        0x000008cc:    2005        .       MOVS     r0,#5
        0x000008ce:    0700        ..      LSLS     r0,r0,#28
        0x000008d0:    6b00        .k      LDR      r0,[r0,#0x30]
        0x000008d2:    2303        .#      MOVS     r3,#3
        0x000008d4:    021b        ..      LSLS     r3,r3,#8
        0x000008d6:    4318        .C      ORRS     r0,r0,r3
        0x000008d8:    2305        .#      MOVS     r3,#5
        0x000008da:    071b        ..      LSLS     r3,r3,#28
        0x000008dc:    6318        .c      STR      r0,[r3,#0x30]
        0x000008de:    e350        P.      B        0xf82 ; DrvGPIO_InitFunction + 1858
        0x000008e0:    2005        .       MOVS     r0,#5
        0x000008e2:    0700        ..      LSLS     r0,r0,#28
        0x000008e4:    6b00        .k      LDR      r0,[r0,#0x30]
        0x000008e6:    2303        .#      MOVS     r3,#3
        0x000008e8:    029b        ..      LSLS     r3,r3,#10
        0x000008ea:    4318        .C      ORRS     r0,r0,r3
        0x000008ec:    2305        .#      MOVS     r3,#5
        0x000008ee:    071b        ..      LSLS     r3,r3,#28
        0x000008f0:    6318        .c      STR      r0,[r3,#0x30]
        0x000008f2:    48e4        .H      LDR      r0,[pc,#912] ; [0xc84] = 0x50000040
        0x000008f4:    6900        .i      LDR      r0,[r0,#0x10]
        0x000008f6:    2301        .#      MOVS     r3,#1
        0x000008f8:    02db        ..      LSLS     r3,r3,#11
        0x000008fa:    4398        .C      BICS     r0,r0,r3
        0x000008fc:    4be1        .K      LDR      r3,[pc,#900] ; [0xc84] = 0x50000040
        0x000008fe:    6118        .a      STR      r0,[r3,#0x10]
        0x00000900:    e33f        ?.      B        0xf82 ; DrvGPIO_InitFunction + 1858
        0x00000902:    2005        .       MOVS     r0,#5
        0x00000904:    0700        ..      LSLS     r0,r0,#28
        0x00000906:    6b80        .k      LDR      r0,[r0,#0x38]
        0x00000908:    230f        .#      MOVS     r3,#0xf
        0x0000090a:    4318        .C      ORRS     r0,r0,r3
        0x0000090c:    2305        .#      MOVS     r3,#5
        0x0000090e:    071b        ..      LSLS     r3,r3,#28
        0x00000910:    6398        .c      STR      r0,[r3,#0x38]
        0x00000912:    4618        .F      MOV      r0,r3
        0x00000914:    6b00        .k      LDR      r0,[r0,#0x30]
        0x00000916:    2301        .#      MOVS     r3,#1
        0x00000918:    03db        ..      LSLS     r3,r3,#15
        0x0000091a:    4318        .C      ORRS     r0,r0,r3
        0x0000091c:    2305        .#      MOVS     r3,#5
        0x0000091e:    071b        ..      LSLS     r3,r3,#28
        0x00000920:    6318        .c      STR      r0,[r3,#0x30]
        0x00000922:    48d8        .H      LDR      r0,[pc,#864] ; [0xc84] = 0x50000040
        0x00000924:    6900        .i      LDR      r0,[r0,#0x10]
        0x00000926:    231f        .#      MOVS     r3,#0x1f
        0x00000928:    015b        [.      LSLS     r3,r3,#5
        0x0000092a:    4318        .C      ORRS     r0,r0,r3
        0x0000092c:    4bd5        .K      LDR      r3,[pc,#852] ; [0xc84] = 0x50000040
        0x0000092e:    6118        .a      STR      r0,[r3,#0x10]
        0x00000930:    e327        '.      B        0xf82 ; DrvGPIO_InitFunction + 1858
        0x00000932:    2005        .       MOVS     r0,#5
        0x00000934:    0700        ..      LSLS     r0,r0,#28
        0x00000936:    6bc0        .k      LDR      r0,[r0,#0x3c]
        0x00000938:    23c0        .#      MOVS     r3,#0xc0
        0x0000093a:    4318        .C      ORRS     r0,r0,r3
        0x0000093c:    2305        .#      MOVS     r3,#5
        0x0000093e:    071b        ..      LSLS     r3,r3,#28
        0x00000940:    63d8        .c      STR      r0,[r3,#0x3c]
        0x00000942:    e31e        ..      B        0xf82 ; DrvGPIO_InitFunction + 1858
        0x00000944:    bf00        ..      NOP      
        0x00000946:    2906        .)      CMP      r1,#6
        0x00000948:    d101        ..      BNE      0x94e ; DrvGPIO_InitFunction + 270
        0x0000094a:    2206        ."      MOVS     r2,#6
        0x0000094c:    e000        ..      B        0x950 ; DrvGPIO_InitFunction + 272
        0x0000094e:    220e        ."      MOVS     r2,#0xe
        0x00000950:    2005        .       MOVS     r0,#5
        0x00000952:    0700        ..      LSLS     r0,r0,#28
        0x00000954:    6b80        .k      LDR      r0,[r0,#0x38]
        0x00000956:    2303        .#      MOVS     r3,#3
        0x00000958:    4093        .@      LSLS     r3,r3,r2
        0x0000095a:    4318        .C      ORRS     r0,r0,r3
        0x0000095c:    2305        .#      MOVS     r3,#5
        0x0000095e:    071b        ..      LSLS     r3,r3,#28
        0x00000960:    6398        .c      STR      r0,[r3,#0x38]
        0x00000962:    48c8        .H      LDR      r0,[pc,#800] ; [0xc84] = 0x50000040
        0x00000964:    6900        .i      LDR      r0,[r0,#0x10]
        0x00000966:    2301        .#      MOVS     r3,#1
        0x00000968:    02db        ..      LSLS     r3,r3,#11
        0x0000096a:    4398        .C      BICS     r0,r0,r3
        0x0000096c:    4bc5        .K      LDR      r3,[pc,#788] ; [0xc84] = 0x50000040
        0x0000096e:    6118        .a      STR      r0,[r3,#0x10]
        0x00000970:    e307        ..      B        0xf82 ; DrvGPIO_InitFunction + 1858
        0x00000972:    2005        .       MOVS     r0,#5
        0x00000974:    0700        ..      LSLS     r0,r0,#28
        0x00000976:    6b80        .k      LDR      r0,[r0,#0x38]
        0x00000978:    230f        .#      MOVS     r3,#0xf
        0x0000097a:    4318        .C      ORRS     r0,r0,r3
        0x0000097c:    2305        .#      MOVS     r3,#5
        0x0000097e:    071b        ..      LSLS     r3,r3,#28
        0x00000980:    6398        .c      STR      r0,[r3,#0x38]
        0x00000982:    48c0        .H      LDR      r0,[pc,#768] ; [0xc84] = 0x50000040
        0x00000984:    6900        .i      LDR      r0,[r0,#0x10]
        0x00000986:    23ff        .#      MOVS     r3,#0xff
        0x00000988:    33e1        .3      ADDS     r3,r3,#0xe1
        0x0000098a:    4398        .C      BICS     r0,r0,r3
        0x0000098c:    4bbd        .K      LDR      r3,[pc,#756] ; [0xc84] = 0x50000040
        0x0000098e:    6118        .a      STR      r0,[r3,#0x10]
        0x00000990:    e2f7        ..      B        0xf82 ; DrvGPIO_InitFunction + 1858
        0x00000992:    2005        .       MOVS     r0,#5
        0x00000994:    0700        ..      LSLS     r0,r0,#28
        0x00000996:    6b40        @k      LDR      r0,[r0,#0x34]
        0x00000998:    2301        .#      MOVS     r3,#1
        0x0000099a:    029b        ..      LSLS     r3,r3,#10
        0x0000099c:    4318        .C      ORRS     r0,r0,r3
        0x0000099e:    2305        .#      MOVS     r3,#5
        0x000009a0:    071b        ..      LSLS     r3,r3,#28
        0x000009a2:    6358        Xc      STR      r0,[r3,#0x34]
        0x000009a4:    48b7        .H      LDR      r0,[pc,#732] ; [0xc84] = 0x50000040
        0x000009a6:    6900        .i      LDR      r0,[r0,#0x10]
        0x000009a8:    2301        .#      MOVS     r3,#1
        0x000009aa:    4318        .C      ORRS     r0,r0,r3
        0x000009ac:    4bb5        .K      LDR      r3,[pc,#724] ; [0xc84] = 0x50000040
        0x000009ae:    6118        .a      STR      r0,[r3,#0x10]
        0x000009b0:    e2e7        ..      B        0xf82 ; DrvGPIO_InitFunction + 1858
        0x000009b2:    2005        .       MOVS     r0,#5
        0x000009b4:    0700        ..      LSLS     r0,r0,#28
        0x000009b6:    6b80        .k      LDR      r0,[r0,#0x38]
        0x000009b8:    2330        0#      MOVS     r3,#0x30
        0x000009ba:    4318        .C      ORRS     r0,r0,r3
        0x000009bc:    2305        .#      MOVS     r3,#5
        0x000009be:    071b        ..      LSLS     r3,r3,#28
        0x000009c0:    6398        .c      STR      r0,[r3,#0x38]
        0x000009c2:    e2de        ..      B        0xf82 ; DrvGPIO_InitFunction + 1858
        0x000009c4:    e2db        ..      B        0xf7e ; DrvGPIO_InitFunction + 1854
        0x000009c6:    e264        d.      B        0xe92 ; DrvGPIO_InitFunction + 1618
        0x000009c8:    e282        ..      B        0xed0 ; DrvGPIO_InitFunction + 1680
        0x000009ca:    e248        H.      B        0xe5e ; DrvGPIO_InitFunction + 1566
        0x000009cc:    e246        F.      B        0xe5c ; DrvGPIO_InitFunction + 1564
        0x000009ce:    e213        ..      B        0xdf8 ; DrvGPIO_InitFunction + 1464
        0x000009d0:    e211        ..      B        0xdf6 ; DrvGPIO_InitFunction + 1462
        0x000009d2:    e1d9        ..      B        0xd88 ; DrvGPIO_InitFunction + 1352
        0x000009d4:    e1d7        ..      B        0xd86 ; DrvGPIO_InitFunction + 1350
        0x000009d6:    e1b7        ..      B        0xd48 ; DrvGPIO_InitFunction + 1288
        0x000009d8:    e1b5        ..      B        0xd46 ; DrvGPIO_InitFunction + 1286
        0x000009da:    e241        A.      B        0xe60 ; DrvGPIO_InitFunction + 1568
        0x000009dc:    e20d        ..      B        0xdfa ; DrvGPIO_InitFunction + 1466
        0x000009de:    e1d4        ..      B        0xd8a ; DrvGPIO_InitFunction + 1354
        0x000009e0:    e1b3        ..      B        0xd4a ; DrvGPIO_InitFunction + 1290
        0x000009e2:    e1a6        ..      B        0xd32 ; DrvGPIO_InitFunction + 1266
        0x000009e4:    e165        e.      B        0xcb2 ; DrvGPIO_InitFunction + 1138
        0x000009e6:    e163        c.      B        0xcb0 ; DrvGPIO_InitFunction + 1136
        0x000009e8:    e161        a.      B        0xcae ; DrvGPIO_InitFunction + 1134
        0x000009ea:    e15f        _.      B        0xcac ; DrvGPIO_InitFunction + 1132
        0x000009ec:    e15d        ].      B        0xcaa ; DrvGPIO_InitFunction + 1130
        0x000009ee:    e15b        [.      B        0xca8 ; DrvGPIO_InitFunction + 1128
        0x000009f0:    e14a        J.      B        0xc88 ; DrvGPIO_InitFunction + 1096
        0x000009f2:    e137        7.      B        0xc64 ; DrvGPIO_InitFunction + 1060
        0x000009f4:    e129        ).      B        0xc4a ; DrvGPIO_InitFunction + 1034
        0x000009f6:    e117        ..      B        0xc28 ; DrvGPIO_InitFunction + 1000
        0x000009f8:    e106        ..      B        0xc08 ; DrvGPIO_InitFunction + 968
        0x000009fa:    e0f5        ..      B        0xbe8 ; DrvGPIO_InitFunction + 936
        0x000009fc:    e0e4        ..      B        0xbc8 ; DrvGPIO_InitFunction + 904
        0x000009fe:    e0d9        ..      B        0xbb4 ; DrvGPIO_InitFunction + 884
        0x00000a00:    e0cc        ..      B        0xb9c ; DrvGPIO_InitFunction + 860
        0x00000a02:    e0c4        ..      B        0xb8e ; DrvGPIO_InitFunction + 846
        0x00000a04:    e0a3        ..      B        0xb4e ; DrvGPIO_InitFunction + 782
        0x00000a06:    e0ae        ..      B        0xb66 ; DrvGPIO_InitFunction + 806
        0x00000a08:    e0ac        ..      B        0xb64 ; DrvGPIO_InitFunction + 804
        0x00000a0a:    e0aa        ..      B        0xb62 ; DrvGPIO_InitFunction + 802
        0x00000a0c:    e0a8        ..      B        0xb60 ; DrvGPIO_InitFunction + 800
        0x00000a0e:    e0a6        ..      B        0xb5e ; DrvGPIO_InitFunction + 798
        0x00000a10:    e0a4        ..      B        0xb5c ; DrvGPIO_InitFunction + 796
        0x00000a12:    e0b0        ..      B        0xb76 ; DrvGPIO_InitFunction + 822
        0x00000a14:    e092        ..      B        0xb3c ; DrvGPIO_InitFunction + 764
        0x00000a16:    e088        ..      B        0xb2a ; DrvGPIO_InitFunction + 746
        0x00000a18:    e07e        ~.      B        0xb18 ; DrvGPIO_InitFunction + 728
        0x00000a1a:    e073        s.      B        0xb04 ; DrvGPIO_InitFunction + 708
        0x00000a1c:    e062        b.      B        0xae4 ; DrvGPIO_InitFunction + 676
        0x00000a1e:    e057        W.      B        0xad0 ; DrvGPIO_InitFunction + 656
        0x00000a20:    e04d        M.      B        0xabe ; DrvGPIO_InitFunction + 638
        0x00000a22:    e037        7.      B        0xa94 ; DrvGPIO_InitFunction + 596
        0x00000a24:    e02d        -.      B        0xa82 ; DrvGPIO_InitFunction + 578
        0x00000a26:    e022        ".      B        0xa6e ; DrvGPIO_InitFunction + 558
        0x00000a28:    e011        ..      B        0xa4e ; DrvGPIO_InitFunction + 526
        0x00000a2a:    e7ff        ..      B        0xa2c ; DrvGPIO_InitFunction + 492
        0x00000a2c:    2005        .       MOVS     r0,#5
        0x00000a2e:    0700        ..      LSLS     r0,r0,#28
        0x00000a30:    6b80        .k      LDR      r0,[r0,#0x38]
        0x00000a32:    230f        .#      MOVS     r3,#0xf
        0x00000a34:    021b        ..      LSLS     r3,r3,#8
        0x00000a36:    4318        .C      ORRS     r0,r0,r3
        0x00000a38:    2305        .#      MOVS     r3,#5
        0x00000a3a:    071b        ..      LSLS     r3,r3,#28
        0x00000a3c:    6398        .c      STR      r0,[r3,#0x38]
        0x00000a3e:    4891        .H      LDR      r0,[pc,#580] ; [0xc84] = 0x50000040
        0x00000a40:    6900        .i      LDR      r0,[r0,#0x10]
        0x00000a42:    2301        .#      MOVS     r3,#1
        0x00000a44:    02db        ..      LSLS     r3,r3,#11
        0x00000a46:    4398        .C      BICS     r0,r0,r3
        0x00000a48:    4b8e        .K      LDR      r3,[pc,#568] ; [0xc84] = 0x50000040
        0x00000a4a:    6118        .a      STR      r0,[r3,#0x10]
        0x00000a4c:    e299        ..      B        0xf82 ; DrvGPIO_InitFunction + 1858
        0x00000a4e:    2005        .       MOVS     r0,#5
        0x00000a50:    0700        ..      LSLS     r0,r0,#28
        0x00000a52:    6b40        @k      LDR      r0,[r0,#0x34]
        0x00000a54:    2301        .#      MOVS     r3,#1
        0x00000a56:    025b        [.      LSLS     r3,r3,#9
        0x00000a58:    4318        .C      ORRS     r0,r0,r3
        0x00000a5a:    2305        .#      MOVS     r3,#5
        0x00000a5c:    071b        ..      LSLS     r3,r3,#28
        0x00000a5e:    6358        Xc      STR      r0,[r3,#0x34]
        0x00000a60:    4888        .H      LDR      r0,[pc,#544] ; [0xc84] = 0x50000040
        0x00000a62:    6900        .i      LDR      r0,[r0,#0x10]
        0x00000a64:    2302        .#      MOVS     r3,#2
        0x00000a66:    4318        .C      ORRS     r0,r0,r3
        0x00000a68:    4b86        .K      LDR      r3,[pc,#536] ; [0xc84] = 0x50000040
        0x00000a6a:    6118        .a      STR      r0,[r3,#0x10]
        0x00000a6c:    e289        ..      B        0xf82 ; DrvGPIO_InitFunction + 1858
        0x00000a6e:    2005        .       MOVS     r0,#5
        0x00000a70:    0700        ..      LSLS     r0,r0,#28
        0x00000a72:    6b80        .k      LDR      r0,[r0,#0x38]
        0x00000a74:    2303        .#      MOVS     r3,#3
        0x00000a76:    031b        ..      LSLS     r3,r3,#12
        0x00000a78:    4318        .C      ORRS     r0,r0,r3
        0x00000a7a:    2305        .#      MOVS     r3,#5
        0x00000a7c:    071b        ..      LSLS     r3,r3,#28
        0x00000a7e:    6398        .c      STR      r0,[r3,#0x38]
        0x00000a80:    e27f        ..      B        0xf82 ; DrvGPIO_InitFunction + 1858
        0x00000a82:    2005        .       MOVS     r0,#5
        0x00000a84:    0700        ..      LSLS     r0,r0,#28
        0x00000a86:    6bc0        .k      LDR      r0,[r0,#0x3c]
        0x00000a88:    230f        .#      MOVS     r3,#0xf
        0x00000a8a:    4318        .C      ORRS     r0,r0,r3
        0x00000a8c:    2305        .#      MOVS     r3,#5
        0x00000a8e:    071b        ..      LSLS     r3,r3,#28
        0x00000a90:    63d8        .c      STR      r0,[r3,#0x3c]
        0x00000a92:    e276        v.      B        0xf82 ; DrvGPIO_InitFunction + 1858
        0x00000a94:    2005        .       MOVS     r0,#5
        0x00000a96:    0700        ..      LSLS     r0,r0,#28
        0x00000a98:    6b00        .k      LDR      r0,[r0,#0x30]
        0x00000a9a:    2380        .#      MOVS     r3,#0x80
        0x00000a9c:    4318        .C      ORRS     r0,r0,r3
        0x00000a9e:    2305        .#      MOVS     r3,#5
        0x00000aa0:    071b        ..      LSLS     r3,r3,#28
        0x00000aa2:    6318        .c      STR      r0,[r3,#0x30]
        0x00000aa4:    4877        wH      LDR      r0,[pc,#476] ; [0xc84] = 0x50000040
        0x00000aa6:    6900        .i      LDR      r0,[r0,#0x10]
        0x00000aa8:    2304        .#      MOVS     r3,#4
        0x00000aaa:    4318        .C      ORRS     r0,r0,r3
        0x00000aac:    4b75        uK      LDR      r3,[pc,#468] ; [0xc84] = 0x50000040
        0x00000aae:    6118        .a      STR      r0,[r3,#0x10]
        0x00000ab0:    4618        .F      MOV      r0,r3
        0x00000ab2:    6900        .i      LDR      r0,[r0,#0x10]
        0x00000ab4:    015b        [.      LSLS     r3,r3,#5
        0x00000ab6:    4398        .C      BICS     r0,r0,r3
        0x00000ab8:    4b72        rK      LDR      r3,[pc,#456] ; [0xc84] = 0x50000040
        0x00000aba:    6118        .a      STR      r0,[r3,#0x10]
        0x00000abc:    e261        a.      B        0xf82 ; DrvGPIO_InitFunction + 1858
        0x00000abe:    2005        .       MOVS     r0,#5
        0x00000ac0:    0700        ..      LSLS     r0,r0,#28
        0x00000ac2:    6bc0        .k      LDR      r0,[r0,#0x3c]
        0x00000ac4:    2330        0#      MOVS     r3,#0x30
        0x00000ac6:    4318        .C      ORRS     r0,r0,r3
        0x00000ac8:    2305        .#      MOVS     r3,#5
        0x00000aca:    071b        ..      LSLS     r3,r3,#28
        0x00000acc:    63d8        .c      STR      r0,[r3,#0x3c]
        0x00000ace:    e258        X.      B        0xf82 ; DrvGPIO_InitFunction + 1858
        0x00000ad0:    2005        .       MOVS     r0,#5
        0x00000ad2:    0700        ..      LSLS     r0,r0,#28
        0x00000ad4:    6bc0        .k      LDR      r0,[r0,#0x3c]
        0x00000ad6:    230f        .#      MOVS     r3,#0xf
        0x00000ad8:    021b        ..      LSLS     r3,r3,#8
        0x00000ada:    4318        .C      ORRS     r0,r0,r3
        0x00000adc:    2305        .#      MOVS     r3,#5
        0x00000ade:    071b        ..      LSLS     r3,r3,#28
        0x00000ae0:    63d8        .c      STR      r0,[r3,#0x3c]
        0x00000ae2:    e24e        N.      B        0xf82 ; DrvGPIO_InitFunction + 1858
        0x00000ae4:    2005        .       MOVS     r0,#5
        0x00000ae6:    0700        ..      LSLS     r0,r0,#28
        0x00000ae8:    6b40        @k      LDR      r0,[r0,#0x34]
        0x00000aea:    2301        .#      MOVS     r3,#1
        0x00000aec:    039b        ..      LSLS     r3,r3,#14
        0x00000aee:    4318        .C      ORRS     r0,r0,r3
        0x00000af0:    2305        .#      MOVS     r3,#5
        0x00000af2:    071b        ..      LSLS     r3,r3,#28
        0x00000af4:    6358        Xc      STR      r0,[r3,#0x34]
        0x00000af6:    4863        cH      LDR      r0,[pc,#396] ; [0xc84] = 0x50000040
        0x00000af8:    6900        .i      LDR      r0,[r0,#0x10]
        0x00000afa:    2308        .#      MOVS     r3,#8
        0x00000afc:    4318        .C      ORRS     r0,r0,r3
        0x00000afe:    4b61        aK      LDR      r3,[pc,#388] ; [0xc84] = 0x50000040
        0x00000b00:    6118        .a      STR      r0,[r3,#0x10]
        0x00000b02:    e23e        >.      B        0xf82 ; DrvGPIO_InitFunction + 1858
        0x00000b04:    2005        .       MOVS     r0,#5
        0x00000b06:    0700        ..      LSLS     r0,r0,#28
        0x00000b08:    6bc0        .k      LDR      r0,[r0,#0x3c]
        0x00000b0a:    2303        .#      MOVS     r3,#3
        0x00000b0c:    031b        ..      LSLS     r3,r3,#12
        0x00000b0e:    4318        .C      ORRS     r0,r0,r3
        0x00000b10:    2305        .#      MOVS     r3,#5
        0x00000b12:    071b        ..      LSLS     r3,r3,#28
        0x00000b14:    63d8        .c      STR      r0,[r3,#0x3c]
        0x00000b16:    e234        4.      B        0xf82 ; DrvGPIO_InitFunction + 1858
        0x00000b18:    2005        .       MOVS     r0,#5
        0x00000b1a:    0700        ..      LSLS     r0,r0,#28
        0x00000b1c:    6b80        .k      LDR      r0,[r0,#0x38]
        0x00000b1e:    230f        .#      MOVS     r3,#0xf
        0x00000b20:    4318        .C      ORRS     r0,r0,r3
        0x00000b22:    2305        .#      MOVS     r3,#5
        0x00000b24:    071b        ..      LSLS     r3,r3,#28
        0x00000b26:    6398        .c      STR      r0,[r3,#0x38]
        0x00000b28:    e22b        +.      B        0xf82 ; DrvGPIO_InitFunction + 1858
        0x00000b2a:    2005        .       MOVS     r0,#5
        0x00000b2c:    0700        ..      LSLS     r0,r0,#28
        0x00000b2e:    6bc0        .k      LDR      r0,[r0,#0x3c]
        0x00000b30:    2302        .#      MOVS     r3,#2
        0x00000b32:    4318        .C      ORRS     r0,r0,r3
        0x00000b34:    2305        .#      MOVS     r3,#5
        0x00000b36:    071b        ..      LSLS     r3,r3,#28
        0x00000b38:    63d8        .c      STR      r0,[r3,#0x3c]
        0x00000b3a:    e222        ".      B        0xf82 ; DrvGPIO_InitFunction + 1858
        0x00000b3c:    2005        .       MOVS     r0,#5
        0x00000b3e:    0700        ..      LSLS     r0,r0,#28
        0x00000b40:    6bc0        .k      LDR      r0,[r0,#0x3c]
        0x00000b42:    2304        .#      MOVS     r3,#4
        0x00000b44:    4318        .C      ORRS     r0,r0,r3
        0x00000b46:    2305        .#      MOVS     r3,#5
        0x00000b48:    071b        ..      LSLS     r3,r3,#28
        0x00000b4a:    63d8        .c      STR      r0,[r3,#0x3c]
        0x00000b4c:    e219        ..      B        0xf82 ; DrvGPIO_InitFunction + 1858
        0x00000b4e:    484d        MH      LDR      r0,[pc,#308] ; [0xc84] = 0x50000040
        0x00000b50:    6900        .i      LDR      r0,[r0,#0x10]
        0x00000b52:    2304        .#      MOVS     r3,#4
        0x00000b54:    4398        .C      BICS     r0,r0,r3
        0x00000b56:    4b4b        KK      LDR      r3,[pc,#300] ; [0xc84] = 0x50000040
        0x00000b58:    6118        .a      STR      r0,[r3,#0x10]
        0x00000b5a:    bf00        ..      NOP      
        0x00000b5c:    bf00        ..      NOP      
        0x00000b5e:    bf00        ..      NOP      
        0x00000b60:    bf00        ..      NOP      
        0x00000b62:    bf00        ..      NOP      
        0x00000b64:    bf00        ..      NOP      
        0x00000b66:    4847        GH      LDR      r0,[pc,#284] ; [0xc84] = 0x50000040
        0x00000b68:    6900        .i      LDR      r0,[r0,#0x10]
        0x00000b6a:    2301        .#      MOVS     r3,#1
        0x00000b6c:    02db        ..      LSLS     r3,r3,#11
        0x00000b6e:    4398        .C      BICS     r0,r0,r3
        0x00000b70:    4b44        DK      LDR      r3,[pc,#272] ; [0xc84] = 0x50000040
        0x00000b72:    6118        .a      STR      r0,[r3,#0x10]
        0x00000b74:    bf00        ..      NOP      
        0x00000b76:    2005        .       MOVS     r0,#5
        0x00000b78:    0700        ..      LSLS     r0,r0,#28
        0x00000b7a:    6b00        .k      LDR      r0,[r0,#0x30]
        0x00000b7c:    460b        .F      MOV      r3,r1
        0x00000b7e:    3b17        .;      SUBS     r3,r3,#0x17
        0x00000b80:    2401        .$      MOVS     r4,#1
        0x00000b82:    409c        .@      LSLS     r4,r4,r3
        0x00000b84:    4320         C      ORRS     r0,r0,r4
        0x00000b86:    2305        .#      MOVS     r3,#5
        0x00000b88:    071b        ..      LSLS     r3,r3,#28
        0x00000b8a:    6318        .c      STR      r0,[r3,#0x30]
        0x00000b8c:    e1f9        ..      B        0xf82 ; DrvGPIO_InitFunction + 1858
        0x00000b8e:    483d        =H      LDR      r0,[pc,#244] ; [0xc84] = 0x50000040
        0x00000b90:    6900        .i      LDR      r0,[r0,#0x10]
        0x00000b92:    2308        .#      MOVS     r3,#8
        0x00000b94:    4398        .C      BICS     r0,r0,r3
        0x00000b96:    4b3b        ;K      LDR      r3,[pc,#236] ; [0xc84] = 0x50000040
        0x00000b98:    6118        .a      STR      r0,[r3,#0x10]
        0x00000b9a:    bf00        ..      NOP      
        0x00000b9c:    2005        .       MOVS     r0,#5
        0x00000b9e:    0700        ..      LSLS     r0,r0,#28
        0x00000ba0:    6b43        Ck      LDR      r3,[r0,#0x34]
        0x00000ba2:    4608        .F      MOV      r0,r1
        0x00000ba4:    3811        .8      SUBS     r0,r0,#0x11
        0x00000ba6:    2401        .$      MOVS     r4,#1
        0x00000ba8:    4084        .@      LSLS     r4,r4,r0
        0x00000baa:    4323        #C      ORRS     r3,r3,r4
        0x00000bac:    2005        .       MOVS     r0,#5
        0x00000bae:    0700        ..      LSLS     r0,r0,#28
        0x00000bb0:    6343        Cc      STR      r3,[r0,#0x34]
        0x00000bb2:    e1e6        ..      B        0xf82 ; DrvGPIO_InitFunction + 1858
        0x00000bb4:    2005        .       MOVS     r0,#5
        0x00000bb6:    0700        ..      LSLS     r0,r0,#28
        0x00000bb8:    6b40        @k      LDR      r0,[r0,#0x34]
        0x00000bba:    23ff        .#      MOVS     r3,#0xff
        0x00000bbc:    3301        .3      ADDS     r3,#1
        0x00000bbe:    4318        .C      ORRS     r0,r0,r3
        0x00000bc0:    2305        .#      MOVS     r3,#5
        0x00000bc2:    071b        ..      LSLS     r3,r3,#28
        0x00000bc4:    6358        Xc      STR      r0,[r3,#0x34]
        0x00000bc6:    e1dc        ..      B        0xf82 ; DrvGPIO_InitFunction + 1858
        0x00000bc8:    2005        .       MOVS     r0,#5
        0x00000bca:    0700        ..      LSLS     r0,r0,#28
        0x00000bcc:    6b40        @k      LDR      r0,[r0,#0x34]
        0x00000bce:    2301        .#      MOVS     r3,#1
        0x00000bd0:    025b        [.      LSLS     r3,r3,#9
        0x00000bd2:    4318        .C      ORRS     r0,r0,r3
        0x00000bd4:    2305        .#      MOVS     r3,#5
        0x00000bd6:    071b        ..      LSLS     r3,r3,#28
        0x00000bd8:    6358        Xc      STR      r0,[r3,#0x34]
        0x00000bda:    482a        *H      LDR      r0,[pc,#168] ; [0xc84] = 0x50000040
        0x00000bdc:    6900        .i      LDR      r0,[r0,#0x10]
        0x00000bde:    2302        .#      MOVS     r3,#2
        0x00000be0:    4398        .C      BICS     r0,r0,r3
        0x00000be2:    4b28        (K      LDR      r3,[pc,#160] ; [0xc84] = 0x50000040
        0x00000be4:    6118        .a      STR      r0,[r3,#0x10]
        0x00000be6:    e1cc        ..      B        0xf82 ; DrvGPIO_InitFunction + 1858
        0x00000be8:    2005        .       MOVS     r0,#5
        0x00000bea:    0700        ..      LSLS     r0,r0,#28
        0x00000bec:    6b40        @k      LDR      r0,[r0,#0x34]
        0x00000bee:    2301        .#      MOVS     r3,#1
        0x00000bf0:    029b        ..      LSLS     r3,r3,#10
        0x00000bf2:    4318        .C      ORRS     r0,r0,r3
        0x00000bf4:    2305        .#      MOVS     r3,#5
        0x00000bf6:    071b        ..      LSLS     r3,r3,#28
        0x00000bf8:    6358        Xc      STR      r0,[r3,#0x34]
        0x00000bfa:    4822        "H      LDR      r0,[pc,#136] ; [0xc84] = 0x50000040
        0x00000bfc:    6900        .i      LDR      r0,[r0,#0x10]
        0x00000bfe:    0840        @.      LSRS     r0,r0,#1
        0x00000c00:    0040        @.      LSLS     r0,r0,#1
        0x00000c02:    4b20         K      LDR      r3,[pc,#128] ; [0xc84] = 0x50000040
        0x00000c04:    6118        .a      STR      r0,[r3,#0x10]
        0x00000c06:    e1bc        ..      B        0xf82 ; DrvGPIO_InitFunction + 1858
        0x00000c08:    2005        .       MOVS     r0,#5
        0x00000c0a:    0700        ..      LSLS     r0,r0,#28
        0x00000c0c:    6b40        @k      LDR      r0,[r0,#0x34]
        0x00000c0e:    2301        .#      MOVS     r3,#1
        0x00000c10:    02db        ..      LSLS     r3,r3,#11
        0x00000c12:    4318        .C      ORRS     r0,r0,r3
        0x00000c14:    2305        .#      MOVS     r3,#5
        0x00000c16:    071b        ..      LSLS     r3,r3,#28
        0x00000c18:    6358        Xc      STR      r0,[r3,#0x34]
        0x00000c1a:    481a        .H      LDR      r0,[pc,#104] ; [0xc84] = 0x50000040
        0x00000c1c:    6900        .i      LDR      r0,[r0,#0x10]
        0x00000c1e:    2310        .#      MOVS     r3,#0x10
        0x00000c20:    4398        .C      BICS     r0,r0,r3
        0x00000c22:    4b18        .K      LDR      r3,[pc,#96] ; [0xc84] = 0x50000040
        0x00000c24:    6118        .a      STR      r0,[r3,#0x10]
        0x00000c26:    e1ac        ..      B        0xf82 ; DrvGPIO_InitFunction + 1858
        0x00000c28:    2005        .       MOVS     r0,#5
        0x00000c2a:    0700        ..      LSLS     r0,r0,#28
        0x00000c2c:    6b40        @k      LDR      r0,[r0,#0x34]
        0x00000c2e:    2301        .#      MOVS     r3,#1
        0x00000c30:    03db        ..      LSLS     r3,r3,#15
        0x00000c32:    4318        .C      ORRS     r0,r0,r3
        0x00000c34:    2305        .#      MOVS     r3,#5
        0x00000c36:    071b        ..      LSLS     r3,r3,#28
        0x00000c38:    6358        Xc      STR      r0,[r3,#0x34]
        0x00000c3a:    4812        .H      LDR      r0,[pc,#72] ; [0xc84] = 0x50000040
        0x00000c3c:    6900        .i      LDR      r0,[r0,#0x10]
        0x00000c3e:    2301        .#      MOVS     r3,#1
        0x00000c40:    061b        ..      LSLS     r3,r3,#24
        0x00000c42:    4318        .C      ORRS     r0,r0,r3
        0x00000c44:    4b0f        .K      LDR      r3,[pc,#60] ; [0xc84] = 0x50000040
        0x00000c46:    6118        .a      STR      r0,[r3,#0x10]
        0x00000c48:    e19b        ..      B        0xf82 ; DrvGPIO_InitFunction + 1858
        0x00000c4a:    480e        .H      LDR      r0,[pc,#56] ; [0xc84] = 0x50000040
        0x00000c4c:    6800        .h      LDR      r0,[r0,#0]
        0x00000c4e:    2320         #      MOVS     r3,#0x20
        0x00000c50:    4318        .C      ORRS     r0,r0,r3
        0x00000c52:    4b0c        .K      LDR      r3,[pc,#48] ; [0xc84] = 0x50000040
        0x00000c54:    6018        .`      STR      r0,[r3,#0]
        0x00000c56:    4618        .F      MOV      r0,r3
        0x00000c58:    6900        .i      LDR      r0,[r0,#0x10]
        0x00000c5a:    04db        ..      LSLS     r3,r3,#19
        0x00000c5c:    4318        .C      ORRS     r0,r0,r3
        0x00000c5e:    4b09        .K      LDR      r3,[pc,#36] ; [0xc84] = 0x50000040
        0x00000c60:    6118        .a      STR      r0,[r3,#0x10]
        0x00000c62:    e18e        ..      B        0xf82 ; DrvGPIO_InitFunction + 1858
        0x00000c64:    2005        .       MOVS     r0,#5
        0x00000c66:    0700        ..      LSLS     r0,r0,#28
        0x00000c68:    6b40        @k      LDR      r0,[r0,#0x34]
        0x00000c6a:    2304        .#      MOVS     r3,#4
        0x00000c6c:    4318        .C      ORRS     r0,r0,r3
        0x00000c6e:    2305        .#      MOVS     r3,#5
        0x00000c70:    071b        ..      LSLS     r3,r3,#28
        0x00000c72:    6358        Xc      STR      r0,[r3,#0x34]
        0x00000c74:    4803        .H      LDR      r0,[pc,#12] ; [0xc84] = 0x50000040
        0x00000c76:    6900        .i      LDR      r0,[r0,#0x10]
        0x00000c78:    2301        .#      MOVS     r3,#1
        0x00000c7a:    069b        ..      LSLS     r3,r3,#26
        0x00000c7c:    4318        .C      ORRS     r0,r0,r3
        0x00000c7e:    4b01        .K      LDR      r3,[pc,#4] ; [0xc84] = 0x50000040
        0x00000c80:    6118        .a      STR      r0,[r3,#0x10]
        0x00000c82:    e17e        ~.      B        0xf82 ; DrvGPIO_InitFunction + 1858
    $d
        0x00000c84:    50000040    @..P    DCD    1342177344
    $t
        0x00000c88:    2005        .       MOVS     r0,#5
        0x00000c8a:    0700        ..      LSLS     r0,r0,#28
        0x00000c8c:    6b40        @k      LDR      r0,[r0,#0x34]
        0x00000c8e:    2308        .#      MOVS     r3,#8
        0x00000c90:    4318        .C      ORRS     r0,r0,r3
        0x00000c92:    2305        .#      MOVS     r3,#5
        0x00000c94:    071b        ..      LSLS     r3,r3,#28
        0x00000c96:    6358        Xc      STR      r0,[r3,#0x34]
        0x00000c98:    48bb        .H      LDR      r0,[pc,#748] ; [0xf88] = 0x50000040
        0x00000c9a:    6900        .i      LDR      r0,[r0,#0x10]
        0x00000c9c:    2301        .#      MOVS     r3,#1
        0x00000c9e:    06db        ..      LSLS     r3,r3,#27
        0x00000ca0:    4318        .C      ORRS     r0,r0,r3
        0x00000ca2:    4bb9        .K      LDR      r3,[pc,#740] ; [0xf88] = 0x50000040
        0x00000ca4:    6118        .a      STR      r0,[r3,#0x10]
        0x00000ca6:    e16c        l.      B        0xf82 ; DrvGPIO_InitFunction + 1858
        0x00000ca8:    bf00        ..      NOP      
        0x00000caa:    bf00        ..      NOP      
        0x00000cac:    bf00        ..      NOP      
        0x00000cae:    bf00        ..      NOP      
        0x00000cb0:    bf00        ..      NOP      
        0x00000cb2:    2929        ))      CMP      r1,#0x29
        0x00000cb4:    db03        ..      BLT      0xcbe ; DrvGPIO_InitFunction + 1150
        0x00000cb6:    292b        +)      CMP      r1,#0x2b
        0x00000cb8:    dc01        ..      BGT      0xcbe ; DrvGPIO_InitFunction + 1150
        0x00000cba:    2200        ."      MOVS     r2,#0
        0x00000cbc:    e000        ..      B        0xcc0 ; DrvGPIO_InitFunction + 1152
        0x00000cbe:    2204        ."      MOVS     r2,#4
        0x00000cc0:    2929        ))      CMP      r1,#0x29
        0x00000cc2:    d001        ..      BEQ      0xcc8 ; DrvGPIO_InitFunction + 1160
        0x00000cc4:    292c        ,)      CMP      r1,#0x2c
        0x00000cc6:    d110        ..      BNE      0xcea ; DrvGPIO_InitFunction + 1194
        0x00000cc8:    2005        .       MOVS     r0,#5
        0x00000cca:    0700        ..      LSLS     r0,r0,#28
        0x00000ccc:    6b40        @k      LDR      r0,[r0,#0x34]
        0x00000cce:    230f        .#      MOVS     r3,#0xf
        0x00000cd0:    4093        .@      LSLS     r3,r3,r2
        0x00000cd2:    4318        .C      ORRS     r0,r0,r3
        0x00000cd4:    2305        .#      MOVS     r3,#5
        0x00000cd6:    071b        ..      LSLS     r3,r3,#28
        0x00000cd8:    6358        Xc      STR      r0,[r3,#0x34]
        0x00000cda:    48ab        .H      LDR      r0,[pc,#684] ; [0xf88] = 0x50000040
        0x00000cdc:    6900        .i      LDR      r0,[r0,#0x10]
        0x00000cde:    2301        .#      MOVS     r3,#1
        0x00000ce0:    02db        ..      LSLS     r3,r3,#11
        0x00000ce2:    4398        .C      BICS     r0,r0,r3
        0x00000ce4:    4ba8        .K      LDR      r3,[pc,#672] ; [0xf88] = 0x50000040
        0x00000ce6:    6118        .a      STR      r0,[r3,#0x10]
        0x00000ce8:    e022        ".      B        0xd30 ; DrvGPIO_InitFunction + 1264
        0x00000cea:    292a        *)      CMP      r1,#0x2a
        0x00000cec:    d001        ..      BEQ      0xcf2 ; DrvGPIO_InitFunction + 1202
        0x00000cee:    292d        -)      CMP      r1,#0x2d
        0x00000cf0:    d109        ..      BNE      0xd06 ; DrvGPIO_InitFunction + 1222
        0x00000cf2:    2005        .       MOVS     r0,#5
        0x00000cf4:    0700        ..      LSLS     r0,r0,#28
        0x00000cf6:    6b40        @k      LDR      r0,[r0,#0x34]
        0x00000cf8:    2303        .#      MOVS     r3,#3
        0x00000cfa:    4093        .@      LSLS     r3,r3,r2
        0x00000cfc:    4318        .C      ORRS     r0,r0,r3
        0x00000cfe:    2305        .#      MOVS     r3,#5
        0x00000d00:    071b        ..      LSLS     r3,r3,#28
        0x00000d02:    6358        Xc      STR      r0,[r3,#0x34]
        0x00000d04:    e014        ..      B        0xd30 ; DrvGPIO_InitFunction + 1264
        0x00000d06:    292b        +)      CMP      r1,#0x2b
        0x00000d08:    d001        ..      BEQ      0xd0e ; DrvGPIO_InitFunction + 1230
        0x00000d0a:    292e        .)      CMP      r1,#0x2e
        0x00000d0c:    d110        ..      BNE      0xd30 ; DrvGPIO_InitFunction + 1264
        0x00000d0e:    2005        .       MOVS     r0,#5
        0x00000d10:    0700        ..      LSLS     r0,r0,#28
        0x00000d12:    6b40        @k      LDR      r0,[r0,#0x34]
        0x00000d14:    1c93        ..      ADDS     r3,r2,#2
        0x00000d16:    2403        .$      MOVS     r4,#3
        0x00000d18:    409c        .@      LSLS     r4,r4,r3
        0x00000d1a:    4320         C      ORRS     r0,r0,r4
        0x00000d1c:    2305        .#      MOVS     r3,#5
        0x00000d1e:    071b        ..      LSLS     r3,r3,#28
        0x00000d20:    6358        Xc      STR      r0,[r3,#0x34]
        0x00000d22:    4899        .H      LDR      r0,[pc,#612] ; [0xf88] = 0x50000040
        0x00000d24:    6900        .i      LDR      r0,[r0,#0x10]
        0x00000d26:    2301        .#      MOVS     r3,#1
        0x00000d28:    02db        ..      LSLS     r3,r3,#11
        0x00000d2a:    4398        .C      BICS     r0,r0,r3
        0x00000d2c:    4b96        .K      LDR      r3,[pc,#600] ; [0xf88] = 0x50000040
        0x00000d2e:    6118        .a      STR      r0,[r3,#0x10]
        0x00000d30:    e127        '.      B        0xf82 ; DrvGPIO_InitFunction + 1858
        0x00000d32:    2005        .       MOVS     r0,#5
        0x00000d34:    0700        ..      LSLS     r0,r0,#28
        0x00000d36:    6bc0        .k      LDR      r0,[r0,#0x3c]
        0x00000d38:    2303        .#      MOVS     r3,#3
        0x00000d3a:    039b        ..      LSLS     r3,r3,#14
        0x00000d3c:    4318        .C      ORRS     r0,r0,r3
        0x00000d3e:    2305        .#      MOVS     r3,#5
        0x00000d40:    071b        ..      LSLS     r3,r3,#28
        0x00000d42:    63d8        .c      STR      r0,[r3,#0x3c]
        0x00000d44:    e11d        ..      B        0xf82 ; DrvGPIO_InitFunction + 1858
        0x00000d46:    bf00        ..      NOP      
        0x00000d48:    bf00        ..      NOP      
        0x00000d4a:    2930        0)      CMP      r1,#0x30
        0x00000d4c:    d108        ..      BNE      0xd60 ; DrvGPIO_InitFunction + 1312
        0x00000d4e:    2005        .       MOVS     r0,#5
        0x00000d50:    0700        ..      LSLS     r0,r0,#28
        0x00000d52:    6b00        .k      LDR      r0,[r0,#0x30]
        0x00000d54:    020b        ..      LSLS     r3,r1,#8
        0x00000d56:    4318        .C      ORRS     r0,r0,r3
        0x00000d58:    2305        .#      MOVS     r3,#5
        0x00000d5a:    071b        ..      LSLS     r3,r3,#28
        0x00000d5c:    6318        .c      STR      r0,[r3,#0x30]
        0x00000d5e:    e00a        ..      B        0xd76 ; DrvGPIO_InitFunction + 1334
        0x00000d60:    2005        .       MOVS     r0,#5
        0x00000d62:    0700        ..      LSLS     r0,r0,#28
        0x00000d64:    6b03        .k      LDR      r3,[r0,#0x30]
        0x00000d66:    4608        .F      MOV      r0,r1
        0x00000d68:    3828        (8      SUBS     r0,r0,#0x28
        0x00000d6a:    2401        .$      MOVS     r4,#1
        0x00000d6c:    4084        .@      LSLS     r4,r4,r0
        0x00000d6e:    4323        #C      ORRS     r3,r3,r4
        0x00000d70:    2005        .       MOVS     r0,#5
        0x00000d72:    0700        ..      LSLS     r0,r0,#28
        0x00000d74:    6303        .c      STR      r3,[r0,#0x30]
        0x00000d76:    4884        .H      LDR      r0,[pc,#528] ; [0xf88] = 0x50000040
        0x00000d78:    6900        .i      LDR      r0,[r0,#0x10]
        0x00000d7a:    2301        .#      MOVS     r3,#1
        0x00000d7c:    02db        ..      LSLS     r3,r3,#11
        0x00000d7e:    4398        .C      BICS     r0,r0,r3
        0x00000d80:    4b81        .K      LDR      r3,[pc,#516] ; [0xf88] = 0x50000040
        0x00000d82:    6118        .a      STR      r0,[r3,#0x10]
        0x00000d84:    e0fd        ..      B        0xf82 ; DrvGPIO_InitFunction + 1858
        0x00000d86:    bf00        ..      NOP      
        0x00000d88:    bf00        ..      NOP      
        0x00000d8a:    2931        1)      CMP      r1,#0x31
        0x00000d8c:    d116        ..      BNE      0xdbc ; DrvGPIO_InitFunction + 1404
        0x00000d8e:    2005        .       MOVS     r0,#5
        0x00000d90:    0700        ..      LSLS     r0,r0,#28
        0x00000d92:    6b00        .k      LDR      r0,[r0,#0x30]
        0x00000d94:    2303        .#      MOVS     r3,#3
        0x00000d96:    039b        ..      LSLS     r3,r3,#14
        0x00000d98:    4318        .C      ORRS     r0,r0,r3
        0x00000d9a:    2305        .#      MOVS     r3,#5
        0x00000d9c:    071b        ..      LSLS     r3,r3,#28
        0x00000d9e:    6318        .c      STR      r0,[r3,#0x30]
        0x00000da0:    4879        yH      LDR      r0,[pc,#484] ; [0xf88] = 0x50000040
        0x00000da2:    6900        .i      LDR      r0,[r0,#0x10]
        0x00000da4:    2301        .#      MOVS     r3,#1
        0x00000da6:    025b        [.      LSLS     r3,r3,#9
        0x00000da8:    4398        .C      BICS     r0,r0,r3
        0x00000daa:    4b77        wK      LDR      r3,[pc,#476] ; [0xf88] = 0x50000040
        0x00000dac:    6118        .a      STR      r0,[r3,#0x10]
        0x00000dae:    4618        .F      MOV      r0,r3
        0x00000db0:    6900        .i      LDR      r0,[r0,#0x10]
        0x00000db2:    015b        [.      LSLS     r3,r3,#5
        0x00000db4:    4398        .C      BICS     r0,r0,r3
        0x00000db6:    4b74        tK      LDR      r3,[pc,#464] ; [0xf88] = 0x50000040
        0x00000db8:    6118        .a      STR      r0,[r3,#0x10]
        0x00000dba:    e01b        ..      B        0xdf4 ; DrvGPIO_InitFunction + 1460
        0x00000dbc:    2005        .       MOVS     r0,#5
        0x00000dbe:    0700        ..      LSLS     r0,r0,#28
        0x00000dc0:    6b03        .k      LDR      r3,[r0,#0x30]
        0x00000dc2:    4608        .F      MOV      r0,r1
        0x00000dc4:    3828        (8      SUBS     r0,r0,#0x28
        0x00000dc6:    2401        .$      MOVS     r4,#1
        0x00000dc8:    4084        .@      LSLS     r4,r4,r0
        0x00000dca:    4323        #C      ORRS     r3,r3,r4
        0x00000dcc:    2005        .       MOVS     r0,#5
        0x00000dce:    0700        ..      LSLS     r0,r0,#28
        0x00000dd0:    6303        .c      STR      r3,[r0,#0x30]
        0x00000dd2:    2936        6)      CMP      r1,#0x36
        0x00000dd4:    d107        ..      BNE      0xde6 ; DrvGPIO_InitFunction + 1446
        0x00000dd6:    486c        lH      LDR      r0,[pc,#432] ; [0xf88] = 0x50000040
        0x00000dd8:    6900        .i      LDR      r0,[r0,#0x10]
        0x00000dda:    2301        .#      MOVS     r3,#1
        0x00000ddc:    02db        ..      LSLS     r3,r3,#11
        0x00000dde:    4398        .C      BICS     r0,r0,r3
        0x00000de0:    4b69        iK      LDR      r3,[pc,#420] ; [0xf88] = 0x50000040
        0x00000de2:    6118        .a      STR      r0,[r3,#0x10]
        0x00000de4:    e006        ..      B        0xdf4 ; DrvGPIO_InitFunction + 1460
        0x00000de6:    4868        hH      LDR      r0,[pc,#416] ; [0xf88] = 0x50000040
        0x00000de8:    6900        .i      LDR      r0,[r0,#0x10]
        0x00000dea:    2301        .#      MOVS     r3,#1
        0x00000dec:    025b        [.      LSLS     r3,r3,#9
        0x00000dee:    4398        .C      BICS     r0,r0,r3
        0x00000df0:    4b65        eK      LDR      r3,[pc,#404] ; [0xf88] = 0x50000040
        0x00000df2:    6118        .a      STR      r0,[r3,#0x10]
        0x00000df4:    e0c5        ..      B        0xf82 ; DrvGPIO_InitFunction + 1858
        0x00000df6:    bf00        ..      NOP      
        0x00000df8:    bf00        ..      NOP      
        0x00000dfa:    2932        2)      CMP      r1,#0x32
        0x00000dfc:    d115        ..      BNE      0xe2a ; DrvGPIO_InitFunction + 1514
        0x00000dfe:    2005        .       MOVS     r0,#5
        0x00000e00:    0700        ..      LSLS     r0,r0,#28
        0x00000e02:    6b40        @k      LDR      r0,[r0,#0x34]
        0x00000e04:    2301        .#      MOVS     r3,#1
        0x00000e06:    02db        ..      LSLS     r3,r3,#11
        0x00000e08:    4318        .C      ORRS     r0,r0,r3
        0x00000e0a:    2305        .#      MOVS     r3,#5
        0x00000e0c:    071b        ..      LSLS     r3,r3,#28
        0x00000e0e:    6358        Xc      STR      r0,[r3,#0x34]
        0x00000e10:    485d        ]H      LDR      r0,[pc,#372] ; [0xf88] = 0x50000040
        0x00000e12:    6900        .i      LDR      r0,[r0,#0x10]
        0x00000e14:    2310        .#      MOVS     r3,#0x10
        0x00000e16:    4318        .C      ORRS     r0,r0,r3
        0x00000e18:    4b5b        [K      LDR      r3,[pc,#364] ; [0xf88] = 0x50000040
        0x00000e1a:    6118        .a      STR      r0,[r3,#0x10]
        0x00000e1c:    4618        .F      MOV      r0,r3
        0x00000e1e:    6800        .h      LDR      r0,[r0,#0]
        0x00000e20:    2320         #      MOVS     r3,#0x20
        0x00000e22:    4318        .C      ORRS     r0,r0,r3
        0x00000e24:    4b58        XK      LDR      r3,[pc,#352] ; [0xf88] = 0x50000040
        0x00000e26:    6018        .`      STR      r0,[r3,#0]
        0x00000e28:    e017        ..      B        0xe5a ; DrvGPIO_InitFunction + 1562
        0x00000e2a:    2938        8)      CMP      r1,#0x38
        0x00000e2c:    d10f        ..      BNE      0xe4e ; DrvGPIO_InitFunction + 1550
        0x00000e2e:    2005        .       MOVS     r0,#5
        0x00000e30:    0700        ..      LSLS     r0,r0,#28
        0x00000e32:    6b40        @k      LDR      r0,[r0,#0x34]
        0x00000e34:    2301        .#      MOVS     r3,#1
        0x00000e36:    02db        ..      LSLS     r3,r3,#11
        0x00000e38:    4318        .C      ORRS     r0,r0,r3
        0x00000e3a:    2305        .#      MOVS     r3,#5
        0x00000e3c:    071b        ..      LSLS     r3,r3,#28
        0x00000e3e:    6358        Xc      STR      r0,[r3,#0x34]
        0x00000e40:    4851        QH      LDR      r0,[pc,#324] ; [0xf88] = 0x50000040
        0x00000e42:    6900        .i      LDR      r0,[r0,#0x10]
        0x00000e44:    2310        .#      MOVS     r3,#0x10
        0x00000e46:    4318        .C      ORRS     r0,r0,r3
        0x00000e48:    4b4f        OK      LDR      r3,[pc,#316] ; [0xf88] = 0x50000040
        0x00000e4a:    6118        .a      STR      r0,[r3,#0x10]
        0x00000e4c:    e005        ..      B        0xe5a ; DrvGPIO_InitFunction + 1562
        0x00000e4e:    484e        NH      LDR      r0,[pc,#312] ; [0xf88] = 0x50000040
        0x00000e50:    6800        .h      LDR      r0,[r0,#0]
        0x00000e52:    2320         #      MOVS     r3,#0x20
        0x00000e54:    4318        .C      ORRS     r0,r0,r3
        0x00000e56:    4b4c        LK      LDR      r3,[pc,#304] ; [0xf88] = 0x50000040
        0x00000e58:    6018        .`      STR      r0,[r3,#0]
        0x00000e5a:    e092        ..      B        0xf82 ; DrvGPIO_InitFunction + 1858
        0x00000e5c:    bf00        ..      NOP      
        0x00000e5e:    bf00        ..      NOP      
        0x00000e60:    2933        3)      CMP      r1,#0x33
        0x00000e62:    d106        ..      BNE      0xe72 ; DrvGPIO_InitFunction + 1586
        0x00000e64:    4848        HH      LDR      r0,[pc,#288] ; [0xf88] = 0x50000040
        0x00000e66:    6800        .h      LDR      r0,[r0,#0]
        0x00000e68:    2303        .#      MOVS     r3,#3
        0x00000e6a:    4318        .C      ORRS     r0,r0,r3
        0x00000e6c:    4b46        FK      LDR      r3,[pc,#280] ; [0xf88] = 0x50000040
        0x00000e6e:    6018        .`      STR      r0,[r3,#0]
        0x00000e70:    e00e        ..      B        0xe90 ; DrvGPIO_InitFunction + 1616
        0x00000e72:    293a        :)      CMP      r1,#0x3a
        0x00000e74:    d106        ..      BNE      0xe84 ; DrvGPIO_InitFunction + 1604
        0x00000e76:    4844        DH      LDR      r0,[pc,#272] ; [0xf88] = 0x50000040
        0x00000e78:    6800        .h      LDR      r0,[r0,#0]
        0x00000e7a:    2301        .#      MOVS     r3,#1
        0x00000e7c:    4318        .C      ORRS     r0,r0,r3
        0x00000e7e:    4b42        BK      LDR      r3,[pc,#264] ; [0xf88] = 0x50000040
        0x00000e80:    6018        .`      STR      r0,[r3,#0]
        0x00000e82:    e005        ..      B        0xe90 ; DrvGPIO_InitFunction + 1616
        0x00000e84:    4840        @H      LDR      r0,[pc,#256] ; [0xf88] = 0x50000040
        0x00000e86:    6800        .h      LDR      r0,[r0,#0]
        0x00000e88:    2302        .#      MOVS     r3,#2
        0x00000e8a:    4318        .C      ORRS     r0,r0,r3
        0x00000e8c:    4b3e        >K      LDR      r3,[pc,#248] ; [0xf88] = 0x50000040
        0x00000e8e:    6018        .`      STR      r0,[r3,#0]
        0x00000e90:    e077        w.      B        0xf82 ; DrvGPIO_InitFunction + 1858
        0x00000e92:    2005        .       MOVS     r0,#5
        0x00000e94:    0700        ..      LSLS     r0,r0,#28
        0x00000e96:    6b40        @k      LDR      r0,[r0,#0x34]
        0x00000e98:    230c        .#      MOVS     r3,#0xc
        0x00000e9a:    4318        .C      ORRS     r0,r0,r3
        0x00000e9c:    2305        .#      MOVS     r3,#5
        0x00000e9e:    071b        ..      LSLS     r3,r3,#28
        0x00000ea0:    6358        Xc      STR      r0,[r3,#0x34]
        0x00000ea2:    4839        9H      LDR      r0,[pc,#228] ; [0xf88] = 0x50000040
        0x00000ea4:    6900        .i      LDR      r0,[r0,#0x10]
        0x00000ea6:    2303        .#      MOVS     r3,#3
        0x00000ea8:    035b        [.      LSLS     r3,r3,#13
        0x00000eaa:    4318        .C      ORRS     r0,r0,r3
        0x00000eac:    4b36        6K      LDR      r3,[pc,#216] ; [0xf88] = 0x50000040
        0x00000eae:    6118        .a      STR      r0,[r3,#0x10]
        0x00000eb0:    2005        .       MOVS     r0,#5
        0x00000eb2:    0700        ..      LSLS     r0,r0,#28
        0x00000eb4:    6b00        .k      LDR      r0,[r0,#0x30]
        0x00000eb6:    4b35        5K      LDR      r3,[pc,#212] ; [0xf8c] = 0x703e
        0x00000eb8:    4318        .C      ORRS     r0,r0,r3
        0x00000eba:    2305        .#      MOVS     r3,#5
        0x00000ebc:    071b        ..      LSLS     r3,r3,#28
        0x00000ebe:    6318        .c      STR      r0,[r3,#0x30]
        0x00000ec0:    4831        1H      LDR      r0,[pc,#196] ; [0xf88] = 0x50000040
        0x00000ec2:    6900        .i      LDR      r0,[r0,#0x10]
        0x00000ec4:    23ff        .#      MOVS     r3,#0xff
        0x00000ec6:    041b        ..      LSLS     r3,r3,#16
        0x00000ec8:    4318        .C      ORRS     r0,r0,r3
        0x00000eca:    4b2f        /K      LDR      r3,[pc,#188] ; [0xf88] = 0x50000040
        0x00000ecc:    6118        .a      STR      r0,[r3,#0x10]
        0x00000ece:    bf00        ..      NOP      
        0x00000ed0:    293c        <)      CMP      r1,#0x3c
        0x00000ed2:    d11e        ..      BNE      0xf12 ; DrvGPIO_InitFunction + 1746
        0x00000ed4:    2005        .       MOVS     r0,#5
        0x00000ed6:    0700        ..      LSLS     r0,r0,#28
        0x00000ed8:    6b40        @k      LDR      r0,[r0,#0x34]
        0x00000eda:    230c        .#      MOVS     r3,#0xc
        0x00000edc:    4398        .C      BICS     r0,r0,r3
        0x00000ede:    2305        .#      MOVS     r3,#5
        0x00000ee0:    071b        ..      LSLS     r3,r3,#28
        0x00000ee2:    6358        Xc      STR      r0,[r3,#0x34]
        0x00000ee4:    4828        (H      LDR      r0,[pc,#160] ; [0xf88] = 0x50000040
        0x00000ee6:    6900        .i      LDR      r0,[r0,#0x10]
        0x00000ee8:    2303        .#      MOVS     r3,#3
        0x00000eea:    035b        [.      LSLS     r3,r3,#13
        0x00000eec:    4398        .C      BICS     r0,r0,r3
        0x00000eee:    4b26        &K      LDR      r3,[pc,#152] ; [0xf88] = 0x50000040
        0x00000ef0:    6118        .a      STR      r0,[r3,#0x10]
        0x00000ef2:    2005        .       MOVS     r0,#5
        0x00000ef4:    0700        ..      LSLS     r0,r0,#28
        0x00000ef6:    6b00        .k      LDR      r0,[r0,#0x30]
        0x00000ef8:    4b24        $K      LDR      r3,[pc,#144] ; [0xf8c] = 0x703e
        0x00000efa:    43db        .C      MVNS     r3,r3
        0x00000efc:    4018        .@      ANDS     r0,r0,r3
        0x00000efe:    2305        .#      MOVS     r3,#5
        0x00000f00:    071b        ..      LSLS     r3,r3,#28
        0x00000f02:    6318        .c      STR      r0,[r3,#0x30]
        0x00000f04:    4820         H      LDR      r0,[pc,#128] ; [0xf88] = 0x50000040
        0x00000f06:    6900        .i      LDR      r0,[r0,#0x10]
        0x00000f08:    23ff        .#      MOVS     r3,#0xff
        0x00000f0a:    041b        ..      LSLS     r3,r3,#16
        0x00000f0c:    4398        .C      BICS     r0,r0,r3
        0x00000f0e:    4b1e        .K      LDR      r3,[pc,#120] ; [0xf88] = 0x50000040
        0x00000f10:    6118        .a      STR      r0,[r3,#0x10]
        0x00000f12:    481d        .H      LDR      r0,[pc,#116] ; [0xf88] = 0x50000040
        0x00000f14:    6900        .i      LDR      r0,[r0,#0x10]
        0x00000f16:    2303        .#      MOVS     r3,#3
        0x00000f18:    02db        ..      LSLS     r3,r3,#11
        0x00000f1a:    4318        .C      ORRS     r0,r0,r3
        0x00000f1c:    4b1a        .K      LDR      r3,[pc,#104] ; [0xf88] = 0x50000040
        0x00000f1e:    6118        .a      STR      r0,[r3,#0x10]
        0x00000f20:    2005        .       MOVS     r0,#5
        0x00000f22:    0700        ..      LSLS     r0,r0,#28
        0x00000f24:    6b80        .k      LDR      r0,[r0,#0x38]
        0x00000f26:    23ff        .#      MOVS     r3,#0xff
        0x00000f28:    3301        .3      ADDS     r3,#1
        0x00000f2a:    4318        .C      ORRS     r0,r0,r3
        0x00000f2c:    2305        .#      MOVS     r3,#5
        0x00000f2e:    071b        ..      LSLS     r3,r3,#28
        0x00000f30:    6398        .c      STR      r0,[r3,#0x38]
        0x00000f32:    4618        .F      MOV      r0,r3
        0x00000f34:    6b00        .k      LDR      r0,[r0,#0x30]
        0x00000f36:    2303        .#      MOVS     r3,#3
        0x00000f38:    029b        ..      LSLS     r3,r3,#10
        0x00000f3a:    4318        .C      ORRS     r0,r0,r3
        0x00000f3c:    2305        .#      MOVS     r3,#5
        0x00000f3e:    071b        ..      LSLS     r3,r3,#28
        0x00000f40:    6318        .c      STR      r0,[r3,#0x30]
        0x00000f42:    4618        .F      MOV      r0,r3
        0x00000f44:    6b40        @k      LDR      r0,[r0,#0x34]
        0x00000f46:    23c0        .#      MOVS     r3,#0xc0
        0x00000f48:    4318        .C      ORRS     r0,r0,r3
        0x00000f4a:    2305        .#      MOVS     r3,#5
        0x00000f4c:    071b        ..      LSLS     r3,r3,#28
        0x00000f4e:    6358        Xc      STR      r0,[r3,#0x34]
        0x00000f50:    4618        .F      MOV      r0,r3
        0x00000f52:    6b00        .k      LDR      r0,[r0,#0x30]
        0x00000f54:    23c0        .#      MOVS     r3,#0xc0
        0x00000f56:    4318        .C      ORRS     r0,r0,r3
        0x00000f58:    2305        .#      MOVS     r3,#5
        0x00000f5a:    071b        ..      LSLS     r3,r3,#28
        0x00000f5c:    6318        .c      STR      r0,[r3,#0x30]
        0x00000f5e:    4618        .F      MOV      r0,r3
        0x00000f60:    6b80        .k      LDR      r0,[r0,#0x38]
        0x00000f62:    4b0b        .K      LDR      r3,[pc,#44] ; [0xf90] = 0xc0c0
        0x00000f64:    4318        .C      ORRS     r0,r0,r3
        0x00000f66:    2305        .#      MOVS     r3,#5
        0x00000f68:    071b        ..      LSLS     r3,r3,#28
        0x00000f6a:    6398        .c      STR      r0,[r3,#0x38]
        0x00000f6c:    4618        .F      MOV      r0,r3
        0x00000f6e:    6b40        @k      LDR      r0,[r0,#0x34]
        0x00000f70:    2303        .#      MOVS     r3,#3
        0x00000f72:    031b        ..      LSLS     r3,r3,#12
        0x00000f74:    4318        .C      ORRS     r0,r0,r3
        0x00000f76:    2305        .#      MOVS     r3,#5
        0x00000f78:    071b        ..      LSLS     r3,r3,#28
        0x00000f7a:    6358        Xc      STR      r0,[r3,#0x34]
        0x00000f7c:    e001        ..      B        0xf82 ; DrvGPIO_InitFunction + 1858
        0x00000f7e:    4805        .H      LDR      r0,[pc,#20] ; [0xf94] = 0xffff8901
        0x00000f80:    bd10        ..      POP      {r4,pc}
        0x00000f82:    bf00        ..      NOP      
        0x00000f84:    2000        .       MOVS     r0,#0
        0x00000f86:    e7fb        ..      B        0xf80 ; DrvGPIO_InitFunction + 1856
    $d
        0x00000f88:    50000040    @..P    DCD    1342177344
        0x00000f8c:    0000703e    >p..    DCD    28734
        0x00000f90:    0000c0c0    ....    DCD    49344
        0x00000f94:    ffff8901    ....    DCD    4294936833
    $t
    i.DrvGPIO_Open
    DrvGPIO_Open
        0x00000f98:    b570        p.      PUSH     {r4-r6,lr}
        0x00000f9a:    4604        .F      MOV      r4,r0
        0x00000f9c:    460b        .F      MOV      r3,r1
        0x00000f9e:    2b00        .+      CMP      r3,#0
        0x00000fa0:    db01        ..      BLT      0xfa6 ; DrvGPIO_Open + 14
        0x00000fa2:    2b10        .+      CMP      r3,#0x10
        0x00000fa4:    dd01        ..      BLE      0xfaa ; DrvGPIO_Open + 18
        0x00000fa6:    4818        .H      LDR      r0,[pc,#96] ; [0x1008] = 0xffff8901
        0x00000fa8:    bd70        p.      POP      {r4-r6,pc}
        0x00000faa:    01a0        ..      LSLS     r0,r4,#6
        0x00000fac:    4d17        .M      LDR      r5,[pc,#92] ; [0x100c] = 0x50004000
        0x00000fae:    1941        A.      ADDS     r1,r0,r5
        0x00000fb0:    2a00        .*      CMP      r2,#0
        0x00000fb2:    d003        ..      BEQ      0xfbc ; DrvGPIO_Open + 36
        0x00000fb4:    2a01        .*      CMP      r2,#1
        0x00000fb6:    d001        ..      BEQ      0xfbc ; DrvGPIO_Open + 36
        0x00000fb8:    2a02        .*      CMP      r2,#2
        0x00000fba:    d117        ..      BNE      0xfec ; DrvGPIO_Open + 84
        0x00000fbc:    6808        .h      LDR      r0,[r1,#0]
        0x00000fbe:    005e        ^.      LSLS     r6,r3,#1
        0x00000fc0:    2503        .%      MOVS     r5,#3
        0x00000fc2:    40b5        .@      LSLS     r5,r5,r6
        0x00000fc4:    43a8        .C      BICS     r0,r0,r5
        0x00000fc6:    6008        .`      STR      r0,[r1,#0]
        0x00000fc8:    2a01        .*      CMP      r2,#1
        0x00000fca:    d106        ..      BNE      0xfda ; DrvGPIO_Open + 66
        0x00000fcc:    6808        .h      LDR      r0,[r1,#0]
        0x00000fce:    005e        ^.      LSLS     r6,r3,#1
        0x00000fd0:    2501        .%      MOVS     r5,#1
        0x00000fd2:    40b5        .@      LSLS     r5,r5,r6
        0x00000fd4:    4328        (C      ORRS     r0,r0,r5
        0x00000fd6:    6008        .`      STR      r0,[r1,#0]
        0x00000fd8:    e013        ..      B        0x1002 ; DrvGPIO_Open + 106
        0x00000fda:    2a02        .*      CMP      r2,#2
        0x00000fdc:    d111        ..      BNE      0x1002 ; DrvGPIO_Open + 106
        0x00000fde:    6808        .h      LDR      r0,[r1,#0]
        0x00000fe0:    005e        ^.      LSLS     r6,r3,#1
        0x00000fe2:    2502        .%      MOVS     r5,#2
        0x00000fe4:    40b5        .@      LSLS     r5,r5,r6
        0x00000fe6:    4328        (C      ORRS     r0,r0,r5
        0x00000fe8:    6008        .`      STR      r0,[r1,#0]
        0x00000fea:    e00a        ..      B        0x1002 ; DrvGPIO_Open + 106
        0x00000fec:    2a03        .*      CMP      r2,#3
        0x00000fee:    d106        ..      BNE      0xffe ; DrvGPIO_Open + 102
        0x00000ff0:    6808        .h      LDR      r0,[r1,#0]
        0x00000ff2:    005e        ^.      LSLS     r6,r3,#1
        0x00000ff4:    2503        .%      MOVS     r5,#3
        0x00000ff6:    40b5        .@      LSLS     r5,r5,r6
        0x00000ff8:    4328        (C      ORRS     r0,r0,r5
        0x00000ffa:    6008        .`      STR      r0,[r1,#0]
        0x00000ffc:    e001        ..      B        0x1002 ; DrvGPIO_Open + 106
        0x00000ffe:    4802        .H      LDR      r0,[pc,#8] ; [0x1008] = 0xffff8901
        0x00001000:    e7d2        ..      B        0xfa8 ; DrvGPIO_Open + 16
        0x00001002:    2000        .       MOVS     r0,#0
        0x00001004:    e7d0        ..      B        0xfa8 ; DrvGPIO_Open + 16
    $d
        0x00001006:    0000        ..      DCW    0
        0x00001008:    ffff8901    ....    DCD    4294936833
        0x0000100c:    50004000    .@.P    DCD    1342193664
    $t
    i.DrvGPIO_SetBit
    DrvGPIO_SetBit
        0x00001010:    b510        ..      PUSH     {r4,lr}
        0x00001012:    4603        .F      MOV      r3,r0
        0x00001014:    2900        .)      CMP      r1,#0
        0x00001016:    db01        ..      BLT      0x101c ; DrvGPIO_SetBit + 12
        0x00001018:    2910        .)      CMP      r1,#0x10
        0x0000101a:    dd01        ..      BLE      0x1020 ; DrvGPIO_SetBit + 16
        0x0000101c:    4805        .H      LDR      r0,[pc,#20] ; [0x1034] = 0xffff8901
        0x0000101e:    bd10        ..      POP      {r4,pc}
        0x00001020:    0198        ..      LSLS     r0,r3,#6
        0x00001022:    4c05        .L      LDR      r4,[pc,#20] ; [0x1038] = 0x50004000
        0x00001024:    1902        ..      ADDS     r2,r0,r4
        0x00001026:    6890        .h      LDR      r0,[r2,#8]
        0x00001028:    2401        .$      MOVS     r4,#1
        0x0000102a:    408c        .@      LSLS     r4,r4,r1
        0x0000102c:    4320         C      ORRS     r0,r0,r4
        0x0000102e:    6090        .`      STR      r0,[r2,#8]
        0x00001030:    2000        .       MOVS     r0,#0
        0x00001032:    e7f4        ..      B        0x101e ; DrvGPIO_SetBit + 14
    $d
        0x00001034:    ffff8901    ....    DCD    4294936833
        0x00001038:    50004000    .@.P    DCD    1342193664
    $t
    i.DrvI2C_Close
    DrvI2C_Close
        0x0000103c:    4601        .F      MOV      r1,r0
        0x0000103e:    2900        .)      CMP      r1,#0
        0x00001040:    d01e        ..      BEQ      0x1080 ; DrvI2C_Close + 68
        0x00001042:    481f        .H      LDR      r0,[pc,#124] ; [0x10c0] = 0x40120000
        0x00001044:    6800        .h      LDR      r0,[r0,#0]
        0x00001046:    2240        @"      MOVS     r2,#0x40
        0x00001048:    4390        .C      BICS     r0,r0,r2
        0x0000104a:    4a1d        .J      LDR      r2,[pc,#116] ; [0x10c0] = 0x40120000
        0x0000104c:    6010        .`      STR      r0,[r2,#0]
        0x0000104e:    2005        .       MOVS     r0,#5
        0x00001050:    0700        ..      LSLS     r0,r0,#28
        0x00001052:    68c0        .h      LDR      r0,[r0,#0xc]
        0x00001054:    1552        R.      ASRS     r2,r2,#21
        0x00001056:    4390        .C      BICS     r0,r0,r2
        0x00001058:    1880        ..      ADDS     r0,r0,r2
        0x0000105a:    2205        ."      MOVS     r2,#5
        0x0000105c:    0712        ..      LSLS     r2,r2,#28
        0x0000105e:    60d0        .`      STR      r0,[r2,#0xc]
        0x00001060:    4610        .F      MOV      r0,r2
        0x00001062:    68c0        .h      LDR      r0,[r0,#0xc]
        0x00001064:    2201        ."      MOVS     r2,#1
        0x00001066:    0252        R.      LSLS     r2,r2,#9
        0x00001068:    4390        .C      BICS     r0,r0,r2
        0x0000106a:    2205        ."      MOVS     r2,#5
        0x0000106c:    0712        ..      LSLS     r2,r2,#28
        0x0000106e:    60d0        .`      STR      r0,[r2,#0xc]
        0x00001070:    4814        .H      LDR      r0,[pc,#80] ; [0x10c4] = 0x50000200
        0x00001072:    6880        .h      LDR      r0,[r0,#8]
        0x00001074:    2201        ."      MOVS     r2,#1
        0x00001076:    0252        R.      LSLS     r2,r2,#9
        0x00001078:    4390        .C      BICS     r0,r0,r2
        0x0000107a:    4a12        .J      LDR      r2,[pc,#72] ; [0x10c4] = 0x50000200
        0x0000107c:    6090        .`      STR      r0,[r2,#8]
        0x0000107e:    e01d        ..      B        0x10bc ; DrvI2C_Close + 128
        0x00001080:    4811        .H      LDR      r0,[pc,#68] ; [0x10c8] = 0x40020000
        0x00001082:    6800        .h      LDR      r0,[r0,#0]
        0x00001084:    2240        @"      MOVS     r2,#0x40
        0x00001086:    4390        .C      BICS     r0,r0,r2
        0x00001088:    4a0f        .J      LDR      r2,[pc,#60] ; [0x10c8] = 0x40020000
        0x0000108a:    6010        .`      STR      r0,[r2,#0]
        0x0000108c:    2005        .       MOVS     r0,#5
        0x0000108e:    0700        ..      LSLS     r0,r0,#28
        0x00001090:    68c0        .h      LDR      r0,[r0,#0xc]
        0x00001092:    1592        ..      ASRS     r2,r2,#22
        0x00001094:    4390        .C      BICS     r0,r0,r2
        0x00001096:    1880        ..      ADDS     r0,r0,r2
        0x00001098:    2205        ."      MOVS     r2,#5
        0x0000109a:    0712        ..      LSLS     r2,r2,#28
        0x0000109c:    60d0        .`      STR      r0,[r2,#0xc]
        0x0000109e:    4610        .F      MOV      r0,r2
        0x000010a0:    68c0        .h      LDR      r0,[r0,#0xc]
        0x000010a2:    22ff        ."      MOVS     r2,#0xff
        0x000010a4:    3201        .2      ADDS     r2,#1
        0x000010a6:    4390        .C      BICS     r0,r0,r2
        0x000010a8:    2205        ."      MOVS     r2,#5
        0x000010aa:    0712        ..      LSLS     r2,r2,#28
        0x000010ac:    60d0        .`      STR      r0,[r2,#0xc]
        0x000010ae:    4805        .H      LDR      r0,[pc,#20] ; [0x10c4] = 0x50000200
        0x000010b0:    6880        .h      LDR      r0,[r0,#8]
        0x000010b2:    22ff        ."      MOVS     r2,#0xff
        0x000010b4:    3201        .2      ADDS     r2,#1
        0x000010b6:    4390        .C      BICS     r0,r0,r2
        0x000010b8:    4a02        .J      LDR      r2,[pc,#8] ; [0x10c4] = 0x50000200
        0x000010ba:    6090        .`      STR      r0,[r2,#8]
        0x000010bc:    2000        .       MOVS     r0,#0
        0x000010be:    4770        pG      BX       lr
    $d
        0x000010c0:    40120000    ...@    DCD    1074921472
        0x000010c4:    50000200    ...P    DCD    1342177792
        0x000010c8:    40020000    ...@    DCD    1073872896
    $t
    i.DrvI2C_Ctrl
    DrvI2C_Ctrl
        0x000010cc:    b5f0        ..      PUSH     {r4-r7,lr}
        0x000010ce:    9c05        ..      LDR      r4,[sp,#0x14]
        0x000010d0:    2500        .%      MOVS     r5,#0
        0x000010d2:    2900        .)      CMP      r1,#0
        0x000010d4:    d001        ..      BEQ      0x10da ; DrvI2C_Ctrl + 14
        0x000010d6:    2620         &      MOVS     r6,#0x20
        0x000010d8:    4335        5C      ORRS     r5,r5,r6
        0x000010da:    2a00        .*      CMP      r2,#0
        0x000010dc:    d001        ..      BEQ      0x10e2 ; DrvI2C_Ctrl + 22
        0x000010de:    2610        .&      MOVS     r6,#0x10
        0x000010e0:    4335        5C      ORRS     r5,r5,r6
        0x000010e2:    2b00        .+      CMP      r3,#0
        0x000010e4:    d001        ..      BEQ      0x10ea ; DrvI2C_Ctrl + 30
        0x000010e6:    2608        .&      MOVS     r6,#8
        0x000010e8:    4335        5C      ORRS     r5,r5,r6
        0x000010ea:    2c00        .,      CMP      r4,#0
        0x000010ec:    d001        ..      BEQ      0x10f2 ; DrvI2C_Ctrl + 38
        0x000010ee:    2604        .&      MOVS     r6,#4
        0x000010f0:    4335        5C      ORRS     r5,r5,r6
        0x000010f2:    2800        .(      CMP      r0,#0
        0x000010f4:    d007        ..      BEQ      0x1106 ; DrvI2C_Ctrl + 58
        0x000010f6:    4e08        .N      LDR      r6,[pc,#32] ; [0x1118] = 0x40120000
        0x000010f8:    6836        6h      LDR      r6,[r6,#0]
        0x000010fa:    273c        <'      MOVS     r7,#0x3c
        0x000010fc:    43be        .C      BICS     r6,r6,r7
        0x000010fe:    432e        .C      ORRS     r6,r6,r5
        0x00001100:    4f05        .O      LDR      r7,[pc,#20] ; [0x1118] = 0x40120000
        0x00001102:    603e        >`      STR      r6,[r7,#0]
        0x00001104:    e006        ..      B        0x1114 ; DrvI2C_Ctrl + 72
        0x00001106:    4e05        .N      LDR      r6,[pc,#20] ; [0x111c] = 0x40020000
        0x00001108:    6836        6h      LDR      r6,[r6,#0]
        0x0000110a:    273c        <'      MOVS     r7,#0x3c
        0x0000110c:    43be        .C      BICS     r6,r6,r7
        0x0000110e:    432e        .C      ORRS     r6,r6,r5
        0x00001110:    4f02        .O      LDR      r7,[pc,#8] ; [0x111c] = 0x40020000
        0x00001112:    603e        >`      STR      r6,[r7,#0]
        0x00001114:    bdf0        ..      POP      {r4-r7,pc}
    $d
        0x00001116:    0000        ..      DCW    0
        0x00001118:    40120000    ...@    DCD    1074921472
        0x0000111c:    40020000    ...@    DCD    1073872896
    $t
    i.DrvI2C_Open
    DrvI2C_Open
        0x00001120:    b5f8        ..      PUSH     {r3-r7,lr}
        0x00001122:    4605        .F      MOV      r5,r0
        0x00001124:    460e        .F      MOV      r6,r1
        0x00001126:    00b1        ..      LSLS     r1,r6,#2
        0x00001128:    4a2d        -J      LDR      r2,[pc,#180] ; [0x11e0] = 0x20000000
        0x0000112a:    6812        .h      LDR      r2,[r2,#0]
        0x0000112c:    230a        .#      MOVS     r3,#0xa
        0x0000112e:    435a        ZC      MULS     r2,r3,r2
        0x00001130:    4610        .F      MOV      r0,r2
        0x00001132:    f7fff96f    ..o.    BL       __aeabi_uidiv ; 0x414
        0x00001136:    1d47        G.      ADDS     r7,r0,#5
        0x00001138:    210a        .!      MOVS     r1,#0xa
        0x0000113a:    4638        8F      MOV      r0,r7
        0x0000113c:    f7fff96a    ..j.    BL       __aeabi_uidiv ; 0x414
        0x00001140:    1e44        D.      SUBS     r4,r0,#1
        0x00001142:    2c04        .,      CMP      r4,#4
        0x00001144:    d200        ..      BCS      0x1148 ; DrvI2C_Open + 40
        0x00001146:    2404        .$      MOVS     r4,#4
        0x00001148:    2d00        .-      CMP      r5,#0
        0x0000114a:    d023        #.      BEQ      0x1194 ; DrvI2C_Open + 116
        0x0000114c:    4825        %H      LDR      r0,[pc,#148] ; [0x11e4] = 0x50000200
        0x0000114e:    6880        .h      LDR      r0,[r0,#8]
        0x00001150:    2101        .!      MOVS     r1,#1
        0x00001152:    0249        I.      LSLS     r1,r1,#9
        0x00001154:    4388        .C      BICS     r0,r0,r1
        0x00001156:    1840        @.      ADDS     r0,r0,r1
        0x00001158:    4922        "I      LDR      r1,[pc,#136] ; [0x11e4] = 0x50000200
        0x0000115a:    6088        .`      STR      r0,[r1,#8]
        0x0000115c:    2005        .       MOVS     r0,#5
        0x0000115e:    0700        ..      LSLS     r0,r0,#28
        0x00001160:    68c0        .h      LDR      r0,[r0,#0xc]
        0x00001162:    2101        .!      MOVS     r1,#1
        0x00001164:    0249        I.      LSLS     r1,r1,#9
        0x00001166:    4388        .C      BICS     r0,r0,r1
        0x00001168:    1840        @.      ADDS     r0,r0,r1
        0x0000116a:    2105        .!      MOVS     r1,#5
        0x0000116c:    0709        ..      LSLS     r1,r1,#28
        0x0000116e:    60c8        .`      STR      r0,[r1,#0xc]
        0x00001170:    4608        .F      MOV      r0,r1
        0x00001172:    68c0        .h      LDR      r0,[r0,#0xc]
        0x00001174:    2101        .!      MOVS     r1,#1
        0x00001176:    0249        I.      LSLS     r1,r1,#9
        0x00001178:    4388        .C      BICS     r0,r0,r1
        0x0000117a:    2105        .!      MOVS     r1,#5
        0x0000117c:    0709        ..      LSLS     r1,r1,#28
        0x0000117e:    60c8        .`      STR      r0,[r1,#0xc]
        0x00001180:    4819        .H      LDR      r0,[pc,#100] ; [0x11e8] = 0x40120000
        0x00001182:    6800        .h      LDR      r0,[r0,#0]
        0x00001184:    2140        @!      MOVS     r1,#0x40
        0x00001186:    4388        .C      BICS     r0,r0,r1
        0x00001188:    3040        @0      ADDS     r0,r0,#0x40
        0x0000118a:    4917        .I      LDR      r1,[pc,#92] ; [0x11e8] = 0x40120000
        0x0000118c:    6008        .`      STR      r0,[r1,#0]
        0x0000118e:    4608        .F      MOV      r0,r1
        0x00001190:    6104        .a      STR      r4,[r0,#0x10]
        0x00001192:    e022        ".      B        0x11da ; DrvI2C_Open + 186
        0x00001194:    4813        .H      LDR      r0,[pc,#76] ; [0x11e4] = 0x50000200
        0x00001196:    6880        .h      LDR      r0,[r0,#8]
        0x00001198:    21ff        .!      MOVS     r1,#0xff
        0x0000119a:    3101        .1      ADDS     r1,#1
        0x0000119c:    4388        .C      BICS     r0,r0,r1
        0x0000119e:    1840        @.      ADDS     r0,r0,r1
        0x000011a0:    4910        .I      LDR      r1,[pc,#64] ; [0x11e4] = 0x50000200
        0x000011a2:    6088        .`      STR      r0,[r1,#8]
        0x000011a4:    2005        .       MOVS     r0,#5
        0x000011a6:    0700        ..      LSLS     r0,r0,#28
        0x000011a8:    68c0        .h      LDR      r0,[r0,#0xc]
        0x000011aa:    21ff        .!      MOVS     r1,#0xff
        0x000011ac:    3101        .1      ADDS     r1,#1
        0x000011ae:    4388        .C      BICS     r0,r0,r1
        0x000011b0:    1840        @.      ADDS     r0,r0,r1
        0x000011b2:    2105        .!      MOVS     r1,#5
        0x000011b4:    0709        ..      LSLS     r1,r1,#28
        0x000011b6:    60c8        .`      STR      r0,[r1,#0xc]
        0x000011b8:    4608        .F      MOV      r0,r1
        0x000011ba:    68c0        .h      LDR      r0,[r0,#0xc]
        0x000011bc:    21ff        .!      MOVS     r1,#0xff
        0x000011be:    3101        .1      ADDS     r1,#1
        0x000011c0:    4388        .C      BICS     r0,r0,r1
        0x000011c2:    2105        .!      MOVS     r1,#5
        0x000011c4:    0709        ..      LSLS     r1,r1,#28
        0x000011c6:    60c8        .`      STR      r0,[r1,#0xc]
        0x000011c8:    4808        .H      LDR      r0,[pc,#32] ; [0x11ec] = 0x40020000
        0x000011ca:    6800        .h      LDR      r0,[r0,#0]
        0x000011cc:    2140        @!      MOVS     r1,#0x40
        0x000011ce:    4388        .C      BICS     r0,r0,r1
        0x000011d0:    3040        @0      ADDS     r0,r0,#0x40
        0x000011d2:    4906        .I      LDR      r1,[pc,#24] ; [0x11ec] = 0x40020000
        0x000011d4:    6008        .`      STR      r0,[r1,#0]
        0x000011d6:    4608        .F      MOV      r0,r1
        0x000011d8:    6104        .a      STR      r4,[r0,#0x10]
        0x000011da:    2000        .       MOVS     r0,#0
        0x000011dc:    bdf8        ..      POP      {r3-r7,pc}
    $d
        0x000011de:    0000        ..      DCW    0
        0x000011e0:    20000000    ...     DCD    536870912
        0x000011e4:    50000200    ...P    DCD    1342177792
        0x000011e8:    40120000    ...@    DCD    1074921472
        0x000011ec:    40020000    ...@    DCD    1073872896
    $t
    i.DrvSYS_Delay
    DrvSYS_Delay
        0x000011f0:    4908        .I      LDR      r1,[pc,#32] ; [0x1214] = 0x20000004
        0x000011f2:    6809        .h      LDR      r1,[r1,#0]
        0x000011f4:    4341        AC      MULS     r1,r0,r1
        0x000011f6:    4a08        .J      LDR      r2,[pc,#32] ; [0x1218] = 0xe000e000
        0x000011f8:    6151        Qa      STR      r1,[r2,#0x14]
        0x000011fa:    2100        .!      MOVS     r1,#0
        0x000011fc:    6191        .a      STR      r1,[r2,#0x18]
        0x000011fe:    2105        .!      MOVS     r1,#5
        0x00001200:    6111        .a      STR      r1,[r2,#0x10]
        0x00001202:    bf00        ..      NOP      
        0x00001204:    4904        .I      LDR      r1,[pc,#16] ; [0x1218] = 0xe000e000
        0x00001206:    6909        .i      LDR      r1,[r1,#0x10]
        0x00001208:    2201        ."      MOVS     r2,#1
        0x0000120a:    0412        ..      LSLS     r2,r2,#16
        0x0000120c:    4211        .B      TST      r1,r2
        0x0000120e:    d0f9        ..      BEQ      0x1204 ; DrvSYS_Delay + 20
        0x00001210:    4770        pG      BX       lr
    $d
        0x00001212:    0000        ..      DCW    0
        0x00001214:    20000004    ...     DCD    536870916
        0x00001218:    e000e000    ....    DCD    3758153728
    $t
    i.DrvSYS_GetExtClockFreq
    DrvSYS_GetExtClockFreq
        0x0000121c:    4800        .H      LDR      r0,[pc,#0] ; [0x1220] = 0xb71b00
        0x0000121e:    4770        pG      BX       lr
    $d
        0x00001220:    00b71b00    ....    DCD    12000000
    $t
    i.DrvSYS_GetHCLKFreq
    DrvSYS_GetHCLKFreq
        0x00001224:    b570        p.      PUSH     {r4-r6,lr}
        0x00001226:    2500        .%      MOVS     r5,#0
        0x00001228:    4815        .H      LDR      r0,[pc,#84] ; [0x1280] = 0x50000200
        0x0000122a:    6900        .i      LDR      r0,[r0,#0x10]
        0x0000122c:    0740        @.      LSLS     r0,r0,#29
        0x0000122e:    0f40        @.      LSRS     r0,r0,#29
        0x00001230:    d101        ..      BNE      0x1236 ; DrvSYS_GetHCLKFreq + 18
        0x00001232:    4d14        .M      LDR      r5,[pc,#80] ; [0x1284] = 0xb71b00
        0x00001234:    e01a        ..      B        0x126c ; DrvSYS_GetHCLKFreq + 72
        0x00001236:    4812        .H      LDR      r0,[pc,#72] ; [0x1280] = 0x50000200
        0x00001238:    6900        .i      LDR      r0,[r0,#0x10]
        0x0000123a:    0740        @.      LSLS     r0,r0,#29
        0x0000123c:    0f40        @.      LSRS     r0,r0,#29
        0x0000123e:    2801        .(      CMP      r0,#1
        0x00001240:    d101        ..      BNE      0x1246 ; DrvSYS_GetHCLKFreq + 34
        0x00001242:    03c5        ..      LSLS     r5,r0,#15
        0x00001244:    e012        ..      B        0x126c ; DrvSYS_GetHCLKFreq + 72
        0x00001246:    480e        .H      LDR      r0,[pc,#56] ; [0x1280] = 0x50000200
        0x00001248:    6900        .i      LDR      r0,[r0,#0x10]
        0x0000124a:    0740        @.      LSLS     r0,r0,#29
        0x0000124c:    0f40        @.      LSRS     r0,r0,#29
        0x0000124e:    2802        .(      CMP      r0,#2
        0x00001250:    d103        ..      BNE      0x125a ; DrvSYS_GetHCLKFreq + 54
        0x00001252:    f000f81d    ....    BL       DrvSYS_GetPLLClockFreq ; 0x1290
        0x00001256:    4605        .F      MOV      r5,r0
        0x00001258:    e008        ..      B        0x126c ; DrvSYS_GetHCLKFreq + 72
        0x0000125a:    4809        .H      LDR      r0,[pc,#36] ; [0x1280] = 0x50000200
        0x0000125c:    6900        .i      LDR      r0,[r0,#0x10]
        0x0000125e:    0740        @.      LSLS     r0,r0,#29
        0x00001260:    0f40        @.      LSRS     r0,r0,#29
        0x00001262:    2803        .(      CMP      r0,#3
        0x00001264:    d101        ..      BNE      0x126a ; DrvSYS_GetHCLKFreq + 70
        0x00001266:    4d08        .M      LDR      r5,[pc,#32] ; [0x1288] = 0x2710
        0x00001268:    e000        ..      B        0x126c ; DrvSYS_GetHCLKFreq + 72
        0x0000126a:    4d08        .M      LDR      r5,[pc,#32] ; [0x128c] = 0x1518000
        0x0000126c:    4804        .H      LDR      r0,[pc,#16] ; [0x1280] = 0x50000200
        0x0000126e:    6980        .i      LDR      r0,[r0,#0x18]
        0x00001270:    0700        ..      LSLS     r0,r0,#28
        0x00001272:    0f00        ..      LSRS     r0,r0,#28
        0x00001274:    1c44        D.      ADDS     r4,r0,#1
        0x00001276:    4621        !F      MOV      r1,r4
        0x00001278:    4628        (F      MOV      r0,r5
        0x0000127a:    f7fff8cb    ....    BL       __aeabi_uidiv ; 0x414
        0x0000127e:    bd70        p.      POP      {r4-r6,pc}
    $d
        0x00001280:    50000200    ...P    DCD    1342177792
        0x00001284:    00b71b00    ....    DCD    12000000
        0x00001288:    00002710    .'..    DCD    10000
        0x0000128c:    01518000    ..Q.    DCD    22118400
    $t
    i.DrvSYS_GetPLLClockFreq
    DrvSYS_GetPLLClockFreq
        0x00001290:    b57f        ..      PUSH     {r0-r6,lr}
        0x00001292:    2500        .%      MOVS     r5,#0
        0x00001294:    4b18        .K      LDR      r3,[pc,#96] ; [0x12f8] = 0x2e2c
        0x00001296:    cb0f        ..      LDM      r3,{r0-r3}
        0x00001298:    466c        lF      MOV      r4,sp
        0x0000129a:    c40f        ..      STM      r4!,{r0-r3}
        0x0000129c:    4817        .H      LDR      r0,[pc,#92] ; [0x12fc] = 0x50000200
        0x0000129e:    6a00        .j      LDR      r0,[r0,#0x20]
        0x000012a0:    0300        ..      LSLS     r0,r0,#12
        0x000012a2:    0fc0        ..      LSRS     r0,r0,#31
        0x000012a4:    2801        .(      CMP      r0,#1
        0x000012a6:    d101        ..      BNE      0x12ac ; DrvSYS_GetPLLClockFreq + 28
        0x000012a8:    4c15        .L      LDR      r4,[pc,#84] ; [0x1300] = 0x1518000
        0x000012aa:    e000        ..      B        0x12ae ; DrvSYS_GetPLLClockFreq + 30
        0x000012ac:    4c15        .L      LDR      r4,[pc,#84] ; [0x1304] = 0xb71b00
        0x000012ae:    4813        .H      LDR      r0,[pc,#76] ; [0x12fc] = 0x50000200
        0x000012b0:    6a00        .j      LDR      r0,[r0,#0x20]
        0x000012b2:    03c0        ..      LSLS     r0,r0,#15
        0x000012b4:    0fc0        ..      LSRS     r0,r0,#31
        0x000012b6:    2801        .(      CMP      r0,#1
        0x000012b8:    d101        ..      BNE      0x12be ; DrvSYS_GetPLLClockFreq + 46
        0x000012ba:    2500        .%      MOVS     r5,#0
        0x000012bc:    e019        ..      B        0x12f2 ; DrvSYS_GetPLLClockFreq + 98
        0x000012be:    4a0f        .J      LDR      r2,[pc,#60] ; [0x12fc] = 0x50000200
        0x000012c0:    6a12        .j      LDR      r2,[r2,#0x20]
        0x000012c2:    0492        ..      LSLS     r2,r2,#18
        0x000012c4:    0ed2        ..      LSRS     r2,r2,#27
        0x000012c6:    1c91        ..      ADDS     r1,r2,#2
        0x000012c8:    4a0c        .J      LDR      r2,[pc,#48] ; [0x12fc] = 0x50000200
        0x000012ca:    6a12        .j      LDR      r2,[r2,#0x20]
        0x000012cc:    05d2        ..      LSLS     r2,r2,#23
        0x000012ce:    0dd2        ..      LSRS     r2,r2,#23
        0x000012d0:    1c92        ..      ADDS     r2,r2,#2
        0x000012d2:    4362        bC      MULS     r2,r4,r2
        0x000012d4:    4610        .F      MOV      r0,r2
        0x000012d6:    f7fff89d    ....    BL       __aeabi_uidiv ; 0x414
        0x000012da:    4606        .F      MOV      r6,r0
        0x000012dc:    4807        .H      LDR      r0,[pc,#28] ; [0x12fc] = 0x50000200
        0x000012de:    6a00        .j      LDR      r0,[r0,#0x20]
        0x000012e0:    0400        ..      LSLS     r0,r0,#16
        0x000012e2:    0f80        ..      LSRS     r0,r0,#30
        0x000012e4:    0080        ..      LSLS     r0,r0,#2
        0x000012e6:    466a        jF      MOV      r2,sp
        0x000012e8:    5811        .X      LDR      r1,[r2,r0]
        0x000012ea:    4630        0F      MOV      r0,r6
        0x000012ec:    f7fff892    ....    BL       __aeabi_uidiv ; 0x414
        0x000012f0:    4605        .F      MOV      r5,r0
        0x000012f2:    4628        (F      MOV      r0,r5
        0x000012f4:    b004        ..      ADD      sp,sp,#0x10
        0x000012f6:    bd70        p.      POP      {r4-r6,pc}
    $d
        0x000012f8:    00002e2c    ,...    DCD    11820
        0x000012fc:    50000200    ...P    DCD    1342177792
        0x00001300:    01518000    ..Q.    DCD    22118400
        0x00001304:    00b71b00    ....    DCD    12000000
    $t
    i.DrvSYS_GetPLLContent
    DrvSYS_GetPLLContent
        0x00001308:    b5f3        ..      PUSH     {r0,r1,r4-r7,lr}
        0x0000130a:    b083        ..      SUB      sp,sp,#0xc
        0x0000130c:    460c        .F      MOV      r4,r1
        0x0000130e:    4827        'H      LDR      r0,[pc,#156] ; [0x13ac] = 0xb71b00
        0x00001310:    9002        ..      STR      r0,[sp,#8]
        0x00001312:    2000        .       MOVS     r0,#0
        0x00001314:    9001        ..      STR      r0,[sp,#4]
        0x00001316:    4826        &H      LDR      r0,[pc,#152] ; [0x13b0] = 0xbebc200
        0x00001318:    4284        .B      CMP      r4,r0
        0x0000131a:    d804        ..      BHI      0x1326 ; DrvSYS_GetPLLContent + 30
        0x0000131c:    1040        @.      ASRS     r0,r0,#1
        0x0000131e:    4284        .B      CMP      r4,r0
        0x00001320:    d901        ..      BLS      0x1326 ; DrvSYS_GetPLLContent + 30
        0x00001322:    2700        .'      MOVS     r7,#0
        0x00001324:    e014        ..      B        0x1350 ; DrvSYS_GetPLLContent + 72
        0x00001326:    4823        #H      LDR      r0,[pc,#140] ; [0x13b4] = 0x5f5e100
        0x00001328:    4284        .B      CMP      r4,r0
        0x0000132a:    d805        ..      BHI      0x1338 ; DrvSYS_GetPLLContent + 48
        0x0000132c:    1040        @.      ASRS     r0,r0,#1
        0x0000132e:    4284        .B      CMP      r4,r0
        0x00001330:    d902        ..      BLS      0x1338 ; DrvSYS_GetPLLContent + 48
        0x00001332:    2701        .'      MOVS     r7,#1
        0x00001334:    0064        d.      LSLS     r4,r4,#1
        0x00001336:    e00b        ..      B        0x1350 ; DrvSYS_GetPLLContent + 72
        0x00001338:    481f        .H      LDR      r0,[pc,#124] ; [0x13b8] = 0x2faf080
        0x0000133a:    4284        .B      CMP      r4,r0
        0x0000133c:    d805        ..      BHI      0x134a ; DrvSYS_GetPLLContent + 66
        0x0000133e:    1040        @.      ASRS     r0,r0,#1
        0x00001340:    4284        .B      CMP      r4,r0
        0x00001342:    d302        ..      BCC      0x134a ; DrvSYS_GetPLLContent + 66
        0x00001344:    2703        .'      MOVS     r7,#3
        0x00001346:    00a4        ..      LSLS     r4,r4,#2
        0x00001348:    e002        ..      B        0x1350 ; DrvSYS_GetPLLContent + 72
        0x0000134a:    481c        .H      LDR      r0,[pc,#112] ; [0x13bc] = 0xc22e
        0x0000134c:    b005        ..      ADD      sp,sp,#0x14
        0x0000134e:    bdf0        ..      POP      {r4-r7,pc}
        0x00001350:    9803        ..      LDR      r0,[sp,#0xc]
        0x00001352:    2800        .(      CMP      r0,#0
        0x00001354:    d102        ..      BNE      0x135c ; DrvSYS_GetPLLContent + 84
        0x00001356:    4815        .H      LDR      r0,[pc,#84] ; [0x13ac] = 0xb71b00
        0x00001358:    9002        ..      STR      r0,[sp,#8]
        0x0000135a:    e004        ..      B        0x1366 ; DrvSYS_GetPLLContent + 94
        0x0000135c:    9803        ..      LDR      r0,[sp,#0xc]
        0x0000135e:    2801        .(      CMP      r0,#1
        0x00001360:    d101        ..      BNE      0x1366 ; DrvSYS_GetPLLContent + 94
        0x00001362:    4817        .H      LDR      r0,[pc,#92] ; [0x13c0] = 0x1518000
        0x00001364:    9002        ..      STR      r0,[sp,#8]
        0x00001366:    4917        .I      LDR      r1,[pc,#92] ; [0x13c4] = 0xf4240
        0x00001368:    4620         F      MOV      r0,r4
        0x0000136a:    f7fff853    ..S.    BL       __aeabi_uidiv ; 0x414
        0x0000136e:    4606        .F      MOV      r6,r0
        0x00001370:    4914        .I      LDR      r1,[pc,#80] ; [0x13c4] = 0xf4240
        0x00001372:    9802        ..      LDR      r0,[sp,#8]
        0x00001374:    f7fff84e    ..N.    BL       __aeabi_uidiv ; 0x414
        0x00001378:    4605        .F      MOV      r5,r0
        0x0000137a:    e00c        ..      B        0x1396 ; DrvSYS_GetPLLContent + 142
        0x0000137c:    07e8        ..      LSLS     r0,r5,#31
        0x0000137e:    0fc0        ..      LSRS     r0,r0,#31
        0x00001380:    d106        ..      BNE      0x1390 ; DrvSYS_GetPLLContent + 136
        0x00001382:    07f0        ..      LSLS     r0,r6,#31
        0x00001384:    0fc0        ..      LSRS     r0,r0,#31
        0x00001386:    d103        ..      BNE      0x1390 ; DrvSYS_GetPLLContent + 136
        0x00001388:    2d02        .-      CMP      r5,#2
        0x0000138a:    d001        ..      BEQ      0x1390 ; DrvSYS_GetPLLContent + 136
        0x0000138c:    2e02        ..      CMP      r6,#2
        0x0000138e:    d100        ..      BNE      0x1392 ; DrvSYS_GetPLLContent + 138
        0x00001390:    e002        ..      B        0x1398 ; DrvSYS_GetPLLContent + 144
        0x00001392:    086d        m.      LSRS     r5,r5,#1
        0x00001394:    0876        v.      LSRS     r6,r6,#1
        0x00001396:    e7f1        ..      B        0x137c ; DrvSYS_GetPLLContent + 116
        0x00001398:    bf00        ..      NOP      
        0x0000139a:    03b8        ..      LSLS     r0,r7,#14
        0x0000139c:    1ea9        ..      SUBS     r1,r5,#2
        0x0000139e:    0249        I.      LSLS     r1,r1,#9
        0x000013a0:    4308        .C      ORRS     r0,r0,r1
        0x000013a2:    1eb1        ..      SUBS     r1,r6,#2
        0x000013a4:    4308        .C      ORRS     r0,r0,r1
        0x000013a6:    9001        ..      STR      r0,[sp,#4]
        0x000013a8:    9801        ..      LDR      r0,[sp,#4]
        0x000013aa:    e7cf        ..      B        0x134c ; DrvSYS_GetPLLContent + 68
    $d
        0x000013ac:    00b71b00    ....    DCD    12000000
        0x000013b0:    0bebc200    ....    DCD    200000000
        0x000013b4:    05f5e100    ....    DCD    100000000
        0x000013b8:    02faf080    ....    DCD    50000000
        0x000013bc:    0000c22e    ....    DCD    49710
        0x000013c0:    01518000    ..Q.    DCD    22118400
        0x000013c4:    000f4240    @B..    DCD    1000000
    $t
    i.DrvSYS_IsProtectedRegLocked
    DrvSYS_IsProtectedRegLocked
        0x000013c8:    4802        .H      LDR      r0,[pc,#8] ; [0x13d4] = 0x50000100
        0x000013ca:    6800        .h      LDR      r0,[r0,#0]
        0x000013cc:    07c0        ..      LSLS     r0,r0,#31
        0x000013ce:    0fc0        ..      LSRS     r0,r0,#31
        0x000013d0:    4770        pG      BX       lr
    $d
        0x000013d2:    0000        ..      DCW    0
        0x000013d4:    50000100    ...P    DCD    1342177536
    $t
    i.DrvSYS_Open
    DrvSYS_Open
        0x000013d8:    b5f8        ..      PUSH     {r3-r7,lr}
        0x000013da:    4605        .F      MOV      r5,r0
        0x000013dc:    2600        .&      MOVS     r6,#0
        0x000013de:    4825        %H      LDR      r0,[pc,#148] ; [0x1474] = 0x2faf080
        0x000013e0:    4285        .B      CMP      r5,r0
        0x000013e2:    d802        ..      BHI      0x13ea ; DrvSYS_Open + 18
        0x000013e4:    1040        @.      ASRS     r0,r0,#1
        0x000013e6:    4285        .B      CMP      r5,r0
        0x000013e8:    d201        ..      BCS      0x13ee ; DrvSYS_Open + 22
        0x000013ea:    4823        #H      LDR      r0,[pc,#140] ; [0x1478] = 0xffff9606
        0x000013ec:    bdf8        ..      POP      {r3-r7,pc}
        0x000013ee:    f7ffffeb    ....    BL       DrvSYS_IsProtectedRegLocked ; 0x13c8
        0x000013f2:    2800        .(      CMP      r0,#0
        0x000013f4:    d102        ..      BNE      0x13fc ; DrvSYS_Open + 36
        0x000013f6:    4820         H      LDR      r0,[pc,#128] ; [0x1478] = 0xffff9606
        0x000013f8:    1c40        @.      ADDS     r0,r0,#1
        0x000013fa:    e7f7        ..      B        0x13ec ; DrvSYS_Open + 20
        0x000013fc:    481f        .H      LDR      r0,[pc,#124] ; [0x147c] = 0x50000200
        0x000013fe:    6a00        .j      LDR      r0,[r0,#0x20]
        0x00001400:    0300        ..      LSLS     r0,r0,#12
        0x00001402:    0fc0        ..      LSRS     r0,r0,#31
        0x00001404:    d108        ..      BNE      0x1418 ; DrvSYS_Open + 64
        0x00001406:    481d        .H      LDR      r0,[pc,#116] ; [0x147c] = 0x50000200
        0x00001408:    6800        .h      LDR      r0,[r0,#0]
        0x0000140a:    0840        @.      LSRS     r0,r0,#1
        0x0000140c:    0040        @.      LSLS     r0,r0,#1
        0x0000140e:    1c40        @.      ADDS     r0,r0,#1
        0x00001410:    491a        .I      LDR      r1,[pc,#104] ; [0x147c] = 0x50000200
        0x00001412:    6008        .`      STR      r0,[r1,#0]
        0x00001414:    2600        .&      MOVS     r6,#0
        0x00001416:    e007        ..      B        0x1428 ; DrvSYS_Open + 80
        0x00001418:    4818        .H      LDR      r0,[pc,#96] ; [0x147c] = 0x50000200
        0x0000141a:    6800        .h      LDR      r0,[r0,#0]
        0x0000141c:    2104        .!      MOVS     r1,#4
        0x0000141e:    4388        .C      BICS     r0,r0,r1
        0x00001420:    1d00        ..      ADDS     r0,r0,#4
        0x00001422:    4916        .I      LDR      r1,[pc,#88] ; [0x147c] = 0x50000200
        0x00001424:    6008        .`      STR      r0,[r1,#0]
        0x00001426:    2601        .&      MOVS     r6,#1
        0x00001428:    4629        )F      MOV      r1,r5
        0x0000142a:    4630        0F      MOV      r0,r6
        0x0000142c:    f7ffff6c    ..l.    BL       DrvSYS_GetPLLContent ; 0x1308
        0x00001430:    4607        .F      MOV      r7,r0
        0x00001432:    2400        .$      MOVS     r4,#0
        0x00001434:    e000        ..      B        0x1438 ; DrvSYS_Open + 96
        0x00001436:    1c64        d.      ADDS     r4,r4,#1
        0x00001438:    4811        .H      LDR      r0,[pc,#68] ; [0x1480] = 0x2710
        0x0000143a:    4284        .B      CMP      r4,r0
        0x0000143c:    d3fb        ..      BCC      0x1436 ; DrvSYS_Open + 94
        0x0000143e:    4638        8F      MOV      r0,r7
        0x00001440:    f000f83c    ..<.    BL       DrvSYS_SetPLLContent ; 0x14bc
        0x00001444:    480d        .H      LDR      r0,[pc,#52] ; [0x147c] = 0x50000200
        0x00001446:    6a00        .j      LDR      r0,[r0,#0x20]
        0x00001448:    2101        .!      MOVS     r1,#1
        0x0000144a:    0489        ..      LSLS     r1,r1,#18
        0x0000144c:    4388        .C      BICS     r0,r0,r1
        0x0000144e:    490b        .I      LDR      r1,[pc,#44] ; [0x147c] = 0x50000200
        0x00001450:    6208        .b      STR      r0,[r1,#0x20]
        0x00001452:    4608        .F      MOV      r0,r1
        0x00001454:    6a00        .j      LDR      r0,[r0,#0x20]
        0x00001456:    01c9        ..      LSLS     r1,r1,#7
        0x00001458:    4388        .C      BICS     r0,r0,r1
        0x0000145a:    4908        .I      LDR      r1,[pc,#32] ; [0x147c] = 0x50000200
        0x0000145c:    6208        .b      STR      r0,[r1,#0x20]
        0x0000145e:    2400        .$      MOVS     r4,#0
        0x00001460:    e000        ..      B        0x1464 ; DrvSYS_Open + 140
        0x00001462:    1c64        d.      ADDS     r4,r4,#1
        0x00001464:    4806        .H      LDR      r0,[pc,#24] ; [0x1480] = 0x2710
        0x00001466:    4284        .B      CMP      r4,r0
        0x00001468:    d3fb        ..      BCC      0x1462 ; DrvSYS_Open + 138
        0x0000146a:    2002        .       MOVS     r0,#2
        0x0000146c:    f000f80a    ....    BL       DrvSYS_SelectHCLKSource ; 0x1484
        0x00001470:    2000        .       MOVS     r0,#0
        0x00001472:    e7bb        ..      B        0x13ec ; DrvSYS_Open + 20
    $d
        0x00001474:    02faf080    ....    DCD    50000000
        0x00001478:    ffff9606    ....    DCD    4294940166
        0x0000147c:    50000200    ...P    DCD    1342177792
        0x00001480:    00002710    .'..    DCD    10000
    $t
    i.DrvSYS_SelectHCLKSource
    DrvSYS_SelectHCLKSource
        0x00001484:    b510        ..      PUSH     {r4,lr}
        0x00001486:    4604        .F      MOV      r4,r0
        0x00001488:    2c07        .,      CMP      r4,#7
        0x0000148a:    dc03        ..      BGT      0x1494 ; DrvSYS_SelectHCLKSource + 16
        0x0000148c:    2c03        .,      CMP      r4,#3
        0x0000148e:    dd03        ..      BLE      0x1498 ; DrvSYS_SelectHCLKSource + 20
        0x00001490:    2c07        .,      CMP      r4,#7
        0x00001492:    da01        ..      BGE      0x1498 ; DrvSYS_SelectHCLKSource + 20
        0x00001494:    4807        .H      LDR      r0,[pc,#28] ; [0x14b4] = 0xffff9603
        0x00001496:    bd10        ..      POP      {r4,pc}
        0x00001498:    4807        .H      LDR      r0,[pc,#28] ; [0x14b8] = 0x50000200
        0x0000149a:    6900        .i      LDR      r0,[r0,#0x10]
        0x0000149c:    08c0        ..      LSRS     r0,r0,#3
        0x0000149e:    00c0        ..      LSLS     r0,r0,#3
        0x000014a0:    0761        a.      LSLS     r1,r4,#29
        0x000014a2:    0f49        I.      LSRS     r1,r1,#29
        0x000014a4:    4308        .C      ORRS     r0,r0,r1
        0x000014a6:    4904        .I      LDR      r1,[pc,#16] ; [0x14b8] = 0x50000200
        0x000014a8:    6108        .a      STR      r0,[r1,#0x10]
        0x000014aa:    f001f853    ..S.    BL       SystemCoreClockUpdate ; 0x2554
        0x000014ae:    2000        .       MOVS     r0,#0
        0x000014b0:    e7f1        ..      B        0x1496 ; DrvSYS_SelectHCLKSource + 18
    $d
        0x000014b2:    0000        ..      DCW    0
        0x000014b4:    ffff9603    ....    DCD    4294940163
        0x000014b8:    50000200    ...P    DCD    1342177792
    $t
    i.DrvSYS_SetPLLContent
    DrvSYS_SetPLLContent
        0x000014bc:    4911        .I      LDR      r1,[pc,#68] ; [0x1504] = 0x50000200
        0x000014be:    6a09        .j      LDR      r1,[r1,#0x20]
        0x000014c0:    0a49        I.      LSRS     r1,r1,#9
        0x000014c2:    0249        I.      LSLS     r1,r1,#9
        0x000014c4:    05c2        ..      LSLS     r2,r0,#23
        0x000014c6:    0dd2        ..      LSRS     r2,r2,#23
        0x000014c8:    4311        .C      ORRS     r1,r1,r2
        0x000014ca:    4a0e        .J      LDR      r2,[pc,#56] ; [0x1504] = 0x50000200
        0x000014cc:    6211        .b      STR      r1,[r2,#0x20]
        0x000014ce:    4611        .F      MOV      r1,r2
        0x000014d0:    6a09        .j      LDR      r1,[r1,#0x20]
        0x000014d2:    221f        ."      MOVS     r2,#0x1f
        0x000014d4:    0252        R.      LSLS     r2,r2,#9
        0x000014d6:    4391        .C      BICS     r1,r1,r2
        0x000014d8:    0a42        B.      LSRS     r2,r0,#9
        0x000014da:    0252        R.      LSLS     r2,r2,#9
        0x000014dc:    231f        .#      MOVS     r3,#0x1f
        0x000014de:    025b        [.      LSLS     r3,r3,#9
        0x000014e0:    401a        .@      ANDS     r2,r2,r3
        0x000014e2:    4311        .C      ORRS     r1,r1,r2
        0x000014e4:    4a07        .J      LDR      r2,[pc,#28] ; [0x1504] = 0x50000200
        0x000014e6:    6211        .b      STR      r1,[r2,#0x20]
        0x000014e8:    4611        .F      MOV      r1,r2
        0x000014ea:    6a09        .j      LDR      r1,[r1,#0x20]
        0x000014ec:    2203        ."      MOVS     r2,#3
        0x000014ee:    0392        ..      LSLS     r2,r2,#14
        0x000014f0:    4391        .C      BICS     r1,r1,r2
        0x000014f2:    0b82        ..      LSRS     r2,r0,#14
        0x000014f4:    0392        ..      LSLS     r2,r2,#14
        0x000014f6:    2303        .#      MOVS     r3,#3
        0x000014f8:    039b        ..      LSLS     r3,r3,#14
        0x000014fa:    401a        .@      ANDS     r2,r2,r3
        0x000014fc:    4311        .C      ORRS     r1,r1,r2
        0x000014fe:    4a01        .J      LDR      r2,[pc,#4] ; [0x1504] = 0x50000200
        0x00001500:    6211        .b      STR      r1,[r2,#0x20]
        0x00001502:    4770        pG      BX       lr
    $d
        0x00001504:    50000200    ...P    DCD    1342177792
    $t
    i.DrvUART_EnableInt
    DrvUART_EnableInt
        0x00001508:    b5f8        ..      PUSH     {r3-r7,lr}
        0x0000150a:    4606        .F      MOV      r6,r0
        0x0000150c:    460d        .F      MOV      r5,r1
        0x0000150e:    4617        .F      MOV      r7,r2
        0x00001510:    4839        9H      LDR      r0,[pc,#228] ; [0x15f8] = 0x40050000
        0x00001512:    1834        4.      ADDS     r4,r6,r0
        0x00001514:    6860        `h      LDR      r0,[r4,#4]
        0x00001516:    0840        @.      LSRS     r0,r0,#1
        0x00001518:    0040        @.      LSLS     r0,r0,#1
        0x0000151a:    07e9        ..      LSLS     r1,r5,#31
        0x0000151c:    0fc9        ..      LSRS     r1,r1,#31
        0x0000151e:    4308        .C      ORRS     r0,r0,r1
        0x00001520:    6060        ``      STR      r0,[r4,#4]
        0x00001522:    6860        `h      LDR      r0,[r4,#4]
        0x00001524:    2102        .!      MOVS     r1,#2
        0x00001526:    4388        .C      BICS     r0,r0,r1
        0x00001528:    4029        )@      ANDS     r1,r1,r5
        0x0000152a:    0849        I.      LSRS     r1,r1,#1
        0x0000152c:    0049        I.      LSLS     r1,r1,#1
        0x0000152e:    2202        ."      MOVS     r2,#2
        0x00001530:    4011        .@      ANDS     r1,r1,r2
        0x00001532:    4308        .C      ORRS     r0,r0,r1
        0x00001534:    6060        ``      STR      r0,[r4,#4]
        0x00001536:    6860        `h      LDR      r0,[r4,#4]
        0x00001538:    2104        .!      MOVS     r1,#4
        0x0000153a:    4388        .C      BICS     r0,r0,r1
        0x0000153c:    4029        )@      ANDS     r1,r1,r5
        0x0000153e:    0889        ..      LSRS     r1,r1,#2
        0x00001540:    0089        ..      LSLS     r1,r1,#2
        0x00001542:    2204        ."      MOVS     r2,#4
        0x00001544:    4011        .@      ANDS     r1,r1,r2
        0x00001546:    4308        .C      ORRS     r0,r0,r1
        0x00001548:    6060        ``      STR      r0,[r4,#4]
        0x0000154a:    6860        `h      LDR      r0,[r4,#4]
        0x0000154c:    2108        .!      MOVS     r1,#8
        0x0000154e:    4388        .C      BICS     r0,r0,r1
        0x00001550:    4029        )@      ANDS     r1,r1,r5
        0x00001552:    08c9        ..      LSRS     r1,r1,#3
        0x00001554:    00c9        ..      LSLS     r1,r1,#3
        0x00001556:    2208        ."      MOVS     r2,#8
        0x00001558:    4011        .@      ANDS     r1,r1,r2
        0x0000155a:    4308        .C      ORRS     r0,r0,r1
        0x0000155c:    6060        ``      STR      r0,[r4,#4]
        0x0000155e:    6860        `h      LDR      r0,[r4,#4]
        0x00001560:    0211        ..      LSLS     r1,r2,#8
        0x00001562:    4388        .C      BICS     r0,r0,r1
        0x00001564:    2110        .!      MOVS     r1,#0x10
        0x00001566:    4029        )@      ANDS     r1,r1,r5
        0x00001568:    0909        ..      LSRS     r1,r1,#4
        0x0000156a:    02c9        ..      LSLS     r1,r1,#11
        0x0000156c:    0212        ..      LSLS     r2,r2,#8
        0x0000156e:    4011        .@      ANDS     r1,r1,r2
        0x00001570:    4308        .C      ORRS     r0,r0,r1
        0x00001572:    6060        ``      STR      r0,[r4,#4]
        0x00001574:    6860        `h      LDR      r0,[r4,#4]
        0x00001576:    2110        .!      MOVS     r1,#0x10
        0x00001578:    4388        .C      BICS     r0,r0,r1
        0x0000157a:    4029        )@      ANDS     r1,r1,r5
        0x0000157c:    0909        ..      LSRS     r1,r1,#4
        0x0000157e:    0109        ..      LSLS     r1,r1,#4
        0x00001580:    2210        ."      MOVS     r2,#0x10
        0x00001582:    4011        .@      ANDS     r1,r1,r2
        0x00001584:    4308        .C      ORRS     r0,r0,r1
        0x00001586:    6060        ``      STR      r0,[r4,#4]
        0x00001588:    6860        `h      LDR      r0,[r4,#4]
        0x0000158a:    2120         !      MOVS     r1,#0x20
        0x0000158c:    4388        .C      BICS     r0,r0,r1
        0x0000158e:    4029        )@      ANDS     r1,r1,r5
        0x00001590:    0949        I.      LSRS     r1,r1,#5
        0x00001592:    0149        I.      LSLS     r1,r1,#5
        0x00001594:    2220         "      MOVS     r2,#0x20
        0x00001596:    4011        .@      ANDS     r1,r1,r2
        0x00001598:    4308        .C      ORRS     r0,r0,r1
        0x0000159a:    6060        ``      STR      r0,[r4,#4]
        0x0000159c:    6860        `h      LDR      r0,[r4,#4]
        0x0000159e:    2140        @!      MOVS     r1,#0x40
        0x000015a0:    4388        .C      BICS     r0,r0,r1
        0x000015a2:    2180        .!      MOVS     r1,#0x80
        0x000015a4:    4029        )@      ANDS     r1,r1,r5
        0x000015a6:    09c9        ..      LSRS     r1,r1,#7
        0x000015a8:    0189        ..      LSLS     r1,r1,#6
        0x000015aa:    2240        @"      MOVS     r2,#0x40
        0x000015ac:    4011        .@      ANDS     r1,r1,r2
        0x000015ae:    4308        .C      ORRS     r0,r0,r1
        0x000015b0:    6060        ``      STR      r0,[r4,#4]
        0x000015b2:    6860        `h      LDR      r0,[r4,#4]
        0x000015b4:    0091        ..      LSLS     r1,r2,#2
        0x000015b6:    4388        .C      BICS     r0,r0,r1
        0x000015b8:    4029        )@      ANDS     r1,r1,r5
        0x000015ba:    0a09        ..      LSRS     r1,r1,#8
        0x000015bc:    0209        ..      LSLS     r1,r1,#8
        0x000015be:    0092        ..      LSLS     r2,r2,#2
        0x000015c0:    4011        .@      ANDS     r1,r1,r2
        0x000015c2:    4308        .C      ORRS     r0,r0,r1
        0x000015c4:    6060        ``      STR      r0,[r4,#4]
        0x000015c6:    2e00        ..      CMP      r6,#0
        0x000015c8:    d105        ..      BNE      0x15d6 ; DrvUART_EnableInt + 206
        0x000015ca:    480c        .H      LDR      r0,[pc,#48] ; [0x15fc] = 0x20000678
        0x000015cc:    6007        .`      STR      r7,[r0,#0]
        0x000015ce:    200c        .       MOVS     r0,#0xc
        0x000015d0:    f000fd4c    ..L.    BL       NVIC_EnableIRQ ; 0x206c
        0x000015d4:    e00e        ..      B        0x15f4 ; DrvUART_EnableInt + 236
        0x000015d6:    2001        .       MOVS     r0,#1
        0x000015d8:    0500        ..      LSLS     r0,r0,#20
        0x000015da:    4286        .B      CMP      r6,r0
        0x000015dc:    d105        ..      BNE      0x15ea ; DrvUART_EnableInt + 226
        0x000015de:    4808        .H      LDR      r0,[pc,#32] ; [0x1600] = 0x2000067c
        0x000015e0:    6007        .`      STR      r7,[r0,#0]
        0x000015e2:    200d        .       MOVS     r0,#0xd
        0x000015e4:    f000fd42    ..B.    BL       NVIC_EnableIRQ ; 0x206c
        0x000015e8:    e004        ..      B        0x15f4 ; DrvUART_EnableInt + 236
        0x000015ea:    4806        .H      LDR      r0,[pc,#24] ; [0x1604] = 0x20000680
        0x000015ec:    6007        .`      STR      r7,[r0,#0]
        0x000015ee:    200c        .       MOVS     r0,#0xc
        0x000015f0:    f000fd3c    ..<.    BL       NVIC_EnableIRQ ; 0x206c
        0x000015f4:    bdf8        ..      POP      {r3-r7,pc}
    $d
        0x000015f6:    0000        ..      DCW    0
        0x000015f8:    40050000    ...@    DCD    1074069504
        0x000015fc:    20000678    x..     DCD    536872568
        0x00001600:    2000067c    |..     DCD    536872572
        0x00001604:    20000680    ...     DCD    536872576
    $t
    i.DrvUART_Open
    DrvUART_Open
        0x00001608:    b5f8        ..      PUSH     {r3-r7,lr}
        0x0000160a:    4606        .F      MOV      r6,r0
        0x0000160c:    460c        .F      MOV      r4,r1
        0x0000160e:    2e00        ..      CMP      r6,#0
        0x00001610:    d009        ..      BEQ      0x1626 ; DrvUART_Open + 30
        0x00001612:    2001        .       MOVS     r0,#1
        0x00001614:    0500        ..      LSLS     r0,r0,#20
        0x00001616:    4286        .B      CMP      r6,r0
        0x00001618:    d005        ..      BEQ      0x1626 ; DrvUART_Open + 30
        0x0000161a:    2041        A       MOVS     r0,#0x41
        0x0000161c:    0380        ..      LSLS     r0,r0,#14
        0x0000161e:    4286        .B      CMP      r6,r0
        0x00001620:    d001        ..      BEQ      0x1626 ; DrvUART_Open + 30
        0x00001622:    488f        .H      LDR      r0,[pc,#572] ; [0x1860] = 0xffff9802
        0x00001624:    bdf8        ..      POP      {r3-r7,pc}
        0x00001626:    79a0        .y      LDRB     r0,[r4,#6]
        0x00001628:    2800        .(      CMP      r0,#0
        0x0000162a:    d00e        ..      BEQ      0x164a ; DrvUART_Open + 66
        0x0000162c:    79a0        .y      LDRB     r0,[r4,#6]
        0x0000162e:    2803        .(      CMP      r0,#3
        0x00001630:    d00b        ..      BEQ      0x164a ; DrvUART_Open + 66
        0x00001632:    79a0        .y      LDRB     r0,[r4,#6]
        0x00001634:    2801        .(      CMP      r0,#1
        0x00001636:    d008        ..      BEQ      0x164a ; DrvUART_Open + 66
        0x00001638:    79a0        .y      LDRB     r0,[r4,#6]
        0x0000163a:    2805        .(      CMP      r0,#5
        0x0000163c:    d005        ..      BEQ      0x164a ; DrvUART_Open + 66
        0x0000163e:    79a0        .y      LDRB     r0,[r4,#6]
        0x00001640:    2807        .(      CMP      r0,#7
        0x00001642:    d002        ..      BEQ      0x164a ; DrvUART_Open + 66
        0x00001644:    4886        .H      LDR      r0,[pc,#536] ; [0x1860] = 0xffff9802
        0x00001646:    1c40        @.      ADDS     r0,r0,#1
        0x00001648:    e7ec        ..      B        0x1624 ; DrvUART_Open + 28
        0x0000164a:    7920         y      LDRB     r0,[r4,#4]
        0x0000164c:    2800        .(      CMP      r0,#0
        0x0000164e:    d00b        ..      BEQ      0x1668 ; DrvUART_Open + 96
        0x00001650:    7920         y      LDRB     r0,[r4,#4]
        0x00001652:    2801        .(      CMP      r0,#1
        0x00001654:    d008        ..      BEQ      0x1668 ; DrvUART_Open + 96
        0x00001656:    7920         y      LDRB     r0,[r4,#4]
        0x00001658:    2802        .(      CMP      r0,#2
        0x0000165a:    d005        ..      BEQ      0x1668 ; DrvUART_Open + 96
        0x0000165c:    7920         y      LDRB     r0,[r4,#4]
        0x0000165e:    2803        .(      CMP      r0,#3
        0x00001660:    d002        ..      BEQ      0x1668 ; DrvUART_Open + 96
        0x00001662:    487f        .H      LDR      r0,[pc,#508] ; [0x1860] = 0xffff9802
        0x00001664:    1c80        ..      ADDS     r0,r0,#2
        0x00001666:    e7dd        ..      B        0x1624 ; DrvUART_Open + 28
        0x00001668:    7960        `y      LDRB     r0,[r4,#5]
        0x0000166a:    2800        .(      CMP      r0,#0
        0x0000166c:    d008        ..      BEQ      0x1680 ; DrvUART_Open + 120
        0x0000166e:    7960        `y      LDRB     r0,[r4,#5]
        0x00001670:    2801        .(      CMP      r0,#1
        0x00001672:    d005        ..      BEQ      0x1680 ; DrvUART_Open + 120
        0x00001674:    7960        `y      LDRB     r0,[r4,#5]
        0x00001676:    2801        .(      CMP      r0,#1
        0x00001678:    d002        ..      BEQ      0x1680 ; DrvUART_Open + 120
        0x0000167a:    4879        yH      LDR      r0,[pc,#484] ; [0x1860] = 0xffff9802
        0x0000167c:    1cc0        ..      ADDS     r0,r0,#3
        0x0000167e:    e7d1        ..      B        0x1624 ; DrvUART_Open + 28
        0x00001680:    79e0        .y      LDRB     r0,[r4,#7]
        0x00001682:    2800        .(      CMP      r0,#0
        0x00001684:    d014        ..      BEQ      0x16b0 ; DrvUART_Open + 168
        0x00001686:    79e0        .y      LDRB     r0,[r4,#7]
        0x00001688:    2801        .(      CMP      r0,#1
        0x0000168a:    d011        ..      BEQ      0x16b0 ; DrvUART_Open + 168
        0x0000168c:    79e0        .y      LDRB     r0,[r4,#7]
        0x0000168e:    2802        .(      CMP      r0,#2
        0x00001690:    d00e        ..      BEQ      0x16b0 ; DrvUART_Open + 168
        0x00001692:    79e0        .y      LDRB     r0,[r4,#7]
        0x00001694:    2803        .(      CMP      r0,#3
        0x00001696:    d00b        ..      BEQ      0x16b0 ; DrvUART_Open + 168
        0x00001698:    79e0        .y      LDRB     r0,[r4,#7]
        0x0000169a:    2804        .(      CMP      r0,#4
        0x0000169c:    d008        ..      BEQ      0x16b0 ; DrvUART_Open + 168
        0x0000169e:    79e0        .y      LDRB     r0,[r4,#7]
        0x000016a0:    2805        .(      CMP      r0,#5
        0x000016a2:    d005        ..      BEQ      0x16b0 ; DrvUART_Open + 168
        0x000016a4:    79e0        .y      LDRB     r0,[r4,#7]
        0x000016a6:    2806        .(      CMP      r0,#6
        0x000016a8:    d002        ..      BEQ      0x16b0 ; DrvUART_Open + 168
        0x000016aa:    486d        mH      LDR      r0,[pc,#436] ; [0x1860] = 0xffff9802
        0x000016ac:    1d00        ..      ADDS     r0,r0,#4
        0x000016ae:    e7b9        ..      B        0x1624 ; DrvUART_Open + 28
        0x000016b0:    2e00        ..      CMP      r6,#0
        0x000016b2:    d11a        ..      BNE      0x16ea ; DrvUART_Open + 226
        0x000016b4:    2005        .       MOVS     r0,#5
        0x000016b6:    0700        ..      LSLS     r0,r0,#28
        0x000016b8:    68c0        .h      LDR      r0,[r0,#0xc]
        0x000016ba:    2101        .!      MOVS     r1,#1
        0x000016bc:    0409        ..      LSLS     r1,r1,#16
        0x000016be:    4388        .C      BICS     r0,r0,r1
        0x000016c0:    1840        @.      ADDS     r0,r0,r1
        0x000016c2:    2105        .!      MOVS     r1,#5
        0x000016c4:    0709        ..      LSLS     r1,r1,#28
        0x000016c6:    60c8        .`      STR      r0,[r1,#0xc]
        0x000016c8:    4608        .F      MOV      r0,r1
        0x000016ca:    68c0        .h      LDR      r0,[r0,#0xc]
        0x000016cc:    2101        .!      MOVS     r1,#1
        0x000016ce:    0409        ..      LSLS     r1,r1,#16
        0x000016d0:    4388        .C      BICS     r0,r0,r1
        0x000016d2:    2105        .!      MOVS     r1,#5
        0x000016d4:    0709        ..      LSLS     r1,r1,#28
        0x000016d6:    60c8        .`      STR      r0,[r1,#0xc]
        0x000016d8:    4862        bH      LDR      r0,[pc,#392] ; [0x1864] = 0x50000200
        0x000016da:    6880        .h      LDR      r0,[r0,#8]
        0x000016dc:    2101        .!      MOVS     r1,#1
        0x000016de:    0409        ..      LSLS     r1,r1,#16
        0x000016e0:    4388        .C      BICS     r0,r0,r1
        0x000016e2:    1840        @.      ADDS     r0,r0,r1
        0x000016e4:    495f        _I      LDR      r1,[pc,#380] ; [0x1864] = 0x50000200
        0x000016e6:    6088        .`      STR      r0,[r1,#8]
        0x000016e8:    e035        5.      B        0x1756 ; DrvUART_Open + 334
        0x000016ea:    2001        .       MOVS     r0,#1
        0x000016ec:    0500        ..      LSLS     r0,r0,#20
        0x000016ee:    4286        .B      CMP      r6,r0
        0x000016f0:    d117        ..      BNE      0x1722 ; DrvUART_Open + 282
        0x000016f2:    2005        .       MOVS     r0,#5
        0x000016f4:    0700        ..      LSLS     r0,r0,#28
        0x000016f6:    68c0        .h      LDR      r0,[r0,#0xc]
        0x000016f8:    10f1        ..      ASRS     r1,r6,#3
        0x000016fa:    4388        .C      BICS     r0,r0,r1
        0x000016fc:    1840        @.      ADDS     r0,r0,r1
        0x000016fe:    2105        .!      MOVS     r1,#5
        0x00001700:    0709        ..      LSLS     r1,r1,#28
        0x00001702:    60c8        .`      STR      r0,[r1,#0xc]
        0x00001704:    4608        .F      MOV      r0,r1
        0x00001706:    68c0        .h      LDR      r0,[r0,#0xc]
        0x00001708:    10f1        ..      ASRS     r1,r6,#3
        0x0000170a:    4388        .C      BICS     r0,r0,r1
        0x0000170c:    2105        .!      MOVS     r1,#5
        0x0000170e:    0709        ..      LSLS     r1,r1,#28
        0x00001710:    60c8        .`      STR      r0,[r1,#0xc]
        0x00001712:    4854        TH      LDR      r0,[pc,#336] ; [0x1864] = 0x50000200
        0x00001714:    6880        .h      LDR      r0,[r0,#8]
        0x00001716:    10f1        ..      ASRS     r1,r6,#3
        0x00001718:    4388        .C      BICS     r0,r0,r1
        0x0000171a:    1840        @.      ADDS     r0,r0,r1
        0x0000171c:    4951        QI      LDR      r1,[pc,#324] ; [0x1864] = 0x50000200
        0x0000171e:    6088        .`      STR      r0,[r1,#8]
        0x00001720:    e019        ..      B        0x1756 ; DrvUART_Open + 334
        0x00001722:    2005        .       MOVS     r0,#5
        0x00001724:    0700        ..      LSLS     r0,r0,#28
        0x00001726:    68c0        .h      LDR      r0,[r0,#0xc]
        0x00001728:    2101        .!      MOVS     r1,#1
        0x0000172a:    0489        ..      LSLS     r1,r1,#18
        0x0000172c:    4388        .C      BICS     r0,r0,r1
        0x0000172e:    1840        @.      ADDS     r0,r0,r1
        0x00001730:    2105        .!      MOVS     r1,#5
        0x00001732:    0709        ..      LSLS     r1,r1,#28
        0x00001734:    60c8        .`      STR      r0,[r1,#0xc]
        0x00001736:    4608        .F      MOV      r0,r1
        0x00001738:    68c0        .h      LDR      r0,[r0,#0xc]
        0x0000173a:    2101        .!      MOVS     r1,#1
        0x0000173c:    0489        ..      LSLS     r1,r1,#18
        0x0000173e:    4388        .C      BICS     r0,r0,r1
        0x00001740:    2105        .!      MOVS     r1,#5
        0x00001742:    0709        ..      LSLS     r1,r1,#28
        0x00001744:    60c8        .`      STR      r0,[r1,#0xc]
        0x00001746:    4847        GH      LDR      r0,[pc,#284] ; [0x1864] = 0x50000200
        0x00001748:    6880        .h      LDR      r0,[r0,#8]
        0x0000174a:    2101        .!      MOVS     r1,#1
        0x0000174c:    0489        ..      LSLS     r1,r1,#18
        0x0000174e:    4388        .C      BICS     r0,r0,r1
        0x00001750:    1840        @.      ADDS     r0,r0,r1
        0x00001752:    4944        DI      LDR      r1,[pc,#272] ; [0x1864] = 0x50000200
        0x00001754:    6088        .`      STR      r0,[r1,#8]
        0x00001756:    4844        DH      LDR      r0,[pc,#272] ; [0x1868] = 0x40050000
        0x00001758:    1835        5.      ADDS     r5,r6,r0
        0x0000175a:    68a8        .h      LDR      r0,[r5,#8]
        0x0000175c:    2104        .!      MOVS     r1,#4
        0x0000175e:    4388        .C      BICS     r0,r0,r1
        0x00001760:    1d00        ..      ADDS     r0,r0,#4
        0x00001762:    60a8        .`      STR      r0,[r5,#8]
        0x00001764:    68a8        .h      LDR      r0,[r5,#8]
        0x00001766:    2102        .!      MOVS     r1,#2
        0x00001768:    4388        .C      BICS     r0,r0,r1
        0x0000176a:    1c80        ..      ADDS     r0,r0,#2
        0x0000176c:    60a8        .`      STR      r0,[r5,#8]
        0x0000176e:    68a8        .h      LDR      r0,[r5,#8]
        0x00001770:    21f0        .!      MOVS     r1,#0xf0
        0x00001772:    4388        .C      BICS     r0,r0,r1
        0x00001774:    79e1        .y      LDRB     r1,[r4,#7]
        0x00001776:    0109        ..      LSLS     r1,r1,#4
        0x00001778:    22f0        ."      MOVS     r2,#0xf0
        0x0000177a:    4011        .@      ANDS     r1,r1,r2
        0x0000177c:    4308        .C      ORRS     r0,r0,r1
        0x0000177e:    60a8        .`      STR      r0,[r5,#8]
        0x00001780:    68e8        .h      LDR      r0,[r5,#0xc]
        0x00001782:    2120         !      MOVS     r1,#0x20
        0x00001784:    4388        .C      BICS     r0,r0,r1
        0x00001786:    79a1        .y      LDRB     r1,[r4,#6]
        0x00001788:    2204        ."      MOVS     r2,#4
        0x0000178a:    4011        .@      ANDS     r1,r1,r2
        0x0000178c:    0889        ..      LSRS     r1,r1,#2
        0x0000178e:    0149        I.      LSLS     r1,r1,#5
        0x00001790:    2220         "      MOVS     r2,#0x20
        0x00001792:    4011        .@      ANDS     r1,r1,r2
        0x00001794:    4308        .C      ORRS     r0,r0,r1
        0x00001796:    60e8        .`      STR      r0,[r5,#0xc]
        0x00001798:    68e8        .h      LDR      r0,[r5,#0xc]
        0x0000179a:    2110        .!      MOVS     r1,#0x10
        0x0000179c:    4388        .C      BICS     r0,r0,r1
        0x0000179e:    79a1        .y      LDRB     r1,[r4,#6]
        0x000017a0:    2202        ."      MOVS     r2,#2
        0x000017a2:    4011        .@      ANDS     r1,r1,r2
        0x000017a4:    0849        I.      LSRS     r1,r1,#1
        0x000017a6:    0109        ..      LSLS     r1,r1,#4
        0x000017a8:    2210        ."      MOVS     r2,#0x10
        0x000017aa:    4011        .@      ANDS     r1,r1,r2
        0x000017ac:    4308        .C      ORRS     r0,r0,r1
        0x000017ae:    60e8        .`      STR      r0,[r5,#0xc]
        0x000017b0:    68e8        .h      LDR      r0,[r5,#0xc]
        0x000017b2:    2108        .!      MOVS     r1,#8
        0x000017b4:    4388        .C      BICS     r0,r0,r1
        0x000017b6:    79a1        .y      LDRB     r1,[r4,#6]
        0x000017b8:    00c9        ..      LSLS     r1,r1,#3
        0x000017ba:    2208        ."      MOVS     r2,#8
        0x000017bc:    4011        .@      ANDS     r1,r1,r2
        0x000017be:    4308        .C      ORRS     r0,r0,r1
        0x000017c0:    60e8        .`      STR      r0,[r5,#0xc]
        0x000017c2:    68e8        .h      LDR      r0,[r5,#0xc]
        0x000017c4:    0880        ..      LSRS     r0,r0,#2
        0x000017c6:    0080        ..      LSLS     r0,r0,#2
        0x000017c8:    7921        !y      LDRB     r1,[r4,#4]
        0x000017ca:    0789        ..      LSLS     r1,r1,#30
        0x000017cc:    0f89        ..      LSRS     r1,r1,#30
        0x000017ce:    4308        .C      ORRS     r0,r0,r1
        0x000017d0:    60e8        .`      STR      r0,[r5,#0xc]
        0x000017d2:    68e8        .h      LDR      r0,[r5,#0xc]
        0x000017d4:    2104        .!      MOVS     r1,#4
        0x000017d6:    4388        .C      BICS     r0,r0,r1
        0x000017d8:    7961        ay      LDRB     r1,[r4,#5]
        0x000017da:    0089        ..      LSLS     r1,r1,#2
        0x000017dc:    2204        ."      MOVS     r2,#4
        0x000017de:    4011        .@      ANDS     r1,r1,r2
        0x000017e0:    4308        .C      ORRS     r0,r0,r1
        0x000017e2:    60e8        .`      STR      r0,[r5,#0xc]
        0x000017e4:    6a28        (j      LDR      r0,[r5,#0x20]
        0x000017e6:    0a00        ..      LSRS     r0,r0,#8
        0x000017e8:    0200        ..      LSLS     r0,r0,#8
        0x000017ea:    7a21        !z      LDRB     r1,[r4,#8]
        0x000017ec:    4308        .C      ORRS     r0,r0,r1
        0x000017ee:    6228        (b      STR      r0,[r5,#0x20]
        0x000017f0:    481c        .H      LDR      r0,[pc,#112] ; [0x1864] = 0x50000200
        0x000017f2:    6800        .h      LDR      r0,[r0,#0]
        0x000017f4:    07c0        ..      LSLS     r0,r0,#31
        0x000017f6:    0fc0        ..      LSRS     r0,r0,#31
        0x000017f8:    d007        ..      BEQ      0x180a ; DrvUART_Open + 514
        0x000017fa:    481a        .H      LDR      r0,[pc,#104] ; [0x1864] = 0x50000200
        0x000017fc:    6940        @i      LDR      r0,[r0,#0x14]
        0x000017fe:    2103        .!      MOVS     r1,#3
        0x00001800:    0609        ..      LSLS     r1,r1,#24
        0x00001802:    4388        .C      BICS     r0,r0,r1
        0x00001804:    4917        .I      LDR      r1,[pc,#92] ; [0x1864] = 0x50000200
        0x00001806:    6148        Ha      STR      r0,[r1,#0x14]
        0x00001808:    e020         .      B        0x184c ; DrvUART_Open + 580
        0x0000180a:    4816        .H      LDR      r0,[pc,#88] ; [0x1864] = 0x50000200
        0x0000180c:    6a00        .j      LDR      r0,[r0,#0x20]
        0x0000180e:    03c0        ..      LSLS     r0,r0,#15
        0x00001810:    0fc0        ..      LSRS     r0,r0,#31
        0x00001812:    d10a        ..      BNE      0x182a ; DrvUART_Open + 546
        0x00001814:    4813        .H      LDR      r0,[pc,#76] ; [0x1864] = 0x50000200
        0x00001816:    6940        @i      LDR      r0,[r0,#0x14]
        0x00001818:    2103        .!      MOVS     r1,#3
        0x0000181a:    0609        ..      LSLS     r1,r1,#24
        0x0000181c:    4388        .C      BICS     r0,r0,r1
        0x0000181e:    2101        .!      MOVS     r1,#1
        0x00001820:    0609        ..      LSLS     r1,r1,#24
        0x00001822:    1840        @.      ADDS     r0,r0,r1
        0x00001824:    490f        .I      LDR      r1,[pc,#60] ; [0x1864] = 0x50000200
        0x00001826:    6148        Ha      STR      r0,[r1,#0x14]
        0x00001828:    e010        ..      B        0x184c ; DrvUART_Open + 580
        0x0000182a:    480e        .H      LDR      r0,[pc,#56] ; [0x1864] = 0x50000200
        0x0000182c:    6800        .h      LDR      r0,[r0,#0]
        0x0000182e:    0740        @.      LSLS     r0,r0,#29
        0x00001830:    0fc0        ..      LSRS     r0,r0,#31
        0x00001832:    d008        ..      BEQ      0x1846 ; DrvUART_Open + 574
        0x00001834:    480b        .H      LDR      r0,[pc,#44] ; [0x1864] = 0x50000200
        0x00001836:    6940        @i      LDR      r0,[r0,#0x14]
        0x00001838:    2103        .!      MOVS     r1,#3
        0x0000183a:    0609        ..      LSLS     r1,r1,#24
        0x0000183c:    4388        .C      BICS     r0,r0,r1
        0x0000183e:    1840        @.      ADDS     r0,r0,r1
        0x00001840:    4908        .I      LDR      r1,[pc,#32] ; [0x1864] = 0x50000200
        0x00001842:    6148        Ha      STR      r0,[r1,#0x14]
        0x00001844:    e002        ..      B        0x184c ; DrvUART_Open + 580
        0x00001846:    4806        .H      LDR      r0,[pc,#24] ; [0x1860] = 0xffff9802
        0x00001848:    1d80        ..      ADDS     r0,r0,#6
        0x0000184a:    e6eb        ..      B        0x1624 ; DrvUART_Open + 28
        0x0000184c:    f000f8b0    ....    BL       GetUartClk ; 0x19b0
        0x00001850:    4607        .F      MOV      r7,r0
        0x00001852:    4632        2F      MOV      r2,r6
        0x00001854:    6821        !h      LDR      r1,[r4,#0]
        0x00001856:    f7feff73    ..s.    BL       BaudRateCalculator ; 0x740
        0x0000185a:    2000        .       MOVS     r0,#0
        0x0000185c:    e6e2        ..      B        0x1624 ; DrvUART_Open + 28
    $d
        0x0000185e:    0000        ..      DCW    0
        0x00001860:    ffff9802    ....    DCD    4294940674
        0x00001864:    50000200    ...P    DCD    1342177792
        0x00001868:    40050000    ...@    DCD    1074069504
    $t
    i.DrvUART_Read
    DrvUART_Read
        0x0000186c:    b570        p.      PUSH     {r4-r6,lr}
        0x0000186e:    4603        .F      MOV      r3,r0
        0x00001870:    460c        .F      MOV      r4,r1
        0x00001872:    480c        .H      LDR      r0,[pc,#48] ; [0x18a4] = 0x40050000
        0x00001874:    181d        ..      ADDS     r5,r3,r0
        0x00001876:    2100        .!      MOVS     r1,#0
        0x00001878:    e010        ..      B        0x189c ; DrvUART_Read + 48
        0x0000187a:    2600        .&      MOVS     r6,#0
        0x0000187c:    e006        ..      B        0x188c ; DrvUART_Read + 32
        0x0000187e:    1c76        v.      ADDS     r6,r6,#1
        0x00001880:    2001        .       MOVS     r0,#1
        0x00001882:    0780        ..      LSLS     r0,r0,#30
        0x00001884:    4286        .B      CMP      r6,r0
        0x00001886:    d301        ..      BCC      0x188c ; DrvUART_Read + 32
        0x00001888:    4807        .H      LDR      r0,[pc,#28] ; [0x18a8] = 0xffff9801
        0x0000188a:    bd70        p.      POP      {r4-r6,pc}
        0x0000188c:    69a8        .i      LDR      r0,[r5,#0x18]
        0x0000188e:    0440        @.      LSLS     r0,r0,#17
        0x00001890:    0fc0        ..      LSRS     r0,r0,#31
        0x00001892:    2801        .(      CMP      r0,#1
        0x00001894:    d0f3        ..      BEQ      0x187e ; DrvUART_Read + 18
        0x00001896:    6828        (h      LDR      r0,[r5,#0]
        0x00001898:    5460        `T      STRB     r0,[r4,r1]
        0x0000189a:    1c49        I.      ADDS     r1,r1,#1
        0x0000189c:    4291        .B      CMP      r1,r2
        0x0000189e:    d3ec        ..      BCC      0x187a ; DrvUART_Read + 14
        0x000018a0:    2000        .       MOVS     r0,#0
        0x000018a2:    e7f2        ..      B        0x188a ; DrvUART_Read + 30
    $d
        0x000018a4:    40050000    ...@    DCD    1074069504
        0x000018a8:    ffff9801    ....    DCD    4294940673
    $t
    i.DrvUART_Write
    DrvUART_Write
        0x000018ac:    b570        p.      PUSH     {r4-r6,lr}
        0x000018ae:    4603        .F      MOV      r3,r0
        0x000018b0:    460c        .F      MOV      r4,r1
        0x000018b2:    480c        .H      LDR      r0,[pc,#48] ; [0x18e4] = 0x40050000
        0x000018b4:    181d        ..      ADDS     r5,r3,r0
        0x000018b6:    2100        .!      MOVS     r1,#0
        0x000018b8:    e010        ..      B        0x18dc ; DrvUART_Write + 48
        0x000018ba:    2600        .&      MOVS     r6,#0
        0x000018bc:    e006        ..      B        0x18cc ; DrvUART_Write + 32
        0x000018be:    1c76        v.      ADDS     r6,r6,#1
        0x000018c0:    2001        .       MOVS     r0,#1
        0x000018c2:    0780        ..      LSLS     r0,r0,#30
        0x000018c4:    4286        .B      CMP      r6,r0
        0x000018c6:    d301        ..      BCC      0x18cc ; DrvUART_Write + 32
        0x000018c8:    4807        .H      LDR      r0,[pc,#28] ; [0x18e8] = 0xffff9801
        0x000018ca:    bd70        p.      POP      {r4-r6,pc}
        0x000018cc:    69a8        .i      LDR      r0,[r5,#0x18]
        0x000018ce:    00c0        ..      LSLS     r0,r0,#3
        0x000018d0:    0fc0        ..      LSRS     r0,r0,#31
        0x000018d2:    2801        .(      CMP      r0,#1
        0x000018d4:    d1f3        ..      BNE      0x18be ; DrvUART_Write + 18
        0x000018d6:    5c60        `\      LDRB     r0,[r4,r1]
        0x000018d8:    6028        (`      STR      r0,[r5,#0]
        0x000018da:    1c49        I.      ADDS     r1,r1,#1
        0x000018dc:    4291        .B      CMP      r1,r2
        0x000018de:    d3ec        ..      BCC      0x18ba ; DrvUART_Write + 14
        0x000018e0:    2000        .       MOVS     r0,#0
        0x000018e2:    e7f2        ..      B        0x18ca ; DrvUART_Write + 30
    $d
        0x000018e4:    40050000    ...@    DCD    1074069504
        0x000018e8:    ffff9801    ....    DCD    4294940673
    $t
    i.EINT0_IRQHandler
    EINT0_IRQHandler
        0x000018ec:    b510        ..      PUSH     {r4,lr}
        0x000018ee:    2001        .       MOVS     r0,#1
        0x000018f0:    0380        ..      LSLS     r0,r0,#14
        0x000018f2:    4905        .I      LDR      r1,[pc,#20] ; [0x1908] = 0x50004040
        0x000018f4:    6208        .b      STR      r0,[r1,#0x20]
        0x000018f6:    4805        .H      LDR      r0,[pc,#20] ; [0x190c] = 0x2000068c
        0x000018f8:    6800        .h      LDR      r0,[r0,#0]
        0x000018fa:    2800        .(      CMP      r0,#0
        0x000018fc:    d002        ..      BEQ      0x1904 ; EINT0_IRQHandler + 24
        0x000018fe:    4803        .H      LDR      r0,[pc,#12] ; [0x190c] = 0x2000068c
        0x00001900:    6800        .h      LDR      r0,[r0,#0]
        0x00001902:    4780        .G      BLX      r0
        0x00001904:    bd10        ..      POP      {r4,pc}
    $d
        0x00001906:    0000        ..      DCW    0
        0x00001908:    50004040    @@.P    DCD    1342193728
        0x0000190c:    2000068c    ...     DCD    536872588
    $t
    i.EINT1_IRQHandler
    EINT1_IRQHandler
        0x00001910:    b510        ..      PUSH     {r4,lr}
        0x00001912:    2001        .       MOVS     r0,#1
        0x00001914:    03c0        ..      LSLS     r0,r0,#15
        0x00001916:    4905        .I      LDR      r1,[pc,#20] ; [0x192c] = 0x50004040
        0x00001918:    6208        .b      STR      r0,[r1,#0x20]
        0x0000191a:    4805        .H      LDR      r0,[pc,#20] ; [0x1930] = 0x20000690
        0x0000191c:    6800        .h      LDR      r0,[r0,#0]
        0x0000191e:    2800        .(      CMP      r0,#0
        0x00001920:    d002        ..      BEQ      0x1928 ; EINT1_IRQHandler + 24
        0x00001922:    4803        .H      LDR      r0,[pc,#12] ; [0x1930] = 0x20000690
        0x00001924:    6800        .h      LDR      r0,[r0,#0]
        0x00001926:    4780        .G      BLX      r0
        0x00001928:    bd10        ..      POP      {r4,pc}
    $d
        0x0000192a:    0000        ..      DCW    0
        0x0000192c:    50004040    @@.P    DCD    1342193728
        0x00001930:    20000690    ...     DCD    536872592
    $t
    i.GPAB_IRQHandler
    GPAB_IRQHandler
        0x00001934:    b570        p.      PUSH     {r4-r6,lr}
        0x00001936:    480c        .H      LDR      r0,[pc,#48] ; [0x1968] = 0x50004000
        0x00001938:    6a05        .j      LDR      r5,[r0,#0x20]
        0x0000193a:    480b        .H      LDR      r0,[pc,#44] ; [0x1968] = 0x50004000
        0x0000193c:    3040        @0      ADDS     r0,r0,#0x40
        0x0000193e:    6a04        .j      LDR      r4,[r0,#0x20]
        0x00001940:    2103        .!      MOVS     r1,#3
        0x00001942:    0389        ..      LSLS     r1,r1,#14
        0x00001944:    4620         F      MOV      r0,r4
        0x00001946:    4388        .C      BICS     r0,r0,r1
        0x00001948:    4604        .F      MOV      r4,r0
        0x0000194a:    4807        .H      LDR      r0,[pc,#28] ; [0x1968] = 0x50004000
        0x0000194c:    6205        .b      STR      r5,[r0,#0x20]
        0x0000194e:    4806        .H      LDR      r0,[pc,#24] ; [0x1968] = 0x50004000
        0x00001950:    3040        @0      ADDS     r0,r0,#0x40
        0x00001952:    6204        .b      STR      r4,[r0,#0x20]
        0x00001954:    4805        .H      LDR      r0,[pc,#20] ; [0x196c] = 0x20000684
        0x00001956:    6800        .h      LDR      r0,[r0,#0]
        0x00001958:    2800        .(      CMP      r0,#0
        0x0000195a:    d004        ..      BEQ      0x1966 ; GPAB_IRQHandler + 50
        0x0000195c:    4621        !F      MOV      r1,r4
        0x0000195e:    4628        (F      MOV      r0,r5
        0x00001960:    4a02        .J      LDR      r2,[pc,#8] ; [0x196c] = 0x20000684
        0x00001962:    6812        .h      LDR      r2,[r2,#0]
        0x00001964:    4790        .G      BLX      r2
        0x00001966:    bd70        p.      POP      {r4-r6,pc}
    $d
        0x00001968:    50004000    .@.P    DCD    1342193664
        0x0000196c:    20000684    ...     DCD    536872580
    $t
    i.GPCDE_IRQHandler
    GPCDE_IRQHandler
        0x00001970:    b570        p.      PUSH     {r4-r6,lr}
        0x00001972:    480d        .H      LDR      r0,[pc,#52] ; [0x19a8] = 0x50004080
        0x00001974:    6a04        .j      LDR      r4,[r0,#0x20]
        0x00001976:    480c        .H      LDR      r0,[pc,#48] ; [0x19a8] = 0x50004080
        0x00001978:    3040        @0      ADDS     r0,r0,#0x40
        0x0000197a:    6a05        .j      LDR      r5,[r0,#0x20]
        0x0000197c:    480a        .H      LDR      r0,[pc,#40] ; [0x19a8] = 0x50004080
        0x0000197e:    3080        .0      ADDS     r0,r0,#0x80
        0x00001980:    6a06        .j      LDR      r6,[r0,#0x20]
        0x00001982:    4809        .H      LDR      r0,[pc,#36] ; [0x19a8] = 0x50004080
        0x00001984:    6204        .b      STR      r4,[r0,#0x20]
        0x00001986:    4808        .H      LDR      r0,[pc,#32] ; [0x19a8] = 0x50004080
        0x00001988:    3040        @0      ADDS     r0,r0,#0x40
        0x0000198a:    6205        .b      STR      r5,[r0,#0x20]
        0x0000198c:    4806        .H      LDR      r0,[pc,#24] ; [0x19a8] = 0x50004080
        0x0000198e:    3080        .0      ADDS     r0,r0,#0x80
        0x00001990:    6206        .b      STR      r6,[r0,#0x20]
        0x00001992:    4806        .H      LDR      r0,[pc,#24] ; [0x19ac] = 0x20000688
        0x00001994:    6800        .h      LDR      r0,[r0,#0]
        0x00001996:    2800        .(      CMP      r0,#0
        0x00001998:    d005        ..      BEQ      0x19a6 ; GPCDE_IRQHandler + 54
        0x0000199a:    4632        2F      MOV      r2,r6
        0x0000199c:    4629        )F      MOV      r1,r5
        0x0000199e:    4620         F      MOV      r0,r4
        0x000019a0:    4b02        .K      LDR      r3,[pc,#8] ; [0x19ac] = 0x20000688
        0x000019a2:    681b        .h      LDR      r3,[r3,#0]
        0x000019a4:    4798        .G      BLX      r3
        0x000019a6:    bd70        p.      POP      {r4-r6,pc}
    $d
        0x000019a8:    50004080    .@.P    DCD    1342193792
        0x000019ac:    20000688    ...     DCD    536872584
    $t
    i.GetUartClk
    GetUartClk
        0x000019b0:    b570        p.      PUSH     {r4-r6,lr}
        0x000019b2:    2400        .$      MOVS     r4,#0
        0x000019b4:    480e        .H      LDR      r0,[pc,#56] ; [0x19f0] = 0x50000200
        0x000019b6:    6980        .i      LDR      r0,[r0,#0x18]
        0x000019b8:    0500        ..      LSLS     r0,r0,#20
        0x000019ba:    0f05        ..      LSRS     r5,r0,#28
        0x000019bc:    480c        .H      LDR      r0,[pc,#48] ; [0x19f0] = 0x50000200
        0x000019be:    6940        @i      LDR      r0,[r0,#0x14]
        0x000019c0:    0180        ..      LSLS     r0,r0,#6
        0x000019c2:    0f80        ..      LSRS     r0,r0,#30
        0x000019c4:    d103        ..      BNE      0x19ce ; GetUartClk + 30
        0x000019c6:    f7fffc29    ..).    BL       DrvSYS_GetExtClockFreq ; 0x121c
        0x000019ca:    4604        .F      MOV      r4,r0
        0x000019cc:    e00a        ..      B        0x19e4 ; GetUartClk + 52
        0x000019ce:    4808        .H      LDR      r0,[pc,#32] ; [0x19f0] = 0x50000200
        0x000019d0:    6940        @i      LDR      r0,[r0,#0x14]
        0x000019d2:    0180        ..      LSLS     r0,r0,#6
        0x000019d4:    0f80        ..      LSRS     r0,r0,#30
        0x000019d6:    2801        .(      CMP      r0,#1
        0x000019d8:    d103        ..      BNE      0x19e2 ; GetUartClk + 50
        0x000019da:    f7fffc59    ..Y.    BL       DrvSYS_GetPLLClockFreq ; 0x1290
        0x000019de:    4604        .F      MOV      r4,r0
        0x000019e0:    e000        ..      B        0x19e4 ; GetUartClk + 52
        0x000019e2:    4c04        .L      LDR      r4,[pc,#16] ; [0x19f4] = 0x1518000
        0x000019e4:    1c69        i.      ADDS     r1,r5,#1
        0x000019e6:    4620         F      MOV      r0,r4
        0x000019e8:    f7fefd14    ....    BL       __aeabi_uidiv ; 0x414
        0x000019ec:    bd70        p.      POP      {r4-r6,pc}
    $d
        0x000019ee:    0000        ..      DCW    0
        0x000019f0:    50000200    ...P    DCD    1342177792
        0x000019f4:    01518000    ..Q.    DCD    22118400
    $t
    i.HEX2Disp
    HEX2Disp
        0x000019f8:    4601        .F      MOV      r1,r0
        0x000019fa:    4a01        .J      LDR      r2,[pc,#4] ; [0x1a00] = 0x2dbc
        0x000019fc:    5c50        P\      LDRB     r0,[r2,r1]
        0x000019fe:    4770        pG      BX       lr
    $d
        0x00001a00:    00002dbc    .-..    DCD    11708
    $t
    i.I2C0_IRQHandler
    I2C0_IRQHandler
        0x00001a04:    b510        ..      PUSH     {r4,lr}
        0x00001a06:    481b        .H      LDR      r0,[pc,#108] ; [0x1a74] = 0x40020000
        0x00001a08:    68c4        .h      LDR      r4,[r0,#0xc]
        0x00001a0a:    6940        @i      LDR      r0,[r0,#0x14]
        0x00001a0c:    07c0        ..      LSLS     r0,r0,#31
        0x00001a0e:    0fc0        ..      LSRS     r0,r0,#31
        0x00001a10:    d00f        ..      BEQ      0x1a32 ; I2C0_IRQHandler + 46
        0x00001a12:    4818        .H      LDR      r0,[pc,#96] ; [0x1a74] = 0x40020000
        0x00001a14:    6940        @i      LDR      r0,[r0,#0x14]
        0x00001a16:    0840        @.      LSRS     r0,r0,#1
        0x00001a18:    0040        @.      LSLS     r0,r0,#1
        0x00001a1a:    1c40        @.      ADDS     r0,r0,#1
        0x00001a1c:    4915        .I      LDR      r1,[pc,#84] ; [0x1a74] = 0x40020000
        0x00001a1e:    6148        Ha      STR      r0,[r1,#0x14]
        0x00001a20:    4815        .H      LDR      r0,[pc,#84] ; [0x1a78] = 0x200006a4
        0x00001a22:    68c0        .h      LDR      r0,[r0,#0xc]
        0x00001a24:    2800        .(      CMP      r0,#0
        0x00001a26:    d024        $.      BEQ      0x1a72 ; I2C0_IRQHandler + 110
        0x00001a28:    4813        .H      LDR      r0,[pc,#76] ; [0x1a78] = 0x200006a4
        0x00001a2a:    68c1        .h      LDR      r1,[r0,#0xc]
        0x00001a2c:    4620         F      MOV      r0,r4
        0x00001a2e:    4788        .G      BLX      r1
        0x00001a30:    e01f        ..      B        0x1a72 ; I2C0_IRQHandler + 110
        0x00001a32:    2c00        .,      CMP      r4,#0
        0x00001a34:    d00a        ..      BEQ      0x1a4c ; I2C0_IRQHandler + 72
        0x00001a36:    2c38        8,      CMP      r4,#0x38
        0x00001a38:    d111        ..      BNE      0x1a5e ; I2C0_IRQHandler + 90
        0x00001a3a:    480f        .H      LDR      r0,[pc,#60] ; [0x1a78] = 0x200006a4
        0x00001a3c:    6840        @h      LDR      r0,[r0,#4]
        0x00001a3e:    2800        .(      CMP      r0,#0
        0x00001a40:    d003        ..      BEQ      0x1a4a ; I2C0_IRQHandler + 70
        0x00001a42:    480d        .H      LDR      r0,[pc,#52] ; [0x1a78] = 0x200006a4
        0x00001a44:    6841        Ah      LDR      r1,[r0,#4]
        0x00001a46:    4620         F      MOV      r0,r4
        0x00001a48:    4788        .G      BLX      r1
        0x00001a4a:    e011        ..      B        0x1a70 ; I2C0_IRQHandler + 108
        0x00001a4c:    480a        .H      LDR      r0,[pc,#40] ; [0x1a78] = 0x200006a4
        0x00001a4e:    6880        .h      LDR      r0,[r0,#8]
        0x00001a50:    2800        .(      CMP      r0,#0
        0x00001a52:    d003        ..      BEQ      0x1a5c ; I2C0_IRQHandler + 88
        0x00001a54:    4808        .H      LDR      r0,[pc,#32] ; [0x1a78] = 0x200006a4
        0x00001a56:    6881        .h      LDR      r1,[r0,#8]
        0x00001a58:    4620         F      MOV      r0,r4
        0x00001a5a:    4788        .G      BLX      r1
        0x00001a5c:    e008        ..      B        0x1a70 ; I2C0_IRQHandler + 108
        0x00001a5e:    4806        .H      LDR      r0,[pc,#24] ; [0x1a78] = 0x200006a4
        0x00001a60:    6800        .h      LDR      r0,[r0,#0]
        0x00001a62:    2800        .(      CMP      r0,#0
        0x00001a64:    d003        ..      BEQ      0x1a6e ; I2C0_IRQHandler + 106
        0x00001a66:    4804        .H      LDR      r0,[pc,#16] ; [0x1a78] = 0x200006a4
        0x00001a68:    6801        .h      LDR      r1,[r0,#0]
        0x00001a6a:    4620         F      MOV      r0,r4
        0x00001a6c:    4788        .G      BLX      r1
        0x00001a6e:    bf00        ..      NOP      
        0x00001a70:    bf00        ..      NOP      
        0x00001a72:    bd10        ..      POP      {r4,pc}
    $d
        0x00001a74:    40020000    ...@    DCD    1073872896
        0x00001a78:    200006a4    ...     DCD    536872612
    $t
    i.I2C1_IRQHandler
    I2C1_IRQHandler
        0x00001a7c:    b510        ..      PUSH     {r4,lr}
        0x00001a7e:    481b        .H      LDR      r0,[pc,#108] ; [0x1aec] = 0x40120000
        0x00001a80:    68c4        .h      LDR      r4,[r0,#0xc]
        0x00001a82:    6940        @i      LDR      r0,[r0,#0x14]
        0x00001a84:    07c0        ..      LSLS     r0,r0,#31
        0x00001a86:    0fc0        ..      LSRS     r0,r0,#31
        0x00001a88:    d00f        ..      BEQ      0x1aaa ; I2C1_IRQHandler + 46
        0x00001a8a:    4818        .H      LDR      r0,[pc,#96] ; [0x1aec] = 0x40120000
        0x00001a8c:    6940        @i      LDR      r0,[r0,#0x14]
        0x00001a8e:    0840        @.      LSRS     r0,r0,#1
        0x00001a90:    0040        @.      LSLS     r0,r0,#1
        0x00001a92:    1c40        @.      ADDS     r0,r0,#1
        0x00001a94:    4915        .I      LDR      r1,[pc,#84] ; [0x1aec] = 0x40120000
        0x00001a96:    6148        Ha      STR      r0,[r1,#0x14]
        0x00001a98:    4815        .H      LDR      r0,[pc,#84] ; [0x1af0] = 0x200006b4
        0x00001a9a:    68c0        .h      LDR      r0,[r0,#0xc]
        0x00001a9c:    2800        .(      CMP      r0,#0
        0x00001a9e:    d024        $.      BEQ      0x1aea ; I2C1_IRQHandler + 110
        0x00001aa0:    4813        .H      LDR      r0,[pc,#76] ; [0x1af0] = 0x200006b4
        0x00001aa2:    68c1        .h      LDR      r1,[r0,#0xc]
        0x00001aa4:    4620         F      MOV      r0,r4
        0x00001aa6:    4788        .G      BLX      r1
        0x00001aa8:    e01f        ..      B        0x1aea ; I2C1_IRQHandler + 110
        0x00001aaa:    2c00        .,      CMP      r4,#0
        0x00001aac:    d00a        ..      BEQ      0x1ac4 ; I2C1_IRQHandler + 72
        0x00001aae:    2c38        8,      CMP      r4,#0x38
        0x00001ab0:    d111        ..      BNE      0x1ad6 ; I2C1_IRQHandler + 90
        0x00001ab2:    480f        .H      LDR      r0,[pc,#60] ; [0x1af0] = 0x200006b4
        0x00001ab4:    6840        @h      LDR      r0,[r0,#4]
        0x00001ab6:    2800        .(      CMP      r0,#0
        0x00001ab8:    d003        ..      BEQ      0x1ac2 ; I2C1_IRQHandler + 70
        0x00001aba:    480d        .H      LDR      r0,[pc,#52] ; [0x1af0] = 0x200006b4
        0x00001abc:    6841        Ah      LDR      r1,[r0,#4]
        0x00001abe:    4620         F      MOV      r0,r4
        0x00001ac0:    4788        .G      BLX      r1
        0x00001ac2:    e011        ..      B        0x1ae8 ; I2C1_IRQHandler + 108
        0x00001ac4:    480a        .H      LDR      r0,[pc,#40] ; [0x1af0] = 0x200006b4
        0x00001ac6:    6880        .h      LDR      r0,[r0,#8]
        0x00001ac8:    2800        .(      CMP      r0,#0
        0x00001aca:    d003        ..      BEQ      0x1ad4 ; I2C1_IRQHandler + 88
        0x00001acc:    4808        .H      LDR      r0,[pc,#32] ; [0x1af0] = 0x200006b4
        0x00001ace:    6881        .h      LDR      r1,[r0,#8]
        0x00001ad0:    4620         F      MOV      r0,r4
        0x00001ad2:    4788        .G      BLX      r1
        0x00001ad4:    e008        ..      B        0x1ae8 ; I2C1_IRQHandler + 108
        0x00001ad6:    4806        .H      LDR      r0,[pc,#24] ; [0x1af0] = 0x200006b4
        0x00001ad8:    6800        .h      LDR      r0,[r0,#0]
        0x00001ada:    2800        .(      CMP      r0,#0
        0x00001adc:    d003        ..      BEQ      0x1ae6 ; I2C1_IRQHandler + 106
        0x00001ade:    4804        .H      LDR      r0,[pc,#16] ; [0x1af0] = 0x200006b4
        0x00001ae0:    6801        .h      LDR      r1,[r0,#0]
        0x00001ae2:    4620         F      MOV      r0,r4
        0x00001ae4:    4788        .G      BLX      r1
        0x00001ae6:    bf00        ..      NOP      
        0x00001ae8:    bf00        ..      NOP      
        0x00001aea:    bd10        ..      POP      {r4,pc}
    $d
        0x00001aec:    40120000    ...@    DCD    1074921472
        0x00001af0:    200006b4    ...     DCD    536872628
    $t
    i.InitADC3
    InitADC3
        0x00001af4:    4824        $H      LDR      r0,[pc,#144] ; [0x1b88] = 0x50004000
        0x00001af6:    6840        @h      LDR      r0,[r0,#4]
        0x00001af8:    2101        .!      MOVS     r1,#1
        0x00001afa:    04c9        ..      LSLS     r1,r1,#19
        0x00001afc:    4308        .C      ORRS     r0,r0,r1
        0x00001afe:    4922        "I      LDR      r1,[pc,#136] ; [0x1b88] = 0x50004000
        0x00001b00:    6048        H`      STR      r0,[r1,#4]
        0x00001b02:    2005        .       MOVS     r0,#5
        0x00001b04:    0700        ..      LSLS     r0,r0,#28
        0x00001b06:    6b00        .k      LDR      r0,[r0,#0x30]
        0x00001b08:    2108        .!      MOVS     r1,#8
        0x00001b0a:    4388        .C      BICS     r0,r0,r1
        0x00001b0c:    3008        .0      ADDS     r0,r0,#8
        0x00001b0e:    2105        .!      MOVS     r1,#5
        0x00001b10:    0709        ..      LSLS     r1,r1,#28
        0x00001b12:    6308        .c      STR      r0,[r1,#0x30]
        0x00001b14:    481d        .H      LDR      r0,[pc,#116] ; [0x1b8c] = 0x50000200
        0x00001b16:    6940        @i      LDR      r0,[r0,#0x14]
        0x00001b18:    210c        .!      MOVS     r1,#0xc
        0x00001b1a:    4388        .C      BICS     r0,r0,r1
        0x00001b1c:    300c        .0      ADDS     r0,r0,#0xc
        0x00001b1e:    491b        .I      LDR      r1,[pc,#108] ; [0x1b8c] = 0x50000200
        0x00001b20:    6148        Ha      STR      r0,[r1,#0x14]
        0x00001b22:    4608        .F      MOV      r0,r1
        0x00001b24:    6980        .i      LDR      r0,[r0,#0x18]
        0x00001b26:    21ff        .!      MOVS     r1,#0xff
        0x00001b28:    0409        ..      LSLS     r1,r1,#16
        0x00001b2a:    4388        .C      BICS     r0,r0,r1
        0x00001b2c:    2101        .!      MOVS     r1,#1
        0x00001b2e:    0409        ..      LSLS     r1,r1,#16
        0x00001b30:    1840        @.      ADDS     r0,r0,r1
        0x00001b32:    4916        .I      LDR      r1,[pc,#88] ; [0x1b8c] = 0x50000200
        0x00001b34:    6188        .a      STR      r0,[r1,#0x18]
        0x00001b36:    4608        .F      MOV      r0,r1
        0x00001b38:    6880        .h      LDR      r0,[r0,#8]
        0x00001b3a:    04c9        ..      LSLS     r1,r1,#19
        0x00001b3c:    4388        .C      BICS     r0,r0,r1
        0x00001b3e:    1840        @.      ADDS     r0,r0,r1
        0x00001b40:    4912        .I      LDR      r1,[pc,#72] ; [0x1b8c] = 0x50000200
        0x00001b42:    6088        .`      STR      r0,[r1,#8]
        0x00001b44:    4812        .H      LDR      r0,[pc,#72] ; [0x1b90] = 0x400e0000
        0x00001b46:    6a00        .j      LDR      r0,[r0,#0x20]
        0x00001b48:    0840        @.      LSRS     r0,r0,#1
        0x00001b4a:    0040        @.      LSLS     r0,r0,#1
        0x00001b4c:    1c40        @.      ADDS     r0,r0,#1
        0x00001b4e:    4910        .I      LDR      r1,[pc,#64] ; [0x1b90] = 0x400e0000
        0x00001b50:    6208        .b      STR      r0,[r1,#0x20]
        0x00001b52:    4608        .F      MOV      r0,r1
        0x00001b54:    6a00        .j      LDR      r0,[r0,#0x20]
        0x00001b56:    1509        ..      ASRS     r1,r1,#20
        0x00001b58:    4388        .C      BICS     r0,r0,r1
        0x00001b5a:    490d        .I      LDR      r1,[pc,#52] ; [0x1b90] = 0x400e0000
        0x00001b5c:    6208        .b      STR      r0,[r1,#0x20]
        0x00001b5e:    4608        .F      MOV      r0,r1
        0x00001b60:    6a00        .j      LDR      r0,[r0,#0x20]
        0x00001b62:    210c        .!      MOVS     r1,#0xc
        0x00001b64:    4388        .C      BICS     r0,r0,r1
        0x00001b66:    490a        .I      LDR      r1,[pc,#40] ; [0x1b90] = 0x400e0000
        0x00001b68:    6208        .b      STR      r0,[r1,#0x20]
        0x00001b6a:    4608        .F      MOV      r0,r1
        0x00001b6c:    6a40        @j      LDR      r0,[r0,#0x24]
        0x00001b6e:    0a00        ..      LSRS     r0,r0,#8
        0x00001b70:    0200        ..      LSLS     r0,r0,#8
        0x00001b72:    3008        .0      ADDS     r0,r0,#8
        0x00001b74:    6248        Hb      STR      r0,[r1,#0x24]
        0x00001b76:    4608        .F      MOV      r0,r1
        0x00001b78:    6a00        .j      LDR      r0,[r0,#0x20]
        0x00001b7a:    2101        .!      MOVS     r1,#1
        0x00001b7c:    02c9        ..      LSLS     r1,r1,#11
        0x00001b7e:    4388        .C      BICS     r0,r0,r1
        0x00001b80:    1840        @.      ADDS     r0,r0,r1
        0x00001b82:    4903        .I      LDR      r1,[pc,#12] ; [0x1b90] = 0x400e0000
        0x00001b84:    6208        .b      STR      r0,[r1,#0x20]
        0x00001b86:    4770        pG      BX       lr
    $d
        0x00001b88:    50004000    .@.P    DCD    1342193664
        0x00001b8c:    50000200    ...P    DCD    1342177792
        0x00001b90:    400e0000    ...@    DCD    1074659328
    $t
    i.InitCapture2
    InitCapture2
        0x00001b94:    b510        ..      PUSH     {r4,lr}
        0x00001b96:    2005        .       MOVS     r0,#5
        0x00001b98:    0700        ..      LSLS     r0,r0,#28
        0x00001b9a:    6b00        .k      LDR      r0,[r0,#0x30]
        0x00001b9c:    2101        .!      MOVS     r1,#1
        0x00001b9e:    0389        ..      LSLS     r1,r1,#14
        0x00001ba0:    4388        .C      BICS     r0,r0,r1
        0x00001ba2:    1840        @.      ADDS     r0,r0,r1
        0x00001ba4:    2105        .!      MOVS     r1,#5
        0x00001ba6:    0709        ..      LSLS     r1,r1,#28
        0x00001ba8:    6308        .c      STR      r0,[r1,#0x30]
        0x00001baa:    482d        -H      LDR      r0,[pc,#180] ; [0x1c60] = 0x50000200
        0x00001bac:    6880        .h      LDR      r0,[r0,#8]
        0x00001bae:    2101        .!      MOVS     r1,#1
        0x00001bb0:    0549        I.      LSLS     r1,r1,#21
        0x00001bb2:    4388        .C      BICS     r0,r0,r1
        0x00001bb4:    1840        @.      ADDS     r0,r0,r1
        0x00001bb6:    492a        *I      LDR      r1,[pc,#168] ; [0x1c60] = 0x50000200
        0x00001bb8:    6088        .`      STR      r0,[r1,#8]
        0x00001bba:    4608        .F      MOV      r0,r1
        0x00001bbc:    6940        @i      LDR      r0,[r0,#0x14]
        0x00001bbe:    0080        ..      LSLS     r0,r0,#2
        0x00001bc0:    0880        ..      LSRS     r0,r0,#2
        0x00001bc2:    6148        Ha      STR      r0,[r1,#0x14]
        0x00001bc4:    4827        'H      LDR      r0,[pc,#156] ; [0x1c64] = 0x40040000
        0x00001bc6:    6800        .h      LDR      r0,[r0,#0]
        0x00001bc8:    21ff        .!      MOVS     r1,#0xff
        0x00001bca:    0209        ..      LSLS     r1,r1,#8
        0x00001bcc:    4388        .C      BICS     r0,r0,r1
        0x00001bce:    210b        .!      MOVS     r1,#0xb
        0x00001bd0:    0209        ..      LSLS     r1,r1,#8
        0x00001bd2:    1840        @.      ADDS     r0,r0,r1
        0x00001bd4:    4923        #I      LDR      r1,[pc,#140] ; [0x1c64] = 0x40040000
        0x00001bd6:    6008        .`      STR      r0,[r1,#0]
        0x00001bd8:    4608        .F      MOV      r0,r1
        0x00001bda:    6840        @h      LDR      r0,[r0,#4]
        0x00001bdc:    2107        .!      MOVS     r1,#7
        0x00001bde:    0209        ..      LSLS     r1,r1,#8
        0x00001be0:    4388        .C      BICS     r0,r0,r1
        0x00001be2:    2101        .!      MOVS     r1,#1
        0x00001be4:    0289        ..      LSLS     r1,r1,#10
        0x00001be6:    1840        @.      ADDS     r0,r0,r1
        0x00001be8:    491e        .I      LDR      r1,[pc,#120] ; [0x1c64] = 0x40040000
        0x00001bea:    6048        H`      STR      r0,[r1,#4]
        0x00001bec:    4608        .F      MOV      r0,r1
        0x00001bee:    6880        .h      LDR      r0,[r0,#8]
        0x00001bf0:    2101        .!      MOVS     r1,#1
        0x00001bf2:    04c9        ..      LSLS     r1,r1,#19
        0x00001bf4:    4388        .C      BICS     r0,r0,r1
        0x00001bf6:    1840        @.      ADDS     r0,r0,r1
        0x00001bf8:    491a        .I      LDR      r1,[pc,#104] ; [0x1c64] = 0x40040000
        0x00001bfa:    6088        .`      STR      r0,[r1,#8]
        0x00001bfc:    481a        .H      LDR      r0,[pc,#104] ; [0x1c68] = 0xffff
        0x00001bfe:    6248        Hb      STR      r0,[r1,#0x24]
        0x00001c00:    2004        .       MOVS     r0,#4
        0x00001c02:    4918        .I      LDR      r1,[pc,#96] ; [0x1c64] = 0x40040000
        0x00001c04:    3140        @1      ADDS     r1,r1,#0x40
        0x00001c06:    6388        .c      STR      r0,[r1,#0x38]
        0x00001c08:    4608        .F      MOV      r0,r1
        0x00001c0a:    6940        @i      LDR      r0,[r0,#0x14]
        0x00001c0c:    2108        .!      MOVS     r1,#8
        0x00001c0e:    4388        .C      BICS     r0,r0,r1
        0x00001c10:    3008        .0      ADDS     r0,r0,#8
        0x00001c12:    4914        .I      LDR      r1,[pc,#80] ; [0x1c64] = 0x40040000
        0x00001c14:    3140        @1      ADDS     r1,r1,#0x40
        0x00001c16:    6148        Ha      STR      r0,[r1,#0x14]
        0x00001c18:    4608        .F      MOV      r0,r1
        0x00001c1a:    6940        @i      LDR      r0,[r0,#0x14]
        0x00001c1c:    2102        .!      MOVS     r1,#2
        0x00001c1e:    4388        .C      BICS     r0,r0,r1
        0x00001c20:    1c80        ..      ADDS     r0,r0,#2
        0x00001c22:    4910        .I      LDR      r1,[pc,#64] ; [0x1c64] = 0x40040000
        0x00001c24:    3140        @1      ADDS     r1,r1,#0x40
        0x00001c26:    6148        Ha      STR      r0,[r1,#0x14]
        0x00001c28:    4608        .F      MOV      r0,r1
        0x00001c2a:    6940        @i      LDR      r0,[r0,#0x14]
        0x00001c2c:    2104        .!      MOVS     r1,#4
        0x00001c2e:    4388        .C      BICS     r0,r0,r1
        0x00001c30:    1d00        ..      ADDS     r0,r0,#4
        0x00001c32:    490c        .I      LDR      r1,[pc,#48] ; [0x1c64] = 0x40040000
        0x00001c34:    3140        @1      ADDS     r1,r1,#0x40
        0x00001c36:    6148        Ha      STR      r0,[r1,#0x14]
        0x00001c38:    4608        .F      MOV      r0,r1
        0x00001c3a:    6800        .h      LDR      r0,[r0,#0]
        0x00001c3c:    2104        .!      MOVS     r1,#4
        0x00001c3e:    4388        .C      BICS     r0,r0,r1
        0x00001c40:    1d00        ..      ADDS     r0,r0,#4
        0x00001c42:    4908        .I      LDR      r1,[pc,#32] ; [0x1c64] = 0x40040000
        0x00001c44:    3140        @1      ADDS     r1,r1,#0x40
        0x00001c46:    6008        .`      STR      r0,[r1,#0]
        0x00001c48:    2006        .       MOVS     r0,#6
        0x00001c4a:    f000fa05    ....    BL       NVIC_EnableIRQ ; 0x2058
        0x00001c4e:    4805        .H      LDR      r0,[pc,#20] ; [0x1c64] = 0x40040000
        0x00001c50:    6880        .h      LDR      r0,[r0,#8]
        0x00001c52:    2101        .!      MOVS     r1,#1
        0x00001c54:    0409        ..      LSLS     r1,r1,#16
        0x00001c56:    4388        .C      BICS     r0,r0,r1
        0x00001c58:    1840        @.      ADDS     r0,r0,r1
        0x00001c5a:    4902        .I      LDR      r1,[pc,#8] ; [0x1c64] = 0x40040000
        0x00001c5c:    6088        .`      STR      r0,[r1,#8]
        0x00001c5e:    bd10        ..      POP      {r4,pc}
    $d
        0x00001c60:    50000200    ...P    DCD    1342177792
        0x00001c64:    40040000    ...@    DCD    1074003968
        0x00001c68:    0000ffff    ....    DCD    65535
    $t
    i.InitPWM1
    InitPWM1
        0x00001c6c:    2005        .       MOVS     r0,#5
        0x00001c6e:    0700        ..      LSLS     r0,r0,#28
        0x00001c70:    6b00        .k      LDR      r0,[r0,#0x30]
        0x00001c72:    2101        .!      MOVS     r1,#1
        0x00001c74:    0349        I.      LSLS     r1,r1,#13
        0x00001c76:    4388        .C      BICS     r0,r0,r1
        0x00001c78:    1840        @.      ADDS     r0,r0,r1
        0x00001c7a:    2105        .!      MOVS     r1,#5
        0x00001c7c:    0709        ..      LSLS     r1,r1,#28
        0x00001c7e:    6308        .c      STR      r0,[r1,#0x30]
        0x00001c80:    481f        .H      LDR      r0,[pc,#124] ; [0x1d00] = 0x50000200
        0x00001c82:    6880        .h      LDR      r0,[r0,#8]
        0x00001c84:    2101        .!      MOVS     r1,#1
        0x00001c86:    0509        ..      LSLS     r1,r1,#20
        0x00001c88:    4388        .C      BICS     r0,r0,r1
        0x00001c8a:    1840        @.      ADDS     r0,r0,r1
        0x00001c8c:    491c        .I      LDR      r1,[pc,#112] ; [0x1d00] = 0x50000200
        0x00001c8e:    6088        .`      STR      r0,[r1,#8]
        0x00001c90:    4608        .F      MOV      r0,r1
        0x00001c92:    6940        @i      LDR      r0,[r0,#0x14]
        0x00001c94:    2103        .!      MOVS     r1,#3
        0x00001c96:    0709        ..      LSLS     r1,r1,#28
        0x00001c98:    4388        .C      BICS     r0,r0,r1
        0x00001c9a:    4919        .I      LDR      r1,[pc,#100] ; [0x1d00] = 0x50000200
        0x00001c9c:    6148        Ha      STR      r0,[r1,#0x14]
        0x00001c9e:    4819        .H      LDR      r0,[pc,#100] ; [0x1d04] = 0x40040000
        0x00001ca0:    6800        .h      LDR      r0,[r0,#0]
        0x00001ca2:    0a00        ..      LSRS     r0,r0,#8
        0x00001ca4:    0200        ..      LSLS     r0,r0,#8
        0x00001ca6:    300b        .0      ADDS     r0,r0,#0xb
        0x00001ca8:    4916        .I      LDR      r1,[pc,#88] ; [0x1d04] = 0x40040000
        0x00001caa:    6008        .`      STR      r0,[r1,#0]
        0x00001cac:    4608        .F      MOV      r0,r1
        0x00001cae:    6840        @h      LDR      r0,[r0,#4]
        0x00001cb0:    2170        p!      MOVS     r1,#0x70
        0x00001cb2:    4388        .C      BICS     r0,r0,r1
        0x00001cb4:    3030        00      ADDS     r0,r0,#0x30
        0x00001cb6:    4913        .I      LDR      r1,[pc,#76] ; [0x1d04] = 0x40040000
        0x00001cb8:    6048        H`      STR      r0,[r1,#4]
        0x00001cba:    4608        .F      MOV      r0,r1
        0x00001cbc:    6880        .h      LDR      r0,[r0,#8]
        0x00001cbe:    14c9        ..      ASRS     r1,r1,#19
        0x00001cc0:    4388        .C      BICS     r0,r0,r1
        0x00001cc2:    1840        @.      ADDS     r0,r0,r1
        0x00001cc4:    490f        .I      LDR      r1,[pc,#60] ; [0x1d04] = 0x40040000
        0x00001cc6:    6088        .`      STR      r0,[r1,#8]
        0x00001cc8:    480f        .H      LDR      r0,[pc,#60] ; [0x1d08] = 0xffff
        0x00001cca:    6188        .a      STR      r0,[r1,#0x18]
        0x00001ccc:    1080        ..      ASRS     r0,r0,#2
        0x00001cce:    61c8        .a      STR      r0,[r1,#0x1c]
        0x00001cd0:    4608        .F      MOV      r0,r1
        0x00001cd2:    6880        .h      LDR      r0,[r0,#8]
        0x00001cd4:    1509        ..      ASRS     r1,r1,#20
        0x00001cd6:    4388        .C      BICS     r0,r0,r1
        0x00001cd8:    490a        .I      LDR      r1,[pc,#40] ; [0x1d04] = 0x40040000
        0x00001cda:    6088        .`      STR      r0,[r1,#8]
        0x00001cdc:    4608        .F      MOV      r0,r1
        0x00001cde:    6880        .h      LDR      r0,[r0,#8]
        0x00001ce0:    1589        ..      ASRS     r1,r1,#22
        0x00001ce2:    4388        .C      BICS     r0,r0,r1
        0x00001ce4:    1840        @.      ADDS     r0,r0,r1
        0x00001ce6:    4907        .I      LDR      r1,[pc,#28] ; [0x1d04] = 0x40040000
        0x00001ce8:    6088        .`      STR      r0,[r1,#8]
        0x00001cea:    4806        .H      LDR      r0,[pc,#24] ; [0x1d04] = 0x40040000
        0x00001cec:    3040        @0      ADDS     r0,r0,#0x40
        0x00001cee:    6bc0        .k      LDR      r0,[r0,#0x3c]
        0x00001cf0:    2102        .!      MOVS     r1,#2
        0x00001cf2:    4388        .C      BICS     r0,r0,r1
        0x00001cf4:    1c80        ..      ADDS     r0,r0,#2
        0x00001cf6:    4903        .I      LDR      r1,[pc,#12] ; [0x1d04] = 0x40040000
        0x00001cf8:    3140        @1      ADDS     r1,r1,#0x40
        0x00001cfa:    63c8        .c      STR      r0,[r1,#0x3c]
        0x00001cfc:    4770        pG      BX       lr
    $d
        0x00001cfe:    0000        ..      DCW    0
        0x00001d00:    50000200    ...P    DCD    1342177792
        0x00001d04:    40040000    ...@    DCD    1074003968
        0x00001d08:    0000ffff    ....    DCD    65535
    $t
    i.InitTIMER2
    InitTIMER2
        0x00001d0c:    b510        ..      PUSH     {r4,lr}
        0x00001d0e:    2005        .       MOVS     r0,#5
        0x00001d10:    0700        ..      LSLS     r0,r0,#28
        0x00001d12:    6b40        @k      LDR      r0,[r0,#0x34]
        0x00001d14:    2101        .!      MOVS     r1,#1
        0x00001d16:    0289        ..      LSLS     r1,r1,#10
        0x00001d18:    4388        .C      BICS     r0,r0,r1
        0x00001d1a:    1840        @.      ADDS     r0,r0,r1
        0x00001d1c:    2105        .!      MOVS     r1,#5
        0x00001d1e:    0709        ..      LSLS     r1,r1,#28
        0x00001d20:    6348        Hc      STR      r0,[r1,#0x34]
        0x00001d22:    4820         H      LDR      r0,[pc,#128] ; [0x1da4] = 0x50000200
        0x00001d24:    6940        @i      LDR      r0,[r0,#0x14]
        0x00001d26:    2107        .!      MOVS     r1,#7
        0x00001d28:    0409        ..      LSLS     r1,r1,#16
        0x00001d2a:    4388        .C      BICS     r0,r0,r1
        0x00001d2c:    491d        .I      LDR      r1,[pc,#116] ; [0x1da4] = 0x50000200
        0x00001d2e:    6148        Ha      STR      r0,[r1,#0x14]
        0x00001d30:    4608        .F      MOV      r0,r1
        0x00001d32:    6880        .h      LDR      r0,[r0,#8]
        0x00001d34:    2110        .!      MOVS     r1,#0x10
        0x00001d36:    4388        .C      BICS     r0,r0,r1
        0x00001d38:    3010        .0      ADDS     r0,r0,#0x10
        0x00001d3a:    491a        .I      LDR      r1,[pc,#104] ; [0x1da4] = 0x50000200
        0x00001d3c:    6088        .`      STR      r0,[r1,#8]
        0x00001d3e:    481a        .H      LDR      r0,[pc,#104] ; [0x1da8] = 0x40110000
        0x00001d40:    6800        .h      LDR      r0,[r0,#0]
        0x00001d42:    2103        .!      MOVS     r1,#3
        0x00001d44:    06c9        ..      LSLS     r1,r1,#27
        0x00001d46:    4388        .C      BICS     r0,r0,r1
        0x00001d48:    2101        .!      MOVS     r1,#1
        0x00001d4a:    0709        ..      LSLS     r1,r1,#28
        0x00001d4c:    1840        @.      ADDS     r0,r0,r1
        0x00001d4e:    4916        .I      LDR      r1,[pc,#88] ; [0x1da8] = 0x40110000
        0x00001d50:    6008        .`      STR      r0,[r1,#0]
        0x00001d52:    4608        .F      MOV      r0,r1
        0x00001d54:    6800        .h      LDR      r0,[r0,#0]
        0x00001d56:    0a00        ..      LSRS     r0,r0,#8
        0x00001d58:    0200        ..      LSLS     r0,r0,#8
        0x00001d5a:    300b        .0      ADDS     r0,r0,#0xb
        0x00001d5c:    6008        .`      STR      r0,[r1,#0]
        0x00001d5e:    4813        .H      LDR      r0,[pc,#76] ; [0x1dac] = 0xc3500
        0x00001d60:    6048        H`      STR      r0,[r1,#4]
        0x00001d62:    4608        .F      MOV      r0,r1
        0x00001d64:    6800        .h      LDR      r0,[r0,#0]
        0x00001d66:    0349        I.      LSLS     r1,r1,#13
        0x00001d68:    4388        .C      BICS     r0,r0,r1
        0x00001d6a:    1840        @.      ADDS     r0,r0,r1
        0x00001d6c:    490e        .I      LDR      r1,[pc,#56] ; [0x1da8] = 0x40110000
        0x00001d6e:    6008        .`      STR      r0,[r1,#0]
        0x00001d70:    4608        .F      MOV      r0,r1
        0x00001d72:    6880        .h      LDR      r0,[r0,#8]
        0x00001d74:    0840        @.      LSRS     r0,r0,#1
        0x00001d76:    0040        @.      LSLS     r0,r0,#1
        0x00001d78:    1c40        @.      ADDS     r0,r0,#1
        0x00001d7a:    6088        .`      STR      r0,[r1,#8]
        0x00001d7c:    200a        .       MOVS     r0,#0xa
        0x00001d7e:    f000f96b    ..k.    BL       NVIC_EnableIRQ ; 0x2058
        0x00001d82:    4809        .H      LDR      r0,[pc,#36] ; [0x1da8] = 0x40110000
        0x00001d84:    6800        .h      LDR      r0,[r0,#0]
        0x00001d86:    2101        .!      MOVS     r1,#1
        0x00001d88:    0689        ..      LSLS     r1,r1,#26
        0x00001d8a:    4388        .C      BICS     r0,r0,r1
        0x00001d8c:    1840        @.      ADDS     r0,r0,r1
        0x00001d8e:    4906        .I      LDR      r1,[pc,#24] ; [0x1da8] = 0x40110000
        0x00001d90:    6008        .`      STR      r0,[r1,#0]
        0x00001d92:    4608        .F      MOV      r0,r1
        0x00001d94:    6800        .h      LDR      r0,[r0,#0]
        0x00001d96:    0389        ..      LSLS     r1,r1,#14
        0x00001d98:    4388        .C      BICS     r0,r0,r1
        0x00001d9a:    1840        @.      ADDS     r0,r0,r1
        0x00001d9c:    4902        .I      LDR      r1,[pc,#8] ; [0x1da8] = 0x40110000
        0x00001d9e:    6008        .`      STR      r0,[r1,#0]
        0x00001da0:    bd10        ..      POP      {r4,pc}
    $d
        0x00001da2:    0000        ..      DCW    0
        0x00001da4:    50000200    ...P    DCD    1342177792
        0x00001da8:    40110000    ...@    DCD    1074855936
        0x00001dac:    000c3500    .5..    DCD    800000
    $t
    i.InitTIMER3
    InitTIMER3
        0x00001db0:    b510        ..      PUSH     {r4,lr}
        0x00001db2:    4820         H      LDR      r0,[pc,#128] ; [0x1e34] = 0x50000200
        0x00001db4:    6940        @i      LDR      r0,[r0,#0x14]
        0x00001db6:    2107        .!      MOVS     r1,#7
        0x00001db8:    0509        ..      LSLS     r1,r1,#20
        0x00001dba:    4388        .C      BICS     r0,r0,r1
        0x00001dbc:    491d        .I      LDR      r1,[pc,#116] ; [0x1e34] = 0x50000200
        0x00001dbe:    6148        Ha      STR      r0,[r1,#0x14]
        0x00001dc0:    4608        .F      MOV      r0,r1
        0x00001dc2:    6880        .h      LDR      r0,[r0,#8]
        0x00001dc4:    2120         !      MOVS     r1,#0x20
        0x00001dc6:    4388        .C      BICS     r0,r0,r1
        0x00001dc8:    3020         0      ADDS     r0,r0,#0x20
        0x00001dca:    491a        .I      LDR      r1,[pc,#104] ; [0x1e34] = 0x50000200
        0x00001dcc:    6088        .`      STR      r0,[r1,#8]
        0x00001dce:    481a        .H      LDR      r0,[pc,#104] ; [0x1e38] = 0x40110000
        0x00001dd0:    6a00        .j      LDR      r0,[r0,#0x20]
        0x00001dd2:    2103        .!      MOVS     r1,#3
        0x00001dd4:    06c9        ..      LSLS     r1,r1,#27
        0x00001dd6:    4388        .C      BICS     r0,r0,r1
        0x00001dd8:    2101        .!      MOVS     r1,#1
        0x00001dda:    06c9        ..      LSLS     r1,r1,#27
        0x00001ddc:    1840        @.      ADDS     r0,r0,r1
        0x00001dde:    4916        .I      LDR      r1,[pc,#88] ; [0x1e38] = 0x40110000
        0x00001de0:    6208        .b      STR      r0,[r1,#0x20]
        0x00001de2:    4608        .F      MOV      r0,r1
        0x00001de4:    6a00        .j      LDR      r0,[r0,#0x20]
        0x00001de6:    0a00        ..      LSRS     r0,r0,#8
        0x00001de8:    0200        ..      LSLS     r0,r0,#8
        0x00001dea:    300b        .0      ADDS     r0,r0,#0xb
        0x00001dec:    6208        .b      STR      r0,[r1,#0x20]
        0x00001dee:    4813        .H      LDR      r0,[pc,#76] ; [0x1e3c] = 0xf4240
        0x00001df0:    6248        Hb      STR      r0,[r1,#0x24]
        0x00001df2:    4608        .F      MOV      r0,r1
        0x00001df4:    6a00        .j      LDR      r0,[r0,#0x20]
        0x00001df6:    0349        I.      LSLS     r1,r1,#13
        0x00001df8:    4388        .C      BICS     r0,r0,r1
        0x00001dfa:    1840        @.      ADDS     r0,r0,r1
        0x00001dfc:    490e        .I      LDR      r1,[pc,#56] ; [0x1e38] = 0x40110000
        0x00001dfe:    6208        .b      STR      r0,[r1,#0x20]
        0x00001e00:    4608        .F      MOV      r0,r1
        0x00001e02:    6a80        .j      LDR      r0,[r0,#0x28]
        0x00001e04:    0840        @.      LSRS     r0,r0,#1
        0x00001e06:    0040        @.      LSLS     r0,r0,#1
        0x00001e08:    1c40        @.      ADDS     r0,r0,#1
        0x00001e0a:    6288        .b      STR      r0,[r1,#0x28]
        0x00001e0c:    200b        .       MOVS     r0,#0xb
        0x00001e0e:    f000f923    ..#.    BL       NVIC_EnableIRQ ; 0x2058
        0x00001e12:    4809        .H      LDR      r0,[pc,#36] ; [0x1e38] = 0x40110000
        0x00001e14:    6a00        .j      LDR      r0,[r0,#0x20]
        0x00001e16:    2101        .!      MOVS     r1,#1
        0x00001e18:    0689        ..      LSLS     r1,r1,#26
        0x00001e1a:    4388        .C      BICS     r0,r0,r1
        0x00001e1c:    1840        @.      ADDS     r0,r0,r1
        0x00001e1e:    4906        .I      LDR      r1,[pc,#24] ; [0x1e38] = 0x40110000
        0x00001e20:    6208        .b      STR      r0,[r1,#0x20]
        0x00001e22:    4608        .F      MOV      r0,r1
        0x00001e24:    6a00        .j      LDR      r0,[r0,#0x20]
        0x00001e26:    0389        ..      LSLS     r1,r1,#14
        0x00001e28:    4388        .C      BICS     r0,r0,r1
        0x00001e2a:    1840        @.      ADDS     r0,r0,r1
        0x00001e2c:    4902        .I      LDR      r1,[pc,#8] ; [0x1e38] = 0x40110000
        0x00001e2e:    6208        .b      STR      r0,[r1,#0x20]
        0x00001e30:    bd10        ..      POP      {r4,pc}
    $d
        0x00001e32:    0000        ..      DCW    0
        0x00001e34:    50000200    ...P    DCD    1342177792
        0x00001e38:    40110000    ...@    DCD    1074855936
        0x00001e3c:    000f4240    @B..    DCD    1000000
    $t
    i.Initial_pannel
    Initial_pannel
        0x00001e40:    4883        .H      LDR      r0,[pc,#524] ; [0x2050] = 0x50000200
        0x00001e42:    6880        .h      LDR      r0,[r0,#8]
        0x00001e44:    2101        .!      MOVS     r1,#1
        0x00001e46:    03c9        ..      LSLS     r1,r1,#15
        0x00001e48:    4388        .C      BICS     r0,r0,r1
        0x00001e4a:    1840        @.      ADDS     r0,r0,r1
        0x00001e4c:    4980        .I      LDR      r1,[pc,#512] ; [0x2050] = 0x50000200
        0x00001e4e:    6088        .`      STR      r0,[r1,#8]
        0x00001e50:    2005        .       MOVS     r0,#5
        0x00001e52:    0700        ..      LSLS     r0,r0,#28
        0x00001e54:    68c0        .h      LDR      r0,[r0,#0xc]
        0x00001e56:    0189        ..      LSLS     r1,r1,#6
        0x00001e58:    4388        .C      BICS     r0,r0,r1
        0x00001e5a:    1840        @.      ADDS     r0,r0,r1
        0x00001e5c:    2105        .!      MOVS     r1,#5
        0x00001e5e:    0709        ..      LSLS     r1,r1,#28
        0x00001e60:    60c8        .`      STR      r0,[r1,#0xc]
        0x00001e62:    4608        .F      MOV      r0,r1
        0x00001e64:    68c0        .h      LDR      r0,[r0,#0xc]
        0x00001e66:    2101        .!      MOVS     r1,#1
        0x00001e68:    03c9        ..      LSLS     r1,r1,#15
        0x00001e6a:    4388        .C      BICS     r0,r0,r1
        0x00001e6c:    2105        .!      MOVS     r1,#5
        0x00001e6e:    0709        ..      LSLS     r1,r1,#28
        0x00001e70:    60c8        .`      STR      r0,[r1,#0xc]
        0x00001e72:    4608        .F      MOV      r0,r1
        0x00001e74:    6bc0        .k      LDR      r0,[r0,#0x3c]
        0x00001e76:    21ff        .!      MOVS     r1,#0xff
        0x00001e78:    3101        .1      ADDS     r1,#1
        0x00001e7a:    4388        .C      BICS     r0,r0,r1
        0x00001e7c:    1840        @.      ADDS     r0,r0,r1
        0x00001e7e:    2105        .!      MOVS     r1,#5
        0x00001e80:    0709        ..      LSLS     r1,r1,#28
        0x00001e82:    63c8        .c      STR      r0,[r1,#0x3c]
        0x00001e84:    4608        .F      MOV      r0,r1
        0x00001e86:    6bc0        .k      LDR      r0,[r0,#0x3c]
        0x00001e88:    2101        .!      MOVS     r1,#1
        0x00001e8a:    0249        I.      LSLS     r1,r1,#9
        0x00001e8c:    4388        .C      BICS     r0,r0,r1
        0x00001e8e:    1840        @.      ADDS     r0,r0,r1
        0x00001e90:    2105        .!      MOVS     r1,#5
        0x00001e92:    0709        ..      LSLS     r1,r1,#28
        0x00001e94:    63c8        .c      STR      r0,[r1,#0x3c]
        0x00001e96:    4608        .F      MOV      r0,r1
        0x00001e98:    6bc0        .k      LDR      r0,[r0,#0x3c]
        0x00001e9a:    2101        .!      MOVS     r1,#1
        0x00001e9c:    02c9        ..      LSLS     r1,r1,#11
        0x00001e9e:    4388        .C      BICS     r0,r0,r1
        0x00001ea0:    1840        @.      ADDS     r0,r0,r1
        0x00001ea2:    2105        .!      MOVS     r1,#5
        0x00001ea4:    0709        ..      LSLS     r1,r1,#28
        0x00001ea6:    63c8        .c      STR      r0,[r1,#0x3c]
        0x00001ea8:    486a        jH      LDR      r0,[pc,#424] ; [0x2054] = 0x20000064
        0x00001eaa:    68c0        .h      LDR      r0,[r0,#0xc]
        0x00001eac:    6800        .h      LDR      r0,[r0,#0]
        0x00001eae:    2101        .!      MOVS     r1,#1
        0x00001eb0:    02c9        ..      LSLS     r1,r1,#11
        0x00001eb2:    4388        .C      BICS     r0,r0,r1
        0x00001eb4:    1840        @.      ADDS     r0,r0,r1
        0x00001eb6:    4967        gI      LDR      r1,[pc,#412] ; [0x2054] = 0x20000064
        0x00001eb8:    68c9        .h      LDR      r1,[r1,#0xc]
        0x00001eba:    6008        .`      STR      r0,[r1,#0]
        0x00001ebc:    4865        eH      LDR      r0,[pc,#404] ; [0x2054] = 0x20000064
        0x00001ebe:    68c0        .h      LDR      r0,[r0,#0xc]
        0x00001ec0:    6800        .h      LDR      r0,[r0,#0]
        0x00001ec2:    21f8        .!      MOVS     r1,#0xf8
        0x00001ec4:    4388        .C      BICS     r0,r0,r1
        0x00001ec6:    3048        H0      ADDS     r0,r0,#0x48
        0x00001ec8:    4962        bI      LDR      r1,[pc,#392] ; [0x2054] = 0x20000064
        0x00001eca:    68c9        .h      LDR      r1,[r1,#0xc]
        0x00001ecc:    6008        .`      STR      r0,[r1,#0]
        0x00001ece:    4861        aH      LDR      r0,[pc,#388] ; [0x2054] = 0x20000064
        0x00001ed0:    68c0        .h      LDR      r0,[r0,#0xc]
        0x00001ed2:    6800        .h      LDR      r0,[r0,#0]
        0x00001ed4:    2104        .!      MOVS     r1,#4
        0x00001ed6:    4388        .C      BICS     r0,r0,r1
        0x00001ed8:    1d00        ..      ADDS     r0,r0,#4
        0x00001eda:    495e        ^I      LDR      r1,[pc,#376] ; [0x2054] = 0x20000064
        0x00001edc:    68c9        .h      LDR      r1,[r1,#0xc]
        0x00001ede:    6008        .`      STR      r0,[r1,#0]
        0x00001ee0:    485c        \H      LDR      r0,[pc,#368] ; [0x2054] = 0x20000064
        0x00001ee2:    68c0        .h      LDR      r0,[r0,#0xc]
        0x00001ee4:    6840        @h      LDR      r0,[r0,#4]
        0x00001ee6:    0c00        ..      LSRS     r0,r0,#16
        0x00001ee8:    0400        ..      LSLS     r0,r0,#16
        0x00001eea:    1cc0        ..      ADDS     r0,r0,#3
        0x00001eec:    4959        YI      LDR      r1,[pc,#356] ; [0x2054] = 0x20000064
        0x00001eee:    68c9        .h      LDR      r1,[r1,#0xc]
        0x00001ef0:    6048        H`      STR      r0,[r1,#4]
        0x00001ef2:    4858        XH      LDR      r0,[pc,#352] ; [0x2054] = 0x20000064
        0x00001ef4:    68c0        .h      LDR      r0,[r0,#0xc]
        0x00001ef6:    6880        .h      LDR      r0,[r0,#8]
        0x00001ef8:    0880        ..      LSRS     r0,r0,#2
        0x00001efa:    0080        ..      LSLS     r0,r0,#2
        0x00001efc:    1c40        @.      ADDS     r0,r0,#1
        0x00001efe:    4955        UI      LDR      r1,[pc,#340] ; [0x2054] = 0x20000064
        0x00001f00:    68c9        .h      LDR      r1,[r1,#0xc]
        0x00001f02:    6088        .`      STR      r0,[r1,#8]
        0x00001f04:    20eb        .       MOVS     r0,#0xeb
        0x00001f06:    4953        SI      LDR      r1,[pc,#332] ; [0x2054] = 0x20000064
        0x00001f08:    68c9        .h      LDR      r1,[r1,#0xc]
        0x00001f0a:    6208        .b      STR      r0,[r1,#0x20]
        0x00001f0c:    4851        QH      LDR      r0,[pc,#324] ; [0x2054] = 0x20000064
        0x00001f0e:    68c0        .h      LDR      r0,[r0,#0xc]
        0x00001f10:    6800        .h      LDR      r0,[r0,#0]
        0x00001f12:    0840        @.      LSRS     r0,r0,#1
        0x00001f14:    0040        @.      LSLS     r0,r0,#1
        0x00001f16:    1c40        @.      ADDS     r0,r0,#1
        0x00001f18:    494e        NI      LDR      r1,[pc,#312] ; [0x2054] = 0x20000064
        0x00001f1a:    68c9        .h      LDR      r1,[r1,#0xc]
        0x00001f1c:    6008        .`      STR      r0,[r1,#0]
        0x00001f1e:    bf00        ..      NOP      
        0x00001f20:    484c        LH      LDR      r0,[pc,#304] ; [0x2054] = 0x20000064
        0x00001f22:    68c0        .h      LDR      r0,[r0,#0xc]
        0x00001f24:    6800        .h      LDR      r0,[r0,#0]
        0x00001f26:    07c0        ..      LSLS     r0,r0,#31
        0x00001f28:    0fc0        ..      LSRS     r0,r0,#31
        0x00001f2a:    2801        .(      CMP      r0,#1
        0x00001f2c:    d0f8        ..      BEQ      0x1f20 ; Initial_pannel + 224
        0x00001f2e:    4849        IH      LDR      r0,[pc,#292] ; [0x2054] = 0x20000064
        0x00001f30:    68c0        .h      LDR      r0,[r0,#0xc]
        0x00001f32:    6880        .h      LDR      r0,[r0,#8]
        0x00001f34:    0880        ..      LSRS     r0,r0,#2
        0x00001f36:    0080        ..      LSLS     r0,r0,#2
        0x00001f38:    4946        FI      LDR      r1,[pc,#280] ; [0x2054] = 0x20000064
        0x00001f3a:    68c9        .h      LDR      r1,[r1,#0xc]
        0x00001f3c:    6088        .`      STR      r0,[r1,#8]
        0x00001f3e:    4845        EH      LDR      r0,[pc,#276] ; [0x2054] = 0x20000064
        0x00001f40:    68c0        .h      LDR      r0,[r0,#0xc]
        0x00001f42:    6880        .h      LDR      r0,[r0,#8]
        0x00001f44:    0880        ..      LSRS     r0,r0,#2
        0x00001f46:    0080        ..      LSLS     r0,r0,#2
        0x00001f48:    1c40        @.      ADDS     r0,r0,#1
        0x00001f4a:    4942        BI      LDR      r1,[pc,#264] ; [0x2054] = 0x20000064
        0x00001f4c:    68c9        .h      LDR      r1,[r1,#0xc]
        0x00001f4e:    6088        .`      STR      r0,[r1,#8]
        0x00001f50:    2081        .       MOVS     r0,#0x81
        0x00001f52:    4940        @I      LDR      r1,[pc,#256] ; [0x2054] = 0x20000064
        0x00001f54:    68c9        .h      LDR      r1,[r1,#0xc]
        0x00001f56:    6208        .b      STR      r0,[r1,#0x20]
        0x00001f58:    483e        >H      LDR      r0,[pc,#248] ; [0x2054] = 0x20000064
        0x00001f5a:    68c0        .h      LDR      r0,[r0,#0xc]
        0x00001f5c:    6800        .h      LDR      r0,[r0,#0]
        0x00001f5e:    0840        @.      LSRS     r0,r0,#1
        0x00001f60:    0040        @.      LSLS     r0,r0,#1
        0x00001f62:    1c40        @.      ADDS     r0,r0,#1
        0x00001f64:    493b        ;I      LDR      r1,[pc,#236] ; [0x2054] = 0x20000064
        0x00001f66:    68c9        .h      LDR      r1,[r1,#0xc]
        0x00001f68:    6008        .`      STR      r0,[r1,#0]
        0x00001f6a:    bf00        ..      NOP      
        0x00001f6c:    4839        9H      LDR      r0,[pc,#228] ; [0x2054] = 0x20000064
        0x00001f6e:    68c0        .h      LDR      r0,[r0,#0xc]
        0x00001f70:    6800        .h      LDR      r0,[r0,#0]
        0x00001f72:    07c0        ..      LSLS     r0,r0,#31
        0x00001f74:    0fc0        ..      LSRS     r0,r0,#31
        0x00001f76:    2801        .(      CMP      r0,#1
        0x00001f78:    d0f8        ..      BEQ      0x1f6c ; Initial_pannel + 300
        0x00001f7a:    20a0        .       MOVS     r0,#0xa0
        0x00001f7c:    4935        5I      LDR      r1,[pc,#212] ; [0x2054] = 0x20000064
        0x00001f7e:    68c9        .h      LDR      r1,[r1,#0xc]
        0x00001f80:    6208        .b      STR      r0,[r1,#0x20]
        0x00001f82:    4834        4H      LDR      r0,[pc,#208] ; [0x2054] = 0x20000064
        0x00001f84:    68c0        .h      LDR      r0,[r0,#0xc]
        0x00001f86:    6800        .h      LDR      r0,[r0,#0]
        0x00001f88:    0840        @.      LSRS     r0,r0,#1
        0x00001f8a:    0040        @.      LSLS     r0,r0,#1
        0x00001f8c:    1c40        @.      ADDS     r0,r0,#1
        0x00001f8e:    4931        1I      LDR      r1,[pc,#196] ; [0x2054] = 0x20000064
        0x00001f90:    68c9        .h      LDR      r1,[r1,#0xc]
        0x00001f92:    6008        .`      STR      r0,[r1,#0]
        0x00001f94:    bf00        ..      NOP      
        0x00001f96:    482f        /H      LDR      r0,[pc,#188] ; [0x2054] = 0x20000064
        0x00001f98:    68c0        .h      LDR      r0,[r0,#0xc]
        0x00001f9a:    6800        .h      LDR      r0,[r0,#0]
        0x00001f9c:    07c0        ..      LSLS     r0,r0,#31
        0x00001f9e:    0fc0        ..      LSRS     r0,r0,#31
        0x00001fa0:    2801        .(      CMP      r0,#1
        0x00001fa2:    d0f8        ..      BEQ      0x1f96 ; Initial_pannel + 342
        0x00001fa4:    482b        +H      LDR      r0,[pc,#172] ; [0x2054] = 0x20000064
        0x00001fa6:    68c0        .h      LDR      r0,[r0,#0xc]
        0x00001fa8:    6880        .h      LDR      r0,[r0,#8]
        0x00001faa:    0880        ..      LSRS     r0,r0,#2
        0x00001fac:    0080        ..      LSLS     r0,r0,#2
        0x00001fae:    4929        )I      LDR      r1,[pc,#164] ; [0x2054] = 0x20000064
        0x00001fb0:    68c9        .h      LDR      r1,[r1,#0xc]
        0x00001fb2:    6088        .`      STR      r0,[r1,#8]
        0x00001fb4:    4827        'H      LDR      r0,[pc,#156] ; [0x2054] = 0x20000064
        0x00001fb6:    68c0        .h      LDR      r0,[r0,#0xc]
        0x00001fb8:    6880        .h      LDR      r0,[r0,#8]
        0x00001fba:    0880        ..      LSRS     r0,r0,#2
        0x00001fbc:    0080        ..      LSLS     r0,r0,#2
        0x00001fbe:    1c40        @.      ADDS     r0,r0,#1
        0x00001fc0:    4924        $I      LDR      r1,[pc,#144] ; [0x2054] = 0x20000064
        0x00001fc2:    68c9        .h      LDR      r1,[r1,#0xc]
        0x00001fc4:    6088        .`      STR      r0,[r1,#8]
        0x00001fc6:    20c0        .       MOVS     r0,#0xc0
        0x00001fc8:    4922        "I      LDR      r1,[pc,#136] ; [0x2054] = 0x20000064
        0x00001fca:    68c9        .h      LDR      r1,[r1,#0xc]
        0x00001fcc:    6208        .b      STR      r0,[r1,#0x20]
        0x00001fce:    4821        !H      LDR      r0,[pc,#132] ; [0x2054] = 0x20000064
        0x00001fd0:    68c0        .h      LDR      r0,[r0,#0xc]
        0x00001fd2:    6800        .h      LDR      r0,[r0,#0]
        0x00001fd4:    0840        @.      LSRS     r0,r0,#1
        0x00001fd6:    0040        @.      LSLS     r0,r0,#1
        0x00001fd8:    1c40        @.      ADDS     r0,r0,#1
        0x00001fda:    491e        .I      LDR      r1,[pc,#120] ; [0x2054] = 0x20000064
        0x00001fdc:    68c9        .h      LDR      r1,[r1,#0xc]
        0x00001fde:    6008        .`      STR      r0,[r1,#0]
        0x00001fe0:    bf00        ..      NOP      
        0x00001fe2:    481c        .H      LDR      r0,[pc,#112] ; [0x2054] = 0x20000064
        0x00001fe4:    68c0        .h      LDR      r0,[r0,#0xc]
        0x00001fe6:    6800        .h      LDR      r0,[r0,#0]
        0x00001fe8:    07c0        ..      LSLS     r0,r0,#31
        0x00001fea:    0fc0        ..      LSRS     r0,r0,#31
        0x00001fec:    2801        .(      CMP      r0,#1
        0x00001fee:    d0f8        ..      BEQ      0x1fe2 ; Initial_pannel + 418
        0x00001ff0:    4818        .H      LDR      r0,[pc,#96] ; [0x2054] = 0x20000064
        0x00001ff2:    68c0        .h      LDR      r0,[r0,#0xc]
        0x00001ff4:    6880        .h      LDR      r0,[r0,#8]
        0x00001ff6:    0880        ..      LSRS     r0,r0,#2
        0x00001ff8:    0080        ..      LSLS     r0,r0,#2
        0x00001ffa:    4916        .I      LDR      r1,[pc,#88] ; [0x2054] = 0x20000064
        0x00001ffc:    68c9        .h      LDR      r1,[r1,#0xc]
        0x00001ffe:    6088        .`      STR      r0,[r1,#8]
        0x00002000:    4814        .H      LDR      r0,[pc,#80] ; [0x2054] = 0x20000064
        0x00002002:    68c0        .h      LDR      r0,[r0,#0xc]
        0x00002004:    6880        .h      LDR      r0,[r0,#8]
        0x00002006:    0880        ..      LSRS     r0,r0,#2
        0x00002008:    0080        ..      LSLS     r0,r0,#2
        0x0000200a:    1c40        @.      ADDS     r0,r0,#1
        0x0000200c:    4911        .I      LDR      r1,[pc,#68] ; [0x2054] = 0x20000064
        0x0000200e:    68c9        .h      LDR      r1,[r1,#0xc]
        0x00002010:    6088        .`      STR      r0,[r1,#8]
        0x00002012:    20af        .       MOVS     r0,#0xaf
        0x00002014:    490f        .I      LDR      r1,[pc,#60] ; [0x2054] = 0x20000064
        0x00002016:    68c9        .h      LDR      r1,[r1,#0xc]
        0x00002018:    6208        .b      STR      r0,[r1,#0x20]
        0x0000201a:    480e        .H      LDR      r0,[pc,#56] ; [0x2054] = 0x20000064
        0x0000201c:    68c0        .h      LDR      r0,[r0,#0xc]
        0x0000201e:    6800        .h      LDR      r0,[r0,#0]
        0x00002020:    0840        @.      LSRS     r0,r0,#1
        0x00002022:    0040        @.      LSLS     r0,r0,#1
        0x00002024:    1c40        @.      ADDS     r0,r0,#1
        0x00002026:    490b        .I      LDR      r1,[pc,#44] ; [0x2054] = 0x20000064
        0x00002028:    68c9        .h      LDR      r1,[r1,#0xc]
        0x0000202a:    6008        .`      STR      r0,[r1,#0]
        0x0000202c:    bf00        ..      NOP      
        0x0000202e:    4809        .H      LDR      r0,[pc,#36] ; [0x2054] = 0x20000064
        0x00002030:    68c0        .h      LDR      r0,[r0,#0xc]
        0x00002032:    6800        .h      LDR      r0,[r0,#0]
        0x00002034:    07c0        ..      LSLS     r0,r0,#31
        0x00002036:    0fc0        ..      LSRS     r0,r0,#31
        0x00002038:    2801        .(      CMP      r0,#1
        0x0000203a:    d0f8        ..      BEQ      0x202e ; Initial_pannel + 494
        0x0000203c:    4805        .H      LDR      r0,[pc,#20] ; [0x2054] = 0x20000064
        0x0000203e:    68c0        .h      LDR      r0,[r0,#0xc]
        0x00002040:    6880        .h      LDR      r0,[r0,#8]
        0x00002042:    0880        ..      LSRS     r0,r0,#2
        0x00002044:    0080        ..      LSLS     r0,r0,#2
        0x00002046:    4903        .I      LDR      r1,[pc,#12] ; [0x2054] = 0x20000064
        0x00002048:    68c9        .h      LDR      r1,[r1,#0xc]
        0x0000204a:    6088        .`      STR      r0,[r1,#8]
        0x0000204c:    4770        pG      BX       lr
    $d
        0x0000204e:    0000        ..      DCW    0
        0x00002050:    50000200    ...P    DCD    1342177792
        0x00002054:    20000064    d..     DCD    536871012
    $t
    i.NVIC_EnableIRQ
    NVIC_EnableIRQ
        0x00002058:    06c2        ..      LSLS     r2,r0,#27
        0x0000205a:    0ed2        ..      LSRS     r2,r2,#27
        0x0000205c:    2101        .!      MOVS     r1,#1
        0x0000205e:    4091        .@      LSLS     r1,r1,r2
        0x00002060:    4a01        .J      LDR      r2,[pc,#4] ; [0x2068] = 0xe000e100
        0x00002062:    6011        .`      STR      r1,[r2,#0]
        0x00002064:    4770        pG      BX       lr
    $d
        0x00002066:    0000        ..      DCW    0
        0x00002068:    e000e100    ....    DCD    3758153984
    $t
    i.NVIC_EnableIRQ
    NVIC_EnableIRQ
        0x0000206c:    06c2        ..      LSLS     r2,r0,#27
        0x0000206e:    0ed2        ..      LSRS     r2,r2,#27
        0x00002070:    2101        .!      MOVS     r1,#1
        0x00002072:    4091        .@      LSLS     r1,r1,r2
        0x00002074:    4a01        .J      LDR      r2,[pc,#4] ; [0x207c] = 0xe000e100
        0x00002076:    6011        .`      STR      r1,[r2,#0]
        0x00002078:    4770        pG      BX       lr
    $d
        0x0000207a:    0000        ..      DCW    0
        0x0000207c:    e000e100    ....    DCD    3758153984
    $t
    i.PWMA_IRQHandler
    PWMA_IRQHandler
        0x00002080:    4826        &H      LDR      r0,[pc,#152] ; [0x211c] = 0x40040040
        0x00002082:    6840        @h      LDR      r0,[r0,#4]
        0x00002084:    0740        @.      LSLS     r0,r0,#29
        0x00002086:    0fc0        ..      LSRS     r0,r0,#31
        0x00002088:    d00b        ..      BEQ      0x20a2 ; PWMA_IRQHandler + 34
        0x0000208a:    4825        %H      LDR      r0,[pc,#148] ; [0x2120] = 0x20000048
        0x0000208c:    8800        ..      LDRH     r0,[r0,#0]
        0x0000208e:    1c40        @.      ADDS     r0,r0,#1
        0x00002090:    4923        #I      LDR      r1,[pc,#140] ; [0x2120] = 0x20000048
        0x00002092:    8008        ..      STRH     r0,[r1,#0]
        0x00002094:    4821        !H      LDR      r0,[pc,#132] ; [0x211c] = 0x40040040
        0x00002096:    6840        @h      LDR      r0,[r0,#4]
        0x00002098:    2104        .!      MOVS     r1,#4
        0x0000209a:    4388        .C      BICS     r0,r0,r1
        0x0000209c:    1d00        ..      ADDS     r0,r0,#4
        0x0000209e:    491f        .I      LDR      r1,[pc,#124] ; [0x211c] = 0x40040040
        0x000020a0:    6048        H`      STR      r0,[r1,#4]
        0x000020a2:    481e        .H      LDR      r0,[pc,#120] ; [0x211c] = 0x40040040
        0x000020a4:    6940        @i      LDR      r0,[r0,#0x14]
        0x000020a6:    06c0        ..      LSLS     r0,r0,#27
        0x000020a8:    0fc0        ..      LSRS     r0,r0,#31
        0x000020aa:    d036        6.      BEQ      0x211a ; PWMA_IRQHandler + 154
        0x000020ac:    481b        .H      LDR      r0,[pc,#108] ; [0x211c] = 0x40040040
        0x000020ae:    6940        @i      LDR      r0,[r0,#0x14]
        0x000020b0:    0600        ..      LSLS     r0,r0,#24
        0x000020b2:    0fc0        ..      LSRS     r0,r0,#31
        0x000020b4:    d012        ..      BEQ      0x20dc ; PWMA_IRQHandler + 92
        0x000020b6:    481a        .H      LDR      r0,[pc,#104] ; [0x2120] = 0x20000048
        0x000020b8:    8800        ..      LDRH     r0,[r0,#0]
        0x000020ba:    0400        ..      LSLS     r0,r0,#16
        0x000020bc:    4917        .I      LDR      r1,[pc,#92] ; [0x211c] = 0x40040040
        0x000020be:    6ac9        .j      LDR      r1,[r1,#0x2c]
        0x000020c0:    4a18        .J      LDR      r2,[pc,#96] ; [0x2124] = 0xffff
        0x000020c2:    1a51        Q.      SUBS     r1,r2,r1
        0x000020c4:    1840        @.      ADDS     r0,r0,r1
        0x000020c6:    4918        .I      LDR      r1,[pc,#96] ; [0x2128] = 0x2000005c
        0x000020c8:    6008        .`      STR      r0,[r1,#0]
        0x000020ca:    2000        .       MOVS     r0,#0
        0x000020cc:    4914        .I      LDR      r1,[pc,#80] ; [0x2120] = 0x20000048
        0x000020ce:    8008        ..      STRH     r0,[r1,#0]
        0x000020d0:    4812        .H      LDR      r0,[pc,#72] ; [0x211c] = 0x40040040
        0x000020d2:    6940        @i      LDR      r0,[r0,#0x14]
        0x000020d4:    2180        .!      MOVS     r1,#0x80
        0x000020d6:    4388        .C      BICS     r0,r0,r1
        0x000020d8:    4910        .I      LDR      r1,[pc,#64] ; [0x211c] = 0x40040040
        0x000020da:    6148        Ha      STR      r0,[r1,#0x14]
        0x000020dc:    480f        .H      LDR      r0,[pc,#60] ; [0x211c] = 0x40040040
        0x000020de:    6940        @i      LDR      r0,[r0,#0x14]
        0x000020e0:    0640        @.      LSLS     r0,r0,#25
        0x000020e2:    0fc0        ..      LSRS     r0,r0,#31
        0x000020e4:    d012        ..      BEQ      0x210c ; PWMA_IRQHandler + 140
        0x000020e6:    480e        .H      LDR      r0,[pc,#56] ; [0x2120] = 0x20000048
        0x000020e8:    8800        ..      LDRH     r0,[r0,#0]
        0x000020ea:    0400        ..      LSLS     r0,r0,#16
        0x000020ec:    490b        .I      LDR      r1,[pc,#44] ; [0x211c] = 0x40040040
        0x000020ee:    6a89        .j      LDR      r1,[r1,#0x28]
        0x000020f0:    4a0c        .J      LDR      r2,[pc,#48] ; [0x2124] = 0xffff
        0x000020f2:    1a51        Q.      SUBS     r1,r2,r1
        0x000020f4:    1840        @.      ADDS     r0,r0,r1
        0x000020f6:    490c        .I      LDR      r1,[pc,#48] ; [0x2128] = 0x2000005c
        0x000020f8:    6048        H`      STR      r0,[r1,#4]
        0x000020fa:    2000        .       MOVS     r0,#0
        0x000020fc:    4908        .I      LDR      r1,[pc,#32] ; [0x2120] = 0x20000048
        0x000020fe:    8008        ..      STRH     r0,[r1,#0]
        0x00002100:    4806        .H      LDR      r0,[pc,#24] ; [0x211c] = 0x40040040
        0x00002102:    6940        @i      LDR      r0,[r0,#0x14]
        0x00002104:    2140        @!      MOVS     r1,#0x40
        0x00002106:    4388        .C      BICS     r0,r0,r1
        0x00002108:    4904        .I      LDR      r1,[pc,#16] ; [0x211c] = 0x40040040
        0x0000210a:    6148        Ha      STR      r0,[r1,#0x14]
        0x0000210c:    4803        .H      LDR      r0,[pc,#12] ; [0x211c] = 0x40040040
        0x0000210e:    6940        @i      LDR      r0,[r0,#0x14]
        0x00002110:    2110        .!      MOVS     r1,#0x10
        0x00002112:    4388        .C      BICS     r0,r0,r1
        0x00002114:    3010        .0      ADDS     r0,r0,#0x10
        0x00002116:    4901        .I      LDR      r1,[pc,#4] ; [0x211c] = 0x40040040
        0x00002118:    6148        Ha      STR      r0,[r1,#0x14]
        0x0000211a:    4770        pG      BX       lr
    $d
        0x0000211c:    40040040    @..@    DCD    1074004032
        0x00002120:    20000048    H..     DCD    536870984
        0x00002124:    0000ffff    ....    DCD    65535
        0x00002128:    2000005c    \..     DCD    536871004
    $t
    i.PWRWU_IRQHandler
    PWRWU_IRQHandler
        0x0000212c:    b510        ..      PUSH     {r4,lr}
        0x0000212e:    4807        .H      LDR      r0,[pc,#28] ; [0x214c] = 0x50000200
        0x00002130:    6800        .h      LDR      r0,[r0,#0]
        0x00002132:    2140        @!      MOVS     r1,#0x40
        0x00002134:    4388        .C      BICS     r0,r0,r1
        0x00002136:    3040        @0      ADDS     r0,r0,#0x40
        0x00002138:    4904        .I      LDR      r1,[pc,#16] ; [0x214c] = 0x50000200
        0x0000213a:    6008        .`      STR      r0,[r1,#0]
        0x0000213c:    4804        .H      LDR      r0,[pc,#16] ; [0x2150] = 0x20000674
        0x0000213e:    6800        .h      LDR      r0,[r0,#0]
        0x00002140:    2800        .(      CMP      r0,#0
        0x00002142:    d002        ..      BEQ      0x214a ; PWRWU_IRQHandler + 30
        0x00002144:    4802        .H      LDR      r0,[pc,#8] ; [0x2150] = 0x20000674
        0x00002146:    6800        .h      LDR      r0,[r0,#0]
        0x00002148:    4780        .G      BLX      r0
        0x0000214a:    bd10        ..      POP      {r4,pc}
    $d
        0x0000214c:    50000200    ...P    DCD    1342177792
        0x00002150:    20000674    t..     DCD    536872564
    $t
    i.Read_A2D_8591
    Read_A2D_8591
        0x00002154:    b538        8.      PUSH     {r3-r5,lr}
        0x00002156:    f7fff865    ..e.    BL       DrvSYS_GetHCLKFreq ; 0x1224
        0x0000215a:    493c        <I      LDR      r1,[pc,#240] ; [0x224c] = 0x20000000
        0x0000215c:    6008        .`      STR      r0,[r1,#0]
        0x0000215e:    493c        <I      LDR      r1,[pc,#240] ; [0x2250] = 0xc350
        0x00002160:    2001        .       MOVS     r0,#1
        0x00002162:    f7feffdd    ....    BL       DrvI2C_Open ; 0x1120
        0x00002166:    2000        .       MOVS     r0,#0
        0x00002168:    2301        .#      MOVS     r3,#1
        0x0000216a:    4602        .F      MOV      r2,r0
        0x0000216c:    4619        .F      MOV      r1,r3
        0x0000216e:    9000        ..      STR      r0,[sp,#0]
        0x00002170:    4618        .F      MOV      r0,r3
        0x00002172:    f7feffab    ....    BL       DrvI2C_Ctrl ; 0x10cc
        0x00002176:    bf00        ..      NOP      
        0x00002178:    4836        6H      LDR      r0,[pc,#216] ; [0x2254] = 0x40120000
        0x0000217a:    6800        .h      LDR      r0,[r0,#0]
        0x0000217c:    0700        ..      LSLS     r0,r0,#28
        0x0000217e:    0fc0        ..      LSRS     r0,r0,#31
        0x00002180:    d0fa        ..      BEQ      0x2178 ; Read_A2D_8591 + 36
        0x00002182:    2090        .       MOVS     r0,#0x90
        0x00002184:    4933        3I      LDR      r1,[pc,#204] ; [0x2254] = 0x40120000
        0x00002186:    6088        .`      STR      r0,[r1,#8]
        0x00002188:    2000        .       MOVS     r0,#0
        0x0000218a:    2301        .#      MOVS     r3,#1
        0x0000218c:    4602        .F      MOV      r2,r0
        0x0000218e:    4601        .F      MOV      r1,r0
        0x00002190:    9000        ..      STR      r0,[sp,#0]
        0x00002192:    4618        .F      MOV      r0,r3
        0x00002194:    f7feff9a    ....    BL       DrvI2C_Ctrl ; 0x10cc
        0x00002198:    bf00        ..      NOP      
        0x0000219a:    482e        .H      LDR      r0,[pc,#184] ; [0x2254] = 0x40120000
        0x0000219c:    6800        .h      LDR      r0,[r0,#0]
        0x0000219e:    0700        ..      LSLS     r0,r0,#28
        0x000021a0:    0fc0        ..      LSRS     r0,r0,#31
        0x000021a2:    d0fa        ..      BEQ      0x219a ; Read_A2D_8591 + 70
        0x000021a4:    2000        .       MOVS     r0,#0
        0x000021a6:    492b        +I      LDR      r1,[pc,#172] ; [0x2254] = 0x40120000
        0x000021a8:    6088        .`      STR      r0,[r1,#8]
        0x000021aa:    2301        .#      MOVS     r3,#1
        0x000021ac:    4602        .F      MOV      r2,r0
        0x000021ae:    4601        .F      MOV      r1,r0
        0x000021b0:    9000        ..      STR      r0,[sp,#0]
        0x000021b2:    4618        .F      MOV      r0,r3
        0x000021b4:    f7feff8a    ....    BL       DrvI2C_Ctrl ; 0x10cc
        0x000021b8:    bf00        ..      NOP      
        0x000021ba:    4826        &H      LDR      r0,[pc,#152] ; [0x2254] = 0x40120000
        0x000021bc:    6800        .h      LDR      r0,[r0,#0]
        0x000021be:    0700        ..      LSLS     r0,r0,#28
        0x000021c0:    0fc0        ..      LSRS     r0,r0,#31
        0x000021c2:    d0fa        ..      BEQ      0x21ba ; Read_A2D_8591 + 102
        0x000021c4:    2000        .       MOVS     r0,#0
        0x000021c6:    2301        .#      MOVS     r3,#1
        0x000021c8:    4602        .F      MOV      r2,r0
        0x000021ca:    4619        .F      MOV      r1,r3
        0x000021cc:    9000        ..      STR      r0,[sp,#0]
        0x000021ce:    4618        .F      MOV      r0,r3
        0x000021d0:    f7feff7c    ..|.    BL       DrvI2C_Ctrl ; 0x10cc
        0x000021d4:    bf00        ..      NOP      
        0x000021d6:    481f        .H      LDR      r0,[pc,#124] ; [0x2254] = 0x40120000
        0x000021d8:    6800        .h      LDR      r0,[r0,#0]
        0x000021da:    0700        ..      LSLS     r0,r0,#28
        0x000021dc:    0fc0        ..      LSRS     r0,r0,#31
        0x000021de:    d0fa        ..      BEQ      0x21d6 ; Read_A2D_8591 + 130
        0x000021e0:    2091        .       MOVS     r0,#0x91
        0x000021e2:    491c        .I      LDR      r1,[pc,#112] ; [0x2254] = 0x40120000
        0x000021e4:    6088        .`      STR      r0,[r1,#8]
        0x000021e6:    2000        .       MOVS     r0,#0
        0x000021e8:    2301        .#      MOVS     r3,#1
        0x000021ea:    4602        .F      MOV      r2,r0
        0x000021ec:    4601        .F      MOV      r1,r0
        0x000021ee:    9000        ..      STR      r0,[sp,#0]
        0x000021f0:    4618        .F      MOV      r0,r3
        0x000021f2:    f7feff6b    ..k.    BL       DrvI2C_Ctrl ; 0x10cc
        0x000021f6:    bf00        ..      NOP      
        0x000021f8:    4816        .H      LDR      r0,[pc,#88] ; [0x2254] = 0x40120000
        0x000021fa:    6800        .h      LDR      r0,[r0,#0]
        0x000021fc:    0700        ..      LSLS     r0,r0,#28
        0x000021fe:    0fc0        ..      LSRS     r0,r0,#31
        0x00002200:    d0fa        ..      BEQ      0x21f8 ; Read_A2D_8591 + 164
        0x00002202:    2000        .       MOVS     r0,#0
        0x00002204:    2301        .#      MOVS     r3,#1
        0x00002206:    4602        .F      MOV      r2,r0
        0x00002208:    4601        .F      MOV      r1,r0
        0x0000220a:    9000        ..      STR      r0,[sp,#0]
        0x0000220c:    4618        .F      MOV      r0,r3
        0x0000220e:    f7feff5d    ..].    BL       DrvI2C_Ctrl ; 0x10cc
        0x00002212:    bf00        ..      NOP      
        0x00002214:    480f        .H      LDR      r0,[pc,#60] ; [0x2254] = 0x40120000
        0x00002216:    6800        .h      LDR      r0,[r0,#0]
        0x00002218:    0700        ..      LSLS     r0,r0,#28
        0x0000221a:    0fc0        ..      LSRS     r0,r0,#31
        0x0000221c:    d0fa        ..      BEQ      0x2214 ; Read_A2D_8591 + 192
        0x0000221e:    480d        .H      LDR      r0,[pc,#52] ; [0x2254] = 0x40120000
        0x00002220:    6880        .h      LDR      r0,[r0,#8]
        0x00002222:    b2c4        ..      UXTB     r4,r0
        0x00002224:    2000        .       MOVS     r0,#0
        0x00002226:    2301        .#      MOVS     r3,#1
        0x00002228:    461a        .F      MOV      r2,r3
        0x0000222a:    4601        .F      MOV      r1,r0
        0x0000222c:    9000        ..      STR      r0,[sp,#0]
        0x0000222e:    4618        .F      MOV      r0,r3
        0x00002230:    f7feff4c    ..L.    BL       DrvI2C_Ctrl ; 0x10cc
        0x00002234:    bf00        ..      NOP      
        0x00002236:    4807        .H      LDR      r0,[pc,#28] ; [0x2254] = 0x40120000
        0x00002238:    6800        .h      LDR      r0,[r0,#0]
        0x0000223a:    06c0        ..      LSLS     r0,r0,#27
        0x0000223c:    0fc0        ..      LSRS     r0,r0,#31
        0x0000223e:    d1fa        ..      BNE      0x2236 ; Read_A2D_8591 + 226
        0x00002240:    2001        .       MOVS     r0,#1
        0x00002242:    f7fefefb    ....    BL       DrvI2C_Close ; 0x103c
        0x00002246:    4620         F      MOV      r0,r4
        0x00002248:    bd38        8.      POP      {r3-r5,pc}
    $d
        0x0000224a:    0000        ..      DCW    0
        0x0000224c:    20000000    ...     DCD    536870912
        0x00002250:    0000c350    P...    DCD    50000
        0x00002254:    40120000    ...@    DCD    1074921472
    $t
    i.SPI0_IRQHandler
    SPI0_IRQHandler
        0x00002258:    b510        ..      PUSH     {r4,lr}
        0x0000225a:    4816        .H      LDR      r0,[pc,#88] ; [0x22b4] = 0x40030000
        0x0000225c:    6800        .h      LDR      r0,[r0,#0]
        0x0000225e:    03c0        ..      LSLS     r0,r0,#15
        0x00002260:    0fc0        ..      LSRS     r0,r0,#31
        0x00002262:    2801        .(      CMP      r0,#1
        0x00002264:    d10f        ..      BNE      0x2286 ; SPI0_IRQHandler + 46
        0x00002266:    4813        .H      LDR      r0,[pc,#76] ; [0x22b4] = 0x40030000
        0x00002268:    6800        .h      LDR      r0,[r0,#0]
        0x0000226a:    2101        .!      MOVS     r1,#1
        0x0000226c:    0409        ..      LSLS     r1,r1,#16
        0x0000226e:    4388        .C      BICS     r0,r0,r1
        0x00002270:    1840        @.      ADDS     r0,r0,r1
        0x00002272:    4910        .I      LDR      r1,[pc,#64] ; [0x22b4] = 0x40030000
        0x00002274:    6008        .`      STR      r0,[r1,#0]
        0x00002276:    4810        .H      LDR      r0,[pc,#64] ; [0x22b8] = 0x200006c4
        0x00002278:    6840        @h      LDR      r0,[r0,#4]
        0x0000227a:    2800        .(      CMP      r0,#0
        0x0000227c:    d003        ..      BEQ      0x2286 ; SPI0_IRQHandler + 46
        0x0000227e:    4a0e        .J      LDR      r2,[pc,#56] ; [0x22b8] = 0x200006c4
        0x00002280:    6890        .h      LDR      r0,[r2,#8]
        0x00002282:    6851        Qh      LDR      r1,[r2,#4]
        0x00002284:    4788        .G      BLX      r1
        0x00002286:    480b        .H      LDR      r0,[pc,#44] ; [0x22b4] = 0x40030000
        0x00002288:    6bc0        .k      LDR      r0,[r0,#0x3c]
        0x0000228a:    0500        ..      LSLS     r0,r0,#20
        0x0000228c:    0fc0        ..      LSRS     r0,r0,#31
        0x0000228e:    2801        .(      CMP      r0,#1
        0x00002290:    d10f        ..      BNE      0x22b2 ; SPI0_IRQHandler + 90
        0x00002292:    4808        .H      LDR      r0,[pc,#32] ; [0x22b4] = 0x40030000
        0x00002294:    6bc0        .k      LDR      r0,[r0,#0x3c]
        0x00002296:    2101        .!      MOVS     r1,#1
        0x00002298:    02c9        ..      LSLS     r1,r1,#11
        0x0000229a:    4388        .C      BICS     r0,r0,r1
        0x0000229c:    1840        @.      ADDS     r0,r0,r1
        0x0000229e:    4905        .I      LDR      r1,[pc,#20] ; [0x22b4] = 0x40030000
        0x000022a0:    63c8        .c      STR      r0,[r1,#0x3c]
        0x000022a2:    4805        .H      LDR      r0,[pc,#20] ; [0x22b8] = 0x200006c4
        0x000022a4:    68c0        .h      LDR      r0,[r0,#0xc]
        0x000022a6:    2800        .(      CMP      r0,#0
        0x000022a8:    d003        ..      BEQ      0x22b2 ; SPI0_IRQHandler + 90
        0x000022aa:    4a03        .J      LDR      r2,[pc,#12] ; [0x22b8] = 0x200006c4
        0x000022ac:    6910        .i      LDR      r0,[r2,#0x10]
        0x000022ae:    68d1        .h      LDR      r1,[r2,#0xc]
        0x000022b0:    4788        .G      BLX      r1
        0x000022b2:    bd10        ..      POP      {r4,pc}
    $d
        0x000022b4:    40030000    ...@    DCD    1073938432
        0x000022b8:    200006c4    ...     DCD    536872644
    $t
    i.SPI1_IRQHandler
    SPI1_IRQHandler
        0x000022bc:    b510        ..      PUSH     {r4,lr}
        0x000022be:    4816        .H      LDR      r0,[pc,#88] ; [0x2318] = 0x40034000
        0x000022c0:    6800        .h      LDR      r0,[r0,#0]
        0x000022c2:    03c0        ..      LSLS     r0,r0,#15
        0x000022c4:    0fc0        ..      LSRS     r0,r0,#31
        0x000022c6:    2801        .(      CMP      r0,#1
        0x000022c8:    d10f        ..      BNE      0x22ea ; SPI1_IRQHandler + 46
        0x000022ca:    4813        .H      LDR      r0,[pc,#76] ; [0x2318] = 0x40034000
        0x000022cc:    6800        .h      LDR      r0,[r0,#0]
        0x000022ce:    2101        .!      MOVS     r1,#1
        0x000022d0:    0409        ..      LSLS     r1,r1,#16
        0x000022d2:    4388        .C      BICS     r0,r0,r1
        0x000022d4:    1840        @.      ADDS     r0,r0,r1
        0x000022d6:    4910        .I      LDR      r1,[pc,#64] ; [0x2318] = 0x40034000
        0x000022d8:    6008        .`      STR      r0,[r1,#0]
        0x000022da:    4810        .H      LDR      r0,[pc,#64] ; [0x231c] = 0x200006c4
        0x000022dc:    6980        .i      LDR      r0,[r0,#0x18]
        0x000022de:    2800        .(      CMP      r0,#0
        0x000022e0:    d003        ..      BEQ      0x22ea ; SPI1_IRQHandler + 46
        0x000022e2:    4a0e        .J      LDR      r2,[pc,#56] ; [0x231c] = 0x200006c4
        0x000022e4:    69d0        .i      LDR      r0,[r2,#0x1c]
        0x000022e6:    6991        .i      LDR      r1,[r2,#0x18]
        0x000022e8:    4788        .G      BLX      r1
        0x000022ea:    480b        .H      LDR      r0,[pc,#44] ; [0x2318] = 0x40034000
        0x000022ec:    6bc0        .k      LDR      r0,[r0,#0x3c]
        0x000022ee:    0500        ..      LSLS     r0,r0,#20
        0x000022f0:    0fc0        ..      LSRS     r0,r0,#31
        0x000022f2:    2801        .(      CMP      r0,#1
        0x000022f4:    d10f        ..      BNE      0x2316 ; SPI1_IRQHandler + 90
        0x000022f6:    4808        .H      LDR      r0,[pc,#32] ; [0x2318] = 0x40034000
        0x000022f8:    6bc0        .k      LDR      r0,[r0,#0x3c]
        0x000022fa:    2101        .!      MOVS     r1,#1
        0x000022fc:    02c9        ..      LSLS     r1,r1,#11
        0x000022fe:    4388        .C      BICS     r0,r0,r1
        0x00002300:    1840        @.      ADDS     r0,r0,r1
        0x00002302:    4905        .I      LDR      r1,[pc,#20] ; [0x2318] = 0x40034000
        0x00002304:    63c8        .c      STR      r0,[r1,#0x3c]
        0x00002306:    4805        .H      LDR      r0,[pc,#20] ; [0x231c] = 0x200006c4
        0x00002308:    6a00        .j      LDR      r0,[r0,#0x20]
        0x0000230a:    2800        .(      CMP      r0,#0
        0x0000230c:    d003        ..      BEQ      0x2316 ; SPI1_IRQHandler + 90
        0x0000230e:    4a03        .J      LDR      r2,[pc,#12] ; [0x231c] = 0x200006c4
        0x00002310:    6a50        Pj      LDR      r0,[r2,#0x24]
        0x00002312:    6a11        .j      LDR      r1,[r2,#0x20]
        0x00002314:    4788        .G      BLX      r1
        0x00002316:    bd10        ..      POP      {r4,pc}
    $d
        0x00002318:    40034000    .@.@    DCD    1073954816
        0x0000231c:    200006c4    ...     DCD    536872644
    $t
    i.SPI2_IRQHandler
    SPI2_IRQHandler
        0x00002320:    b510        ..      PUSH     {r4,lr}
        0x00002322:    4816        .H      LDR      r0,[pc,#88] ; [0x237c] = 0x40130000
        0x00002324:    6800        .h      LDR      r0,[r0,#0]
        0x00002326:    03c0        ..      LSLS     r0,r0,#15
        0x00002328:    0fc0        ..      LSRS     r0,r0,#31
        0x0000232a:    2801        .(      CMP      r0,#1
        0x0000232c:    d10f        ..      BNE      0x234e ; SPI2_IRQHandler + 46
        0x0000232e:    4813        .H      LDR      r0,[pc,#76] ; [0x237c] = 0x40130000
        0x00002330:    6800        .h      LDR      r0,[r0,#0]
        0x00002332:    2101        .!      MOVS     r1,#1
        0x00002334:    0409        ..      LSLS     r1,r1,#16
        0x00002336:    4388        .C      BICS     r0,r0,r1
        0x00002338:    1840        @.      ADDS     r0,r0,r1
        0x0000233a:    4910        .I      LDR      r1,[pc,#64] ; [0x237c] = 0x40130000
        0x0000233c:    6008        .`      STR      r0,[r1,#0]
        0x0000233e:    4810        .H      LDR      r0,[pc,#64] ; [0x2380] = 0x200006c4
        0x00002340:    6ac0        .j      LDR      r0,[r0,#0x2c]
        0x00002342:    2800        .(      CMP      r0,#0
        0x00002344:    d003        ..      BEQ      0x234e ; SPI2_IRQHandler + 46
        0x00002346:    4a0e        .J      LDR      r2,[pc,#56] ; [0x2380] = 0x200006c4
        0x00002348:    6b10        .k      LDR      r0,[r2,#0x30]
        0x0000234a:    6ad1        .j      LDR      r1,[r2,#0x2c]
        0x0000234c:    4788        .G      BLX      r1
        0x0000234e:    480b        .H      LDR      r0,[pc,#44] ; [0x237c] = 0x40130000
        0x00002350:    6bc0        .k      LDR      r0,[r0,#0x3c]
        0x00002352:    0500        ..      LSLS     r0,r0,#20
        0x00002354:    0fc0        ..      LSRS     r0,r0,#31
        0x00002356:    2801        .(      CMP      r0,#1
        0x00002358:    d10f        ..      BNE      0x237a ; SPI2_IRQHandler + 90
        0x0000235a:    4808        .H      LDR      r0,[pc,#32] ; [0x237c] = 0x40130000
        0x0000235c:    6bc0        .k      LDR      r0,[r0,#0x3c]
        0x0000235e:    2101        .!      MOVS     r1,#1
        0x00002360:    02c9        ..      LSLS     r1,r1,#11
        0x00002362:    4388        .C      BICS     r0,r0,r1
        0x00002364:    1840        @.      ADDS     r0,r0,r1
        0x00002366:    4905        .I      LDR      r1,[pc,#20] ; [0x237c] = 0x40130000
        0x00002368:    63c8        .c      STR      r0,[r1,#0x3c]
        0x0000236a:    4805        .H      LDR      r0,[pc,#20] ; [0x2380] = 0x200006c4
        0x0000236c:    6b40        @k      LDR      r0,[r0,#0x34]
        0x0000236e:    2800        .(      CMP      r0,#0
        0x00002370:    d003        ..      BEQ      0x237a ; SPI2_IRQHandler + 90
        0x00002372:    4a03        .J      LDR      r2,[pc,#12] ; [0x2380] = 0x200006c4
        0x00002374:    6b90        .k      LDR      r0,[r2,#0x38]
        0x00002376:    6b51        Qk      LDR      r1,[r2,#0x34]
        0x00002378:    4788        .G      BLX      r1
        0x0000237a:    bd10        ..      POP      {r4,pc}
    $d
        0x0000237c:    40130000    ...@    DCD    1074987008
        0x00002380:    200006c4    ...     DCD    536872644
    $t
    i.SPI3_IRQHandler
    SPI3_IRQHandler
        0x00002384:    b510        ..      PUSH     {r4,lr}
        0x00002386:    4816        .H      LDR      r0,[pc,#88] ; [0x23e0] = 0x40134000
        0x00002388:    6800        .h      LDR      r0,[r0,#0]
        0x0000238a:    03c0        ..      LSLS     r0,r0,#15
        0x0000238c:    0fc0        ..      LSRS     r0,r0,#31
        0x0000238e:    2801        .(      CMP      r0,#1
        0x00002390:    d10f        ..      BNE      0x23b2 ; SPI3_IRQHandler + 46
        0x00002392:    4813        .H      LDR      r0,[pc,#76] ; [0x23e0] = 0x40134000
        0x00002394:    6800        .h      LDR      r0,[r0,#0]
        0x00002396:    2101        .!      MOVS     r1,#1
        0x00002398:    0409        ..      LSLS     r1,r1,#16
        0x0000239a:    4388        .C      BICS     r0,r0,r1
        0x0000239c:    1840        @.      ADDS     r0,r0,r1
        0x0000239e:    4910        .I      LDR      r1,[pc,#64] ; [0x23e0] = 0x40134000
        0x000023a0:    6008        .`      STR      r0,[r1,#0]
        0x000023a2:    4810        .H      LDR      r0,[pc,#64] ; [0x23e4] = 0x200006c4
        0x000023a4:    6c00        .l      LDR      r0,[r0,#0x40]
        0x000023a6:    2800        .(      CMP      r0,#0
        0x000023a8:    d003        ..      BEQ      0x23b2 ; SPI3_IRQHandler + 46
        0x000023aa:    4a0e        .J      LDR      r2,[pc,#56] ; [0x23e4] = 0x200006c4
        0x000023ac:    6c50        Pl      LDR      r0,[r2,#0x44]
        0x000023ae:    6c11        .l      LDR      r1,[r2,#0x40]
        0x000023b0:    4788        .G      BLX      r1
        0x000023b2:    480b        .H      LDR      r0,[pc,#44] ; [0x23e0] = 0x40134000
        0x000023b4:    6bc0        .k      LDR      r0,[r0,#0x3c]
        0x000023b6:    0500        ..      LSLS     r0,r0,#20
        0x000023b8:    0fc0        ..      LSRS     r0,r0,#31
        0x000023ba:    2801        .(      CMP      r0,#1
        0x000023bc:    d10f        ..      BNE      0x23de ; SPI3_IRQHandler + 90
        0x000023be:    4808        .H      LDR      r0,[pc,#32] ; [0x23e0] = 0x40134000
        0x000023c0:    6bc0        .k      LDR      r0,[r0,#0x3c]
        0x000023c2:    2101        .!      MOVS     r1,#1
        0x000023c4:    02c9        ..      LSLS     r1,r1,#11
        0x000023c6:    4388        .C      BICS     r0,r0,r1
        0x000023c8:    1840        @.      ADDS     r0,r0,r1
        0x000023ca:    4905        .I      LDR      r1,[pc,#20] ; [0x23e0] = 0x40134000
        0x000023cc:    63c8        .c      STR      r0,[r1,#0x3c]
        0x000023ce:    4805        .H      LDR      r0,[pc,#20] ; [0x23e4] = 0x200006c4
        0x000023d0:    6c80        .l      LDR      r0,[r0,#0x48]
        0x000023d2:    2800        .(      CMP      r0,#0
        0x000023d4:    d003        ..      BEQ      0x23de ; SPI3_IRQHandler + 90
        0x000023d6:    4a03        .J      LDR      r2,[pc,#12] ; [0x23e4] = 0x200006c4
        0x000023d8:    6cd0        .l      LDR      r0,[r2,#0x4c]
        0x000023da:    6c91        .l      LDR      r1,[r2,#0x48]
        0x000023dc:    4788        .G      BLX      r1
        0x000023de:    bd10        ..      POP      {r4,pc}
    $d
        0x000023e0:    40134000    .@.@    DCD    1075003392
        0x000023e4:    200006c4    ...     DCD    536872644
    $t
    i.SetPACA
    SetPACA
        0x000023e8:    4a3b        ;J      LDR      r2,[pc,#236] ; [0x24d8] = 0x20000064
        0x000023ea:    68d2        .h      LDR      r2,[r2,#0xc]
        0x000023ec:    6892        .h      LDR      r2,[r2,#8]
        0x000023ee:    0892        ..      LSRS     r2,r2,#2
        0x000023f0:    0092        ..      LSLS     r2,r2,#2
        0x000023f2:    1c52        R.      ADDS     r2,r2,#1
        0x000023f4:    4b38        8K      LDR      r3,[pc,#224] ; [0x24d8] = 0x20000064
        0x000023f6:    68db        .h      LDR      r3,[r3,#0xc]
        0x000023f8:    609a        .`      STR      r2,[r3,#8]
        0x000023fa:    22b0        ."      MOVS     r2,#0xb0
        0x000023fc:    4302        .C      ORRS     r2,r2,r0
        0x000023fe:    4b36        6K      LDR      r3,[pc,#216] ; [0x24d8] = 0x20000064
        0x00002400:    68db        .h      LDR      r3,[r3,#0xc]
        0x00002402:    621a        .b      STR      r2,[r3,#0x20]
        0x00002404:    4a34        4J      LDR      r2,[pc,#208] ; [0x24d8] = 0x20000064
        0x00002406:    68d2        .h      LDR      r2,[r2,#0xc]
        0x00002408:    6812        .h      LDR      r2,[r2,#0]
        0x0000240a:    0852        R.      LSRS     r2,r2,#1
        0x0000240c:    0052        R.      LSLS     r2,r2,#1
        0x0000240e:    1c52        R.      ADDS     r2,r2,#1
        0x00002410:    4b31        1K      LDR      r3,[pc,#196] ; [0x24d8] = 0x20000064
        0x00002412:    68db        .h      LDR      r3,[r3,#0xc]
        0x00002414:    601a        .`      STR      r2,[r3,#0]
        0x00002416:    bf00        ..      NOP      
        0x00002418:    4a2f        /J      LDR      r2,[pc,#188] ; [0x24d8] = 0x20000064
        0x0000241a:    68d2        .h      LDR      r2,[r2,#0xc]
        0x0000241c:    6812        .h      LDR      r2,[r2,#0]
        0x0000241e:    07d2        ..      LSLS     r2,r2,#31
        0x00002420:    0fd2        ..      LSRS     r2,r2,#31
        0x00002422:    2a01        .*      CMP      r2,#1
        0x00002424:    d0f8        ..      BEQ      0x2418 ; SetPACA + 48
        0x00002426:    4a2c        ,J      LDR      r2,[pc,#176] ; [0x24d8] = 0x20000064
        0x00002428:    68d2        .h      LDR      r2,[r2,#0xc]
        0x0000242a:    6892        .h      LDR      r2,[r2,#8]
        0x0000242c:    0892        ..      LSRS     r2,r2,#2
        0x0000242e:    0092        ..      LSLS     r2,r2,#2
        0x00002430:    4b29        )K      LDR      r3,[pc,#164] ; [0x24d8] = 0x20000064
        0x00002432:    68db        .h      LDR      r3,[r3,#0xc]
        0x00002434:    609a        .`      STR      r2,[r3,#8]
        0x00002436:    4a28        (J      LDR      r2,[pc,#160] ; [0x24d8] = 0x20000064
        0x00002438:    68d2        .h      LDR      r2,[r2,#0xc]
        0x0000243a:    6892        .h      LDR      r2,[r2,#8]
        0x0000243c:    0892        ..      LSRS     r2,r2,#2
        0x0000243e:    0092        ..      LSLS     r2,r2,#2
        0x00002440:    1c52        R.      ADDS     r2,r2,#1
        0x00002442:    4b25        %K      LDR      r3,[pc,#148] ; [0x24d8] = 0x20000064
        0x00002444:    68db        .h      LDR      r3,[r3,#0xc]
        0x00002446:    609a        .`      STR      r2,[r3,#8]
        0x00002448:    110a        ..      ASRS     r2,r1,#4
        0x0000244a:    2310        .#      MOVS     r3,#0x10
        0x0000244c:    431a        .C      ORRS     r2,r2,r3
        0x0000244e:    4b22        "K      LDR      r3,[pc,#136] ; [0x24d8] = 0x20000064
        0x00002450:    68db        .h      LDR      r3,[r3,#0xc]
        0x00002452:    621a        .b      STR      r2,[r3,#0x20]
        0x00002454:    4a20         J      LDR      r2,[pc,#128] ; [0x24d8] = 0x20000064
        0x00002456:    68d2        .h      LDR      r2,[r2,#0xc]
        0x00002458:    6812        .h      LDR      r2,[r2,#0]
        0x0000245a:    0852        R.      LSRS     r2,r2,#1
        0x0000245c:    0052        R.      LSLS     r2,r2,#1
        0x0000245e:    1c52        R.      ADDS     r2,r2,#1
        0x00002460:    4b1d        .K      LDR      r3,[pc,#116] ; [0x24d8] = 0x20000064
        0x00002462:    68db        .h      LDR      r3,[r3,#0xc]
        0x00002464:    601a        .`      STR      r2,[r3,#0]
        0x00002466:    bf00        ..      NOP      
        0x00002468:    4a1b        .J      LDR      r2,[pc,#108] ; [0x24d8] = 0x20000064
        0x0000246a:    68d2        .h      LDR      r2,[r2,#0xc]
        0x0000246c:    6812        .h      LDR      r2,[r2,#0]
        0x0000246e:    07d2        ..      LSLS     r2,r2,#31
        0x00002470:    0fd2        ..      LSRS     r2,r2,#31
        0x00002472:    2a01        .*      CMP      r2,#1
        0x00002474:    d0f8        ..      BEQ      0x2468 ; SetPACA + 128
        0x00002476:    4a18        .J      LDR      r2,[pc,#96] ; [0x24d8] = 0x20000064
        0x00002478:    68d2        .h      LDR      r2,[r2,#0xc]
        0x0000247a:    6892        .h      LDR      r2,[r2,#8]
        0x0000247c:    0892        ..      LSRS     r2,r2,#2
        0x0000247e:    0092        ..      LSLS     r2,r2,#2
        0x00002480:    4b15        .K      LDR      r3,[pc,#84] ; [0x24d8] = 0x20000064
        0x00002482:    68db        .h      LDR      r3,[r3,#0xc]
        0x00002484:    609a        .`      STR      r2,[r3,#8]
        0x00002486:    4a14        .J      LDR      r2,[pc,#80] ; [0x24d8] = 0x20000064
        0x00002488:    68d2        .h      LDR      r2,[r2,#0xc]
        0x0000248a:    6892        .h      LDR      r2,[r2,#8]
        0x0000248c:    0892        ..      LSRS     r2,r2,#2
        0x0000248e:    0092        ..      LSLS     r2,r2,#2
        0x00002490:    1c52        R.      ADDS     r2,r2,#1
        0x00002492:    4b11        .K      LDR      r3,[pc,#68] ; [0x24d8] = 0x20000064
        0x00002494:    68db        .h      LDR      r3,[r3,#0xc]
        0x00002496:    609a        .`      STR      r2,[r3,#8]
        0x00002498:    070a        ..      LSLS     r2,r1,#28
        0x0000249a:    0f12        ..      LSRS     r2,r2,#28
        0x0000249c:    4b0e        .K      LDR      r3,[pc,#56] ; [0x24d8] = 0x20000064
        0x0000249e:    68db        .h      LDR      r3,[r3,#0xc]
        0x000024a0:    621a        .b      STR      r2,[r3,#0x20]
        0x000024a2:    4a0d        .J      LDR      r2,[pc,#52] ; [0x24d8] = 0x20000064
        0x000024a4:    68d2        .h      LDR      r2,[r2,#0xc]
        0x000024a6:    6812        .h      LDR      r2,[r2,#0]
        0x000024a8:    0852        R.      LSRS     r2,r2,#1
        0x000024aa:    0052        R.      LSLS     r2,r2,#1
        0x000024ac:    1c52        R.      ADDS     r2,r2,#1
        0x000024ae:    4b0a        .K      LDR      r3,[pc,#40] ; [0x24d8] = 0x20000064
        0x000024b0:    68db        .h      LDR      r3,[r3,#0xc]
        0x000024b2:    601a        .`      STR      r2,[r3,#0]
        0x000024b4:    bf00        ..      NOP      
        0x000024b6:    4a08        .J      LDR      r2,[pc,#32] ; [0x24d8] = 0x20000064
        0x000024b8:    68d2        .h      LDR      r2,[r2,#0xc]
        0x000024ba:    6812        .h      LDR      r2,[r2,#0]
        0x000024bc:    07d2        ..      LSLS     r2,r2,#31
        0x000024be:    0fd2        ..      LSRS     r2,r2,#31
        0x000024c0:    2a01        .*      CMP      r2,#1
        0x000024c2:    d0f8        ..      BEQ      0x24b6 ; SetPACA + 206
        0x000024c4:    4a04        .J      LDR      r2,[pc,#16] ; [0x24d8] = 0x20000064
        0x000024c6:    68d2        .h      LDR      r2,[r2,#0xc]
        0x000024c8:    6892        .h      LDR      r2,[r2,#8]
        0x000024ca:    0892        ..      LSRS     r2,r2,#2
        0x000024cc:    0092        ..      LSLS     r2,r2,#2
        0x000024ce:    4b02        .K      LDR      r3,[pc,#8] ; [0x24d8] = 0x20000064
        0x000024d0:    68db        .h      LDR      r3,[r3,#0xc]
        0x000024d2:    609a        .`      STR      r2,[r3,#8]
        0x000024d4:    4770        pG      BX       lr
    $d
        0x000024d6:    0000        ..      DCW    0
        0x000024d8:    20000064    d..     DCD    536871012
    $t
    i.Show_Word
    Show_Word
        0x000024dc:    b5fc        ..      PUSH     {r2-r7,lr}
        0x000024de:    4605        .F      MOV      r5,r0
        0x000024e0:    460e        .F      MOV      r6,r1
        0x000024e2:    4617        .F      MOV      r7,r2
        0x000024e4:    2400        .$      MOVS     r4,#0
        0x000024e6:    2000        .       MOVS     r0,#0
        0x000024e8:    9001        ..      STR      r0,[sp,#4]
        0x000024ea:    4638        8F      MOV      r0,r7
        0x000024ec:    3820         8      SUBS     r0,r0,#0x20
        0x000024ee:    0100        ..      LSLS     r0,r0,#4
        0x000024f0:    9001        ..      STR      r0,[sp,#4]
        0x000024f2:    bf00        ..      NOP      
        0x000024f4:    e011        ..      B        0x251a ; Show_Word + 62
        0x000024f6:    00f2        ..      LSLS     r2,r6,#3
        0x000024f8:    2381        .#      MOVS     r3,#0x81
        0x000024fa:    1a9a        ..      SUBS     r2,r3,r2
        0x000024fc:    1b12        ..      SUBS     r2,r2,r4
        0x000024fe:    b2d1        ..      UXTB     r1,r2
        0x00002500:    066a        j.      LSLS     r2,r5,#25
        0x00002502:    0e10        ..      LSRS     r0,r2,#24
        0x00002504:    f7ffff70    ..p.    BL       SetPACA ; 0x23e8
        0x00002508:    9801        ..      LDR      r0,[sp,#4]
        0x0000250a:    1900        ..      ADDS     r0,r0,r4
        0x0000250c:    4910        .I      LDR      r1,[pc,#64] ; [0x2550] = 0x20000074
        0x0000250e:    5c08        .\      LDRB     r0,[r1,r0]
        0x00002510:    9000        ..      STR      r0,[sp,#0]
        0x00002512:    9800        ..      LDR      r0,[sp,#0]
        0x00002514:    f000f9f0    ....    BL       WriteData ; 0x28f8
        0x00002518:    1c64        d.      ADDS     r4,r4,#1
        0x0000251a:    2c08        .,      CMP      r4,#8
        0x0000251c:    dbeb        ..      BLT      0x24f6 ; Show_Word + 26
        0x0000251e:    2400        .$      MOVS     r4,#0
        0x00002520:    e013        ..      B        0x254a ; Show_Word + 110
        0x00002522:    00f2        ..      LSLS     r2,r6,#3
        0x00002524:    2381        .#      MOVS     r3,#0x81
        0x00002526:    1a9a        ..      SUBS     r2,r3,r2
        0x00002528:    1b12        ..      SUBS     r2,r2,r4
        0x0000252a:    b2d1        ..      UXTB     r1,r2
        0x0000252c:    006a        j.      LSLS     r2,r5,#1
        0x0000252e:    1c52        R.      ADDS     r2,r2,#1
        0x00002530:    b2d0        ..      UXTB     r0,r2
        0x00002532:    f7ffff59    ..Y.    BL       SetPACA ; 0x23e8
        0x00002536:    9801        ..      LDR      r0,[sp,#4]
        0x00002538:    1900        ..      ADDS     r0,r0,r4
        0x0000253a:    3008        .0      ADDS     r0,r0,#8
        0x0000253c:    4904        .I      LDR      r1,[pc,#16] ; [0x2550] = 0x20000074
        0x0000253e:    5c08        .\      LDRB     r0,[r1,r0]
        0x00002540:    9000        ..      STR      r0,[sp,#0]
        0x00002542:    9800        ..      LDR      r0,[sp,#0]
        0x00002544:    f000f9d8    ....    BL       WriteData ; 0x28f8
        0x00002548:    1c64        d.      ADDS     r4,r4,#1
        0x0000254a:    2c08        .,      CMP      r4,#8
        0x0000254c:    dbe9        ..      BLT      0x2522 ; Show_Word + 70
        0x0000254e:    bdfc        ..      POP      {r2-r7,pc}
    $d
        0x00002550:    20000074    t..     DCD    536871028
    $t
    i.SystemCoreClockUpdate
    SystemCoreClockUpdate
        0x00002554:    b570        p.      PUSH     {r4-r6,lr}
        0x00002556:    4820         H      LDR      r0,[pc,#128] ; [0x25d8] = 0x50000200
        0x00002558:    6900        .i      LDR      r0,[r0,#0x10]
        0x0000255a:    0746        F.      LSLS     r6,r0,#29
        0x0000255c:    0f76        v.      LSRS     r6,r6,#29
        0x0000255e:    2e05        ..      CMP      r6,#5
        0x00002560:    d900        ..      BLS      0x2564 ; SystemCoreClockUpdate + 16
        0x00002562:    2604        .&      MOVS     r6,#4
        0x00002564:    2e02        ..      CMP      r6,#2
        0x00002566:    d003        ..      BEQ      0x2570 ; SystemCoreClockUpdate + 28
        0x00002568:    00b0        ..      LSLS     r0,r6,#2
        0x0000256a:    491c        .I      LDR      r1,[pc,#112] ; [0x25dc] = 0x20000008
        0x0000256c:    580d        .X      LDR      r5,[r1,r0]
        0x0000256e:    e01e        ..      B        0x25ae ; SystemCoreClockUpdate + 90
        0x00002570:    4819        .H      LDR      r0,[pc,#100] ; [0x25d8] = 0x50000200
        0x00002572:    6a00        .j      LDR      r0,[r0,#0x20]
        0x00002574:    0400        ..      LSLS     r0,r0,#16
        0x00002576:    0f84        ..      LSRS     r4,r0,#30
        0x00002578:    2c01        .,      CMP      r4,#1
        0x0000257a:    d900        ..      BLS      0x257e ; SystemCoreClockUpdate + 42
        0x0000257c:    1e64        d.      SUBS     r4,r4,#1
        0x0000257e:    4a16        .J      LDR      r2,[pc,#88] ; [0x25d8] = 0x50000200
        0x00002580:    6a12        .j      LDR      r2,[r2,#0x20]
        0x00002582:    0312        ..      LSLS     r2,r2,#12
        0x00002584:    0fd2        ..      LSRS     r2,r2,#31
        0x00002586:    d001        ..      BEQ      0x258c ; SystemCoreClockUpdate + 56
        0x00002588:    4a15        .J      LDR      r2,[pc,#84] ; [0x25e0] = 0x1518000
        0x0000258a:    e000        ..      B        0x258e ; SystemCoreClockUpdate + 58
        0x0000258c:    4a15        .J      LDR      r2,[pc,#84] ; [0x25e4] = 0xb71b00
        0x0000258e:    4b12        .K      LDR      r3,[pc,#72] ; [0x25d8] = 0x50000200
        0x00002590:    6a1b        .j      LDR      r3,[r3,#0x20]
        0x00002592:    05db        ..      LSLS     r3,r3,#23
        0x00002594:    0ddb        ..      LSRS     r3,r3,#23
        0x00002596:    1c9b        ..      ADDS     r3,r3,#2
        0x00002598:    4610        .F      MOV      r0,r2
        0x0000259a:    4358        XC      MULS     r0,r3,r0
        0x0000259c:    4a0e        .J      LDR      r2,[pc,#56] ; [0x25d8] = 0x50000200
        0x0000259e:    6a12        .j      LDR      r2,[r2,#0x20]
        0x000025a0:    0492        ..      LSLS     r2,r2,#18
        0x000025a2:    0ed2        ..      LSRS     r2,r2,#27
        0x000025a4:    1c91        ..      ADDS     r1,r2,#2
        0x000025a6:    f7fdff35    ..5.    BL       __aeabi_uidiv ; 0x414
        0x000025aa:    40e0        .@      LSRS     r0,r0,r4
        0x000025ac:    4605        .F      MOV      r5,r0
        0x000025ae:    480a        .H      LDR      r0,[pc,#40] ; [0x25d8] = 0x50000200
        0x000025b0:    6980        .i      LDR      r0,[r0,#0x18]
        0x000025b2:    0700        ..      LSLS     r0,r0,#28
        0x000025b4:    0f00        ..      LSRS     r0,r0,#28
        0x000025b6:    1c41        A.      ADDS     r1,r0,#1
        0x000025b8:    4628        (F      MOV      r0,r5
        0x000025ba:    f7fdff2b    ..+.    BL       __aeabi_uidiv ; 0x414
        0x000025be:    490a        .I      LDR      r1,[pc,#40] ; [0x25e8] = 0x20000000
        0x000025c0:    6008        .`      STR      r0,[r1,#0]
        0x000025c2:    490a        .I      LDR      r1,[pc,#40] ; [0x25ec] = 0xf4240
        0x000025c4:    4808        .H      LDR      r0,[pc,#32] ; [0x25e8] = 0x20000000
        0x000025c6:    6800        .h      LDR      r0,[r0,#0]
        0x000025c8:    104a        J.      ASRS     r2,r1,#1
        0x000025ca:    1880        ..      ADDS     r0,r0,r2
        0x000025cc:    f7fdff22    ..".    BL       __aeabi_uidiv ; 0x414
        0x000025d0:    4907        .I      LDR      r1,[pc,#28] ; [0x25f0] = 0x20000004
        0x000025d2:    6008        .`      STR      r0,[r1,#0]
        0x000025d4:    bd70        p.      POP      {r4-r6,pc}
    $d
        0x000025d6:    0000        ..      DCW    0
        0x000025d8:    50000200    ...P    DCD    1342177792
        0x000025dc:    20000008    ...     DCD    536870920
        0x000025e0:    01518000    ..Q.    DCD    22118400
        0x000025e4:    00b71b00    ....    DCD    12000000
        0x000025e8:    20000000    ...     DCD    536870912
        0x000025ec:    000f4240    @B..    DCD    1000000
        0x000025f0:    20000004    ...     DCD    536870916
    $t
    i.SystemInit
    SystemInit
        0x000025f4:    4770        pG      BX       lr
        0x000025f6:    0000        ..      MOVS     r0,r0
    i.TMR2_IRQHandler
    TMR2_IRQHandler
        0x000025f8:    b500        ..      PUSH     {lr}
        0x000025fa:    b085        ..      SUB      sp,sp,#0x14
        0x000025fc:    2214        ."      MOVS     r2,#0x14
        0x000025fe:    4911        .I      LDR      r1,[pc,#68] ; [0x2644] = 0x2dcc
        0x00002600:    4668        hF      MOV      r0,sp
        0x00002602:    f7fdfdbd    ....    BL       __aeabi_memcpy4 ; 0x180
        0x00002606:    4810        .H      LDR      r0,[pc,#64] ; [0x2648] = 0x20000044
        0x00002608:    8800        ..      LDRH     r0,[r0,#0]
        0x0000260a:    1c40        @.      ADDS     r0,r0,#1
        0x0000260c:    490e        .I      LDR      r1,[pc,#56] ; [0x2648] = 0x20000044
        0x0000260e:    8008        ..      STRH     r0,[r1,#0]
        0x00002610:    4608        .F      MOV      r0,r1
        0x00002612:    8802        ..      LDRH     r2,[r0,#0]
        0x00002614:    a10d        ..      ADR      r1,{pc}+0x38 ; 0x264c
        0x00002616:    4668        hF      MOV      r0,sp
        0x00002618:    f7fdfe00    ....    BL       __2sprintf ; 0x21c
        0x0000261c:    4669        iF      MOV      r1,sp
        0x0000261e:    2001        .       MOVS     r0,#1
        0x00002620:    f000fb4e    ..N.    BL       print_lcd ; 0x2cc0
        0x00002624:    480d        .H      LDR      r0,[pc,#52] ; [0x265c] = 0x50004080
        0x00002626:    6880        .h      LDR      r0,[r0,#8]
        0x00002628:    2105        .!      MOVS     r1,#5
        0x0000262a:    0309        ..      LSLS     r1,r1,#12
        0x0000262c:    4048        H@      EORS     r0,r0,r1
        0x0000262e:    490b        .I      LDR      r1,[pc,#44] ; [0x265c] = 0x50004080
        0x00002630:    6088        .`      STR      r0,[r1,#8]
        0x00002632:    480b        .H      LDR      r0,[pc,#44] ; [0x2660] = 0x40110000
        0x00002634:    6880        .h      LDR      r0,[r0,#8]
        0x00002636:    0840        @.      LSRS     r0,r0,#1
        0x00002638:    0040        @.      LSLS     r0,r0,#1
        0x0000263a:    1c40        @.      ADDS     r0,r0,#1
        0x0000263c:    4908        .I      LDR      r1,[pc,#32] ; [0x2660] = 0x40110000
        0x0000263e:    6088        .`      STR      r0,[r1,#8]
        0x00002640:    b005        ..      ADD      sp,sp,#0x14
        0x00002642:    bd00        ..      POP      {pc}
    $d
        0x00002644:    00002dcc    .-..    DCD    11724
        0x00002648:    20000044    D..     DCD    536870980
        0x0000264c:    253a3254    T2:%    DCD    624570964
        0x00002650:    2e302864    d(0.    DCD    774908004
        0x00002654:    292e7338    8s.)    DCD    690910008
        0x00002658:    00000000    ....    DCD    0
        0x0000265c:    50004080    .@.P    DCD    1342193792
        0x00002660:    40110000    ...@    DCD    1074855936
    $t
    i.TMR3_IRQHandler
    TMR3_IRQHandler
        0x00002664:    b530        0.      PUSH     {r4,r5,lr}
        0x00002666:    b093        ..      SUB      sp,sp,#0x4c
        0x00002668:    2214        ."      MOVS     r2,#0x14
        0x0000266a:    495a        ZI      LDR      r1,[pc,#360] ; [0x27d4] = 0x2de0
        0x0000266c:    a80e        ..      ADD      r0,sp,#0x38
        0x0000266e:    f7fdfd87    ....    BL       __aeabi_memcpy4 ; 0x180
        0x00002672:    2214        ."      MOVS     r2,#0x14
        0x00002674:    4957        WI      LDR      r1,[pc,#348] ; [0x27d4] = 0x2de0
        0x00002676:    3114        .1      ADDS     r1,r1,#0x14
        0x00002678:    a809        ..      ADD      r0,sp,#0x24
        0x0000267a:    f7fdfd81    ....    BL       __aeabi_memcpy4 ; 0x180
        0x0000267e:    2214        ."      MOVS     r2,#0x14
        0x00002680:    4954        TI      LDR      r1,[pc,#336] ; [0x27d4] = 0x2de0
        0x00002682:    3128        (1      ADDS     r1,r1,#0x28
        0x00002684:    a804        ..      ADD      r0,sp,#0x10
        0x00002686:    f7fdfd7b    ..{.    BL       __aeabi_memcpy4 ; 0x180
        0x0000268a:    4b52        RK      LDR      r3,[pc,#328] ; [0x27d4] = 0x2de0
        0x0000268c:    333c        <3      ADDS     r3,r3,#0x3c
        0x0000268e:    cb0f        ..      LDM      r3,{r0-r3}
        0x00002690:    466c        lF      MOV      r4,sp
        0x00002692:    c40f        ..      STM      r4!,{r0-r3}
        0x00002694:    2400        .$      MOVS     r4,#0
        0x00002696:    f7fffd5d    ..].    BL       Read_A2D_8591 ; 0x2154
        0x0000269a:    4604        .F      MOV      r4,r0
        0x0000269c:    4620         F      MOV      r0,r4
        0x0000269e:    f000faad    ....    BL       out_D2A_8591 ; 0x2bfc
        0x000026a2:    484d        MH      LDR      r0,[pc,#308] ; [0x27d8] = 0x20000046
        0x000026a4:    8800        ..      LDRH     r0,[r0,#0]
        0x000026a6:    1c40        @.      ADDS     r0,r0,#1
        0x000026a8:    494b        KI      LDR      r1,[pc,#300] ; [0x27d8] = 0x20000046
        0x000026aa:    8008        ..      STRH     r0,[r1,#0]
        0x000026ac:    4608        .F      MOV      r0,r1
        0x000026ae:    8802        ..      LDRH     r2,[r0,#0]
        0x000026b0:    a14a        J.      ADR      r1,{pc}+0x12c ; 0x27dc
        0x000026b2:    a80f        ..      ADD      r0,sp,#0x3c
        0x000026b4:    3003        .0      ADDS     r0,#3
        0x000026b6:    f7fdfdb1    ....    BL       __2sprintf ; 0x21c
        0x000026ba:    484a        JH      LDR      r0,[pc,#296] ; [0x27e4] = 0x2000005c
        0x000026bc:    6800        .h      LDR      r0,[r0,#0]
        0x000026be:    494a        JI      LDR      r1,[pc,#296] ; [0x27e8] = 0xf4240
        0x000026c0:    4288        .B      CMP      r0,r1
        0x000026c2:    d30c        ..      BCC      0x26de ; TMR3_IRQHandler + 122
        0x000026c4:    4947        GI      LDR      r1,[pc,#284] ; [0x27e4] = 0x2000005c
        0x000026c6:    6808        .h      LDR      r0,[r1,#0]
        0x000026c8:    4947        GI      LDR      r1,[pc,#284] ; [0x27e8] = 0xf4240
        0x000026ca:    f7fdfea3    ....    BL       __aeabi_uidiv ; 0x414
        0x000026ce:    4605        .F      MOV      r5,r0
        0x000026d0:    462a        *F      MOV      r2,r5
        0x000026d2:    a146        F.      ADR      r1,{pc}+0x11a ; 0x27ec
        0x000026d4:    a80a        ..      ADD      r0,sp,#0x28
        0x000026d6:    3001        .0      ADDS     r0,#1
        0x000026d8:    f7fdfda0    ....    BL       __2sprintf ; 0x21c
        0x000026dc:    e01a        ..      B        0x2714 ; TMR3_IRQHandler + 176
        0x000026de:    4841        AH      LDR      r0,[pc,#260] ; [0x27e4] = 0x2000005c
        0x000026e0:    6800        .h      LDR      r0,[r0,#0]
        0x000026e2:    217d        }!      MOVS     r1,#0x7d
        0x000026e4:    00c9        ..      LSLS     r1,r1,#3
        0x000026e6:    4288        .B      CMP      r0,r1
        0x000026e8:    d30d        ..      BCC      0x2706 ; TMR3_IRQHandler + 162
        0x000026ea:    493e        >I      LDR      r1,[pc,#248] ; [0x27e4] = 0x2000005c
        0x000026ec:    6808        .h      LDR      r0,[r1,#0]
        0x000026ee:    217d        }!      MOVS     r1,#0x7d
        0x000026f0:    00c9        ..      LSLS     r1,r1,#3
        0x000026f2:    f7fdfe8f    ....    BL       __aeabi_uidiv ; 0x414
        0x000026f6:    4605        .F      MOV      r5,r0
        0x000026f8:    462a        *F      MOV      r2,r5
        0x000026fa:    a13e        >.      ADR      r1,{pc}+0xfa ; 0x27f4
        0x000026fc:    a80a        ..      ADD      r0,sp,#0x28
        0x000026fe:    3001        .0      ADDS     r0,#1
        0x00002700:    f7fdfd8c    ....    BL       __2sprintf ; 0x21c
        0x00002704:    e006        ..      B        0x2714 ; TMR3_IRQHandler + 176
        0x00002706:    4837        7H      LDR      r0,[pc,#220] ; [0x27e4] = 0x2000005c
        0x00002708:    a13c        <.      ADR      r1,{pc}+0xf4 ; 0x27fc
        0x0000270a:    6802        .h      LDR      r2,[r0,#0]
        0x0000270c:    a80a        ..      ADD      r0,sp,#0x28
        0x0000270e:    3001        .0      ADDS     r0,#1
        0x00002710:    f7fdfd84    ....    BL       __2sprintf ; 0x21c
        0x00002714:    a909        ..      ADD      r1,sp,#0x24
        0x00002716:    2002        .       MOVS     r0,#2
        0x00002718:    f000fad2    ....    BL       print_lcd ; 0x2cc0
        0x0000271c:    4831        1H      LDR      r0,[pc,#196] ; [0x27e4] = 0x2000005c
        0x0000271e:    6840        @h      LDR      r0,[r0,#4]
        0x00002720:    4931        1I      LDR      r1,[pc,#196] ; [0x27e8] = 0xf4240
        0x00002722:    4288        .B      CMP      r0,r1
        0x00002724:    d30c        ..      BCC      0x2740 ; TMR3_IRQHandler + 220
        0x00002726:    492f        /I      LDR      r1,[pc,#188] ; [0x27e4] = 0x2000005c
        0x00002728:    6848        Hh      LDR      r0,[r1,#4]
        0x0000272a:    492f        /I      LDR      r1,[pc,#188] ; [0x27e8] = 0xf4240
        0x0000272c:    f7fdfe72    ..r.    BL       __aeabi_uidiv ; 0x414
        0x00002730:    4605        .F      MOV      r5,r0
        0x00002732:    462a        *F      MOV      r2,r5
        0x00002734:    a12d        -.      ADR      r1,{pc}+0xb8 ; 0x27ec
        0x00002736:    a805        ..      ADD      r0,sp,#0x14
        0x00002738:    3001        .0      ADDS     r0,#1
        0x0000273a:    f7fdfd6f    ..o.    BL       __2sprintf ; 0x21c
        0x0000273e:    e01a        ..      B        0x2776 ; TMR3_IRQHandler + 274
        0x00002740:    4828        (H      LDR      r0,[pc,#160] ; [0x27e4] = 0x2000005c
        0x00002742:    6840        @h      LDR      r0,[r0,#4]
        0x00002744:    217d        }!      MOVS     r1,#0x7d
        0x00002746:    00c9        ..      LSLS     r1,r1,#3
        0x00002748:    4288        .B      CMP      r0,r1
        0x0000274a:    d30d        ..      BCC      0x2768 ; TMR3_IRQHandler + 260
        0x0000274c:    4925        %I      LDR      r1,[pc,#148] ; [0x27e4] = 0x2000005c
        0x0000274e:    6848        Hh      LDR      r0,[r1,#4]
        0x00002750:    217d        }!      MOVS     r1,#0x7d
        0x00002752:    00c9        ..      LSLS     r1,r1,#3
        0x00002754:    f7fdfe5e    ..^.    BL       __aeabi_uidiv ; 0x414
        0x00002758:    4605        .F      MOV      r5,r0
        0x0000275a:    462a        *F      MOV      r2,r5
        0x0000275c:    a125        %.      ADR      r1,{pc}+0x98 ; 0x27f4
        0x0000275e:    a805        ..      ADD      r0,sp,#0x14
        0x00002760:    3001        .0      ADDS     r0,#1
        0x00002762:    f7fdfd5b    ..[.    BL       __2sprintf ; 0x21c
        0x00002766:    e006        ..      B        0x2776 ; TMR3_IRQHandler + 274
        0x00002768:    481e        .H      LDR      r0,[pc,#120] ; [0x27e4] = 0x2000005c
        0x0000276a:    a124        $.      ADR      r1,{pc}+0x92 ; 0x27fc
        0x0000276c:    6842        Bh      LDR      r2,[r0,#4]
        0x0000276e:    a805        ..      ADD      r0,sp,#0x14
        0x00002770:    3001        .0      ADDS     r0,#1
        0x00002772:    f7fdfd53    ..S.    BL       __2sprintf ; 0x21c
        0x00002776:    a904        ..      ADD      r1,sp,#0x10
        0x00002778:    2003        .       MOVS     r0,#3
        0x0000277a:    f000faa1    ....    BL       print_lcd ; 0x2cc0
        0x0000277e:    bf00        ..      NOP      
        0x00002780:    4820         H      LDR      r0,[pc,#128] ; [0x2804] = 0x400e0000
        0x00002782:    6b00        .k      LDR      r0,[r0,#0x30]
        0x00002784:    07c0        ..      LSLS     r0,r0,#31
        0x00002786:    0fc0        ..      LSRS     r0,r0,#31
        0x00002788:    d0fa        ..      BEQ      0x2780 ; TMR3_IRQHandler + 284
        0x0000278a:    481e        .H      LDR      r0,[pc,#120] ; [0x2804] = 0x400e0000
        0x0000278c:    6b00        .k      LDR      r0,[r0,#0x30]
        0x0000278e:    0840        @.      LSRS     r0,r0,#1
        0x00002790:    0040        @.      LSLS     r0,r0,#1
        0x00002792:    1c40        @.      ADDS     r0,r0,#1
        0x00002794:    491b        .I      LDR      r1,[pc,#108] ; [0x2804] = 0x400e0000
        0x00002796:    6308        .c      STR      r0,[r1,#0x30]
        0x00002798:    4608        .F      MOV      r0,r1
        0x0000279a:    68c0        .h      LDR      r0,[r0,#0xc]
        0x0000279c:    b282        ..      UXTH     r2,r0
        0x0000279e:    a11a        ..      ADR      r1,{pc}+0x6a ; 0x2808
        0x000027a0:    a802        ..      ADD      r0,sp,#8
        0x000027a2:    3003        .0      ADDS     r0,#3
        0x000027a4:    f7fdfd3a    ..:.    BL       __2sprintf ; 0x21c
        0x000027a8:    4916        .I      LDR      r1,[pc,#88] ; [0x2804] = 0x400e0000
        0x000027aa:    68c9        .h      LDR      r1,[r1,#0xc]
        0x000027ac:    b208        ..      SXTH     r0,r1
        0x000027ae:    f000f95a    ..Z.    BL       disp2Digit8574_DEC ; 0x2a66
        0x000027b2:    4814        .H      LDR      r0,[pc,#80] ; [0x2804] = 0x400e0000
        0x000027b4:    6a00        .j      LDR      r0,[r0,#0x20]
        0x000027b6:    2101        .!      MOVS     r1,#1
        0x000027b8:    02c9        ..      LSLS     r1,r1,#11
        0x000027ba:    4388        .C      BICS     r0,r0,r1
        0x000027bc:    1840        @.      ADDS     r0,r0,r1
        0x000027be:    4911        .I      LDR      r1,[pc,#68] ; [0x2804] = 0x400e0000
        0x000027c0:    6208        .b      STR      r0,[r1,#0x20]
        0x000027c2:    4813        .H      LDR      r0,[pc,#76] ; [0x2810] = 0x40110000
        0x000027c4:    6a80        .j      LDR      r0,[r0,#0x28]
        0x000027c6:    0840        @.      LSRS     r0,r0,#1
        0x000027c8:    0040        @.      LSLS     r0,r0,#1
        0x000027ca:    1c40        @.      ADDS     r0,r0,#1
        0x000027cc:    4910        .I      LDR      r1,[pc,#64] ; [0x2810] = 0x40110000
        0x000027ce:    6288        .b      STR      r0,[r1,#0x28]
        0x000027d0:    b013        ..      ADD      sp,sp,#0x4c
        0x000027d2:    bd30        0.      POP      {r4,r5,pc}
    $d
        0x000027d4:    00002de0    .-..    DCD    11744
        0x000027d8:    20000046    F..     DCD    536870982
        0x000027dc:    20642520     %d     DCD    543434016
        0x000027e0:    00002e73    s...    DCD    11891
        0x000027e4:    2000005c    \..     DCD    536871004
        0x000027e8:    000f4240    @B..    DCD    1000000
        0x000027ec:    65736425    %dse    DCD    1702061093
        0x000027f0:    00002063    c ..    DCD    8291
        0x000027f4:    736d6425    %dms    DCD    1936548901
        0x000027f8:    00206365    ec .    DCD    2122597
        0x000027fc:    73756425    %dus    DCD    1937073189
        0x00002800:    00206365    ec .    DCD    2122597
        0x00002804:    400e0000    ...@    DCD    1074659328
        0x00002808:    20206425    %d      DCD    538993701
        0x0000280c:    00000020     ...    DCD    32
        0x00002810:    40110000    ...@    DCD    1074855936
    $t
    i.UART02_IRQHandler
    UART02_IRQHandler
        0x00002814:    b570        p.      PUSH     {r4-r6,lr}
        0x00002816:    480a        .H      LDR      r0,[pc,#40] ; [0x2840] = 0x40050000
        0x00002818:    69c4        .i      LDR      r4,[r0,#0x1c]
        0x0000281a:    480a        .H      LDR      r0,[pc,#40] ; [0x2844] = 0x40154000
        0x0000281c:    69c5        .i      LDR      r5,[r0,#0x1c]
        0x0000281e:    480a        .H      LDR      r0,[pc,#40] ; [0x2848] = 0x20000678
        0x00002820:    6800        .h      LDR      r0,[r0,#0]
        0x00002822:    2800        .(      CMP      r0,#0
        0x00002824:    d003        ..      BEQ      0x282e ; UART02_IRQHandler + 26
        0x00002826:    4620         F      MOV      r0,r4
        0x00002828:    4907        .I      LDR      r1,[pc,#28] ; [0x2848] = 0x20000678
        0x0000282a:    6809        .h      LDR      r1,[r1,#0]
        0x0000282c:    4788        .G      BLX      r1
        0x0000282e:    4807        .H      LDR      r0,[pc,#28] ; [0x284c] = 0x20000680
        0x00002830:    6800        .h      LDR      r0,[r0,#0]
        0x00002832:    2800        .(      CMP      r0,#0
        0x00002834:    d003        ..      BEQ      0x283e ; UART02_IRQHandler + 42
        0x00002836:    4628        (F      MOV      r0,r5
        0x00002838:    4904        .I      LDR      r1,[pc,#16] ; [0x284c] = 0x20000680
        0x0000283a:    6809        .h      LDR      r1,[r1,#0]
        0x0000283c:    4788        .G      BLX      r1
        0x0000283e:    bd70        p.      POP      {r4-r6,pc}
    $d
        0x00002840:    40050000    ...@    DCD    1074069504
        0x00002844:    40154000    .@.@    DCD    1075134464
        0x00002848:    20000678    x..     DCD    536872568
        0x0000284c:    20000680    ...     DCD    536872576
    $t
    i.UART1_IRQHandler
    UART1_IRQHandler
        0x00002850:    b510        ..      PUSH     {r4,lr}
        0x00002852:    4805        .H      LDR      r0,[pc,#20] ; [0x2868] = 0x40150000
        0x00002854:    69c4        .i      LDR      r4,[r0,#0x1c]
        0x00002856:    4805        .H      LDR      r0,[pc,#20] ; [0x286c] = 0x2000067c
        0x00002858:    6800        .h      LDR      r0,[r0,#0]
        0x0000285a:    2800        .(      CMP      r0,#0
        0x0000285c:    d003        ..      BEQ      0x2866 ; UART1_IRQHandler + 22
        0x0000285e:    4620         F      MOV      r0,r4
        0x00002860:    4902        .I      LDR      r1,[pc,#8] ; [0x286c] = 0x2000067c
        0x00002862:    6809        .h      LDR      r1,[r1,#0]
        0x00002864:    4788        .G      BLX      r1
        0x00002866:    bd10        ..      POP      {r4,pc}
    $d
        0x00002868:    40150000    ...@    DCD    1075118080
        0x0000286c:    2000067c    |..     DCD    536872572
    $t
    i.UART_INT_HANDLE
    UART_INT_HANDLE
        0x00002870:    b508        ..      PUSH     {r3,lr}
        0x00002872:    a01b        ..      ADR      r0,{pc}+0x6e ; 0x28e0
        0x00002874:    6800        .h      LDR      r0,[r0,#0]
        0x00002876:    9000        ..      STR      r0,[sp,#0]
        0x00002878:    e02b        +.      B        0x28d2 ; UART_INT_HANDLE + 98
        0x0000287a:    2201        ."      MOVS     r2,#1
        0x0000287c:    4669        iF      MOV      r1,sp
        0x0000287e:    0510        ..      LSLS     r0,r2,#20
        0x00002880:    f7fefff4    ....    BL       DrvUART_Read ; 0x186c
        0x00002884:    4817        .H      LDR      r0,[pc,#92] ; [0x28e4] = 0x2000001c
        0x00002886:    8800        ..      LDRH     r0,[r0,#0]
        0x00002888:    2808        .(      CMP      r0,#8
        0x0000288a:    da0b        ..      BGE      0x28a4 ; UART_INT_HANDLE + 52
        0x0000288c:    4668        hF      MOV      r0,sp
        0x0000288e:    7800        .x      LDRB     r0,[r0,#0]
        0x00002890:    4915        .I      LDR      r1,[pc,#84] ; [0x28e8] = 0x20000694
        0x00002892:    4a14        .J      LDR      r2,[pc,#80] ; [0x28e4] = 0x2000001c
        0x00002894:    8812        ..      LDRH     r2,[r2,#0]
        0x00002896:    5488        .T      STRB     r0,[r1,r2]
        0x00002898:    4812        .H      LDR      r0,[pc,#72] ; [0x28e4] = 0x2000001c
        0x0000289a:    8800        ..      LDRH     r0,[r0,#0]
        0x0000289c:    1c40        @.      ADDS     r0,r0,#1
        0x0000289e:    4911        .I      LDR      r1,[pc,#68] ; [0x28e4] = 0x2000001c
        0x000028a0:    8008        ..      STRH     r0,[r1,#0]
        0x000028a2:    e016        ..      B        0x28d2 ; UART_INT_HANDLE + 98
        0x000028a4:    480f        .H      LDR      r0,[pc,#60] ; [0x28e4] = 0x2000001c
        0x000028a6:    8800        ..      LDRH     r0,[r0,#0]
        0x000028a8:    2808        .(      CMP      r0,#8
        0x000028aa:    d112        ..      BNE      0x28d2 ; UART_INT_HANDLE + 98
        0x000028ac:    4668        hF      MOV      r0,sp
        0x000028ae:    7801        .x      LDRB     r1,[r0,#0]
        0x000028b0:    480d        .H      LDR      r0,[pc,#52] ; [0x28e8] = 0x20000694
        0x000028b2:    4a0c        .J      LDR      r2,[pc,#48] ; [0x28e4] = 0x2000001c
        0x000028b4:    8812        ..      LDRH     r2,[r2,#0]
        0x000028b6:    5481        .T      STRB     r1,[r0,r2]
        0x000028b8:    2000        .       MOVS     r0,#0
        0x000028ba:    490a        .I      LDR      r1,[pc,#40] ; [0x28e4] = 0x2000001c
        0x000028bc:    8008        ..      STRH     r0,[r1,#0]
        0x000028be:    4a0a        .J      LDR      r2,[pc,#40] ; [0x28e8] = 0x20000694
        0x000028c0:    a10a        ..      ADR      r1,{pc}+0x2c ; 0x28ec
        0x000028c2:    480b        .H      LDR      r0,[pc,#44] ; [0x28f0] = 0x20000032
        0x000028c4:    f7fdfcaa    ....    BL       __2sprintf ; 0x21c
        0x000028c8:    4909        .I      LDR      r1,[pc,#36] ; [0x28f0] = 0x20000032
        0x000028ca:    1f09        ..      SUBS     r1,r1,#4
        0x000028cc:    2000        .       MOVS     r0,#0
        0x000028ce:    f000f9f7    ....    BL       print_lcd ; 0x2cc0
        0x000028d2:    4808        .H      LDR      r0,[pc,#32] ; [0x28f4] = 0x40150000
        0x000028d4:    69c0        .i      LDR      r0,[r0,#0x1c]
        0x000028d6:    07c0        ..      LSLS     r0,r0,#31
        0x000028d8:    0fc0        ..      LSRS     r0,r0,#31
        0x000028da:    2801        .(      CMP      r0,#1
        0x000028dc:    d0cd        ..      BEQ      0x287a ; UART_INT_HANDLE + 10
        0x000028de:    bd08        ..      POP      {r3,pc}
    $d
        0x000028e0:    000000ff    ....    DCD    255
        0x000028e4:    2000001c    ...     DCD    536870940
        0x000028e8:    20000694    ...     DCD    536872596
        0x000028ec:    00007325    %s..    DCD    29477
        0x000028f0:    20000032    2..     DCD    536870962
        0x000028f4:    40150000    ...@    DCD    1075118080
    $t
    i.WriteData
    WriteData
        0x000028f8:    4914        .I      LDR      r1,[pc,#80] ; [0x294c] = 0x20000064
        0x000028fa:    68c9        .h      LDR      r1,[r1,#0xc]
        0x000028fc:    6889        .h      LDR      r1,[r1,#8]
        0x000028fe:    0889        ..      LSRS     r1,r1,#2
        0x00002900:    0089        ..      LSLS     r1,r1,#2
        0x00002902:    1c49        I.      ADDS     r1,r1,#1
        0x00002904:    4a11        .J      LDR      r2,[pc,#68] ; [0x294c] = 0x20000064
        0x00002906:    68d2        .h      LDR      r2,[r2,#0xc]
        0x00002908:    6091        .`      STR      r1,[r2,#8]
        0x0000290a:    21ff        .!      MOVS     r1,#0xff
        0x0000290c:    3101        .1      ADDS     r1,#1
        0x0000290e:    4301        .C      ORRS     r1,r1,r0
        0x00002910:    4a0e        .J      LDR      r2,[pc,#56] ; [0x294c] = 0x20000064
        0x00002912:    68d2        .h      LDR      r2,[r2,#0xc]
        0x00002914:    6211        .b      STR      r1,[r2,#0x20]
        0x00002916:    490d        .I      LDR      r1,[pc,#52] ; [0x294c] = 0x20000064
        0x00002918:    68c9        .h      LDR      r1,[r1,#0xc]
        0x0000291a:    6809        .h      LDR      r1,[r1,#0]
        0x0000291c:    0849        I.      LSRS     r1,r1,#1
        0x0000291e:    0049        I.      LSLS     r1,r1,#1
        0x00002920:    1c49        I.      ADDS     r1,r1,#1
        0x00002922:    4a0a        .J      LDR      r2,[pc,#40] ; [0x294c] = 0x20000064
        0x00002924:    68d2        .h      LDR      r2,[r2,#0xc]
        0x00002926:    6011        .`      STR      r1,[r2,#0]
        0x00002928:    bf00        ..      NOP      
        0x0000292a:    4908        .I      LDR      r1,[pc,#32] ; [0x294c] = 0x20000064
        0x0000292c:    68c9        .h      LDR      r1,[r1,#0xc]
        0x0000292e:    6809        .h      LDR      r1,[r1,#0]
        0x00002930:    07c9        ..      LSLS     r1,r1,#31
        0x00002932:    0fc9        ..      LSRS     r1,r1,#31
        0x00002934:    2901        .)      CMP      r1,#1
        0x00002936:    d0f8        ..      BEQ      0x292a ; WriteData + 50
        0x00002938:    4904        .I      LDR      r1,[pc,#16] ; [0x294c] = 0x20000064
        0x0000293a:    68c9        .h      LDR      r1,[r1,#0xc]
        0x0000293c:    6889        .h      LDR      r1,[r1,#8]
        0x0000293e:    0889        ..      LSRS     r1,r1,#2
        0x00002940:    0089        ..      LSLS     r1,r1,#2
        0x00002942:    4a02        .J      LDR      r2,[pc,#8] ; [0x294c] = 0x20000064
        0x00002944:    68d2        .h      LDR      r2,[r2,#0xc]
        0x00002946:    6091        .`      STR      r1,[r2,#8]
        0x00002948:    4770        pG      BX       lr
    $d
        0x0000294a:    0000        ..      DCW    0
        0x0000294c:    20000064    d..     DCD    536871012
    $t
    i.Write_to_any8574
    Write_to_any8574
        0x00002950:    b538        8.      PUSH     {r3-r5,lr}
        0x00002952:    4604        .F      MOV      r4,r0
        0x00002954:    460d        .F      MOV      r5,r1
        0x00002956:    f7fefc65    ..e.    BL       DrvSYS_GetHCLKFreq ; 0x1224
        0x0000295a:    4922        "I      LDR      r1,[pc,#136] ; [0x29e4] = 0x20000000
        0x0000295c:    6008        .`      STR      r0,[r1,#0]
        0x0000295e:    4922        "I      LDR      r1,[pc,#136] ; [0x29e8] = 0xc350
        0x00002960:    2001        .       MOVS     r0,#1
        0x00002962:    f7fefbdd    ....    BL       DrvI2C_Open ; 0x1120
        0x00002966:    2000        .       MOVS     r0,#0
        0x00002968:    4603        .F      MOV      r3,r0
        0x0000296a:    4602        .F      MOV      r2,r0
        0x0000296c:    2101        .!      MOVS     r1,#1
        0x0000296e:    9000        ..      STR      r0,[sp,#0]
        0x00002970:    4608        .F      MOV      r0,r1
        0x00002972:    f7fefbab    ....    BL       DrvI2C_Ctrl ; 0x10cc
        0x00002976:    bf00        ..      NOP      
        0x00002978:    481c        .H      LDR      r0,[pc,#112] ; [0x29ec] = 0x40120000
        0x0000297a:    6800        .h      LDR      r0,[r0,#0]
        0x0000297c:    0700        ..      LSLS     r0,r0,#28
        0x0000297e:    0fc0        ..      LSRS     r0,r0,#31
        0x00002980:    d0fa        ..      BEQ      0x2978 ; Write_to_any8574 + 40
        0x00002982:    481a        .H      LDR      r0,[pc,#104] ; [0x29ec] = 0x40120000
        0x00002984:    6084        .`      STR      r4,[r0,#8]
        0x00002986:    2000        .       MOVS     r0,#0
        0x00002988:    2301        .#      MOVS     r3,#1
        0x0000298a:    4602        .F      MOV      r2,r0
        0x0000298c:    4601        .F      MOV      r1,r0
        0x0000298e:    9000        ..      STR      r0,[sp,#0]
        0x00002990:    4618        .F      MOV      r0,r3
        0x00002992:    f7fefb9b    ....    BL       DrvI2C_Ctrl ; 0x10cc
        0x00002996:    bf00        ..      NOP      
        0x00002998:    4814        .H      LDR      r0,[pc,#80] ; [0x29ec] = 0x40120000
        0x0000299a:    6800        .h      LDR      r0,[r0,#0]
        0x0000299c:    0700        ..      LSLS     r0,r0,#28
        0x0000299e:    0fc0        ..      LSRS     r0,r0,#31
        0x000029a0:    d0fa        ..      BEQ      0x2998 ; Write_to_any8574 + 72
        0x000029a2:    4812        .H      LDR      r0,[pc,#72] ; [0x29ec] = 0x40120000
        0x000029a4:    6085        .`      STR      r5,[r0,#8]
        0x000029a6:    2001        .       MOVS     r0,#1
        0x000029a8:    4603        .F      MOV      r3,r0
        0x000029aa:    2200        ."      MOVS     r2,#0
        0x000029ac:    4611        .F      MOV      r1,r2
        0x000029ae:    9000        ..      STR      r0,[sp,#0]
        0x000029b0:    f7fefb8c    ....    BL       DrvI2C_Ctrl ; 0x10cc
        0x000029b4:    bf00        ..      NOP      
        0x000029b6:    480d        .H      LDR      r0,[pc,#52] ; [0x29ec] = 0x40120000
        0x000029b8:    6800        .h      LDR      r0,[r0,#0]
        0x000029ba:    0700        ..      LSLS     r0,r0,#28
        0x000029bc:    0fc0        ..      LSRS     r0,r0,#31
        0x000029be:    d0fa        ..      BEQ      0x29b6 ; Write_to_any8574 + 102
        0x000029c0:    2000        .       MOVS     r0,#0
        0x000029c2:    2301        .#      MOVS     r3,#1
        0x000029c4:    461a        .F      MOV      r2,r3
        0x000029c6:    4601        .F      MOV      r1,r0
        0x000029c8:    9000        ..      STR      r0,[sp,#0]
        0x000029ca:    4618        .F      MOV      r0,r3
        0x000029cc:    f7fefb7e    ..~.    BL       DrvI2C_Ctrl ; 0x10cc
        0x000029d0:    bf00        ..      NOP      
        0x000029d2:    4806        .H      LDR      r0,[pc,#24] ; [0x29ec] = 0x40120000
        0x000029d4:    6800        .h      LDR      r0,[r0,#0]
        0x000029d6:    06c0        ..      LSLS     r0,r0,#27
        0x000029d8:    0fc0        ..      LSRS     r0,r0,#31
        0x000029da:    d1fa        ..      BNE      0x29d2 ; Write_to_any8574 + 130
        0x000029dc:    2001        .       MOVS     r0,#1
        0x000029de:    f7fefb2d    ..-.    BL       DrvI2C_Close ; 0x103c
        0x000029e2:    bd38        8.      POP      {r3-r5,pc}
    $d
        0x000029e4:    20000000    ...     DCD    536870912
        0x000029e8:    0000c350    P...    DCD    50000
        0x000029ec:    40120000    ...@    DCD    1074921472
    $t
    i.__ARM_common_switch8
    __ARM_common_switch8
        0x000029f0:    b430        0.      PUSH     {r4,r5}
        0x000029f2:    4674        tF      MOV      r4,lr
        0x000029f4:    1e64        d.      SUBS     r4,r4,#1
        0x000029f6:    7825        %x      LDRB     r5,[r4,#0]
        0x000029f8:    1c64        d.      ADDS     r4,r4,#1
        0x000029fa:    42ab        .B      CMP      r3,r5
        0x000029fc:    d304        ..      BCC      0x2a08 ; __ARM_common_switch8 + 24
        0x000029fe:    5d63        c]      LDRB     r3,[r4,r5]
        0x00002a00:    005b        [.      LSLS     r3,r3,#1
        0x00002a02:    18e3        ..      ADDS     r3,r4,r3
        0x00002a04:    bc30        0.      POP      {r4,r5}
        0x00002a06:    4718        .G      BX       r3
        0x00002a08:    461d        .F      MOV      r5,r3
        0x00002a0a:    e7f8        ..      B        0x29fe ; __ARM_common_switch8 + 14
    i._is_digit
    _is_digit
        0x00002a0c:    3830        08      SUBS     r0,r0,#0x30
        0x00002a0e:    280a        .(      CMP      r0,#0xa
        0x00002a10:    d201        ..      BCS      0x2a16 ; _is_digit + 10
        0x00002a12:    2001        .       MOVS     r0,#1
        0x00002a14:    4770        pG      BX       lr
        0x00002a16:    2000        .       MOVS     r0,#0
        0x00002a18:    4770        pG      BX       lr
    i.close_seven_segment
    close_seven_segment
        0x00002a1a:    b510        ..      PUSH     {r4,lr}
        0x00002a1c:    2104        .!      MOVS     r1,#4
        0x00002a1e:    2002        .       MOVS     r0,#2
        0x00002a20:    f7fdfef8    ....    BL       DrvGPIO_ClrBit ; 0x814
        0x00002a24:    2105        .!      MOVS     r1,#5
        0x00002a26:    2002        .       MOVS     r0,#2
        0x00002a28:    f7fdfef4    ....    BL       DrvGPIO_ClrBit ; 0x814
        0x00002a2c:    2106        .!      MOVS     r1,#6
        0x00002a2e:    2002        .       MOVS     r0,#2
        0x00002a30:    f7fdfef0    ....    BL       DrvGPIO_ClrBit ; 0x814
        0x00002a34:    2107        .!      MOVS     r1,#7
        0x00002a36:    2002        .       MOVS     r0,#2
        0x00002a38:    f7fdfeec    ....    BL       DrvGPIO_ClrBit ; 0x814
        0x00002a3c:    bd10        ..      POP      {r4,pc}
    i.clr_all_pannal
    clr_all_pannal
        0x00002a3e:    b510        ..      PUSH     {r4,lr}
        0x00002a40:    2400        .$      MOVS     r4,#0
        0x00002a42:    2100        .!      MOVS     r1,#0
        0x00002a44:    4608        .F      MOV      r0,r1
        0x00002a46:    f7fffccf    ....    BL       SetPACA ; 0x23e8
        0x00002a4a:    bf00        ..      NOP      
        0x00002a4c:    e003        ..      B        0x2a56 ; clr_all_pannal + 24
        0x00002a4e:    2000        .       MOVS     r0,#0
        0x00002a50:    f7ffff52    ..R.    BL       WriteData ; 0x28f8
        0x00002a54:    1c64        d.      ADDS     r4,r4,#1
        0x00002a56:    2021        !       MOVS     r0,#0x21
        0x00002a58:    0140        @.      LSLS     r0,r0,#5
        0x00002a5a:    4284        .B      CMP      r4,r0
        0x00002a5c:    dbf7        ..      BLT      0x2a4e ; clr_all_pannal + 16
        0x00002a5e:    200f        .       MOVS     r0,#0xf
        0x00002a60:    f7ffff4a    ..J.    BL       WriteData ; 0x28f8
        0x00002a64:    bd10        ..      POP      {r4,pc}
    i.disp2Digit8574_DEC
    disp2Digit8574_DEC
        0x00002a66:    b570        p.      PUSH     {r4-r6,lr}
        0x00002a68:    4605        .F      MOV      r5,r0
        0x00002a6a:    217d        }!      MOVS     r1,#0x7d
        0x00002a6c:    00c9        ..      LSLS     r1,r1,#3
        0x00002a6e:    4628        (F      MOV      r0,r5
        0x00002a70:    f7fdfcda    ....    BL       __aeabi_idiv ; 0x428
        0x00002a74:    b244        D.      SXTB     r4,r0
        0x00002a76:    207d        }       MOVS     r0,#0x7d
        0x00002a78:    00c0        ..      LSLS     r0,r0,#3
        0x00002a7a:    4360        `C      MULS     r0,r4,r0
        0x00002a7c:    1a28        (.      SUBS     r0,r5,r0
        0x00002a7e:    b205        ..      SXTH     r5,r0
        0x00002a80:    2164        d!      MOVS     r1,#0x64
        0x00002a82:    4628        (F      MOV      r0,r5
        0x00002a84:    f7fdfcd0    ....    BL       __aeabi_idiv ; 0x428
        0x00002a88:    b244        D.      SXTB     r4,r0
        0x00002a8a:    b2e0        ..      UXTB     r0,r4
        0x00002a8c:    f7feffb4    ....    BL       HEX2Disp ; 0x19f8
        0x00002a90:    4606        .F      MOV      r6,r0
        0x00002a92:    4631        1F      MOV      r1,r6
        0x00002a94:    2072        r       MOVS     r0,#0x72
        0x00002a96:    f7ffff5b    ..[.    BL       Write_to_any8574 ; 0x2950
        0x00002a9a:    2064        d       MOVS     r0,#0x64
        0x00002a9c:    4360        `C      MULS     r0,r4,r0
        0x00002a9e:    1a28        (.      SUBS     r0,r5,r0
        0x00002aa0:    b205        ..      SXTH     r5,r0
        0x00002aa2:    210a        .!      MOVS     r1,#0xa
        0x00002aa4:    4628        (F      MOV      r0,r5
        0x00002aa6:    f7fdfcbf    ....    BL       __aeabi_idiv ; 0x428
        0x00002aaa:    b244        D.      SXTB     r4,r0
        0x00002aac:    b2e0        ..      UXTB     r0,r4
        0x00002aae:    f7feffa3    ....    BL       HEX2Disp ; 0x19f8
        0x00002ab2:    4606        .F      MOV      r6,r0
        0x00002ab4:    4631        1F      MOV      r1,r6
        0x00002ab6:    2070        p       MOVS     r0,#0x70
        0x00002ab8:    f7ffff4a    ..J.    BL       Write_to_any8574 ; 0x2950
        0x00002abc:    200a        .       MOVS     r0,#0xa
        0x00002abe:    4360        `C      MULS     r0,r4,r0
        0x00002ac0:    1a28        (.      SUBS     r0,r5,r0
        0x00002ac2:    b205        ..      SXTH     r5,r0
        0x00002ac4:    bf00        ..      NOP      
        0x00002ac6:    bd70        p.      POP      {r4-r6,pc}
    i.main
    main
        0x00002ac8:    b086        ..      SUB      sp,sp,#0x18
        0x00002aca:    2400        .$      MOVS     r4,#0
        0x00002acc:    a23c        <.      ADR      r2,{pc}+0xf4 ; 0x2bc0
        0x00002ace:    ca07        ..      LDM      r2,{r0-r2}
        0x00002ad0:    ab03        ..      ADD      r3,sp,#0xc
        0x00002ad2:    c307        ..      STM      r3!,{r0-r2}
        0x00002ad4:    2059        Y       MOVS     r0,#0x59
        0x00002ad6:    493d        =I      LDR      r1,[pc,#244] ; [0x2bcc] = 0x50000100
        0x00002ad8:    6008        .`      STR      r0,[r1,#0]
        0x00002ada:    2016        .       MOVS     r0,#0x16
        0x00002adc:    6008        .`      STR      r0,[r1,#0]
        0x00002ade:    2088        .       MOVS     r0,#0x88
        0x00002ae0:    6008        .`      STR      r0,[r1,#0]
        0x00002ae2:    483b        ;H      LDR      r0,[pc,#236] ; [0x2bd0] = 0x2dc6c00
        0x00002ae4:    f7fefc78    ..x.    BL       DrvSYS_Open ; 0x13d8
        0x00002ae8:    2000        .       MOVS     r0,#0
        0x00002aea:    4938        8I      LDR      r1,[pc,#224] ; [0x2bcc] = 0x50000100
        0x00002aec:    6008        .`      STR      r0,[r1,#0]
        0x00002aee:    f7fff9a7    ....    BL       Initial_pannel ; 0x1e40
        0x00002af2:    f7ffffa4    ....    BL       clr_all_pannal ; 0x2a3e
        0x00002af6:    2201        ."      MOVS     r2,#1
        0x00002af8:    210d        .!      MOVS     r1,#0xd
        0x00002afa:    2002        .       MOVS     r0,#2
        0x00002afc:    f7fefa4c    ..L.    BL       DrvGPIO_Open ; 0xf98
        0x00002b00:    2201        ."      MOVS     r2,#1
        0x00002b02:    210f        .!      MOVS     r1,#0xf
        0x00002b04:    2002        .       MOVS     r0,#2
        0x00002b06:    f7fefa47    ..G.    BL       DrvGPIO_Open ; 0xf98
        0x00002b0a:    2000        .       MOVS     r0,#0
        0x00002b0c:    4931        1I      LDR      r1,[pc,#196] ; [0x2bd4] = 0x50004280
        0x00002b0e:    6348        Hc      STR      r0,[r1,#0x34]
        0x00002b10:    63c8        .c      STR      r0,[r1,#0x3c]
        0x00002b12:    a131        1.      ADR      r1,{pc}+0xc6 ; 0x2bd8
        0x00002b14:    f000f8d4    ....    BL       print_lcd ; 0x2cc0
        0x00002b18:    f7feffec    ....    BL       InitADC3 ; 0x1af4
        0x00002b1c:    f7fff8a6    ....    BL       InitPWM1 ; 0x1c6c
        0x00002b20:    f7fff838    ..8.    BL       InitCapture2 ; 0x1b94
        0x00002b24:    f7fff8f2    ....    BL       InitTIMER2 ; 0x1d0c
        0x00002b28:    f7fff942    ..B.    BL       InitTIMER3 ; 0x1db0
        0x00002b2c:    202c        ,       MOVS     r0,#0x2c
        0x00002b2e:    f7fdfe87    ....    BL       DrvGPIO_InitFunction ; 0x840
        0x00002b32:    202f        /       MOVS     r0,#0x2f
        0x00002b34:    f7fdfe84    ....    BL       DrvGPIO_InitFunction ; 0x840
        0x00002b38:    204b        K       MOVS     r0,#0x4b
        0x00002b3a:    01c0        ..      LSLS     r0,r0,#7
        0x00002b3c:    9000        ..      STR      r0,[sp,#0]
        0x00002b3e:    2103        .!      MOVS     r1,#3
        0x00002b40:    4668        hF      MOV      r0,sp
        0x00002b42:    7101        .q      STRB     r1,[r0,#4]
        0x00002b44:    2100        .!      MOVS     r1,#0
        0x00002b46:    7141        Aq      STRB     r1,[r0,#5]
        0x00002b48:    7181        .q      STRB     r1,[r0,#6]
        0x00002b4a:    71c1        .q      STRB     r1,[r0,#7]
        0x00002b4c:    4669        iF      MOV      r1,sp
        0x00002b4e:    2001        .       MOVS     r0,#1
        0x00002b50:    0500        ..      LSLS     r0,r0,#20
        0x00002b52:    f7fefd59    ..Y.    BL       DrvUART_Open ; 0x1608
        0x00002b56:    4669        iF      MOV      r1,sp
        0x00002b58:    2041        A       MOVS     r0,#0x41
        0x00002b5a:    0380        ..      LSLS     r0,r0,#14
        0x00002b5c:    f7fefd54    ..T.    BL       DrvUART_Open ; 0x1608
        0x00002b60:    4a21        !J      LDR      r2,[pc,#132] ; [0x2be8] = 0x2871
        0x00002b62:    2101        .!      MOVS     r1,#1
        0x00002b64:    0508        ..      LSLS     r0,r1,#20
        0x00002b66:    f7fefccf    ....    BL       DrvUART_EnableInt ; 0x1508
        0x00002b6a:    2003        .       MOVS     r0,#3
        0x00002b6c:    f7fdfe68    ..h.    BL       DrvGPIO_InitFunction ; 0x840
        0x00002b70:    e024        $.      B        0x2bbc ; main + 244
        0x00002b72:    4620         F      MOV      r0,r4
        0x00002b74:    3030        00      ADDS     r0,r0,#0x30
        0x00002b76:    4669        iF      MOV      r1,sp
        0x00002b78:    74c8        .t      STRB     r0,[r1,#0x13]
        0x00002b7a:    1c60        `.      ADDS     r0,r4,#1
        0x00002b7c:    b2c4        ..      UXTB     r4,r0
        0x00002b7e:    2c0a        .,      CMP      r4,#0xa
        0x00002b80:    db00        ..      BLT      0x2b84 ; main + 188
        0x00002b82:    2400        .$      MOVS     r4,#0
        0x00002b84:    4622        "F      MOV      r2,r4
        0x00002b86:    a119        ..      ADR      r1,{pc}+0x66 ; 0x2bec
        0x00002b88:    4819        .H      LDR      r0,[pc,#100] ; [0x2bf0] = 0x2000002c
        0x00002b8a:    f7fdfb47    ..G.    BL       __2sprintf ; 0x21c
        0x00002b8e:    4819        .H      LDR      r0,[pc,#100] ; [0x2bf4] = 0x20000040
        0x00002b90:    6800        .h      LDR      r0,[r0,#0]
        0x00002b92:    2814        .(      CMP      r0,#0x14
        0x00002b94:    d108        ..      BNE      0x2ba8 ; main + 224
        0x00002b96:    2208        ."      MOVS     r2,#8
        0x00002b98:    a903        ..      ADD      r1,sp,#0xc
        0x00002b9a:    2041        A       MOVS     r0,#0x41
        0x00002b9c:    0380        ..      LSLS     r0,r0,#14
        0x00002b9e:    f7fefe85    ....    BL       DrvUART_Write ; 0x18ac
        0x00002ba2:    2000        .       MOVS     r0,#0
        0x00002ba4:    4913        .I      LDR      r1,[pc,#76] ; [0x2bf4] = 0x20000040
        0x00002ba6:    6008        .`      STR      r0,[r1,#0]
        0x00002ba8:    4812        .H      LDR      r0,[pc,#72] ; [0x2bf4] = 0x20000040
        0x00002baa:    6800        .h      LDR      r0,[r0,#0]
        0x00002bac:    1c40        @.      ADDS     r0,r0,#1
        0x00002bae:    4911        .I      LDR      r1,[pc,#68] ; [0x2bf4] = 0x20000040
        0x00002bb0:    6008        .`      STR      r0,[r1,#0]
        0x00002bb2:    4911        .I      LDR      r1,[pc,#68] ; [0x2bf8] = 0x400e0000
        0x00002bb4:    68c9        .h      LDR      r1,[r1,#0xc]
        0x00002bb6:    b208        ..      SXTH     r0,r1
        0x00002bb8:    f000f896    ....    BL       seg_display ; 0x2ce8
        0x00002bbc:    e7d9        ..      B        0x2b72 ; main + 170
    $d
        0x00002bbe:    0000        ..      DCW    0
        0x00002bc0:    694d754e    NuMi    DCD    1766683982
        0x00002bc4:    306f7263    cro0    DCD    812610147
        0x00002bc8:    00000000    ....    DCD    0
        0x00002bcc:    50000100    ...P    DCD    1342177536
        0x00002bd0:    02dc6c00    .l..    DCD    48000000
        0x00002bd4:    50004280    .B.P    DCD    1342194304
        0x00002bd8:    6c706d53    Smpl    DCD    1819307347
        0x00002bdc:    5241555f    _UAR    DCD    1380013407
        0x00002be0:    20203254    T2      DCD    538980948
        0x00002be4:    00002020      ..    DCD    8224
        0x00002be8:    00002871    q(..    DCD    10353
        0x00002bec:    00006425    %d..    DCD    25637
        0x00002bf0:    2000002c    ,..     DCD    536870956
        0x00002bf4:    20000040    @..     DCD    536870976
        0x00002bf8:    400e0000    ...@    DCD    1074659328
    $t
    i.out_D2A_8591
    out_D2A_8591
        0x00002bfc:    b538        8.      PUSH     {r3-r5,lr}
        0x00002bfe:    4604        .F      MOV      r4,r0
        0x00002c00:    f7fefb10    ....    BL       DrvSYS_GetHCLKFreq ; 0x1224
        0x00002c04:    492b        +I      LDR      r1,[pc,#172] ; [0x2cb4] = 0x20000000
        0x00002c06:    6008        .`      STR      r0,[r1,#0]
        0x00002c08:    492b        +I      LDR      r1,[pc,#172] ; [0x2cb8] = 0xc350
        0x00002c0a:    2001        .       MOVS     r0,#1
        0x00002c0c:    f7fefa88    ....    BL       DrvI2C_Open ; 0x1120
        0x00002c10:    2000        .       MOVS     r0,#0
        0x00002c12:    2301        .#      MOVS     r3,#1
        0x00002c14:    4602        .F      MOV      r2,r0
        0x00002c16:    4619        .F      MOV      r1,r3
        0x00002c18:    9000        ..      STR      r0,[sp,#0]
        0x00002c1a:    4618        .F      MOV      r0,r3
        0x00002c1c:    f7fefa56    ..V.    BL       DrvI2C_Ctrl ; 0x10cc
        0x00002c20:    bf00        ..      NOP      
        0x00002c22:    4826        &H      LDR      r0,[pc,#152] ; [0x2cbc] = 0x40120000
        0x00002c24:    6800        .h      LDR      r0,[r0,#0]
        0x00002c26:    0700        ..      LSLS     r0,r0,#28
        0x00002c28:    0fc0        ..      LSRS     r0,r0,#31
        0x00002c2a:    d0fa        ..      BEQ      0x2c22 ; out_D2A_8591 + 38
        0x00002c2c:    2090        .       MOVS     r0,#0x90
        0x00002c2e:    4923        #I      LDR      r1,[pc,#140] ; [0x2cbc] = 0x40120000
        0x00002c30:    6088        .`      STR      r0,[r1,#8]
        0x00002c32:    2000        .       MOVS     r0,#0
        0x00002c34:    2301        .#      MOVS     r3,#1
        0x00002c36:    4602        .F      MOV      r2,r0
        0x00002c38:    4601        .F      MOV      r1,r0
        0x00002c3a:    9000        ..      STR      r0,[sp,#0]
        0x00002c3c:    4618        .F      MOV      r0,r3
        0x00002c3e:    f7fefa45    ..E.    BL       DrvI2C_Ctrl ; 0x10cc
        0x00002c42:    bf00        ..      NOP      
        0x00002c44:    481d        .H      LDR      r0,[pc,#116] ; [0x2cbc] = 0x40120000
        0x00002c46:    6800        .h      LDR      r0,[r0,#0]
        0x00002c48:    0700        ..      LSLS     r0,r0,#28
        0x00002c4a:    0fc0        ..      LSRS     r0,r0,#31
        0x00002c4c:    d0fa        ..      BEQ      0x2c44 ; out_D2A_8591 + 72
        0x00002c4e:    2040        @       MOVS     r0,#0x40
        0x00002c50:    491a        .I      LDR      r1,[pc,#104] ; [0x2cbc] = 0x40120000
        0x00002c52:    6088        .`      STR      r0,[r1,#8]
        0x00002c54:    2000        .       MOVS     r0,#0
        0x00002c56:    2301        .#      MOVS     r3,#1
        0x00002c58:    4602        .F      MOV      r2,r0
        0x00002c5a:    4601        .F      MOV      r1,r0
        0x00002c5c:    9000        ..      STR      r0,[sp,#0]
        0x00002c5e:    4618        .F      MOV      r0,r3
        0x00002c60:    f7fefa34    ..4.    BL       DrvI2C_Ctrl ; 0x10cc
        0x00002c64:    bf00        ..      NOP      
        0x00002c66:    4815        .H      LDR      r0,[pc,#84] ; [0x2cbc] = 0x40120000
        0x00002c68:    6800        .h      LDR      r0,[r0,#0]
        0x00002c6a:    0700        ..      LSLS     r0,r0,#28
        0x00002c6c:    0fc0        ..      LSRS     r0,r0,#31
        0x00002c6e:    d0fa        ..      BEQ      0x2c66 ; out_D2A_8591 + 106
        0x00002c70:    4812        .H      LDR      r0,[pc,#72] ; [0x2cbc] = 0x40120000
        0x00002c72:    6084        .`      STR      r4,[r0,#8]
        0x00002c74:    2000        .       MOVS     r0,#0
        0x00002c76:    2301        .#      MOVS     r3,#1
        0x00002c78:    4602        .F      MOV      r2,r0
        0x00002c7a:    4601        .F      MOV      r1,r0
        0x00002c7c:    9000        ..      STR      r0,[sp,#0]
        0x00002c7e:    4618        .F      MOV      r0,r3
        0x00002c80:    f7fefa24    ..$.    BL       DrvI2C_Ctrl ; 0x10cc
        0x00002c84:    bf00        ..      NOP      
        0x00002c86:    480d        .H      LDR      r0,[pc,#52] ; [0x2cbc] = 0x40120000
        0x00002c88:    6800        .h      LDR      r0,[r0,#0]
        0x00002c8a:    0700        ..      LSLS     r0,r0,#28
        0x00002c8c:    0fc0        ..      LSRS     r0,r0,#31
        0x00002c8e:    d0fa        ..      BEQ      0x2c86 ; out_D2A_8591 + 138
        0x00002c90:    2000        .       MOVS     r0,#0
        0x00002c92:    2301        .#      MOVS     r3,#1
        0x00002c94:    461a        .F      MOV      r2,r3
        0x00002c96:    4601        .F      MOV      r1,r0
        0x00002c98:    9000        ..      STR      r0,[sp,#0]
        0x00002c9a:    4618        .F      MOV      r0,r3
        0x00002c9c:    f7fefa16    ....    BL       DrvI2C_Ctrl ; 0x10cc
        0x00002ca0:    bf00        ..      NOP      
        0x00002ca2:    4806        .H      LDR      r0,[pc,#24] ; [0x2cbc] = 0x40120000
        0x00002ca4:    6800        .h      LDR      r0,[r0,#0]
        0x00002ca6:    06c0        ..      LSLS     r0,r0,#27
        0x00002ca8:    0fc0        ..      LSRS     r0,r0,#31
        0x00002caa:    d1fa        ..      BNE      0x2ca2 ; out_D2A_8591 + 166
        0x00002cac:    2001        .       MOVS     r0,#1
        0x00002cae:    f7fef9c5    ....    BL       DrvI2C_Close ; 0x103c
        0x00002cb2:    bd38        8.      POP      {r3-r5,pc}
    $d
        0x00002cb4:    20000000    ...     DCD    536870912
        0x00002cb8:    0000c350    P...    DCD    50000
        0x00002cbc:    40120000    ...@    DCD    1074921472
    $t
    i.print_lcd
    print_lcd
        0x00002cc0:    b570        p.      PUSH     {r4-r6,lr}
        0x00002cc2:    4606        .F      MOV      r6,r0
        0x00002cc4:    460c        .F      MOV      r4,r1
        0x00002cc6:    2500        .%      MOVS     r5,#0
        0x00002cc8:    bf00        ..      NOP      
        0x00002cca:    7822        "x      LDRB     r2,[r4,#0]
        0x00002ccc:    1c64        d.      ADDS     r4,r4,#1
        0x00002cce:    b2e9        ..      UXTB     r1,r5
        0x00002cd0:    4630        0F      MOV      r0,r6
        0x00002cd2:    f7fffc03    ....    BL       Show_Word ; 0x24dc
        0x00002cd6:    1c6d        m.      ADDS     r5,r5,#1
        0x00002cd8:    2d0f        .-      CMP      r5,#0xf
        0x00002cda:    dd00        ..      BLE      0x2cde ; print_lcd + 30
        0x00002cdc:    e002        ..      B        0x2ce4 ; print_lcd + 36
        0x00002cde:    7820         x      LDRB     r0,[r4,#0]
        0x00002ce0:    2800        .(      CMP      r0,#0
        0x00002ce2:    d1f2        ..      BNE      0x2cca ; print_lcd + 10
        0x00002ce4:    bf00        ..      NOP      
        0x00002ce6:    bd70        p.      POP      {r4-r6,pc}
    i.seg_display
    seg_display
        0x00002ce8:    b570        p.      PUSH     {r4-r6,lr}
        0x00002cea:    4604        .F      MOV      r4,r0
        0x00002cec:    217d        }!      MOVS     r1,#0x7d
        0x00002cee:    00c9        ..      LSLS     r1,r1,#3
        0x00002cf0:    4620         F      MOV      r0,r4
        0x00002cf2:    f7fdfb99    ....    BL       __aeabi_idiv ; 0x428
        0x00002cf6:    b245        E.      SXTB     r5,r0
        0x00002cf8:    f7fffe8f    ....    BL       close_seven_segment ; 0x2a1a
        0x00002cfc:    b2e9        ..      UXTB     r1,r5
        0x00002cfe:    2003        .       MOVS     r0,#3
        0x00002d00:    f000f83c    ..<.    BL       show_seven_segment ; 0x2d7c
        0x00002d04:    207d        }       MOVS     r0,#0x7d
        0x00002d06:    0140        @.      LSLS     r0,r0,#5
        0x00002d08:    f7fefa72    ..r.    BL       DrvSYS_Delay ; 0x11f0
        0x00002d0c:    207d        }       MOVS     r0,#0x7d
        0x00002d0e:    00c0        ..      LSLS     r0,r0,#3
        0x00002d10:    4368        hC      MULS     r0,r5,r0
        0x00002d12:    1a20         .      SUBS     r0,r4,r0
        0x00002d14:    b204        ..      SXTH     r4,r0
        0x00002d16:    2164        d!      MOVS     r1,#0x64
        0x00002d18:    4620         F      MOV      r0,r4
        0x00002d1a:    f7fdfb85    ....    BL       __aeabi_idiv ; 0x428
        0x00002d1e:    b245        E.      SXTB     r5,r0
        0x00002d20:    f7fffe7b    ..{.    BL       close_seven_segment ; 0x2a1a
        0x00002d24:    b2e9        ..      UXTB     r1,r5
        0x00002d26:    2002        .       MOVS     r0,#2
        0x00002d28:    f000f828    ..(.    BL       show_seven_segment ; 0x2d7c
        0x00002d2c:    207d        }       MOVS     r0,#0x7d
        0x00002d2e:    0140        @.      LSLS     r0,r0,#5
        0x00002d30:    f7fefa5e    ..^.    BL       DrvSYS_Delay ; 0x11f0
        0x00002d34:    2064        d       MOVS     r0,#0x64
        0x00002d36:    4368        hC      MULS     r0,r5,r0
        0x00002d38:    1a20         .      SUBS     r0,r4,r0
        0x00002d3a:    b204        ..      SXTH     r4,r0
        0x00002d3c:    210a        .!      MOVS     r1,#0xa
        0x00002d3e:    4620         F      MOV      r0,r4
        0x00002d40:    f7fdfb72    ..r.    BL       __aeabi_idiv ; 0x428
        0x00002d44:    b245        E.      SXTB     r5,r0
        0x00002d46:    f7fffe68    ..h.    BL       close_seven_segment ; 0x2a1a
        0x00002d4a:    b2e9        ..      UXTB     r1,r5
        0x00002d4c:    2001        .       MOVS     r0,#1
        0x00002d4e:    f000f815    ....    BL       show_seven_segment ; 0x2d7c
        0x00002d52:    207d        }       MOVS     r0,#0x7d
        0x00002d54:    0140        @.      LSLS     r0,r0,#5
        0x00002d56:    f7fefa4b    ..K.    BL       DrvSYS_Delay ; 0x11f0
        0x00002d5a:    200a        .       MOVS     r0,#0xa
        0x00002d5c:    4368        hC      MULS     r0,r5,r0
        0x00002d5e:    1a20         .      SUBS     r0,r4,r0
        0x00002d60:    b204        ..      SXTH     r4,r0
        0x00002d62:    4625        %F      MOV      r5,r4
        0x00002d64:    f7fffe59    ..Y.    BL       close_seven_segment ; 0x2a1a
        0x00002d68:    b2e9        ..      UXTB     r1,r5
        0x00002d6a:    2000        .       MOVS     r0,#0
        0x00002d6c:    f000f806    ....    BL       show_seven_segment ; 0x2d7c
        0x00002d70:    207d        }       MOVS     r0,#0x7d
        0x00002d72:    0140        @.      LSLS     r0,r0,#5
        0x00002d74:    f7fefa3c    ..<.    BL       DrvSYS_Delay ; 0x11f0
        0x00002d78:    bd70        p.      POP      {r4-r6,pc}
        0x00002d7a:    0000        ..      MOVS     r0,r0
    i.show_seven_segment
    show_seven_segment
        0x00002d7c:    b5f8        ..      PUSH     {r3-r7,lr}
        0x00002d7e:    4605        .F      MOV      r5,r0
        0x00002d80:    460f        .F      MOV      r7,r1
        0x00002d82:    480d        .H      LDR      r0,[pc,#52] ; [0x2db8] = 0x20000664
        0x00002d84:    5dc6        .]      LDRB     r6,[r0,r7]
        0x00002d86:    2400        .$      MOVS     r4,#0
        0x00002d88:    e00f        ..      B        0x2daa ; show_seven_segment + 46
        0x00002d8a:    07f0        ..      LSLS     r0,r6,#31
        0x00002d8c:    0fc0        ..      LSRS     r0,r0,#31
        0x00002d8e:    2801        .(      CMP      r0,#1
        0x00002d90:    d104        ..      BNE      0x2d9c ; show_seven_segment + 32
        0x00002d92:    4621        !F      MOV      r1,r4
        0x00002d94:    2004        .       MOVS     r0,#4
        0x00002d96:    f7fef93b    ..;.    BL       DrvGPIO_SetBit ; 0x1010
        0x00002d9a:    e003        ..      B        0x2da4 ; show_seven_segment + 40
        0x00002d9c:    4621        !F      MOV      r1,r4
        0x00002d9e:    2004        .       MOVS     r0,#4
        0x00002da0:    f7fdfd38    ..8.    BL       DrvGPIO_ClrBit ; 0x814
        0x00002da4:    1076        v.      ASRS     r6,r6,#1
        0x00002da6:    1c60        `.      ADDS     r0,r4,#1
        0x00002da8:    b2c4        ..      UXTB     r4,r0
        0x00002daa:    2c08        .,      CMP      r4,#8
        0x00002dac:    dbed        ..      BLT      0x2d8a ; show_seven_segment + 14
        0x00002dae:    1d29        ).      ADDS     r1,r5,#4
        0x00002db0:    2002        .       MOVS     r0,#2
        0x00002db2:    f7fef92d    ..-.    BL       DrvGPIO_SetBit ; 0x1010
        0x00002db6:    bdf8        ..      POP      {r3-r7,pc}
    $d
        0x00002db8:    20000664    d..     DCD    536872548
    $d.realdata
    .constdata
    lookUp
        0x00002dbc:    b0a4f9c0    ....    DCD    2963601856
        0x00002dc0:    f8829299    ....    DCD    4169306777
        0x00002dc4:    83889080    ....    DCD    2206765184
        0x00002dc8:    8e86a1c6    ....    DCD    2391187910
        0x00002dcc:    656d6954    Time    DCD    1701669204
        0x00002dd0:    003a3072    r0:.    DCD    3813490
        0x00002dd4:    00000000    ....    DCD    0
        0x00002dd8:    00000000    ....    DCD    0
        0x00002ddc:    00000000    ....    DCD    0
        0x00002de0:    656d6954    Time    DCD    1701669204
        0x00002de4:    003a3372    r3:.    DCD    3814258
        0x00002de8:    00000000    ....    DCD    0
        0x00002dec:    00000000    ....    DCD    0
        0x00002df0:    00000000    ....    DCD    0
        0x00002df4:    68676948    High    DCD    1751607624
        0x00002df8:    0000003a    :...    DCD    58
        0x00002dfc:    00000000    ....    DCD    0
        0x00002e00:    00000000    ....    DCD    0
        0x00002e04:    00000000    ....    DCD    0
        0x00002e08:    3a776f4c    Low:    DCD    980905804
        0x00002e0c:    00000020     ...    DCD    32
        0x00002e10:    00000000    ....    DCD    0
        0x00002e14:    00000000    ....    DCD    0
        0x00002e18:    00000000    ....    DCD    0
        0x00002e1c:    33434441    ADC3    DCD    860046401
        0x00002e20:    6c615620     Val    DCD    1818318368
        0x00002e24:    003a6575    ue:.    DCD    3827061
        0x00002e28:    00000000    ....    DCD    0
    .constdata
        0x00002e2c:    00000001    ....    DCD    1
        0x00002e30:    00000002    ....    DCD    2
        0x00002e34:    00000002    ....    DCD    2
        0x00002e38:    00000004    ....    DCD    4
    Region$$Table$$Base
        0x00002e3c:    00002e5c    \...    DCD    11868
        0x00002e40:    20000000    ...     DCD    536870912
        0x00002e44:    00000694    ....    DCD    1684
        0x00002e48:    00000104    ....    DCD    260
        0x00002e4c:    000034f0    .4..    DCD    13552
        0x00002e50:    20000694    ...     DCD    536872596
        0x00002e54:    000004e4    ....    DCD    1252
        0x00002e58:    00000120     ...    DCD    288
    Region$$Table$$Limit

** Section #2 'ER_RW' (SHT_PROGBITS) [SHF_ALLOC + SHF_WRITE]
    Size   : 1684 bytes (alignment 4)
    Address: 0x20000000


** Section #3 'ER_ZI' (SHT_NOBITS) [SHF_ALLOC + SHF_WRITE]
    Size   : 1252 bytes (alignment 8)
    Address: 0x20000694


** Section #4 '.debug_abbrev' (SHT_PROGBITS)
    Size   : 1476 bytes


** Section #5 '.debug_frame' (SHT_PROGBITS)
    Size   : 2576 bytes


** Section #6 '.debug_info' (SHT_PROGBITS)
    Size   : 134276 bytes


** Section #7 '.debug_line' (SHT_PROGBITS)
    Size   : 13616 bytes


** Section #8 '.debug_loc' (SHT_PROGBITS)
    Size   : 4336 bytes


** Section #9 '.debug_macinfo' (SHT_PROGBITS)
    Size   : 157924 bytes


** Section #10 '.debug_pubnames' (SHT_PROGBITS)
    Size   : 2570 bytes


** Section #11 '.symtab' (SHT_SYMTAB)
    Size   : 9424 bytes (alignment 4)
    String table #12 '.strtab'
    Last local symbol no. 404


** Section #12 '.strtab' (SHT_STRTAB)
    Size   : 7216 bytes


** Section #13 '.note' (SHT_NOTE)
    Size   : 28 bytes (alignment 4)


** Section #14 '.comment' (SHT_PROGBITS)
    Size   : 6964 bytes


** Section #15 '.shstrtab' (SHT_STRTAB)
    Size   : 156 bytes


