
========================================================================

** ELF Header Information

    File Name: .\obj\Smpl_Start_Kit.axf

    Machine class: ELFCLASS32 (32-bit)
    Data encoding: ELFDATA2LSB (Little endian)
    Header version: EV_CURRENT (Current version)
    Operating System ABI: none
    ABI Version: 0
    File Type: ET_EXEC (Executable) (2)
    Machine: EM_ARM (ARM)

    Image Entry point: 0x000001b9
    Flags: EF_ARM_HASENTRY (0x05000002)

    ARM ELF revision: 5 (ABI version 2)

    Built with
    ARM C/C++ Compiler, 4.1 [Build 894]
    ARM Assembler, 4.1 [Build 894]
    ARM Linker, 4.1 [Build 894] 

    Header size: 52 bytes (0x34)
    Program header entry size: 32 bytes (0x20)
    Section header entry size: 40 bytes (0x28)

    Program header entries: 1
    Section header entries: 16

    Program header offset: 324680 (0x0004f448)
    Section header offset: 324712 (0x0004f468)

    Section header string table index: 15

========================================================================

** Program header #0 (PT_LOAD) [PF_X + PF_W + PF_R + PF_ARM_ENTRY]
    Size : 11348 bytes (10116 bytes in file)
    Virtual address: 0x00000000 (Alignment 8)


========================================================================

** Section #1 'ER_RO' (SHT_PROGBITS) [SHF_ALLOC + SHF_EXECINSTR]
    Size   : 8508 bytes (alignment 4)
    Address: 0x00000000

    $d.realdata
    RESET
    __Vectors
        0x00000000:    20000b18    ...     DCD    536873752
        0x00000004:    000001b9    ....    DCD    441
        0x00000008:    000001d9    ....    DCD    473
        0x0000000c:    000001db    ....    DCD    475
        0x00000010:    00000000    ....    DCD    0
        0x00000014:    00000000    ....    DCD    0
        0x00000018:    00000000    ....    DCD    0
        0x0000001c:    00000000    ....    DCD    0
        0x00000020:    00000000    ....    DCD    0
        0x00000024:    00000000    ....    DCD    0
        0x00000028:    00000000    ....    DCD    0
        0x0000002c:    000001dd    ....    DCD    477
        0x00000030:    00000000    ....    DCD    0
        0x00000034:    00000000    ....    DCD    0
        0x00000038:    000001df    ....    DCD    479
        0x0000003c:    000001e1    ....    DCD    481
        0x00000040:    000006ed    ....    DCD    1773
        0x00000044:    000001e3    ....    DCD    483
        0x00000048:    000011fd    ....    DCD    4605
        0x0000004c:    00001221    !...    DCD    4641
        0x00000050:    00001245    E...    DCD    4677
        0x00000054:    00001281    ....    DCD    4737
        0x00000058:    000001e3    ....    DCD    483
        0x0000005c:    000001e3    ....    DCD    483
        0x00000060:    000001e3    ....    DCD    483
        0x00000064:    00001c29    )...    DCD    7209
        0x00000068:    000001e3    ....    DCD    483
        0x0000006c:    000001e3    ....    DCD    483
        0x00000070:    00001d61    a...    DCD    7521
        0x00000074:    00001d9d    ....    DCD    7581
        0x00000078:    000018a5    ....    DCD    6309
        0x0000007c:    00001909    ....    DCD    6409
        0x00000080:    0000196d    m...    DCD    6509
        0x00000084:    000019d1    ....    DCD    6609
        0x00000088:    000012cd    ....    DCD    4813
        0x0000008c:    00001345    E...    DCD    4933
        0x00000090:    000001e3    ....    DCD    483
        0x00000094:    000001e3    ....    DCD    483
        0x00000098:    000001e3    ....    DCD    483
        0x0000009c:    000001e3    ....    DCD    483
        0x000000a0:    000001e3    ....    DCD    483
        0x000000a4:    000001e3    ....    DCD    483
        0x000000a8:    000001e3    ....    DCD    483
        0x000000ac:    000001e3    ....    DCD    483
        0x000000b0:    0000187d    }...    DCD    6269
        0x000000b4:    000001e3    ....    DCD    483
        0x000000b8:    000001e3    ....    DCD    483
        0x000000bc:    000001e3    ....    DCD    483
    $t
    !!!main
    __main
        0x000000c0:    f000f802    ....    BL       __scatterload ; 0xc8
        0x000000c4:    f000f84d    ..M.    BL       __rt_entry ; 0x162
    !!!scatter
    __scatterload
    __scatterload_rt2
    __scatterload_rt2_thumb_only
        0x000000c8:    a00c        ..      ADR      r0,{pc}+0x34 ; 0xfc
        0x000000ca:    c830        0.      LDM      r0!,{r4,r5}
        0x000000cc:    3808        .8      SUBS     r0,r0,#8
        0x000000ce:    1824        $.      ADDS     r4,r4,r0
        0x000000d0:    182d        -.      ADDS     r5,r5,r0
        0x000000d2:    46a2        .F      MOV      r10,r4
        0x000000d4:    1e67        g.      SUBS     r7,r4,#1
        0x000000d6:    46ab        .F      MOV      r11,r5
    __scatterload_null
        0x000000d8:    4654        TF      MOV      r4,r10
        0x000000da:    465d        ]F      MOV      r5,r11
        0x000000dc:    42ac        .B      CMP      r4,r5
        0x000000de:    d101        ..      BNE      0xe4 ; __scatterload_null + 12
        0x000000e0:    f000f83f    ..?.    BL       __rt_entry ; 0x162
        0x000000e4:    467e        ~F      MOV      r6,pc
        0x000000e6:    3e0f        .>      SUBS     r6,r6,#0xf
        0x000000e8:    cc0f        ..      LDM      r4!,{r0-r3}
        0x000000ea:    46b6        .F      MOV      lr,r6
        0x000000ec:    2601        .&      MOVS     r6,#1
        0x000000ee:    4233        3B      TST      r3,r6
        0x000000f0:    d000        ..      BEQ      0xf4 ; __scatterload_null + 28
        0x000000f2:    1afb        ..      SUBS     r3,r7,r3
        0x000000f4:    46a2        .F      MOV      r10,r4
        0x000000f6:    46ab        .F      MOV      r11,r5
        0x000000f8:    4333        3C      ORRS     r3,r3,r6
        0x000000fa:    4718        .G      BX       r3
    $d
        0x000000fc:    00002020      ..    DCD    8224
        0x00000100:    00002040    @ ..    DCD    8256
    $t
    !!handler_copy
    __scatterload_copy
        0x00000104:    3a10        .:      SUBS     r2,r2,#0x10
        0x00000106:    d302        ..      BCC      0x10e ; __scatterload_copy + 10
        0x00000108:    c878        x.      LDM      r0!,{r3-r6}
        0x0000010a:    c178        x.      STM      r1!,{r3-r6}
        0x0000010c:    d8fa        ..      BHI      __scatterload_copy ; 0x104
        0x0000010e:    0752        R.      LSLS     r2,r2,#29
        0x00000110:    d301        ..      BCC      0x116 ; __scatterload_copy + 18
        0x00000112:    c830        0.      LDM      r0!,{r4,r5}
        0x00000114:    c130        0.      STM      r1!,{r4,r5}
        0x00000116:    d501        ..      BPL      0x11c ; __scatterload_copy + 24
        0x00000118:    6804        .h      LDR      r4,[r0,#0]
        0x0000011a:    600c        .`      STR      r4,[r1,#0]
        0x0000011c:    4770        pG      BX       lr
        0x0000011e:    0000        ..      MOVS     r0,r0
    !!handler_zi
    __scatterload_zeroinit
        0x00000120:    2300        .#      MOVS     r3,#0
        0x00000122:    2400        .$      MOVS     r4,#0
        0x00000124:    2500        .%      MOVS     r5,#0
        0x00000126:    2600        .&      MOVS     r6,#0
        0x00000128:    3a10        .:      SUBS     r2,r2,#0x10
        0x0000012a:    d301        ..      BCC      0x130 ; __scatterload_zeroinit + 16
        0x0000012c:    c178        x.      STM      r1!,{r3-r6}
        0x0000012e:    d8fb        ..      BHI      0x128 ; __scatterload_zeroinit + 8
        0x00000130:    0752        R.      LSLS     r2,r2,#29
        0x00000132:    d300        ..      BCC      0x136 ; __scatterload_zeroinit + 22
        0x00000134:    c130        0.      STM      r1!,{r4,r5}
        0x00000136:    d500        ..      BPL      0x13a ; __scatterload_zeroinit + 26
        0x00000138:    600b        .`      STR      r3,[r1,#0]
        0x0000013a:    4770        pG      BX       lr
    .ARM.Collect$$_printf_percent$$00000000
    _printf_percent
        0x0000013c:    b510        ..      PUSH     {r4,lr}
    .ARM.Collect$$_printf_percent$$00000009
    _printf_d
        0x0000013e:    2964        d)      CMP      r1,#0x64
        0x00000140:    d102        ..      BNE      _printf_x ; 0x148
        0x00000142:    f000f87f    ....    BL       _printf_int_dec ; 0x244
        0x00000146:    bd10        ..      POP      {r4,pc}
    .ARM.Collect$$_printf_percent$$0000000C
    _printf_x
        0x00000148:    2978        x)      CMP      r1,#0x78
        0x0000014a:    d102        ..      BNE      _printf_percent_end ; 0x152
        0x0000014c:    f000f8b0    ....    BL       _printf_int_hex ; 0x2b0
        0x00000150:    bd10        ..      POP      {r4,pc}
    .ARM.Collect$$_printf_percent$$00000017
    _printf_percent_end
        0x00000152:    2000        .       MOVS     r0,#0
        0x00000154:    bd10        ..      POP      {r4,pc}
    .ARM.Collect$$libinit$$00000000
    __rt_lib_init
        0x00000156:    b51f        ..      PUSH     {r0-r4,lr}
        0x00000158:    46c0        .F      MOV      r8,r8
        0x0000015a:    46c0        .F      MOV      r8,r8
    .ARM.Collect$$libinit$$00000006
    .ARM.Collect$$libinit$$00000008
    .ARM.Collect$$libinit$$0000000A
    .ARM.Collect$$libinit$$0000000D
    .ARM.Collect$$libinit$$0000000F
    .ARM.Collect$$libinit$$00000011
    .ARM.Collect$$libinit$$00000013
    .ARM.Collect$$libinit$$00000015
    .ARM.Collect$$libinit$$00000017
    .ARM.Collect$$libinit$$00000019
    .ARM.Collect$$libinit$$0000001B
    .ARM.Collect$$libinit$$0000001D
    .ARM.Collect$$libinit$$0000001F
    .ARM.Collect$$libinit$$00000021
    .ARM.Collect$$libinit$$00000028
    .ARM.Collect$$libinit$$0000002A
    .ARM.Collect$$libinit$$0000002C
    .ARM.Collect$$libinit$$0000002E
    .ARM.Collect$$libinit$$0000002F
    __rt_lib_init_alloca_1
    __rt_lib_init_argv_1
    __rt_lib_init_atexit_1
    __rt_lib_init_clock_1
    __rt_lib_init_cpp_1
    __rt_lib_init_exceptions_1
    __rt_lib_init_fp_trap_1
    __rt_lib_init_getenv_1
    __rt_lib_init_heap_1
    __rt_lib_init_lc_collate_1
    __rt_lib_init_lc_ctype_1
    __rt_lib_init_lc_monetary_1
    __rt_lib_init_lc_numeric_1
    __rt_lib_init_lc_time_1
    __rt_lib_init_rand_1
    __rt_lib_init_return
    __rt_lib_init_signal_1
    __rt_lib_init_stdio_1
    __rt_lib_init_user_alloc_1
        0x0000015c:    bd1f        ..      POP      {r0-r4,pc}
    .ARM.Collect$$libshutdown$$00000000
    __rt_lib_shutdown
        0x0000015e:    b510        ..      PUSH     {r4,lr}
    .ARM.Collect$$libshutdown$$00000003
    .ARM.Collect$$libshutdown$$00000006
    .ARM.Collect$$libshutdown$$00000009
    .ARM.Collect$$libshutdown$$0000000B
    .ARM.Collect$$libshutdown$$0000000E
    .ARM.Collect$$libshutdown$$0000000F
    __rt_lib_shutdown_fp_trap_1
    __rt_lib_shutdown_heap_1
    __rt_lib_shutdown_return
    __rt_lib_shutdown_signal_1
    __rt_lib_shutdown_stdio_1
    __rt_lib_shutdown_user_alloc_1
        0x00000160:    bd10        ..      POP      {r4,pc}
    .ARM.Collect$$rtentry$$00000000
    .ARM.Collect$$rtentry$$00000002
    .ARM.Collect$$rtentry$$00000004
    __rt_entry
    __rt_entry_presh_1
    __rt_entry_sh
        0x00000162:    f000fa92    ....    BL       __user_setup_stackheap ; 0x68a
        0x00000166:    4611        .F      MOV      r1,r2
    .ARM.Collect$$rtentry$$00000009
    .ARM.Collect$$rtentry$$0000000A
    __rt_entry_li
    __rt_entry_postsh_1
        0x00000168:    f7fffff5    ....    BL       __rt_lib_init ; 0x156
    .ARM.Collect$$rtentry$$0000000C
    .ARM.Collect$$rtentry$$0000000D
    __rt_entry_main
    __rt_entry_postli_1
        0x0000016c:    f001ff2e    ....    BL       main ; 0x1fcc
        0x00000170:    f000faaa    ....    BL       exit ; 0x6c8
    .ARM.Collect$$rtexit$$00000000
    __rt_exit
        0x00000174:    b403        ..      PUSH     {r0,r1}
    .ARM.Collect$$rtexit$$00000002
    .ARM.Collect$$rtexit$$00000003
    __rt_exit_ls
    __rt_exit_prels_1
        0x00000176:    f7fffff2    ....    BL       __rt_lib_shutdown ; 0x15e
    .ARM.Collect$$rtexit$$00000004
    __rt_exit_exit
        0x0000017a:    bc03        ..      POP      {r0,r1}
        0x0000017c:    f000faae    ....    BL       _sys_exit ; 0x6dc
    .emb_text
    __aeabi_memcpy4
    __aeabi_memcpy8
        0x00000180:    b570        p.      PUSH     {r4-r6,lr}
        0x00000182:    4605        .F      MOV      r5,r0
        0x00000184:    460c        .F      MOV      r4,r1
        0x00000186:    4616        .F      MOV      r6,r2
        0x00000188:    e002        ..      B        0x190 ; __aeabi_memcpy4 + 16
        0x0000018a:    cc0f        ..      LDM      r4!,{r0-r3}
        0x0000018c:    c50f        ..      STM      r5!,{r0-r3}
        0x0000018e:    3e10        .>      SUBS     r6,r6,#0x10
        0x00000190:    2e10        ..      CMP      r6,#0x10
        0x00000192:    d2fa        ..      BCS      0x18a ; __aeabi_memcpy4 + 10
        0x00000194:    2e08        ..      CMP      r6,#8
        0x00000196:    d302        ..      BCC      0x19e ; __aeabi_memcpy4 + 30
        0x00000198:    cc03        ..      LDM      r4!,{r0,r1}
        0x0000019a:    c503        ..      STM      r5!,{r0,r1}
        0x0000019c:    3e08        .>      SUBS     r6,r6,#8
        0x0000019e:    2e04        ..      CMP      r6,#4
        0x000001a0:    d307        ..      BCC      0x1b2 ; __aeabi_memcpy4 + 50
        0x000001a2:    cc01        ..      LDM      r4!,{r0}
        0x000001a4:    c501        ..      STM      r5!,{r0}
        0x000001a6:    1f36        6.      SUBS     r6,r6,#4
        0x000001a8:    e003        ..      B        0x1b2 ; __aeabi_memcpy4 + 50
        0x000001aa:    7821        !x      LDRB     r1,[r4,#0]
        0x000001ac:    7029        )p      STRB     r1,[r5,#0]
        0x000001ae:    1c64        d.      ADDS     r4,r4,#1
        0x000001b0:    1c6d        m.      ADDS     r5,r5,#1
        0x000001b2:    1e76        v.      SUBS     r6,r6,#1
        0x000001b4:    d2f9        ..      BCS      0x1aa ; __aeabi_memcpy4 + 42
        0x000001b6:    bd70        p.      POP      {r4-r6,pc}
    .text
    Reset_Handler
        0x000001b8:    480d        .H      LDR      r0,[pc,#52] ; [0x1f0] = 0x50000100
        0x000001ba:    490e        .I      LDR      r1,[pc,#56] ; [0x1f4] = 0x59
        0x000001bc:    6001        .`      STR      r1,[r0,#0]
        0x000001be:    490e        .I      LDR      r1,[pc,#56] ; [0x1f8] = 0x16
        0x000001c0:    6001        .`      STR      r1,[r0,#0]
        0x000001c2:    490e        .I      LDR      r1,[pc,#56] ; [0x1fc] = 0x88
        0x000001c4:    6001        .`      STR      r1,[r0,#0]
        0x000001c6:    4a0e        .J      LDR      r2,[pc,#56] ; [0x200] = 0x50000024
        0x000001c8:    490e        .I      LDR      r1,[pc,#56] ; [0x204] = 0x5aa5
        0x000001ca:    6011        .`      STR      r1,[r2,#0]
        0x000001cc:    2100        .!      MOVS     r1,#0
        0x000001ce:    6001        .`      STR      r1,[r0,#0]
        0x000001d0:    480d        .H      LDR      r0,[pc,#52] ; [0x208] = 0x1c25
        0x000001d2:    4780        .G      BLX      r0
        0x000001d4:    480d        .H      LDR      r0,[pc,#52] ; [0x20c] = 0xc1
        0x000001d6:    4700        .G      BX       r0
    NMI_Handler
        0x000001d8:    e7fe        ..      B        NMI_Handler ; 0x1d8
    HardFault_Handler
        0x000001da:    e7fe        ..      B        HardFault_Handler ; 0x1da
    SVC_Handler
        0x000001dc:    e7fe        ..      B        SVC_Handler ; 0x1dc
    PendSV_Handler
        0x000001de:    e7fe        ..      B        PendSV_Handler ; 0x1de
    SysTick_Handler
        0x000001e0:    e7fe        ..      B        SysTick_Handler ; 0x1e0
    Default_Handler
    ACMP_IRQHandler
    ADC_IRQHandler
    CAN0_IRQHandler
    I2S_IRQHandler
    PDMA_IRQHandler
    PS2_IRQHandler
    PWMA_IRQHandler
    PWMB_IRQHandler
    RTC_IRQHandler
    TMR0_IRQHandler
    TMR2_IRQHandler
    TMR3_IRQHandler
    USBD_IRQHandler
    WDT_IRQHandler
        0x000001e2:    e7fe        ..      B        Default_Handler ; 0x1e2
    __user_initial_stackheap
        0x000001e4:    480a        .H      LDR      r0,[pc,#40] ; [0x210] = 0x20000718
        0x000001e6:    490b        .I      LDR      r1,[pc,#44] ; [0x214] = 0x20000b18
        0x000001e8:    4a09        .J      LDR      r2,[pc,#36] ; [0x210] = 0x20000718
        0x000001ea:    4b0b        .K      LDR      r3,[pc,#44] ; [0x218] = 0x20000718
        0x000001ec:    4770        pG      BX       lr
    $d
        0x000001ee:    0000        ..      DCW    0
        0x000001f0:    50000100    ...P    DCD    1342177536
        0x000001f4:    00000059    Y...    DCD    89
        0x000001f8:    00000016    ....    DCD    22
        0x000001fc:    00000088    ....    DCD    136
        0x00000200:    50000024    $..P    DCD    1342177316
        0x00000204:    00005aa5    .Z..    DCD    23205
        0x00000208:    00001c25    %...    DCD    7205
        0x0000020c:    000000c1    ....    DCD    193
        0x00000210:    20000718    ...     DCD    536872728
        0x00000214:    20000b18    ...     DCD    536873752
        0x00000218:    20000718    ...     DCD    536872728
    $t
    .text
    __2sprintf
        0x0000021c:    b40f        ..      PUSH     {r0-r3}
        0x0000021e:    b51c        ..      PUSH     {r2-r4,lr}
        0x00000220:    4b07        .K      LDR      r3,[pc,#28] ; [0x240] = 0x431
        0x00000222:    aa06        ..      ADD      r2,sp,#0x18
        0x00000224:    447b        {D      ADD      r3,r3,pc
        0x00000226:    4669        iF      MOV      r1,sp
        0x00000228:    9000        ..      STR      r0,[sp,#0]
        0x0000022a:    9805        ..      LDR      r0,[sp,#0x14]
        0x0000022c:    f000fa01    ....    BL       _printf_char_common ; 0x632
        0x00000230:    2000        .       MOVS     r0,#0
        0x00000232:    4669        iF      MOV      r1,sp
        0x00000234:    f000fa10    ....    BL       _sputc ; 0x658
        0x00000238:    bc1c        ..      POP      {r2-r4}
        0x0000023a:    bc08        ..      POP      {r3}
        0x0000023c:    b004        ..      ADD      sp,sp,#0x10
        0x0000023e:    4718        .G      BX       r3
    $d
        0x00000240:    00000431    1...    DCD    1073
    $t
    .text
    _printf_int_dec
        0x00000244:    b5f7        ..      PUSH     {r0-r2,r4-r7,lr}
        0x00000246:    2600        .&      MOVS     r6,#0
        0x00000248:    2975        u)      CMP      r1,#0x75
        0x0000024a:    6810        .h      LDR      r0,[r2,#0]
        0x0000024c:    9900        ..      LDR      r1,[sp,#0]
        0x0000024e:    a514        ..      ADR      r5,{pc}+0x52 ; 0x2a0
        0x00000250:    d011        ..      BEQ      0x276 ; _printf_int_dec + 50
        0x00000252:    46c0        .F      MOV      r8,r8
        0x00000254:    46c0        .F      MOV      r8,r8
        0x00000256:    2800        .(      CMP      r0,#0
        0x00000258:    da02        ..      BGE      0x260 ; _printf_int_dec + 28
        0x0000025a:    4240        @B      RSBS     r0,r0,#0
        0x0000025c:    a511        ..      ADR      r5,{pc}+0x48 ; 0x2a4
        0x0000025e:    e008        ..      B        0x272 ; _printf_int_dec + 46
        0x00000260:    9900        ..      LDR      r1,[sp,#0]
        0x00000262:    6809        .h      LDR      r1,[r1,#0]
        0x00000264:    078a        ..      LSLS     r2,r1,#30
        0x00000266:    d501        ..      BPL      0x26c ; _printf_int_dec + 40
        0x00000268:    a50f        ..      ADR      r5,{pc}+0x40 ; 0x2a8
        0x0000026a:    e002        ..      B        0x272 ; _printf_int_dec + 46
        0x0000026c:    0749        I.      LSLS     r1,r1,#29
        0x0000026e:    d504        ..      BPL      0x27a ; _printf_int_dec + 54
        0x00000270:    a50e        ..      ADR      r5,{pc}+0x3c ; 0x2ac
        0x00000272:    2601        .&      MOVS     r6,#1
        0x00000274:    e001        ..      B        0x27a ; _printf_int_dec + 54
        0x00000276:    46c0        .F      MOV      r8,r8
        0x00000278:    46c0        .F      MOV      r8,r8
        0x0000027a:    9f00        ..      LDR      r7,[sp,#0]
        0x0000027c:    2400        .$      MOVS     r4,#0
        0x0000027e:    3724        $7      ADDS     r7,r7,#0x24
        0x00000280:    e004        ..      B        0x28c ; _printf_int_dec + 72
        0x00000282:    f000f9ee    ....    BL       __rt_udiv10 ; 0x662
        0x00000286:    3130        01      ADDS     r1,r1,#0x30
        0x00000288:    5539        9U      STRB     r1,[r7,r4]
        0x0000028a:    1c64        d.      ADDS     r4,r4,#1
        0x0000028c:    2800        .(      CMP      r0,#0
        0x0000028e:    d1f8        ..      BNE      0x282 ; _printf_int_dec + 62
        0x00000290:    4633        3F      MOV      r3,r6
        0x00000292:    462a        *F      MOV      r2,r5
        0x00000294:    4621        !F      MOV      r1,r4
        0x00000296:    9800        ..      LDR      r0,[sp,#0]
        0x00000298:    f000f96e    ..n.    BL       _printf_int_common ; 0x578
        0x0000029c:    bdfe        ..      POP      {r1-r7,pc}
    $d
        0x0000029e:    0000        ..      DCW    0
        0x000002a0:    00000000    ....    DCD    0
        0x000002a4:    0000002d    -...    DCD    45
        0x000002a8:    0000002b    +...    DCD    43
        0x000002ac:    00000020     ...    DCD    32
    $t
    .text
    _printf_int_hex
    _printf_longlong_hex
        0x000002b0:    b570        p.      PUSH     {r4-r6,lr}
        0x000002b2:    4604        .F      MOV      r4,r0
        0x000002b4:    460d        .F      MOV      r5,r1
        0x000002b6:    4621        !F      MOV      r1,r4
        0x000002b8:    6810        .h      LDR      r0,[r2,#0]
        0x000002ba:    46c0        .F      MOV      r8,r8
        0x000002bc:    46c0        .F      MOV      r8,r8
        0x000002be:    6821        !h      LDR      r1,[r4,#0]
        0x000002c0:    0509        ..      LSLS     r1,r1,#20
        0x000002c2:    d502        ..      BPL      0x2ca ; _printf_int_hex + 26
        0x000002c4:    4a0f        .J      LDR      r2,[pc,#60] ; [0x304] = 0x1e2a
        0x000002c6:    447a        zD      ADD      r2,r2,pc
        0x000002c8:    e002        ..      B        0x2d0 ; _printf_int_hex + 32
        0x000002ca:    4a0e        .J      LDR      r2,[pc,#56] ; [0x304] = 0x1e2a
        0x000002cc:    447a        zD      ADD      r2,r2,pc
        0x000002ce:    320e        .2      ADDS     r2,r2,#0xe
        0x000002d0:    4623        #F      MOV      r3,r4
        0x000002d2:    2100        .!      MOVS     r1,#0
        0x000002d4:    3324        $3      ADDS     r3,r3,#0x24
        0x000002d6:    e005        ..      B        0x2e4 ; _printf_int_hex + 52
        0x000002d8:    0706        ..      LSLS     r6,r0,#28
        0x000002da:    0f36        6.      LSRS     r6,r6,#28
        0x000002dc:    5d96        .]      LDRB     r6,[r2,r6]
        0x000002de:    545e        ^T      STRB     r6,[r3,r1]
        0x000002e0:    1c49        I.      ADDS     r1,r1,#1
        0x000002e2:    0900        ..      LSRS     r0,r0,#4
        0x000002e4:    2800        .(      CMP      r0,#0
        0x000002e6:    d1f7        ..      BNE      0x2d8 ; _printf_int_hex + 40
        0x000002e8:    6820         h      LDR      r0,[r4,#0]
        0x000002ea:    2300        .#      MOVS     r3,#0
        0x000002ec:    0700        ..      LSLS     r0,r0,#28
        0x000002ee:    d505        ..      BPL      0x2fc ; _printf_int_hex + 76
        0x000002f0:    2d70        p-      CMP      r5,#0x70
        0x000002f2:    d003        ..      BEQ      0x2fc ; _printf_int_hex + 76
        0x000002f4:    2900        .)      CMP      r1,#0
        0x000002f6:    d001        ..      BEQ      0x2fc ; _printf_int_hex + 76
        0x000002f8:    3211        .2      ADDS     r2,r2,#0x11
        0x000002fa:    2302        .#      MOVS     r3,#2
        0x000002fc:    4620         F      MOV      r0,r4
        0x000002fe:    f000f93b    ..;.    BL       _printf_int_common ; 0x578
        0x00000302:    bd70        p.      POP      {r4-r6,pc}
    $d
        0x00000304:    00001e2a    *...    DCD    7722
    $t
    .text
    __printf
        0x00000308:    b5f3        ..      PUSH     {r0,r1,r4-r7,lr}
        0x0000030a:    4604        .F      MOV      r4,r0
        0x0000030c:    2000        .       MOVS     r0,#0
        0x0000030e:    b081        ..      SUB      sp,sp,#4
        0x00000310:    e07e        ~.      B        0x410 ; __printf + 264
        0x00000312:    68e1        .h      LDR      r1,[r4,#0xc]
        0x00000314:    4620         F      MOV      r0,r4
        0x00000316:    4788        .G      BLX      r1
        0x00000318:    2800        .(      CMP      r0,#0
        0x0000031a:    d07b        {.      BEQ      0x414 ; __printf + 268
        0x0000031c:    2825        %(      CMP      r0,#0x25
        0x0000031e:    d002        ..      BEQ      0x326 ; __printf + 30
        0x00000320:    6862        bh      LDR      r2,[r4,#4]
        0x00000322:    68a1        .h      LDR      r1,[r4,#8]
        0x00000324:    e071        q.      B        0x40a ; __printf + 258
        0x00000326:    68e1        .h      LDR      r1,[r4,#0xc]
        0x00000328:    4620         F      MOV      r0,r4
        0x0000032a:    2500        .%      MOVS     r5,#0
        0x0000032c:    4788        .G      BLX      r1
        0x0000032e:    4606        .F      MOV      r6,r0
        0x00000330:    2000        .       MOVS     r0,#0
        0x00000332:    61e0        .a      STR      r0,[r4,#0x1c]
        0x00000334:    4607        .F      MOV      r7,r0
        0x00000336:    61a0        .a      STR      r0,[r4,#0x18]
        0x00000338:    2e2a        *.      CMP      r6,#0x2a
        0x0000033a:    d00a        ..      BEQ      0x352 ; __printf + 74
        0x0000033c:    4630        0F      MOV      r0,r6
        0x0000033e:    f001fdc7    ....    BL       _is_digit ; 0x1ed0
        0x00000342:    2800        .(      CMP      r0,#0
        0x00000344:    d027        '.      BEQ      0x396 ; __printf + 142
        0x00000346:    3e30        0>      SUBS     r6,r6,#0x30
        0x00000348:    00b8        ..      LSLS     r0,r7,#2
        0x0000034a:    1900        ..      ADDS     r0,r0,r4
        0x0000034c:    9000        ..      STR      r0,[sp,#0]
        0x0000034e:    6186        .a      STR      r6,[r0,#0x18]
        0x00000350:    e019        ..      B        0x386 ; __printf + 126
        0x00000352:    9802        ..      LDR      r0,[sp,#8]
        0x00000354:    00ba        ..      LSLS     r2,r7,#2
        0x00000356:    1912        ..      ADDS     r2,r2,r4
        0x00000358:    c802        ..      LDM      r0!,{r1}
        0x0000035a:    6191        .a      STR      r1,[r2,#0x18]
        0x0000035c:    9002        ..      STR      r0,[sp,#8]
        0x0000035e:    4620         F      MOV      r0,r4
        0x00000360:    68e1        .h      LDR      r1,[r4,#0xc]
        0x00000362:    4788        .G      BLX      r1
        0x00000364:    2f01        ./      CMP      r7,#1
        0x00000366:    4606        .F      MOV      r6,r0
        0x00000368:    d117        ..      BNE      0x39a ; __printf + 146
        0x0000036a:    69e0        .i      LDR      r0,[r4,#0x1c]
        0x0000036c:    2800        .(      CMP      r0,#0
        0x0000036e:    da1f        ..      BGE      0x3b0 ; __printf + 168
        0x00000370:    2020                MOVS     r0,#0x20
        0x00000372:    4385        .C      BICS     r5,r5,r0
        0x00000374:    e01c        ..      B        0x3b0 ; __printf + 168
        0x00000376:    9800        ..      LDR      r0,[sp,#0]
        0x00000378:    210a        .!      MOVS     r1,#0xa
        0x0000037a:    6980        .i      LDR      r0,[r0,#0x18]
        0x0000037c:    4348        HC      MULS     r0,r1,r0
        0x0000037e:    9900        ..      LDR      r1,[sp,#0]
        0x00000380:    1980        ..      ADDS     r0,r0,r6
        0x00000382:    3830        08      SUBS     r0,r0,#0x30
        0x00000384:    6188        .a      STR      r0,[r1,#0x18]
        0x00000386:    4620         F      MOV      r0,r4
        0x00000388:    68e1        .h      LDR      r1,[r4,#0xc]
        0x0000038a:    4788        .G      BLX      r1
        0x0000038c:    4606        .F      MOV      r6,r0
        0x0000038e:    f001fd9f    ....    BL       _is_digit ; 0x1ed0
        0x00000392:    2800        .(      CMP      r0,#0
        0x00000394:    d1ef        ..      BNE      0x376 ; __printf + 110
        0x00000396:    2f01        ./      CMP      r7,#1
        0x00000398:    d00a        ..      BEQ      0x3b0 ; __printf + 168
        0x0000039a:    2e2e        ..      CMP      r6,#0x2e
        0x0000039c:    d108        ..      BNE      0x3b0 ; __printf + 168
        0x0000039e:    4620         F      MOV      r0,r4
        0x000003a0:    68e1        .h      LDR      r1,[r4,#0xc]
        0x000003a2:    4788        .G      BLX      r1
        0x000003a4:    4606        .F      MOV      r6,r0
        0x000003a6:    2020                MOVS     r0,#0x20
        0x000003a8:    4305        .C      ORRS     r5,r5,r0
        0x000003aa:    1c7f        ..      ADDS     r7,r7,#1
        0x000003ac:    2f02        ./      CMP      r7,#2
        0x000003ae:    dbc3        ..      BLT      0x338 ; __printf + 48
        0x000003b0:    69a0        .i      LDR      r0,[r4,#0x18]
        0x000003b2:    2800        .(      CMP      r0,#0
        0x000003b4:    da03        ..      BGE      0x3be ; __printf + 182
        0x000003b6:    4240        @B      RSBS     r0,r0,#0
        0x000003b8:    61a0        .a      STR      r0,[r4,#0x18]
        0x000003ba:    2001        .       MOVS     r0,#1
        0x000003bc:    4305        .C      ORRS     r5,r5,r0
        0x000003be:    07e8        ..      LSLS     r0,r5,#31
        0x000003c0:    d001        ..      BEQ      0x3c6 ; __printf + 190
        0x000003c2:    2010        .       MOVS     r0,#0x10
        0x000003c4:    4385        .C      BICS     r5,r5,r0
        0x000003c6:    2e00        ..      CMP      r6,#0
        0x000003c8:    d024        $.      BEQ      0x414 ; __printf + 268
        0x000003ca:    4630        0F      MOV      r0,r6
        0x000003cc:    3841        A8      SUBS     r0,r0,#0x41
        0x000003ce:    2819        .(      CMP      r0,#0x19
        0x000003d0:    d803        ..      BHI      0x3da ; __printf + 210
        0x000003d2:    2001        .       MOVS     r0,#1
        0x000003d4:    02c0        ..      LSLS     r0,r0,#11
        0x000003d6:    4305        .C      ORRS     r5,r5,r0
        0x000003d8:    3620         6      ADDS     r6,r6,#0x20
        0x000003da:    4620         F      MOV      r0,r4
        0x000003dc:    6025        %`      STR      r5,[r4,#0]
        0x000003de:    4631        1F      MOV      r1,r6
        0x000003e0:    9a02        ..      LDR      r2,[sp,#8]
        0x000003e2:    4615        .F      MOV      r5,r2
        0x000003e4:    f7fffeaa    ....    BL       _printf_percent ; 0x13c
        0x000003e8:    2800        .(      CMP      r0,#0
        0x000003ea:    d00b        ..      BEQ      0x404 ; __printf + 252
        0x000003ec:    2801        .(      CMP      r0,#1
        0x000003ee:    d006        ..      BEQ      0x3fe ; __printf + 246
        0x000003f0:    1ded        ..      ADDS     r5,r5,#7
        0x000003f2:    08e8        ..      LSRS     r0,r5,#3
        0x000003f4:    00c0        ..      LSLS     r0,r0,#3
        0x000003f6:    3008        .0      ADDS     r0,r0,#8
        0x000003f8:    9002        ..      STR      r0,[sp,#8]
        0x000003fa:    e78a        ..      B        0x312 ; __printf + 10
        0x000003fc:    e00a        ..      B        0x414 ; __printf + 268
        0x000003fe:    1d2d        -.      ADDS     r5,r5,#4
        0x00000400:    9502        ..      STR      r5,[sp,#8]
        0x00000402:    e786        ..      B        0x312 ; __printf + 10
        0x00000404:    6862        bh      LDR      r2,[r4,#4]
        0x00000406:    4630        0F      MOV      r0,r6
        0x00000408:    68a1        .h      LDR      r1,[r4,#8]
        0x0000040a:    4790        .G      BLX      r2
        0x0000040c:    6a20         j      LDR      r0,[r4,#0x20]
        0x0000040e:    1c40        @.      ADDS     r0,r0,#1
        0x00000410:    6220         b      STR      r0,[r4,#0x20]
        0x00000412:    e77e        ~.      B        0x312 ; __printf + 10
        0x00000414:    6a20         j      LDR      r0,[r4,#0x20]
        0x00000416:    bdfe        ..      POP      {r1-r7,pc}
    .text
    __aeabi_uidiv
    __aeabi_uidivmod
        0x00000418:    2200        ."      MOVS     r2,#0
        0x0000041a:    0903        ..      LSRS     r3,r0,#4
        0x0000041c:    428b        .B      CMP      r3,r1
        0x0000041e:    d32c        ,.      BCC      0x47a ; __aeabi_idiv + 78
        0x00000420:    0a03        ..      LSRS     r3,r0,#8
        0x00000422:    428b        .B      CMP      r3,r1
        0x00000424:    d311        ..      BCC      0x44a ; __aeabi_idiv + 30
        0x00000426:    2300        .#      MOVS     r3,#0
        0x00000428:    469c        .F      MOV      r12,r3
        0x0000042a:    e04e        N.      B        0x4ca ; __aeabi_idiv + 158
    __aeabi_idiv
    __aeabi_idivmod
        0x0000042c:    4603        .F      MOV      r3,r0
        0x0000042e:    430b        .C      ORRS     r3,r3,r1
        0x00000430:    d43c        <.      BMI      0x4ac ; __aeabi_idiv + 128
        0x00000432:    2200        ."      MOVS     r2,#0
        0x00000434:    0843        C.      LSRS     r3,r0,#1
        0x00000436:    428b        .B      CMP      r3,r1
        0x00000438:    d331        1.      BCC      0x49e ; __aeabi_idiv + 114
        0x0000043a:    0903        ..      LSRS     r3,r0,#4
        0x0000043c:    428b        .B      CMP      r3,r1
        0x0000043e:    d31c        ..      BCC      0x47a ; __aeabi_idiv + 78
        0x00000440:    0a03        ..      LSRS     r3,r0,#8
        0x00000442:    428b        .B      CMP      r3,r1
        0x00000444:    d301        ..      BCC      0x44a ; __aeabi_idiv + 30
        0x00000446:    4694        .F      MOV      r12,r2
        0x00000448:    e03f        ?.      B        0x4ca ; __aeabi_idiv + 158
        0x0000044a:    09c3        ..      LSRS     r3,r0,#7
        0x0000044c:    428b        .B      CMP      r3,r1
        0x0000044e:    d301        ..      BCC      0x454 ; __aeabi_idiv + 40
        0x00000450:    01cb        ..      LSLS     r3,r1,#7
        0x00000452:    1ac0        ..      SUBS     r0,r0,r3
        0x00000454:    4152        RA      ADCS     r2,r2,r2
        0x00000456:    0983        ..      LSRS     r3,r0,#6
        0x00000458:    428b        .B      CMP      r3,r1
        0x0000045a:    d301        ..      BCC      0x460 ; __aeabi_idiv + 52
        0x0000045c:    018b        ..      LSLS     r3,r1,#6
        0x0000045e:    1ac0        ..      SUBS     r0,r0,r3
        0x00000460:    4152        RA      ADCS     r2,r2,r2
        0x00000462:    0943        C.      LSRS     r3,r0,#5
        0x00000464:    428b        .B      CMP      r3,r1
        0x00000466:    d301        ..      BCC      0x46c ; __aeabi_idiv + 64
        0x00000468:    014b        K.      LSLS     r3,r1,#5
        0x0000046a:    1ac0        ..      SUBS     r0,r0,r3
        0x0000046c:    4152        RA      ADCS     r2,r2,r2
        0x0000046e:    0903        ..      LSRS     r3,r0,#4
        0x00000470:    428b        .B      CMP      r3,r1
        0x00000472:    d301        ..      BCC      0x478 ; __aeabi_idiv + 76
        0x00000474:    010b        ..      LSLS     r3,r1,#4
        0x00000476:    1ac0        ..      SUBS     r0,r0,r3
        0x00000478:    4152        RA      ADCS     r2,r2,r2
        0x0000047a:    08c3        ..      LSRS     r3,r0,#3
        0x0000047c:    428b        .B      CMP      r3,r1
        0x0000047e:    d301        ..      BCC      0x484 ; __aeabi_idiv + 88
        0x00000480:    00cb        ..      LSLS     r3,r1,#3
        0x00000482:    1ac0        ..      SUBS     r0,r0,r3
        0x00000484:    4152        RA      ADCS     r2,r2,r2
        0x00000486:    0883        ..      LSRS     r3,r0,#2
        0x00000488:    428b        .B      CMP      r3,r1
        0x0000048a:    d301        ..      BCC      0x490 ; __aeabi_idiv + 100
        0x0000048c:    008b        ..      LSLS     r3,r1,#2
        0x0000048e:    1ac0        ..      SUBS     r0,r0,r3
        0x00000490:    4152        RA      ADCS     r2,r2,r2
        0x00000492:    0843        C.      LSRS     r3,r0,#1
        0x00000494:    428b        .B      CMP      r3,r1
        0x00000496:    d301        ..      BCC      0x49c ; __aeabi_idiv + 112
        0x00000498:    004b        K.      LSLS     r3,r1,#1
        0x0000049a:    1ac0        ..      SUBS     r0,r0,r3
        0x0000049c:    4152        RA      ADCS     r2,r2,r2
        0x0000049e:    1a41        A.      SUBS     r1,r0,r1
        0x000004a0:    d200        ..      BCS      0x4a4 ; __aeabi_idiv + 120
        0x000004a2:    4601        .F      MOV      r1,r0
        0x000004a4:    4152        RA      ADCS     r2,r2,r2
        0x000004a6:    4610        .F      MOV      r0,r2
        0x000004a8:    4770        pG      BX       lr
        0x000004aa:    e05d        ].      B        0x568 ; __aeabi_idiv + 316
        0x000004ac:    0fca        ..      LSRS     r2,r1,#31
        0x000004ae:    d000        ..      BEQ      0x4b2 ; __aeabi_idiv + 134
        0x000004b0:    4249        IB      RSBS     r1,r1,#0
        0x000004b2:    1003        ..      ASRS     r3,r0,#32
        0x000004b4:    d300        ..      BCC      0x4b8 ; __aeabi_idiv + 140
        0x000004b6:    4240        @B      RSBS     r0,r0,#0
        0x000004b8:    4053        S@      EORS     r3,r3,r2
        0x000004ba:    2200        ."      MOVS     r2,#0
        0x000004bc:    469c        .F      MOV      r12,r3
        0x000004be:    0903        ..      LSRS     r3,r0,#4
        0x000004c0:    428b        .B      CMP      r3,r1
        0x000004c2:    d32d        -.      BCC      0x520 ; __aeabi_idiv + 244
        0x000004c4:    0a03        ..      LSRS     r3,r0,#8
        0x000004c6:    428b        .B      CMP      r3,r1
        0x000004c8:    d312        ..      BCC      0x4f0 ; __aeabi_idiv + 196
        0x000004ca:    22fc        ."      MOVS     r2,#0xfc
        0x000004cc:    0189        ..      LSLS     r1,r1,#6
        0x000004ce:    ba12        ..      REV      r2,r2
        0x000004d0:    0a03        ..      LSRS     r3,r0,#8
        0x000004d2:    428b        .B      CMP      r3,r1
        0x000004d4:    d30c        ..      BCC      0x4f0 ; __aeabi_idiv + 196
        0x000004d6:    0189        ..      LSLS     r1,r1,#6
        0x000004d8:    1192        ..      ASRS     r2,r2,#6
        0x000004da:    428b        .B      CMP      r3,r1
        0x000004dc:    d308        ..      BCC      0x4f0 ; __aeabi_idiv + 196
        0x000004de:    0189        ..      LSLS     r1,r1,#6
        0x000004e0:    1192        ..      ASRS     r2,r2,#6
        0x000004e2:    428b        .B      CMP      r3,r1
        0x000004e4:    d304        ..      BCC      0x4f0 ; __aeabi_idiv + 196
        0x000004e6:    0189        ..      LSLS     r1,r1,#6
        0x000004e8:    d03a        :.      BEQ      0x560 ; __aeabi_idiv + 308
        0x000004ea:    1192        ..      ASRS     r2,r2,#6
        0x000004ec:    e000        ..      B        0x4f0 ; __aeabi_idiv + 196
        0x000004ee:    0989        ..      LSRS     r1,r1,#6
        0x000004f0:    09c3        ..      LSRS     r3,r0,#7
        0x000004f2:    428b        .B      CMP      r3,r1
        0x000004f4:    d301        ..      BCC      0x4fa ; __aeabi_idiv + 206
        0x000004f6:    01cb        ..      LSLS     r3,r1,#7
        0x000004f8:    1ac0        ..      SUBS     r0,r0,r3
        0x000004fa:    4152        RA      ADCS     r2,r2,r2
        0x000004fc:    0983        ..      LSRS     r3,r0,#6
        0x000004fe:    428b        .B      CMP      r3,r1
        0x00000500:    d301        ..      BCC      0x506 ; __aeabi_idiv + 218
        0x00000502:    018b        ..      LSLS     r3,r1,#6
        0x00000504:    1ac0        ..      SUBS     r0,r0,r3
        0x00000506:    4152        RA      ADCS     r2,r2,r2
        0x00000508:    0943        C.      LSRS     r3,r0,#5
        0x0000050a:    428b        .B      CMP      r3,r1
        0x0000050c:    d301        ..      BCC      0x512 ; __aeabi_idiv + 230
        0x0000050e:    014b        K.      LSLS     r3,r1,#5
        0x00000510:    1ac0        ..      SUBS     r0,r0,r3
        0x00000512:    4152        RA      ADCS     r2,r2,r2
        0x00000514:    0903        ..      LSRS     r3,r0,#4
        0x00000516:    428b        .B      CMP      r3,r1
        0x00000518:    d301        ..      BCC      0x51e ; __aeabi_idiv + 242
        0x0000051a:    010b        ..      LSLS     r3,r1,#4
        0x0000051c:    1ac0        ..      SUBS     r0,r0,r3
        0x0000051e:    4152        RA      ADCS     r2,r2,r2
        0x00000520:    08c3        ..      LSRS     r3,r0,#3
        0x00000522:    428b        .B      CMP      r3,r1
        0x00000524:    d301        ..      BCC      0x52a ; __aeabi_idiv + 254
        0x00000526:    00cb        ..      LSLS     r3,r1,#3
        0x00000528:    1ac0        ..      SUBS     r0,r0,r3
        0x0000052a:    4152        RA      ADCS     r2,r2,r2
        0x0000052c:    0883        ..      LSRS     r3,r0,#2
        0x0000052e:    428b        .B      CMP      r3,r1
        0x00000530:    d301        ..      BCC      0x536 ; __aeabi_idiv + 266
        0x00000532:    008b        ..      LSLS     r3,r1,#2
        0x00000534:    1ac0        ..      SUBS     r0,r0,r3
        0x00000536:    4152        RA      ADCS     r2,r2,r2
        0x00000538:    d2d9        ..      BCS      0x4ee ; __aeabi_idiv + 194
        0x0000053a:    0843        C.      LSRS     r3,r0,#1
        0x0000053c:    428b        .B      CMP      r3,r1
        0x0000053e:    d301        ..      BCC      0x544 ; __aeabi_idiv + 280
        0x00000540:    004b        K.      LSLS     r3,r1,#1
        0x00000542:    1ac0        ..      SUBS     r0,r0,r3
        0x00000544:    4152        RA      ADCS     r2,r2,r2
        0x00000546:    1a41        A.      SUBS     r1,r0,r1
        0x00000548:    d200        ..      BCS      0x54c ; __aeabi_idiv + 288
        0x0000054a:    4601        .F      MOV      r1,r0
        0x0000054c:    4663        cF      MOV      r3,r12
        0x0000054e:    4152        RA      ADCS     r2,r2,r2
        0x00000550:    105b        [.      ASRS     r3,r3,#1
        0x00000552:    4610        .F      MOV      r0,r2
        0x00000554:    d301        ..      BCC      0x55a ; __aeabi_idiv + 302
        0x00000556:    4240        @B      RSBS     r0,r0,#0
        0x00000558:    2b00        .+      CMP      r3,#0
        0x0000055a:    d500        ..      BPL      0x55e ; __aeabi_idiv + 306
        0x0000055c:    4249        IB      RSBS     r1,r1,#0
        0x0000055e:    4770        pG      BX       lr
        0x00000560:    4663        cF      MOV      r3,r12
        0x00000562:    105b        [.      ASRS     r3,r3,#1
        0x00000564:    d300        ..      BCC      0x568 ; __aeabi_idiv + 316
        0x00000566:    4240        @B      RSBS     r0,r0,#0
        0x00000568:    b501        ..      PUSH     {r0,lr}
        0x0000056a:    2000        .       MOVS     r0,#0
        0x0000056c:    46c0        .F      MOV      r8,r8
        0x0000056e:    46c0        .F      MOV      r8,r8
        0x00000570:    bd02        ..      POP      {r1,pc}
    .text
    __use_two_region_memory
        0x00000572:    4770        pG      BX       lr
    __rt_heap_escrow$2region
        0x00000574:    4770        pG      BX       lr
    __rt_heap_expand$2region
        0x00000576:    4770        pG      BX       lr
    .text
    _printf_int_common
        0x00000578:    b5ff        ..      PUSH     {r0-r7,lr}
        0x0000057a:    4604        .F      MOV      r4,r0
        0x0000057c:    460d        .F      MOV      r5,r1
        0x0000057e:    b081        ..      SUB      sp,sp,#4
        0x00000580:    3024        $0      ADDS     r0,r0,#0x24
        0x00000582:    9000        ..      STR      r0,[sp,#0]
        0x00000584:    6821        !h      LDR      r1,[r4,#0]
        0x00000586:    0688        ..      LSLS     r0,r1,#26
        0x00000588:    d504        ..      BPL      0x594 ; _printf_int_common + 28
        0x0000058a:    2210        ."      MOVS     r2,#0x10
        0x0000058c:    69e0        .i      LDR      r0,[r4,#0x1c]
        0x0000058e:    4391        .C      BICS     r1,r1,r2
        0x00000590:    6021        !`      STR      r1,[r4,#0]
        0x00000592:    e000        ..      B        0x596 ; _printf_int_common + 30
        0x00000594:    2001        .       MOVS     r0,#1
        0x00000596:    42a8        .B      CMP      r0,r5
        0x00000598:    dd01        ..      BLE      0x59e ; _printf_int_common + 38
        0x0000059a:    1b47        G.      SUBS     r7,r0,r5
        0x0000059c:    e000        ..      B        0x5a0 ; _printf_int_common + 40
        0x0000059e:    2700        .'      MOVS     r7,#0
        0x000005a0:    9804        ..      LDR      r0,[sp,#0x10]
        0x000005a2:    69a1        .i      LDR      r1,[r4,#0x18]
        0x000005a4:    197a        z.      ADDS     r2,r7,r5
        0x000005a6:    1810        ..      ADDS     r0,r2,r0
        0x000005a8:    1a08        ..      SUBS     r0,r1,r0
        0x000005aa:    61a0        .a      STR      r0,[r4,#0x18]
        0x000005ac:    6820         h      LDR      r0,[r4,#0]
        0x000005ae:    06c0        ..      LSLS     r0,r0,#27
        0x000005b0:    d402        ..      BMI      0x5b8 ; _printf_int_common + 64
        0x000005b2:    4620         F      MOV      r0,r4
        0x000005b4:    46c0        .F      MOV      r8,r8
        0x000005b6:    46c0        .F      MOV      r8,r8
        0x000005b8:    2600        .&      MOVS     r6,#0
        0x000005ba:    e008        ..      B        0x5ce ; _printf_int_common + 86
        0x000005bc:    9803        ..      LDR      r0,[sp,#0xc]
        0x000005be:    6862        bh      LDR      r2,[r4,#4]
        0x000005c0:    68a1        .h      LDR      r1,[r4,#8]
        0x000005c2:    5d80        .]      LDRB     r0,[r0,r6]
        0x000005c4:    4790        .G      BLX      r2
        0x000005c6:    6a20         j      LDR      r0,[r4,#0x20]
        0x000005c8:    1c40        @.      ADDS     r0,r0,#1
        0x000005ca:    1c76        v.      ADDS     r6,r6,#1
        0x000005cc:    6220         b      STR      r0,[r4,#0x20]
        0x000005ce:    9804        ..      LDR      r0,[sp,#0x10]
        0x000005d0:    4286        .B      CMP      r6,r0
        0x000005d2:    dbf3        ..      BLT      0x5bc ; _printf_int_common + 68
        0x000005d4:    6820         h      LDR      r0,[r4,#0]
        0x000005d6:    06c0        ..      LSLS     r0,r0,#27
        0x000005d8:    d50a        ..      BPL      0x5f0 ; _printf_int_common + 120
        0x000005da:    4620         F      MOV      r0,r4
        0x000005dc:    46c0        .F      MOV      r8,r8
        0x000005de:    46c0        .F      MOV      r8,r8
        0x000005e0:    e006        ..      B        0x5f0 ; _printf_int_common + 120
        0x000005e2:    6862        bh      LDR      r2,[r4,#4]
        0x000005e4:    68a1        .h      LDR      r1,[r4,#8]
        0x000005e6:    2030        0       MOVS     r0,#0x30
        0x000005e8:    4790        .G      BLX      r2
        0x000005ea:    6a20         j      LDR      r0,[r4,#0x20]
        0x000005ec:    1c40        @.      ADDS     r0,r0,#1
        0x000005ee:    6220         b      STR      r0,[r4,#0x20]
        0x000005f0:    4638        8F      MOV      r0,r7
        0x000005f2:    1e7f        ..      SUBS     r7,r7,#1
        0x000005f4:    2800        .(      CMP      r0,#0
        0x000005f6:    dcf4        ..      BGT      0x5e2 ; _printf_int_common + 106
        0x000005f8:    e007        ..      B        0x60a ; _printf_int_common + 146
        0x000005fa:    9800        ..      LDR      r0,[sp,#0]
        0x000005fc:    6862        bh      LDR      r2,[r4,#4]
        0x000005fe:    68a1        .h      LDR      r1,[r4,#8]
        0x00000600:    5d40        @]      LDRB     r0,[r0,r5]
        0x00000602:    4790        .G      BLX      r2
        0x00000604:    6a20         j      LDR      r0,[r4,#0x20]
        0x00000606:    1c40        @.      ADDS     r0,r0,#1
        0x00000608:    6220         b      STR      r0,[r4,#0x20]
        0x0000060a:    4628        (F      MOV      r0,r5
        0x0000060c:    1e6d        m.      SUBS     r5,r5,#1
        0x0000060e:    2800        .(      CMP      r0,#0
        0x00000610:    dcf3        ..      BGT      0x5fa ; _printf_int_common + 130
        0x00000612:    4620         F      MOV      r0,r4
        0x00000614:    46c0        .F      MOV      r8,r8
        0x00000616:    46c0        .F      MOV      r8,r8
        0x00000618:    6820         h      LDR      r0,[r4,#0]
        0x0000061a:    0600        ..      LSLS     r0,r0,#24
        0x0000061c:    d502        ..      BPL      0x624 ; _printf_int_common + 172
        0x0000061e:    2002        .       MOVS     r0,#2
        0x00000620:    b005        ..      ADD      sp,sp,#0x14
        0x00000622:    bdf0        ..      POP      {r4-r7,pc}
        0x00000624:    2001        .       MOVS     r0,#1
        0x00000626:    e7fb        ..      B        0x620 ; _printf_int_common + 168
    .text
    _printf_input_char
        0x00000628:    6901        .i      LDR      r1,[r0,#0x10]
        0x0000062a:    1c4a        J.      ADDS     r2,r1,#1
        0x0000062c:    6102        .a      STR      r2,[r0,#0x10]
        0x0000062e:    7808        .x      LDRB     r0,[r1,#0]
        0x00000630:    4770        pG      BX       lr
    _printf_char_common
        0x00000632:    b500        ..      PUSH     {lr}
        0x00000634:    b08f        ..      SUB      sp,sp,#0x3c
        0x00000636:    9102        ..      STR      r1,[sp,#8]
        0x00000638:    2100        .!      MOVS     r1,#0
        0x0000063a:    9105        ..      STR      r1,[sp,#0x14]
        0x0000063c:    4905        .I      LDR      r1,[pc,#20] ; [0x654] = 0xffffffe5
        0x0000063e:    9301        ..      STR      r3,[sp,#4]
        0x00000640:    4479        yD      ADD      r1,r1,pc
        0x00000642:    9103        ..      STR      r1,[sp,#0xc]
        0x00000644:    4611        .F      MOV      r1,r2
        0x00000646:    9004        ..      STR      r0,[sp,#0x10]
        0x00000648:    4668        hF      MOV      r0,sp
        0x0000064a:    f7fffe5d    ..].    BL       __printf ; 0x308
        0x0000064e:    b00f        ..      ADD      sp,sp,#0x3c
        0x00000650:    bd00        ..      POP      {pc}
    $d
        0x00000652:    0000        ..      DCW    0
        0x00000654:    ffffffe5    ....    DCD    4294967269
    $t
    .text
    _sputc
        0x00000658:    680a        .h      LDR      r2,[r1,#0]
        0x0000065a:    7010        .p      STRB     r0,[r2,#0]
        0x0000065c:    1c52        R.      ADDS     r2,r2,#1
        0x0000065e:    600a        .`      STR      r2,[r1,#0]
        0x00000660:    4770        pG      BX       lr
    .text
    __rt_udiv10
        0x00000662:    4601        .F      MOV      r1,r0
        0x00000664:    0880        ..      LSRS     r0,r0,#2
        0x00000666:    1a08        ..      SUBS     r0,r1,r0
        0x00000668:    0902        ..      LSRS     r2,r0,#4
        0x0000066a:    1810        ..      ADDS     r0,r2,r0
        0x0000066c:    0a02        ..      LSRS     r2,r0,#8
        0x0000066e:    1810        ..      ADDS     r0,r2,r0
        0x00000670:    0c02        ..      LSRS     r2,r0,#16
        0x00000672:    1810        ..      ADDS     r0,r2,r0
        0x00000674:    08c0        ..      LSRS     r0,r0,#3
        0x00000676:    0082        ..      LSLS     r2,r0,#2
        0x00000678:    1812        ..      ADDS     r2,r2,r0
        0x0000067a:    0052        R.      LSLS     r2,r2,#1
        0x0000067c:    1a89        ..      SUBS     r1,r1,r2
        0x0000067e:    e001        ..      B        0x684 ; __rt_udiv10 + 34
        0x00000680:    390a        .9      SUBS     r1,r1,#0xa
        0x00000682:    1c40        @.      ADDS     r0,r0,#1
        0x00000684:    290a        .)      CMP      r1,#0xa
        0x00000686:    d2fb        ..      BCS      0x680 ; __rt_udiv10 + 30
        0x00000688:    4770        pG      BX       lr
    .text
    __user_setup_stackheap
        0x0000068a:    4675        uF      MOV      r5,lr
        0x0000068c:    f000f822    ..".    BL       __user_libspace ; 0x6d4
        0x00000690:    46ae        .F      MOV      lr,r5
        0x00000692:    0005        ..      MOVS     r5,r0
        0x00000694:    4669        iF      MOV      r1,sp
        0x00000696:    4653        SF      MOV      r3,r10
        0x00000698:    08c0        ..      LSRS     r0,r0,#3
        0x0000069a:    00c0        ..      LSLS     r0,r0,#3
        0x0000069c:    4685        .F      MOV      sp,r0
        0x0000069e:    b018        ..      ADD      sp,sp,#0x60
        0x000006a0:    b520         .      PUSH     {r5,lr}
        0x000006a2:    f7fffd9f    ....    BL       __user_initial_stackheap ; 0x1e4
        0x000006a6:    bc60        `.      POP      {r5,r6}
        0x000006a8:    2700        .'      MOVS     r7,#0
        0x000006aa:    0849        I.      LSRS     r1,r1,#1
        0x000006ac:    46b6        .F      MOV      lr,r6
        0x000006ae:    2600        .&      MOVS     r6,#0
        0x000006b0:    c5c0        ..      STM      r5!,{r6,r7}
        0x000006b2:    c5c0        ..      STM      r5!,{r6,r7}
        0x000006b4:    c5c0        ..      STM      r5!,{r6,r7}
        0x000006b6:    c5c0        ..      STM      r5!,{r6,r7}
        0x000006b8:    c5c0        ..      STM      r5!,{r6,r7}
        0x000006ba:    c5c0        ..      STM      r5!,{r6,r7}
        0x000006bc:    c5c0        ..      STM      r5!,{r6,r7}
        0x000006be:    c5c0        ..      STM      r5!,{r6,r7}
        0x000006c0:    3d40        @=      SUBS     r5,r5,#0x40
        0x000006c2:    0049        I.      LSLS     r1,r1,#1
        0x000006c4:    468d        .F      MOV      sp,r1
        0x000006c6:    4770        pG      BX       lr
    .text
    exit
        0x000006c8:    4604        .F      MOV      r4,r0
        0x000006ca:    46c0        .F      MOV      r8,r8
        0x000006cc:    46c0        .F      MOV      r8,r8
        0x000006ce:    4620         F      MOV      r0,r4
        0x000006d0:    f7fffd50    ..P.    BL       __rt_exit ; 0x174
    .text
    __user_libspace
    __user_perproc_libspace
    __user_perthread_libspace
        0x000006d4:    4800        .H      LDR      r0,[pc,#0] ; [0x6d8] = 0x200006b8
        0x000006d6:    4770        pG      BX       lr
    $d
        0x000006d8:    200006b8    ...     DCD    536872632
    $t
    .text
    _sys_exit
        0x000006dc:    4901        .I      LDR      r1,[pc,#4] ; [0x6e4] = 0x20026
        0x000006de:    2018        .       MOVS     r0,#0x18
        0x000006e0:    beab        ..      BKPT     #0xab
        0x000006e2:    e7fe        ..      B        0x6e2 ; _sys_exit + 6
    $d
        0x000006e4:    00020026    &...    DCD    131110
    $t
    .text
    __I$use$semihosting
    __use_no_semihosting_swi
        0x000006e8:    4770        pG      BX       lr
    .text
    __semihosting_library_function
        0x000006ea:    0000        ..      MOVS     r0,r0
    i.BOD_IRQHandler
    BOD_IRQHandler
        0x000006ec:    b510        ..      PUSH     {r4,lr}
        0x000006ee:    2005        .       MOVS     r0,#5
        0x000006f0:    0700        ..      LSLS     r0,r0,#28
        0x000006f2:    6980        .i      LDR      r0,[r0,#0x18]
        0x000006f4:    2110        .!      MOVS     r1,#0x10
        0x000006f6:    4388        .C      BICS     r0,r0,r1
        0x000006f8:    3010        .0      ADDS     r0,r0,#0x10
        0x000006fa:    2105        .!      MOVS     r1,#5
        0x000006fc:    0709        ..      LSLS     r1,r1,#28
        0x000006fe:    6188        .a      STR      r0,[r1,#0x18]
        0x00000700:    4803        .H      LDR      r0,[pc,#12] ; [0x710] = 0x20000624
        0x00000702:    6800        .h      LDR      r0,[r0,#0]
        0x00000704:    2800        .(      CMP      r0,#0
        0x00000706:    d002        ..      BEQ      0x70e ; BOD_IRQHandler + 34
        0x00000708:    4801        .H      LDR      r0,[pc,#4] ; [0x710] = 0x20000624
        0x0000070a:    6800        .h      LDR      r0,[r0,#0]
        0x0000070c:    4780        .G      BLX      r0
        0x0000070e:    bd10        ..      POP      {r4,pc}
    $d
        0x00000710:    20000624    $..     DCD    536872484
    $t
    i.DrvGPIO_ClrBit
    DrvGPIO_ClrBit
        0x00000714:    b510        ..      PUSH     {r4,lr}
        0x00000716:    4603        .F      MOV      r3,r0
        0x00000718:    2900        .)      CMP      r1,#0
        0x0000071a:    db01        ..      BLT      0x720 ; DrvGPIO_ClrBit + 12
        0x0000071c:    2910        .)      CMP      r1,#0x10
        0x0000071e:    dd01        ..      BLE      0x724 ; DrvGPIO_ClrBit + 16
        0x00000720:    4805        .H      LDR      r0,[pc,#20] ; [0x738] = 0xffff8901
        0x00000722:    bd10        ..      POP      {r4,pc}
        0x00000724:    0198        ..      LSLS     r0,r3,#6
        0x00000726:    4c05        .L      LDR      r4,[pc,#20] ; [0x73c] = 0x50004000
        0x00000728:    1902        ..      ADDS     r2,r0,r4
        0x0000072a:    6890        .h      LDR      r0,[r2,#8]
        0x0000072c:    2401        .$      MOVS     r4,#1
        0x0000072e:    408c        .@      LSLS     r4,r4,r1
        0x00000730:    43a0        .C      BICS     r0,r0,r4
        0x00000732:    6090        .`      STR      r0,[r2,#8]
        0x00000734:    2000        .       MOVS     r0,#0
        0x00000736:    e7f4        ..      B        0x722 ; DrvGPIO_ClrBit + 14
    $d
        0x00000738:    ffff8901    ....    DCD    4294936833
        0x0000073c:    50004000    .@.P    DCD    1342193664
    $t
    i.DrvGPIO_GetBit
    DrvGPIO_GetBit
        0x00000740:    b510        ..      PUSH     {r4,lr}
        0x00000742:    4602        .F      MOV      r2,r0
        0x00000744:    2900        .)      CMP      r1,#0
        0x00000746:    db01        ..      BLT      0x74c ; DrvGPIO_GetBit + 12
        0x00000748:    2910        .)      CMP      r1,#0x10
        0x0000074a:    dd01        ..      BLE      0x750 ; DrvGPIO_GetBit + 16
        0x0000074c:    4804        .H      LDR      r0,[pc,#16] ; [0x760] = 0xffff8901
        0x0000074e:    bd10        ..      POP      {r4,pc}
        0x00000750:    4804        .H      LDR      r0,[pc,#16] ; [0x764] = 0x50004010
        0x00000752:    0194        ..      LSLS     r4,r2,#6
        0x00000754:    1903        ..      ADDS     r3,r0,r4
        0x00000756:    6818        .h      LDR      r0,[r3,#0]
        0x00000758:    40c8        .@      LSRS     r0,r0,r1
        0x0000075a:    07c0        ..      LSLS     r0,r0,#31
        0x0000075c:    0fc0        ..      LSRS     r0,r0,#31
        0x0000075e:    e7f6        ..      B        0x74e ; DrvGPIO_GetBit + 14
    $d
        0x00000760:    ffff8901    ....    DCD    4294936833
        0x00000764:    50004010    .@.P    DCD    1342193680
    $t
    i.DrvGPIO_InitFunction
    DrvGPIO_InitFunction
        0x00000768:    b510        ..      PUSH     {r4,lr}
        0x0000076a:    4601        .F      MOV      r1,r0
        0x0000076c:    000b        ..      MOVS     r3,r1
        0x0000076e:    f001fba1    ....    BL       __ARM_common_switch8 ; 0x1eb4
    $d
        0x00000772:    203e        >       DCW    8254
        0x00000774:    5c4b412a    *AK\    DCD    1548435754
        0x00000778:    947e7d74    t}~.    DCD    2491317620
        0x0000077c:    eff1b4a4    ....    DCD    4025595044
        0x00000780:    ebecedee    ....    DCD    3958173166
        0x00000784:    e7e8e9ea    ....    DCD    3890801130
        0x00000788:    e3e4e5e6    ....    DCD    3823429094
        0x0000078c:    dfe0e1e2    ....    DCD    3756057058
        0x00000790:    dbdcddde    ....    DCD    3688685022
        0x00000794:    d7d8d9da    ....    DCD    3621312986
        0x00000798:    d3d4d5d6    ....    DCD    3553940950
        0x0000079c:    cfd0d1d2    ....    DCD    3486568914
        0x000007a0:    cbcccdce    ....    DCD    3419196878
        0x000007a4:    c7c8c9ca    ....    DCD    3351824842
        0x000007a8:    c3c4c5c6    ....    DCD    3284452806
        0x000007ac:    bfc0c1c2    ....    DCD    3217080770
        0x000007b0:    bdbe        ..      DCW    48574
    $t
        0x000007b2:    2000        .       MOVS     r0,#0
        0x000007b4:    2305        .#      MOVS     r3,#5
        0x000007b6:    071b        ..      LSLS     r3,r3,#28
        0x000007b8:    6318        .c      STR      r0,[r3,#0x30]
        0x000007ba:    6358        Xc      STR      r0,[r3,#0x34]
        0x000007bc:    6398        .c      STR      r0,[r3,#0x38]
        0x000007be:    63d8        .c      STR      r0,[r3,#0x3c]
        0x000007c0:    4bfa        .K      LDR      r3,[pc,#1000] ; [0xbac] = 0x50000040
        0x000007c2:    6018        .`      STR      r0,[r3,#0]
        0x000007c4:    e371        q.      B        0xeaa ; DrvGPIO_InitFunction + 1858
        0x000007c6:    2005        .       MOVS     r0,#5
        0x000007c8:    0700        ..      LSLS     r0,r0,#28
        0x000007ca:    6b40        @k      LDR      r0,[r0,#0x34]
        0x000007cc:    2301        .#      MOVS     r3,#1
        0x000007ce:    031b        ..      LSLS     r3,r3,#12
        0x000007d0:    4318        .C      ORRS     r0,r0,r3
        0x000007d2:    2305        .#      MOVS     r3,#5
        0x000007d4:    071b        ..      LSLS     r3,r3,#28
        0x000007d6:    6358        Xc      STR      r0,[r3,#0x34]
        0x000007d8:    48f4        .H      LDR      r0,[pc,#976] ; [0xbac] = 0x50000040
        0x000007da:    6900        .i      LDR      r0,[r0,#0x10]
        0x000007dc:    2301        .#      MOVS     r3,#1
        0x000007de:    029b        ..      LSLS     r3,r3,#10
        0x000007e0:    4318        .C      ORRS     r0,r0,r3
        0x000007e2:    4bf2        .K      LDR      r3,[pc,#968] ; [0xbac] = 0x50000040
        0x000007e4:    6118        .a      STR      r0,[r3,#0x10]
        0x000007e6:    4618        .F      MOV      r0,r3
        0x000007e8:    6900        .i      LDR      r0,[r0,#0x10]
        0x000007ea:    015b        [.      LSLS     r3,r3,#5
        0x000007ec:    4398        .C      BICS     r0,r0,r3
        0x000007ee:    4bef        .K      LDR      r3,[pc,#956] ; [0xbac] = 0x50000040
        0x000007f0:    6118        .a      STR      r0,[r3,#0x10]
        0x000007f2:    e35a        Z.      B        0xeaa ; DrvGPIO_InitFunction + 1858
        0x000007f4:    2005        .       MOVS     r0,#5
        0x000007f6:    0700        ..      LSLS     r0,r0,#28
        0x000007f8:    6b00        .k      LDR      r0,[r0,#0x30]
        0x000007fa:    2303        .#      MOVS     r3,#3
        0x000007fc:    021b        ..      LSLS     r3,r3,#8
        0x000007fe:    4318        .C      ORRS     r0,r0,r3
        0x00000800:    2305        .#      MOVS     r3,#5
        0x00000802:    071b        ..      LSLS     r3,r3,#28
        0x00000804:    6318        .c      STR      r0,[r3,#0x30]
        0x00000806:    e350        P.      B        0xeaa ; DrvGPIO_InitFunction + 1858
        0x00000808:    2005        .       MOVS     r0,#5
        0x0000080a:    0700        ..      LSLS     r0,r0,#28
        0x0000080c:    6b00        .k      LDR      r0,[r0,#0x30]
        0x0000080e:    2303        .#      MOVS     r3,#3
        0x00000810:    029b        ..      LSLS     r3,r3,#10
        0x00000812:    4318        .C      ORRS     r0,r0,r3
        0x00000814:    2305        .#      MOVS     r3,#5
        0x00000816:    071b        ..      LSLS     r3,r3,#28
        0x00000818:    6318        .c      STR      r0,[r3,#0x30]
        0x0000081a:    48e4        .H      LDR      r0,[pc,#912] ; [0xbac] = 0x50000040
        0x0000081c:    6900        .i      LDR      r0,[r0,#0x10]
        0x0000081e:    2301        .#      MOVS     r3,#1
        0x00000820:    02db        ..      LSLS     r3,r3,#11
        0x00000822:    4398        .C      BICS     r0,r0,r3
        0x00000824:    4be1        .K      LDR      r3,[pc,#900] ; [0xbac] = 0x50000040
        0x00000826:    6118        .a      STR      r0,[r3,#0x10]
        0x00000828:    e33f        ?.      B        0xeaa ; DrvGPIO_InitFunction + 1858
        0x0000082a:    2005        .       MOVS     r0,#5
        0x0000082c:    0700        ..      LSLS     r0,r0,#28
        0x0000082e:    6b80        .k      LDR      r0,[r0,#0x38]
        0x00000830:    230f        .#      MOVS     r3,#0xf
        0x00000832:    4318        .C      ORRS     r0,r0,r3
        0x00000834:    2305        .#      MOVS     r3,#5
        0x00000836:    071b        ..      LSLS     r3,r3,#28
        0x00000838:    6398        .c      STR      r0,[r3,#0x38]
        0x0000083a:    4618        .F      MOV      r0,r3
        0x0000083c:    6b00        .k      LDR      r0,[r0,#0x30]
        0x0000083e:    2301        .#      MOVS     r3,#1
        0x00000840:    03db        ..      LSLS     r3,r3,#15
        0x00000842:    4318        .C      ORRS     r0,r0,r3
        0x00000844:    2305        .#      MOVS     r3,#5
        0x00000846:    071b        ..      LSLS     r3,r3,#28
        0x00000848:    6318        .c      STR      r0,[r3,#0x30]
        0x0000084a:    48d8        .H      LDR      r0,[pc,#864] ; [0xbac] = 0x50000040
        0x0000084c:    6900        .i      LDR      r0,[r0,#0x10]
        0x0000084e:    231f        .#      MOVS     r3,#0x1f
        0x00000850:    015b        [.      LSLS     r3,r3,#5
        0x00000852:    4318        .C      ORRS     r0,r0,r3
        0x00000854:    4bd5        .K      LDR      r3,[pc,#852] ; [0xbac] = 0x50000040
        0x00000856:    6118        .a      STR      r0,[r3,#0x10]
        0x00000858:    e327        '.      B        0xeaa ; DrvGPIO_InitFunction + 1858
        0x0000085a:    2005        .       MOVS     r0,#5
        0x0000085c:    0700        ..      LSLS     r0,r0,#28
        0x0000085e:    6bc0        .k      LDR      r0,[r0,#0x3c]
        0x00000860:    23c0        .#      MOVS     r3,#0xc0
        0x00000862:    4318        .C      ORRS     r0,r0,r3
        0x00000864:    2305        .#      MOVS     r3,#5
        0x00000866:    071b        ..      LSLS     r3,r3,#28
        0x00000868:    63d8        .c      STR      r0,[r3,#0x3c]
        0x0000086a:    e31e        ..      B        0xeaa ; DrvGPIO_InitFunction + 1858
        0x0000086c:    bf00        ..      NOP      
        0x0000086e:    2906        .)      CMP      r1,#6
        0x00000870:    d101        ..      BNE      0x876 ; DrvGPIO_InitFunction + 270
        0x00000872:    2206        ."      MOVS     r2,#6
        0x00000874:    e000        ..      B        0x878 ; DrvGPIO_InitFunction + 272
        0x00000876:    220e        ."      MOVS     r2,#0xe
        0x00000878:    2005        .       MOVS     r0,#5
        0x0000087a:    0700        ..      LSLS     r0,r0,#28
        0x0000087c:    6b80        .k      LDR      r0,[r0,#0x38]
        0x0000087e:    2303        .#      MOVS     r3,#3
        0x00000880:    4093        .@      LSLS     r3,r3,r2
        0x00000882:    4318        .C      ORRS     r0,r0,r3
        0x00000884:    2305        .#      MOVS     r3,#5
        0x00000886:    071b        ..      LSLS     r3,r3,#28
        0x00000888:    6398        .c      STR      r0,[r3,#0x38]
        0x0000088a:    48c8        .H      LDR      r0,[pc,#800] ; [0xbac] = 0x50000040
        0x0000088c:    6900        .i      LDR      r0,[r0,#0x10]
        0x0000088e:    2301        .#      MOVS     r3,#1
        0x00000890:    02db        ..      LSLS     r3,r3,#11
        0x00000892:    4398        .C      BICS     r0,r0,r3
        0x00000894:    4bc5        .K      LDR      r3,[pc,#788] ; [0xbac] = 0x50000040
        0x00000896:    6118        .a      STR      r0,[r3,#0x10]
        0x00000898:    e307        ..      B        0xeaa ; DrvGPIO_InitFunction + 1858
        0x0000089a:    2005        .       MOVS     r0,#5
        0x0000089c:    0700        ..      LSLS     r0,r0,#28
        0x0000089e:    6b80        .k      LDR      r0,[r0,#0x38]
        0x000008a0:    230f        .#      MOVS     r3,#0xf
        0x000008a2:    4318        .C      ORRS     r0,r0,r3
        0x000008a4:    2305        .#      MOVS     r3,#5
        0x000008a6:    071b        ..      LSLS     r3,r3,#28
        0x000008a8:    6398        .c      STR      r0,[r3,#0x38]
        0x000008aa:    48c0        .H      LDR      r0,[pc,#768] ; [0xbac] = 0x50000040
        0x000008ac:    6900        .i      LDR      r0,[r0,#0x10]
        0x000008ae:    23ff        .#      MOVS     r3,#0xff
        0x000008b0:    33e1        .3      ADDS     r3,r3,#0xe1
        0x000008b2:    4398        .C      BICS     r0,r0,r3
        0x000008b4:    4bbd        .K      LDR      r3,[pc,#756] ; [0xbac] = 0x50000040
        0x000008b6:    6118        .a      STR      r0,[r3,#0x10]
        0x000008b8:    e2f7        ..      B        0xeaa ; DrvGPIO_InitFunction + 1858
        0x000008ba:    2005        .       MOVS     r0,#5
        0x000008bc:    0700        ..      LSLS     r0,r0,#28
        0x000008be:    6b40        @k      LDR      r0,[r0,#0x34]
        0x000008c0:    2301        .#      MOVS     r3,#1
        0x000008c2:    029b        ..      LSLS     r3,r3,#10
        0x000008c4:    4318        .C      ORRS     r0,r0,r3
        0x000008c6:    2305        .#      MOVS     r3,#5
        0x000008c8:    071b        ..      LSLS     r3,r3,#28
        0x000008ca:    6358        Xc      STR      r0,[r3,#0x34]
        0x000008cc:    48b7        .H      LDR      r0,[pc,#732] ; [0xbac] = 0x50000040
        0x000008ce:    6900        .i      LDR      r0,[r0,#0x10]
        0x000008d0:    2301        .#      MOVS     r3,#1
        0x000008d2:    4318        .C      ORRS     r0,r0,r3
        0x000008d4:    4bb5        .K      LDR      r3,[pc,#724] ; [0xbac] = 0x50000040
        0x000008d6:    6118        .a      STR      r0,[r3,#0x10]
        0x000008d8:    e2e7        ..      B        0xeaa ; DrvGPIO_InitFunction + 1858
        0x000008da:    2005        .       MOVS     r0,#5
        0x000008dc:    0700        ..      LSLS     r0,r0,#28
        0x000008de:    6b80        .k      LDR      r0,[r0,#0x38]
        0x000008e0:    2330        0#      MOVS     r3,#0x30
        0x000008e2:    4318        .C      ORRS     r0,r0,r3
        0x000008e4:    2305        .#      MOVS     r3,#5
        0x000008e6:    071b        ..      LSLS     r3,r3,#28
        0x000008e8:    6398        .c      STR      r0,[r3,#0x38]
        0x000008ea:    e2de        ..      B        0xeaa ; DrvGPIO_InitFunction + 1858
        0x000008ec:    e2db        ..      B        0xea6 ; DrvGPIO_InitFunction + 1854
        0x000008ee:    e264        d.      B        0xdba ; DrvGPIO_InitFunction + 1618
        0x000008f0:    e282        ..      B        0xdf8 ; DrvGPIO_InitFunction + 1680
        0x000008f2:    e248        H.      B        0xd86 ; DrvGPIO_InitFunction + 1566
        0x000008f4:    e246        F.      B        0xd84 ; DrvGPIO_InitFunction + 1564
        0x000008f6:    e213        ..      B        0xd20 ; DrvGPIO_InitFunction + 1464
        0x000008f8:    e211        ..      B        0xd1e ; DrvGPIO_InitFunction + 1462
        0x000008fa:    e1d9        ..      B        0xcb0 ; DrvGPIO_InitFunction + 1352
        0x000008fc:    e1d7        ..      B        0xcae ; DrvGPIO_InitFunction + 1350
        0x000008fe:    e1b7        ..      B        0xc70 ; DrvGPIO_InitFunction + 1288
        0x00000900:    e1b5        ..      B        0xc6e ; DrvGPIO_InitFunction + 1286
        0x00000902:    e241        A.      B        0xd88 ; DrvGPIO_InitFunction + 1568
        0x00000904:    e20d        ..      B        0xd22 ; DrvGPIO_InitFunction + 1466
        0x00000906:    e1d4        ..      B        0xcb2 ; DrvGPIO_InitFunction + 1354
        0x00000908:    e1b3        ..      B        0xc72 ; DrvGPIO_InitFunction + 1290
        0x0000090a:    e1a6        ..      B        0xc5a ; DrvGPIO_InitFunction + 1266
        0x0000090c:    e165        e.      B        0xbda ; DrvGPIO_InitFunction + 1138
        0x0000090e:    e163        c.      B        0xbd8 ; DrvGPIO_InitFunction + 1136
        0x00000910:    e161        a.      B        0xbd6 ; DrvGPIO_InitFunction + 1134
        0x00000912:    e15f        _.      B        0xbd4 ; DrvGPIO_InitFunction + 1132
        0x00000914:    e15d        ].      B        0xbd2 ; DrvGPIO_InitFunction + 1130
        0x00000916:    e15b        [.      B        0xbd0 ; DrvGPIO_InitFunction + 1128
        0x00000918:    e14a        J.      B        0xbb0 ; DrvGPIO_InitFunction + 1096
        0x0000091a:    e137        7.      B        0xb8c ; DrvGPIO_InitFunction + 1060
        0x0000091c:    e129        ).      B        0xb72 ; DrvGPIO_InitFunction + 1034
        0x0000091e:    e117        ..      B        0xb50 ; DrvGPIO_InitFunction + 1000
        0x00000920:    e106        ..      B        0xb30 ; DrvGPIO_InitFunction + 968
        0x00000922:    e0f5        ..      B        0xb10 ; DrvGPIO_InitFunction + 936
        0x00000924:    e0e4        ..      B        0xaf0 ; DrvGPIO_InitFunction + 904
        0x00000926:    e0d9        ..      B        0xadc ; DrvGPIO_InitFunction + 884
        0x00000928:    e0cc        ..      B        0xac4 ; DrvGPIO_InitFunction + 860
        0x0000092a:    e0c4        ..      B        0xab6 ; DrvGPIO_InitFunction + 846
        0x0000092c:    e0a3        ..      B        0xa76 ; DrvGPIO_InitFunction + 782
        0x0000092e:    e0ae        ..      B        0xa8e ; DrvGPIO_InitFunction + 806
        0x00000930:    e0ac        ..      B        0xa8c ; DrvGPIO_InitFunction + 804
        0x00000932:    e0aa        ..      B        0xa8a ; DrvGPIO_InitFunction + 802
        0x00000934:    e0a8        ..      B        0xa88 ; DrvGPIO_InitFunction + 800
        0x00000936:    e0a6        ..      B        0xa86 ; DrvGPIO_InitFunction + 798
        0x00000938:    e0a4        ..      B        0xa84 ; DrvGPIO_InitFunction + 796
        0x0000093a:    e0b0        ..      B        0xa9e ; DrvGPIO_InitFunction + 822
        0x0000093c:    e092        ..      B        0xa64 ; DrvGPIO_InitFunction + 764
        0x0000093e:    e088        ..      B        0xa52 ; DrvGPIO_InitFunction + 746
        0x00000940:    e07e        ~.      B        0xa40 ; DrvGPIO_InitFunction + 728
        0x00000942:    e073        s.      B        0xa2c ; DrvGPIO_InitFunction + 708
        0x00000944:    e062        b.      B        0xa0c ; DrvGPIO_InitFunction + 676
        0x00000946:    e057        W.      B        0x9f8 ; DrvGPIO_InitFunction + 656
        0x00000948:    e04d        M.      B        0x9e6 ; DrvGPIO_InitFunction + 638
        0x0000094a:    e037        7.      B        0x9bc ; DrvGPIO_InitFunction + 596
        0x0000094c:    e02d        -.      B        0x9aa ; DrvGPIO_InitFunction + 578
        0x0000094e:    e022        ".      B        0x996 ; DrvGPIO_InitFunction + 558
        0x00000950:    e011        ..      B        0x976 ; DrvGPIO_InitFunction + 526
        0x00000952:    e7ff        ..      B        0x954 ; DrvGPIO_InitFunction + 492
        0x00000954:    2005        .       MOVS     r0,#5
        0x00000956:    0700        ..      LSLS     r0,r0,#28
        0x00000958:    6b80        .k      LDR      r0,[r0,#0x38]
        0x0000095a:    230f        .#      MOVS     r3,#0xf
        0x0000095c:    021b        ..      LSLS     r3,r3,#8
        0x0000095e:    4318        .C      ORRS     r0,r0,r3
        0x00000960:    2305        .#      MOVS     r3,#5
        0x00000962:    071b        ..      LSLS     r3,r3,#28
        0x00000964:    6398        .c      STR      r0,[r3,#0x38]
        0x00000966:    4891        .H      LDR      r0,[pc,#580] ; [0xbac] = 0x50000040
        0x00000968:    6900        .i      LDR      r0,[r0,#0x10]
        0x0000096a:    2301        .#      MOVS     r3,#1
        0x0000096c:    02db        ..      LSLS     r3,r3,#11
        0x0000096e:    4398        .C      BICS     r0,r0,r3
        0x00000970:    4b8e        .K      LDR      r3,[pc,#568] ; [0xbac] = 0x50000040
        0x00000972:    6118        .a      STR      r0,[r3,#0x10]
        0x00000974:    e299        ..      B        0xeaa ; DrvGPIO_InitFunction + 1858
        0x00000976:    2005        .       MOVS     r0,#5
        0x00000978:    0700        ..      LSLS     r0,r0,#28
        0x0000097a:    6b40        @k      LDR      r0,[r0,#0x34]
        0x0000097c:    2301        .#      MOVS     r3,#1
        0x0000097e:    025b        [.      LSLS     r3,r3,#9
        0x00000980:    4318        .C      ORRS     r0,r0,r3
        0x00000982:    2305        .#      MOVS     r3,#5
        0x00000984:    071b        ..      LSLS     r3,r3,#28
        0x00000986:    6358        Xc      STR      r0,[r3,#0x34]
        0x00000988:    4888        .H      LDR      r0,[pc,#544] ; [0xbac] = 0x50000040
        0x0000098a:    6900        .i      LDR      r0,[r0,#0x10]
        0x0000098c:    2302        .#      MOVS     r3,#2
        0x0000098e:    4318        .C      ORRS     r0,r0,r3
        0x00000990:    4b86        .K      LDR      r3,[pc,#536] ; [0xbac] = 0x50000040
        0x00000992:    6118        .a      STR      r0,[r3,#0x10]
        0x00000994:    e289        ..      B        0xeaa ; DrvGPIO_InitFunction + 1858
        0x00000996:    2005        .       MOVS     r0,#5
        0x00000998:    0700        ..      LSLS     r0,r0,#28
        0x0000099a:    6b80        .k      LDR      r0,[r0,#0x38]
        0x0000099c:    2303        .#      MOVS     r3,#3
        0x0000099e:    031b        ..      LSLS     r3,r3,#12
        0x000009a0:    4318        .C      ORRS     r0,r0,r3
        0x000009a2:    2305        .#      MOVS     r3,#5
        0x000009a4:    071b        ..      LSLS     r3,r3,#28
        0x000009a6:    6398        .c      STR      r0,[r3,#0x38]
        0x000009a8:    e27f        ..      B        0xeaa ; DrvGPIO_InitFunction + 1858
        0x000009aa:    2005        .       MOVS     r0,#5
        0x000009ac:    0700        ..      LSLS     r0,r0,#28
        0x000009ae:    6bc0        .k      LDR      r0,[r0,#0x3c]
        0x000009b0:    230f        .#      MOVS     r3,#0xf
        0x000009b2:    4318        .C      ORRS     r0,r0,r3
        0x000009b4:    2305        .#      MOVS     r3,#5
        0x000009b6:    071b        ..      LSLS     r3,r3,#28
        0x000009b8:    63d8        .c      STR      r0,[r3,#0x3c]
        0x000009ba:    e276        v.      B        0xeaa ; DrvGPIO_InitFunction + 1858
        0x000009bc:    2005        .       MOVS     r0,#5
        0x000009be:    0700        ..      LSLS     r0,r0,#28
        0x000009c0:    6b00        .k      LDR      r0,[r0,#0x30]
        0x000009c2:    2380        .#      MOVS     r3,#0x80
        0x000009c4:    4318        .C      ORRS     r0,r0,r3
        0x000009c6:    2305        .#      MOVS     r3,#5
        0x000009c8:    071b        ..      LSLS     r3,r3,#28
        0x000009ca:    6318        .c      STR      r0,[r3,#0x30]
        0x000009cc:    4877        wH      LDR      r0,[pc,#476] ; [0xbac] = 0x50000040
        0x000009ce:    6900        .i      LDR      r0,[r0,#0x10]
        0x000009d0:    2304        .#      MOVS     r3,#4
        0x000009d2:    4318        .C      ORRS     r0,r0,r3
        0x000009d4:    4b75        uK      LDR      r3,[pc,#468] ; [0xbac] = 0x50000040
        0x000009d6:    6118        .a      STR      r0,[r3,#0x10]
        0x000009d8:    4618        .F      MOV      r0,r3
        0x000009da:    6900        .i      LDR      r0,[r0,#0x10]
        0x000009dc:    015b        [.      LSLS     r3,r3,#5
        0x000009de:    4398        .C      BICS     r0,r0,r3
        0x000009e0:    4b72        rK      LDR      r3,[pc,#456] ; [0xbac] = 0x50000040
        0x000009e2:    6118        .a      STR      r0,[r3,#0x10]
        0x000009e4:    e261        a.      B        0xeaa ; DrvGPIO_InitFunction + 1858
        0x000009e6:    2005        .       MOVS     r0,#5
        0x000009e8:    0700        ..      LSLS     r0,r0,#28
        0x000009ea:    6bc0        .k      LDR      r0,[r0,#0x3c]
        0x000009ec:    2330        0#      MOVS     r3,#0x30
        0x000009ee:    4318        .C      ORRS     r0,r0,r3
        0x000009f0:    2305        .#      MOVS     r3,#5
        0x000009f2:    071b        ..      LSLS     r3,r3,#28
        0x000009f4:    63d8        .c      STR      r0,[r3,#0x3c]
        0x000009f6:    e258        X.      B        0xeaa ; DrvGPIO_InitFunction + 1858
        0x000009f8:    2005        .       MOVS     r0,#5
        0x000009fa:    0700        ..      LSLS     r0,r0,#28
        0x000009fc:    6bc0        .k      LDR      r0,[r0,#0x3c]
        0x000009fe:    230f        .#      MOVS     r3,#0xf
        0x00000a00:    021b        ..      LSLS     r3,r3,#8
        0x00000a02:    4318        .C      ORRS     r0,r0,r3
        0x00000a04:    2305        .#      MOVS     r3,#5
        0x00000a06:    071b        ..      LSLS     r3,r3,#28
        0x00000a08:    63d8        .c      STR      r0,[r3,#0x3c]
        0x00000a0a:    e24e        N.      B        0xeaa ; DrvGPIO_InitFunction + 1858
        0x00000a0c:    2005        .       MOVS     r0,#5
        0x00000a0e:    0700        ..      LSLS     r0,r0,#28
        0x00000a10:    6b40        @k      LDR      r0,[r0,#0x34]
        0x00000a12:    2301        .#      MOVS     r3,#1
        0x00000a14:    039b        ..      LSLS     r3,r3,#14
        0x00000a16:    4318        .C      ORRS     r0,r0,r3
        0x00000a18:    2305        .#      MOVS     r3,#5
        0x00000a1a:    071b        ..      LSLS     r3,r3,#28
        0x00000a1c:    6358        Xc      STR      r0,[r3,#0x34]
        0x00000a1e:    4863        cH      LDR      r0,[pc,#396] ; [0xbac] = 0x50000040
        0x00000a20:    6900        .i      LDR      r0,[r0,#0x10]
        0x00000a22:    2308        .#      MOVS     r3,#8
        0x00000a24:    4318        .C      ORRS     r0,r0,r3
        0x00000a26:    4b61        aK      LDR      r3,[pc,#388] ; [0xbac] = 0x50000040
        0x00000a28:    6118        .a      STR      r0,[r3,#0x10]
        0x00000a2a:    e23e        >.      B        0xeaa ; DrvGPIO_InitFunction + 1858
        0x00000a2c:    2005        .       MOVS     r0,#5
        0x00000a2e:    0700        ..      LSLS     r0,r0,#28
        0x00000a30:    6bc0        .k      LDR      r0,[r0,#0x3c]
        0x00000a32:    2303        .#      MOVS     r3,#3
        0x00000a34:    031b        ..      LSLS     r3,r3,#12
        0x00000a36:    4318        .C      ORRS     r0,r0,r3
        0x00000a38:    2305        .#      MOVS     r3,#5
        0x00000a3a:    071b        ..      LSLS     r3,r3,#28
        0x00000a3c:    63d8        .c      STR      r0,[r3,#0x3c]
        0x00000a3e:    e234        4.      B        0xeaa ; DrvGPIO_InitFunction + 1858
        0x00000a40:    2005        .       MOVS     r0,#5
        0x00000a42:    0700        ..      LSLS     r0,r0,#28
        0x00000a44:    6b80        .k      LDR      r0,[r0,#0x38]
        0x00000a46:    230f        .#      MOVS     r3,#0xf
        0x00000a48:    4318        .C      ORRS     r0,r0,r3
        0x00000a4a:    2305        .#      MOVS     r3,#5
        0x00000a4c:    071b        ..      LSLS     r3,r3,#28
        0x00000a4e:    6398        .c      STR      r0,[r3,#0x38]
        0x00000a50:    e22b        +.      B        0xeaa ; DrvGPIO_InitFunction + 1858
        0x00000a52:    2005        .       MOVS     r0,#5
        0x00000a54:    0700        ..      LSLS     r0,r0,#28
        0x00000a56:    6bc0        .k      LDR      r0,[r0,#0x3c]
        0x00000a58:    2302        .#      MOVS     r3,#2
        0x00000a5a:    4318        .C      ORRS     r0,r0,r3
        0x00000a5c:    2305        .#      MOVS     r3,#5
        0x00000a5e:    071b        ..      LSLS     r3,r3,#28
        0x00000a60:    63d8        .c      STR      r0,[r3,#0x3c]
        0x00000a62:    e222        ".      B        0xeaa ; DrvGPIO_InitFunction + 1858
        0x00000a64:    2005        .       MOVS     r0,#5
        0x00000a66:    0700        ..      LSLS     r0,r0,#28
        0x00000a68:    6bc0        .k      LDR      r0,[r0,#0x3c]
        0x00000a6a:    2304        .#      MOVS     r3,#4
        0x00000a6c:    4318        .C      ORRS     r0,r0,r3
        0x00000a6e:    2305        .#      MOVS     r3,#5
        0x00000a70:    071b        ..      LSLS     r3,r3,#28
        0x00000a72:    63d8        .c      STR      r0,[r3,#0x3c]
        0x00000a74:    e219        ..      B        0xeaa ; DrvGPIO_InitFunction + 1858
        0x00000a76:    484d        MH      LDR      r0,[pc,#308] ; [0xbac] = 0x50000040
        0x00000a78:    6900        .i      LDR      r0,[r0,#0x10]
        0x00000a7a:    2304        .#      MOVS     r3,#4
        0x00000a7c:    4398        .C      BICS     r0,r0,r3
        0x00000a7e:    4b4b        KK      LDR      r3,[pc,#300] ; [0xbac] = 0x50000040
        0x00000a80:    6118        .a      STR      r0,[r3,#0x10]
        0x00000a82:    bf00        ..      NOP      
        0x00000a84:    bf00        ..      NOP      
        0x00000a86:    bf00        ..      NOP      
        0x00000a88:    bf00        ..      NOP      
        0x00000a8a:    bf00        ..      NOP      
        0x00000a8c:    bf00        ..      NOP      
        0x00000a8e:    4847        GH      LDR      r0,[pc,#284] ; [0xbac] = 0x50000040
        0x00000a90:    6900        .i      LDR      r0,[r0,#0x10]
        0x00000a92:    2301        .#      MOVS     r3,#1
        0x00000a94:    02db        ..      LSLS     r3,r3,#11
        0x00000a96:    4398        .C      BICS     r0,r0,r3
        0x00000a98:    4b44        DK      LDR      r3,[pc,#272] ; [0xbac] = 0x50000040
        0x00000a9a:    6118        .a      STR      r0,[r3,#0x10]
        0x00000a9c:    bf00        ..      NOP      
        0x00000a9e:    2005        .       MOVS     r0,#5
        0x00000aa0:    0700        ..      LSLS     r0,r0,#28
        0x00000aa2:    6b00        .k      LDR      r0,[r0,#0x30]
        0x00000aa4:    460b        .F      MOV      r3,r1
        0x00000aa6:    3b17        .;      SUBS     r3,r3,#0x17
        0x00000aa8:    2401        .$      MOVS     r4,#1
        0x00000aaa:    409c        .@      LSLS     r4,r4,r3
        0x00000aac:    4320         C      ORRS     r0,r0,r4
        0x00000aae:    2305        .#      MOVS     r3,#5
        0x00000ab0:    071b        ..      LSLS     r3,r3,#28
        0x00000ab2:    6318        .c      STR      r0,[r3,#0x30]
        0x00000ab4:    e1f9        ..      B        0xeaa ; DrvGPIO_InitFunction + 1858
        0x00000ab6:    483d        =H      LDR      r0,[pc,#244] ; [0xbac] = 0x50000040
        0x00000ab8:    6900        .i      LDR      r0,[r0,#0x10]
        0x00000aba:    2308        .#      MOVS     r3,#8
        0x00000abc:    4398        .C      BICS     r0,r0,r3
        0x00000abe:    4b3b        ;K      LDR      r3,[pc,#236] ; [0xbac] = 0x50000040
        0x00000ac0:    6118        .a      STR      r0,[r3,#0x10]
        0x00000ac2:    bf00        ..      NOP      
        0x00000ac4:    2005        .       MOVS     r0,#5
        0x00000ac6:    0700        ..      LSLS     r0,r0,#28
        0x00000ac8:    6b43        Ck      LDR      r3,[r0,#0x34]
        0x00000aca:    4608        .F      MOV      r0,r1
        0x00000acc:    3811        .8      SUBS     r0,r0,#0x11
        0x00000ace:    2401        .$      MOVS     r4,#1
        0x00000ad0:    4084        .@      LSLS     r4,r4,r0
        0x00000ad2:    4323        #C      ORRS     r3,r3,r4
        0x00000ad4:    2005        .       MOVS     r0,#5
        0x00000ad6:    0700        ..      LSLS     r0,r0,#28
        0x00000ad8:    6343        Cc      STR      r3,[r0,#0x34]
        0x00000ada:    e1e6        ..      B        0xeaa ; DrvGPIO_InitFunction + 1858
        0x00000adc:    2005        .       MOVS     r0,#5
        0x00000ade:    0700        ..      LSLS     r0,r0,#28
        0x00000ae0:    6b40        @k      LDR      r0,[r0,#0x34]
        0x00000ae2:    23ff        .#      MOVS     r3,#0xff
        0x00000ae4:    3301        .3      ADDS     r3,#1
        0x00000ae6:    4318        .C      ORRS     r0,r0,r3
        0x00000ae8:    2305        .#      MOVS     r3,#5
        0x00000aea:    071b        ..      LSLS     r3,r3,#28
        0x00000aec:    6358        Xc      STR      r0,[r3,#0x34]
        0x00000aee:    e1dc        ..      B        0xeaa ; DrvGPIO_InitFunction + 1858
        0x00000af0:    2005        .       MOVS     r0,#5
        0x00000af2:    0700        ..      LSLS     r0,r0,#28
        0x00000af4:    6b40        @k      LDR      r0,[r0,#0x34]
        0x00000af6:    2301        .#      MOVS     r3,#1
        0x00000af8:    025b        [.      LSLS     r3,r3,#9
        0x00000afa:    4318        .C      ORRS     r0,r0,r3
        0x00000afc:    2305        .#      MOVS     r3,#5
        0x00000afe:    071b        ..      LSLS     r3,r3,#28
        0x00000b00:    6358        Xc      STR      r0,[r3,#0x34]
        0x00000b02:    482a        *H      LDR      r0,[pc,#168] ; [0xbac] = 0x50000040
        0x00000b04:    6900        .i      LDR      r0,[r0,#0x10]
        0x00000b06:    2302        .#      MOVS     r3,#2
        0x00000b08:    4398        .C      BICS     r0,r0,r3
        0x00000b0a:    4b28        (K      LDR      r3,[pc,#160] ; [0xbac] = 0x50000040
        0x00000b0c:    6118        .a      STR      r0,[r3,#0x10]
        0x00000b0e:    e1cc        ..      B        0xeaa ; DrvGPIO_InitFunction + 1858
        0x00000b10:    2005        .       MOVS     r0,#5
        0x00000b12:    0700        ..      LSLS     r0,r0,#28
        0x00000b14:    6b40        @k      LDR      r0,[r0,#0x34]
        0x00000b16:    2301        .#      MOVS     r3,#1
        0x00000b18:    029b        ..      LSLS     r3,r3,#10
        0x00000b1a:    4318        .C      ORRS     r0,r0,r3
        0x00000b1c:    2305        .#      MOVS     r3,#5
        0x00000b1e:    071b        ..      LSLS     r3,r3,#28
        0x00000b20:    6358        Xc      STR      r0,[r3,#0x34]
        0x00000b22:    4822        "H      LDR      r0,[pc,#136] ; [0xbac] = 0x50000040
        0x00000b24:    6900        .i      LDR      r0,[r0,#0x10]
        0x00000b26:    0840        @.      LSRS     r0,r0,#1
        0x00000b28:    0040        @.      LSLS     r0,r0,#1
        0x00000b2a:    4b20         K      LDR      r3,[pc,#128] ; [0xbac] = 0x50000040
        0x00000b2c:    6118        .a      STR      r0,[r3,#0x10]
        0x00000b2e:    e1bc        ..      B        0xeaa ; DrvGPIO_InitFunction + 1858
        0x00000b30:    2005        .       MOVS     r0,#5
        0x00000b32:    0700        ..      LSLS     r0,r0,#28
        0x00000b34:    6b40        @k      LDR      r0,[r0,#0x34]
        0x00000b36:    2301        .#      MOVS     r3,#1
        0x00000b38:    02db        ..      LSLS     r3,r3,#11
        0x00000b3a:    4318        .C      ORRS     r0,r0,r3
        0x00000b3c:    2305        .#      MOVS     r3,#5
        0x00000b3e:    071b        ..      LSLS     r3,r3,#28
        0x00000b40:    6358        Xc      STR      r0,[r3,#0x34]
        0x00000b42:    481a        .H      LDR      r0,[pc,#104] ; [0xbac] = 0x50000040
        0x00000b44:    6900        .i      LDR      r0,[r0,#0x10]
        0x00000b46:    2310        .#      MOVS     r3,#0x10
        0x00000b48:    4398        .C      BICS     r0,r0,r3
        0x00000b4a:    4b18        .K      LDR      r3,[pc,#96] ; [0xbac] = 0x50000040
        0x00000b4c:    6118        .a      STR      r0,[r3,#0x10]
        0x00000b4e:    e1ac        ..      B        0xeaa ; DrvGPIO_InitFunction + 1858
        0x00000b50:    2005        .       MOVS     r0,#5
        0x00000b52:    0700        ..      LSLS     r0,r0,#28
        0x00000b54:    6b40        @k      LDR      r0,[r0,#0x34]
        0x00000b56:    2301        .#      MOVS     r3,#1
        0x00000b58:    03db        ..      LSLS     r3,r3,#15
        0x00000b5a:    4318        .C      ORRS     r0,r0,r3
        0x00000b5c:    2305        .#      MOVS     r3,#5
        0x00000b5e:    071b        ..      LSLS     r3,r3,#28
        0x00000b60:    6358        Xc      STR      r0,[r3,#0x34]
        0x00000b62:    4812        .H      LDR      r0,[pc,#72] ; [0xbac] = 0x50000040
        0x00000b64:    6900        .i      LDR      r0,[r0,#0x10]
        0x00000b66:    2301        .#      MOVS     r3,#1
        0x00000b68:    061b        ..      LSLS     r3,r3,#24
        0x00000b6a:    4318        .C      ORRS     r0,r0,r3
        0x00000b6c:    4b0f        .K      LDR      r3,[pc,#60] ; [0xbac] = 0x50000040
        0x00000b6e:    6118        .a      STR      r0,[r3,#0x10]
        0x00000b70:    e19b        ..      B        0xeaa ; DrvGPIO_InitFunction + 1858
        0x00000b72:    480e        .H      LDR      r0,[pc,#56] ; [0xbac] = 0x50000040
        0x00000b74:    6800        .h      LDR      r0,[r0,#0]
        0x00000b76:    2320         #      MOVS     r3,#0x20
        0x00000b78:    4318        .C      ORRS     r0,r0,r3
        0x00000b7a:    4b0c        .K      LDR      r3,[pc,#48] ; [0xbac] = 0x50000040
        0x00000b7c:    6018        .`      STR      r0,[r3,#0]
        0x00000b7e:    4618        .F      MOV      r0,r3
        0x00000b80:    6900        .i      LDR      r0,[r0,#0x10]
        0x00000b82:    04db        ..      LSLS     r3,r3,#19
        0x00000b84:    4318        .C      ORRS     r0,r0,r3
        0x00000b86:    4b09        .K      LDR      r3,[pc,#36] ; [0xbac] = 0x50000040
        0x00000b88:    6118        .a      STR      r0,[r3,#0x10]
        0x00000b8a:    e18e        ..      B        0xeaa ; DrvGPIO_InitFunction + 1858
        0x00000b8c:    2005        .       MOVS     r0,#5
        0x00000b8e:    0700        ..      LSLS     r0,r0,#28
        0x00000b90:    6b40        @k      LDR      r0,[r0,#0x34]
        0x00000b92:    2304        .#      MOVS     r3,#4
        0x00000b94:    4318        .C      ORRS     r0,r0,r3
        0x00000b96:    2305        .#      MOVS     r3,#5
        0x00000b98:    071b        ..      LSLS     r3,r3,#28
        0x00000b9a:    6358        Xc      STR      r0,[r3,#0x34]
        0x00000b9c:    4803        .H      LDR      r0,[pc,#12] ; [0xbac] = 0x50000040
        0x00000b9e:    6900        .i      LDR      r0,[r0,#0x10]
        0x00000ba0:    2301        .#      MOVS     r3,#1
        0x00000ba2:    069b        ..      LSLS     r3,r3,#26
        0x00000ba4:    4318        .C      ORRS     r0,r0,r3
        0x00000ba6:    4b01        .K      LDR      r3,[pc,#4] ; [0xbac] = 0x50000040
        0x00000ba8:    6118        .a      STR      r0,[r3,#0x10]
        0x00000baa:    e17e        ~.      B        0xeaa ; DrvGPIO_InitFunction + 1858
    $d
        0x00000bac:    50000040    @..P    DCD    1342177344
    $t
        0x00000bb0:    2005        .       MOVS     r0,#5
        0x00000bb2:    0700        ..      LSLS     r0,r0,#28
        0x00000bb4:    6b40        @k      LDR      r0,[r0,#0x34]
        0x00000bb6:    2308        .#      MOVS     r3,#8
        0x00000bb8:    4318        .C      ORRS     r0,r0,r3
        0x00000bba:    2305        .#      MOVS     r3,#5
        0x00000bbc:    071b        ..      LSLS     r3,r3,#28
        0x00000bbe:    6358        Xc      STR      r0,[r3,#0x34]
        0x00000bc0:    48bb        .H      LDR      r0,[pc,#748] ; [0xeb0] = 0x50000040
        0x00000bc2:    6900        .i      LDR      r0,[r0,#0x10]
        0x00000bc4:    2301        .#      MOVS     r3,#1
        0x00000bc6:    06db        ..      LSLS     r3,r3,#27
        0x00000bc8:    4318        .C      ORRS     r0,r0,r3
        0x00000bca:    4bb9        .K      LDR      r3,[pc,#740] ; [0xeb0] = 0x50000040
        0x00000bcc:    6118        .a      STR      r0,[r3,#0x10]
        0x00000bce:    e16c        l.      B        0xeaa ; DrvGPIO_InitFunction + 1858
        0x00000bd0:    bf00        ..      NOP      
        0x00000bd2:    bf00        ..      NOP      
        0x00000bd4:    bf00        ..      NOP      
        0x00000bd6:    bf00        ..      NOP      
        0x00000bd8:    bf00        ..      NOP      
        0x00000bda:    2929        ))      CMP      r1,#0x29
        0x00000bdc:    db03        ..      BLT      0xbe6 ; DrvGPIO_InitFunction + 1150
        0x00000bde:    292b        +)      CMP      r1,#0x2b
        0x00000be0:    dc01        ..      BGT      0xbe6 ; DrvGPIO_InitFunction + 1150
        0x00000be2:    2200        ."      MOVS     r2,#0
        0x00000be4:    e000        ..      B        0xbe8 ; DrvGPIO_InitFunction + 1152
        0x00000be6:    2204        ."      MOVS     r2,#4
        0x00000be8:    2929        ))      CMP      r1,#0x29
        0x00000bea:    d001        ..      BEQ      0xbf0 ; DrvGPIO_InitFunction + 1160
        0x00000bec:    292c        ,)      CMP      r1,#0x2c
        0x00000bee:    d110        ..      BNE      0xc12 ; DrvGPIO_InitFunction + 1194
        0x00000bf0:    2005        .       MOVS     r0,#5
        0x00000bf2:    0700        ..      LSLS     r0,r0,#28
        0x00000bf4:    6b40        @k      LDR      r0,[r0,#0x34]
        0x00000bf6:    230f        .#      MOVS     r3,#0xf
        0x00000bf8:    4093        .@      LSLS     r3,r3,r2
        0x00000bfa:    4318        .C      ORRS     r0,r0,r3
        0x00000bfc:    2305        .#      MOVS     r3,#5
        0x00000bfe:    071b        ..      LSLS     r3,r3,#28
        0x00000c00:    6358        Xc      STR      r0,[r3,#0x34]
        0x00000c02:    48ab        .H      LDR      r0,[pc,#684] ; [0xeb0] = 0x50000040
        0x00000c04:    6900        .i      LDR      r0,[r0,#0x10]
        0x00000c06:    2301        .#      MOVS     r3,#1
        0x00000c08:    02db        ..      LSLS     r3,r3,#11
        0x00000c0a:    4398        .C      BICS     r0,r0,r3
        0x00000c0c:    4ba8        .K      LDR      r3,[pc,#672] ; [0xeb0] = 0x50000040
        0x00000c0e:    6118        .a      STR      r0,[r3,#0x10]
        0x00000c10:    e022        ".      B        0xc58 ; DrvGPIO_InitFunction + 1264
        0x00000c12:    292a        *)      CMP      r1,#0x2a
        0x00000c14:    d001        ..      BEQ      0xc1a ; DrvGPIO_InitFunction + 1202
        0x00000c16:    292d        -)      CMP      r1,#0x2d
        0x00000c18:    d109        ..      BNE      0xc2e ; DrvGPIO_InitFunction + 1222
        0x00000c1a:    2005        .       MOVS     r0,#5
        0x00000c1c:    0700        ..      LSLS     r0,r0,#28
        0x00000c1e:    6b40        @k      LDR      r0,[r0,#0x34]
        0x00000c20:    2303        .#      MOVS     r3,#3
        0x00000c22:    4093        .@      LSLS     r3,r3,r2
        0x00000c24:    4318        .C      ORRS     r0,r0,r3
        0x00000c26:    2305        .#      MOVS     r3,#5
        0x00000c28:    071b        ..      LSLS     r3,r3,#28
        0x00000c2a:    6358        Xc      STR      r0,[r3,#0x34]
        0x00000c2c:    e014        ..      B        0xc58 ; DrvGPIO_InitFunction + 1264
        0x00000c2e:    292b        +)      CMP      r1,#0x2b
        0x00000c30:    d001        ..      BEQ      0xc36 ; DrvGPIO_InitFunction + 1230
        0x00000c32:    292e        .)      CMP      r1,#0x2e
        0x00000c34:    d110        ..      BNE      0xc58 ; DrvGPIO_InitFunction + 1264
        0x00000c36:    2005        .       MOVS     r0,#5
        0x00000c38:    0700        ..      LSLS     r0,r0,#28
        0x00000c3a:    6b40        @k      LDR      r0,[r0,#0x34]
        0x00000c3c:    1c93        ..      ADDS     r3,r2,#2
        0x00000c3e:    2403        .$      MOVS     r4,#3
        0x00000c40:    409c        .@      LSLS     r4,r4,r3
        0x00000c42:    4320         C      ORRS     r0,r0,r4
        0x00000c44:    2305        .#      MOVS     r3,#5
        0x00000c46:    071b        ..      LSLS     r3,r3,#28
        0x00000c48:    6358        Xc      STR      r0,[r3,#0x34]
        0x00000c4a:    4899        .H      LDR      r0,[pc,#612] ; [0xeb0] = 0x50000040
        0x00000c4c:    6900        .i      LDR      r0,[r0,#0x10]
        0x00000c4e:    2301        .#      MOVS     r3,#1
        0x00000c50:    02db        ..      LSLS     r3,r3,#11
        0x00000c52:    4398        .C      BICS     r0,r0,r3
        0x00000c54:    4b96        .K      LDR      r3,[pc,#600] ; [0xeb0] = 0x50000040
        0x00000c56:    6118        .a      STR      r0,[r3,#0x10]
        0x00000c58:    e127        '.      B        0xeaa ; DrvGPIO_InitFunction + 1858
        0x00000c5a:    2005        .       MOVS     r0,#5
        0x00000c5c:    0700        ..      LSLS     r0,r0,#28
        0x00000c5e:    6bc0        .k      LDR      r0,[r0,#0x3c]
        0x00000c60:    2303        .#      MOVS     r3,#3
        0x00000c62:    039b        ..      LSLS     r3,r3,#14
        0x00000c64:    4318        .C      ORRS     r0,r0,r3
        0x00000c66:    2305        .#      MOVS     r3,#5
        0x00000c68:    071b        ..      LSLS     r3,r3,#28
        0x00000c6a:    63d8        .c      STR      r0,[r3,#0x3c]
        0x00000c6c:    e11d        ..      B        0xeaa ; DrvGPIO_InitFunction + 1858
        0x00000c6e:    bf00        ..      NOP      
        0x00000c70:    bf00        ..      NOP      
        0x00000c72:    2930        0)      CMP      r1,#0x30
        0x00000c74:    d108        ..      BNE      0xc88 ; DrvGPIO_InitFunction + 1312
        0x00000c76:    2005        .       MOVS     r0,#5
        0x00000c78:    0700        ..      LSLS     r0,r0,#28
        0x00000c7a:    6b00        .k      LDR      r0,[r0,#0x30]
        0x00000c7c:    020b        ..      LSLS     r3,r1,#8
        0x00000c7e:    4318        .C      ORRS     r0,r0,r3
        0x00000c80:    2305        .#      MOVS     r3,#5
        0x00000c82:    071b        ..      LSLS     r3,r3,#28
        0x00000c84:    6318        .c      STR      r0,[r3,#0x30]
        0x00000c86:    e00a        ..      B        0xc9e ; DrvGPIO_InitFunction + 1334
        0x00000c88:    2005        .       MOVS     r0,#5
        0x00000c8a:    0700        ..      LSLS     r0,r0,#28
        0x00000c8c:    6b03        .k      LDR      r3,[r0,#0x30]
        0x00000c8e:    4608        .F      MOV      r0,r1
        0x00000c90:    3828        (8      SUBS     r0,r0,#0x28
        0x00000c92:    2401        .$      MOVS     r4,#1
        0x00000c94:    4084        .@      LSLS     r4,r4,r0
        0x00000c96:    4323        #C      ORRS     r3,r3,r4
        0x00000c98:    2005        .       MOVS     r0,#5
        0x00000c9a:    0700        ..      LSLS     r0,r0,#28
        0x00000c9c:    6303        .c      STR      r3,[r0,#0x30]
        0x00000c9e:    4884        .H      LDR      r0,[pc,#528] ; [0xeb0] = 0x50000040
        0x00000ca0:    6900        .i      LDR      r0,[r0,#0x10]
        0x00000ca2:    2301        .#      MOVS     r3,#1
        0x00000ca4:    02db        ..      LSLS     r3,r3,#11
        0x00000ca6:    4398        .C      BICS     r0,r0,r3
        0x00000ca8:    4b81        .K      LDR      r3,[pc,#516] ; [0xeb0] = 0x50000040
        0x00000caa:    6118        .a      STR      r0,[r3,#0x10]
        0x00000cac:    e0fd        ..      B        0xeaa ; DrvGPIO_InitFunction + 1858
        0x00000cae:    bf00        ..      NOP      
        0x00000cb0:    bf00        ..      NOP      
        0x00000cb2:    2931        1)      CMP      r1,#0x31
        0x00000cb4:    d116        ..      BNE      0xce4 ; DrvGPIO_InitFunction + 1404
        0x00000cb6:    2005        .       MOVS     r0,#5
        0x00000cb8:    0700        ..      LSLS     r0,r0,#28
        0x00000cba:    6b00        .k      LDR      r0,[r0,#0x30]
        0x00000cbc:    2303        .#      MOVS     r3,#3
        0x00000cbe:    039b        ..      LSLS     r3,r3,#14
        0x00000cc0:    4318        .C      ORRS     r0,r0,r3
        0x00000cc2:    2305        .#      MOVS     r3,#5
        0x00000cc4:    071b        ..      LSLS     r3,r3,#28
        0x00000cc6:    6318        .c      STR      r0,[r3,#0x30]
        0x00000cc8:    4879        yH      LDR      r0,[pc,#484] ; [0xeb0] = 0x50000040
        0x00000cca:    6900        .i      LDR      r0,[r0,#0x10]
        0x00000ccc:    2301        .#      MOVS     r3,#1
        0x00000cce:    025b        [.      LSLS     r3,r3,#9
        0x00000cd0:    4398        .C      BICS     r0,r0,r3
        0x00000cd2:    4b77        wK      LDR      r3,[pc,#476] ; [0xeb0] = 0x50000040
        0x00000cd4:    6118        .a      STR      r0,[r3,#0x10]
        0x00000cd6:    4618        .F      MOV      r0,r3
        0x00000cd8:    6900        .i      LDR      r0,[r0,#0x10]
        0x00000cda:    015b        [.      LSLS     r3,r3,#5
        0x00000cdc:    4398        .C      BICS     r0,r0,r3
        0x00000cde:    4b74        tK      LDR      r3,[pc,#464] ; [0xeb0] = 0x50000040
        0x00000ce0:    6118        .a      STR      r0,[r3,#0x10]
        0x00000ce2:    e01b        ..      B        0xd1c ; DrvGPIO_InitFunction + 1460
        0x00000ce4:    2005        .       MOVS     r0,#5
        0x00000ce6:    0700        ..      LSLS     r0,r0,#28
        0x00000ce8:    6b03        .k      LDR      r3,[r0,#0x30]
        0x00000cea:    4608        .F      MOV      r0,r1
        0x00000cec:    3828        (8      SUBS     r0,r0,#0x28
        0x00000cee:    2401        .$      MOVS     r4,#1
        0x00000cf0:    4084        .@      LSLS     r4,r4,r0
        0x00000cf2:    4323        #C      ORRS     r3,r3,r4
        0x00000cf4:    2005        .       MOVS     r0,#5
        0x00000cf6:    0700        ..      LSLS     r0,r0,#28
        0x00000cf8:    6303        .c      STR      r3,[r0,#0x30]
        0x00000cfa:    2936        6)      CMP      r1,#0x36
        0x00000cfc:    d107        ..      BNE      0xd0e ; DrvGPIO_InitFunction + 1446
        0x00000cfe:    486c        lH      LDR      r0,[pc,#432] ; [0xeb0] = 0x50000040
        0x00000d00:    6900        .i      LDR      r0,[r0,#0x10]
        0x00000d02:    2301        .#      MOVS     r3,#1
        0x00000d04:    02db        ..      LSLS     r3,r3,#11
        0x00000d06:    4398        .C      BICS     r0,r0,r3
        0x00000d08:    4b69        iK      LDR      r3,[pc,#420] ; [0xeb0] = 0x50000040
        0x00000d0a:    6118        .a      STR      r0,[r3,#0x10]
        0x00000d0c:    e006        ..      B        0xd1c ; DrvGPIO_InitFunction + 1460
        0x00000d0e:    4868        hH      LDR      r0,[pc,#416] ; [0xeb0] = 0x50000040
        0x00000d10:    6900        .i      LDR      r0,[r0,#0x10]
        0x00000d12:    2301        .#      MOVS     r3,#1
        0x00000d14:    025b        [.      LSLS     r3,r3,#9
        0x00000d16:    4398        .C      BICS     r0,r0,r3
        0x00000d18:    4b65        eK      LDR      r3,[pc,#404] ; [0xeb0] = 0x50000040
        0x00000d1a:    6118        .a      STR      r0,[r3,#0x10]
        0x00000d1c:    e0c5        ..      B        0xeaa ; DrvGPIO_InitFunction + 1858
        0x00000d1e:    bf00        ..      NOP      
        0x00000d20:    bf00        ..      NOP      
        0x00000d22:    2932        2)      CMP      r1,#0x32
        0x00000d24:    d115        ..      BNE      0xd52 ; DrvGPIO_InitFunction + 1514
        0x00000d26:    2005        .       MOVS     r0,#5
        0x00000d28:    0700        ..      LSLS     r0,r0,#28
        0x00000d2a:    6b40        @k      LDR      r0,[r0,#0x34]
        0x00000d2c:    2301        .#      MOVS     r3,#1
        0x00000d2e:    02db        ..      LSLS     r3,r3,#11
        0x00000d30:    4318        .C      ORRS     r0,r0,r3
        0x00000d32:    2305        .#      MOVS     r3,#5
        0x00000d34:    071b        ..      LSLS     r3,r3,#28
        0x00000d36:    6358        Xc      STR      r0,[r3,#0x34]
        0x00000d38:    485d        ]H      LDR      r0,[pc,#372] ; [0xeb0] = 0x50000040
        0x00000d3a:    6900        .i      LDR      r0,[r0,#0x10]
        0x00000d3c:    2310        .#      MOVS     r3,#0x10
        0x00000d3e:    4318        .C      ORRS     r0,r0,r3
        0x00000d40:    4b5b        [K      LDR      r3,[pc,#364] ; [0xeb0] = 0x50000040
        0x00000d42:    6118        .a      STR      r0,[r3,#0x10]
        0x00000d44:    4618        .F      MOV      r0,r3
        0x00000d46:    6800        .h      LDR      r0,[r0,#0]
        0x00000d48:    2320         #      MOVS     r3,#0x20
        0x00000d4a:    4318        .C      ORRS     r0,r0,r3
        0x00000d4c:    4b58        XK      LDR      r3,[pc,#352] ; [0xeb0] = 0x50000040
        0x00000d4e:    6018        .`      STR      r0,[r3,#0]
        0x00000d50:    e017        ..      B        0xd82 ; DrvGPIO_InitFunction + 1562
        0x00000d52:    2938        8)      CMP      r1,#0x38
        0x00000d54:    d10f        ..      BNE      0xd76 ; DrvGPIO_InitFunction + 1550
        0x00000d56:    2005        .       MOVS     r0,#5
        0x00000d58:    0700        ..      LSLS     r0,r0,#28
        0x00000d5a:    6b40        @k      LDR      r0,[r0,#0x34]
        0x00000d5c:    2301        .#      MOVS     r3,#1
        0x00000d5e:    02db        ..      LSLS     r3,r3,#11
        0x00000d60:    4318        .C      ORRS     r0,r0,r3
        0x00000d62:    2305        .#      MOVS     r3,#5
        0x00000d64:    071b        ..      LSLS     r3,r3,#28
        0x00000d66:    6358        Xc      STR      r0,[r3,#0x34]
        0x00000d68:    4851        QH      LDR      r0,[pc,#324] ; [0xeb0] = 0x50000040
        0x00000d6a:    6900        .i      LDR      r0,[r0,#0x10]
        0x00000d6c:    2310        .#      MOVS     r3,#0x10
        0x00000d6e:    4318        .C      ORRS     r0,r0,r3
        0x00000d70:    4b4f        OK      LDR      r3,[pc,#316] ; [0xeb0] = 0x50000040
        0x00000d72:    6118        .a      STR      r0,[r3,#0x10]
        0x00000d74:    e005        ..      B        0xd82 ; DrvGPIO_InitFunction + 1562
        0x00000d76:    484e        NH      LDR      r0,[pc,#312] ; [0xeb0] = 0x50000040
        0x00000d78:    6800        .h      LDR      r0,[r0,#0]
        0x00000d7a:    2320         #      MOVS     r3,#0x20
        0x00000d7c:    4318        .C      ORRS     r0,r0,r3
        0x00000d7e:    4b4c        LK      LDR      r3,[pc,#304] ; [0xeb0] = 0x50000040
        0x00000d80:    6018        .`      STR      r0,[r3,#0]
        0x00000d82:    e092        ..      B        0xeaa ; DrvGPIO_InitFunction + 1858
        0x00000d84:    bf00        ..      NOP      
        0x00000d86:    bf00        ..      NOP      
        0x00000d88:    2933        3)      CMP      r1,#0x33
        0x00000d8a:    d106        ..      BNE      0xd9a ; DrvGPIO_InitFunction + 1586
        0x00000d8c:    4848        HH      LDR      r0,[pc,#288] ; [0xeb0] = 0x50000040
        0x00000d8e:    6800        .h      LDR      r0,[r0,#0]
        0x00000d90:    2303        .#      MOVS     r3,#3
        0x00000d92:    4318        .C      ORRS     r0,r0,r3
        0x00000d94:    4b46        FK      LDR      r3,[pc,#280] ; [0xeb0] = 0x50000040
        0x00000d96:    6018        .`      STR      r0,[r3,#0]
        0x00000d98:    e00e        ..      B        0xdb8 ; DrvGPIO_InitFunction + 1616
        0x00000d9a:    293a        :)      CMP      r1,#0x3a
        0x00000d9c:    d106        ..      BNE      0xdac ; DrvGPIO_InitFunction + 1604
        0x00000d9e:    4844        DH      LDR      r0,[pc,#272] ; [0xeb0] = 0x50000040
        0x00000da0:    6800        .h      LDR      r0,[r0,#0]
        0x00000da2:    2301        .#      MOVS     r3,#1
        0x00000da4:    4318        .C      ORRS     r0,r0,r3
        0x00000da6:    4b42        BK      LDR      r3,[pc,#264] ; [0xeb0] = 0x50000040
        0x00000da8:    6018        .`      STR      r0,[r3,#0]
        0x00000daa:    e005        ..      B        0xdb8 ; DrvGPIO_InitFunction + 1616
        0x00000dac:    4840        @H      LDR      r0,[pc,#256] ; [0xeb0] = 0x50000040
        0x00000dae:    6800        .h      LDR      r0,[r0,#0]
        0x00000db0:    2302        .#      MOVS     r3,#2
        0x00000db2:    4318        .C      ORRS     r0,r0,r3
        0x00000db4:    4b3e        >K      LDR      r3,[pc,#248] ; [0xeb0] = 0x50000040
        0x00000db6:    6018        .`      STR      r0,[r3,#0]
        0x00000db8:    e077        w.      B        0xeaa ; DrvGPIO_InitFunction + 1858
        0x00000dba:    2005        .       MOVS     r0,#5
        0x00000dbc:    0700        ..      LSLS     r0,r0,#28
        0x00000dbe:    6b40        @k      LDR      r0,[r0,#0x34]
        0x00000dc0:    230c        .#      MOVS     r3,#0xc
        0x00000dc2:    4318        .C      ORRS     r0,r0,r3
        0x00000dc4:    2305        .#      MOVS     r3,#5
        0x00000dc6:    071b        ..      LSLS     r3,r3,#28
        0x00000dc8:    6358        Xc      STR      r0,[r3,#0x34]
        0x00000dca:    4839        9H      LDR      r0,[pc,#228] ; [0xeb0] = 0x50000040
        0x00000dcc:    6900        .i      LDR      r0,[r0,#0x10]
        0x00000dce:    2303        .#      MOVS     r3,#3
        0x00000dd0:    035b        [.      LSLS     r3,r3,#13
        0x00000dd2:    4318        .C      ORRS     r0,r0,r3
        0x00000dd4:    4b36        6K      LDR      r3,[pc,#216] ; [0xeb0] = 0x50000040
        0x00000dd6:    6118        .a      STR      r0,[r3,#0x10]
        0x00000dd8:    2005        .       MOVS     r0,#5
        0x00000dda:    0700        ..      LSLS     r0,r0,#28
        0x00000ddc:    6b00        .k      LDR      r0,[r0,#0x30]
        0x00000dde:    4b35        5K      LDR      r3,[pc,#212] ; [0xeb4] = 0x703e
        0x00000de0:    4318        .C      ORRS     r0,r0,r3
        0x00000de2:    2305        .#      MOVS     r3,#5
        0x00000de4:    071b        ..      LSLS     r3,r3,#28
        0x00000de6:    6318        .c      STR      r0,[r3,#0x30]
        0x00000de8:    4831        1H      LDR      r0,[pc,#196] ; [0xeb0] = 0x50000040
        0x00000dea:    6900        .i      LDR      r0,[r0,#0x10]
        0x00000dec:    23ff        .#      MOVS     r3,#0xff
        0x00000dee:    041b        ..      LSLS     r3,r3,#16
        0x00000df0:    4318        .C      ORRS     r0,r0,r3
        0x00000df2:    4b2f        /K      LDR      r3,[pc,#188] ; [0xeb0] = 0x50000040
        0x00000df4:    6118        .a      STR      r0,[r3,#0x10]
        0x00000df6:    bf00        ..      NOP      
        0x00000df8:    293c        <)      CMP      r1,#0x3c
        0x00000dfa:    d11e        ..      BNE      0xe3a ; DrvGPIO_InitFunction + 1746
        0x00000dfc:    2005        .       MOVS     r0,#5
        0x00000dfe:    0700        ..      LSLS     r0,r0,#28
        0x00000e00:    6b40        @k      LDR      r0,[r0,#0x34]
        0x00000e02:    230c        .#      MOVS     r3,#0xc
        0x00000e04:    4398        .C      BICS     r0,r0,r3
        0x00000e06:    2305        .#      MOVS     r3,#5
        0x00000e08:    071b        ..      LSLS     r3,r3,#28
        0x00000e0a:    6358        Xc      STR      r0,[r3,#0x34]
        0x00000e0c:    4828        (H      LDR      r0,[pc,#160] ; [0xeb0] = 0x50000040
        0x00000e0e:    6900        .i      LDR      r0,[r0,#0x10]
        0x00000e10:    2303        .#      MOVS     r3,#3
        0x00000e12:    035b        [.      LSLS     r3,r3,#13
        0x00000e14:    4398        .C      BICS     r0,r0,r3
        0x00000e16:    4b26        &K      LDR      r3,[pc,#152] ; [0xeb0] = 0x50000040
        0x00000e18:    6118        .a      STR      r0,[r3,#0x10]
        0x00000e1a:    2005        .       MOVS     r0,#5
        0x00000e1c:    0700        ..      LSLS     r0,r0,#28
        0x00000e1e:    6b00        .k      LDR      r0,[r0,#0x30]
        0x00000e20:    4b24        $K      LDR      r3,[pc,#144] ; [0xeb4] = 0x703e
        0x00000e22:    43db        .C      MVNS     r3,r3
        0x00000e24:    4018        .@      ANDS     r0,r0,r3
        0x00000e26:    2305        .#      MOVS     r3,#5
        0x00000e28:    071b        ..      LSLS     r3,r3,#28
        0x00000e2a:    6318        .c      STR      r0,[r3,#0x30]
        0x00000e2c:    4820         H      LDR      r0,[pc,#128] ; [0xeb0] = 0x50000040
        0x00000e2e:    6900        .i      LDR      r0,[r0,#0x10]
        0x00000e30:    23ff        .#      MOVS     r3,#0xff
        0x00000e32:    041b        ..      LSLS     r3,r3,#16
        0x00000e34:    4398        .C      BICS     r0,r0,r3
        0x00000e36:    4b1e        .K      LDR      r3,[pc,#120] ; [0xeb0] = 0x50000040
        0x00000e38:    6118        .a      STR      r0,[r3,#0x10]
        0x00000e3a:    481d        .H      LDR      r0,[pc,#116] ; [0xeb0] = 0x50000040
        0x00000e3c:    6900        .i      LDR      r0,[r0,#0x10]
        0x00000e3e:    2303        .#      MOVS     r3,#3
        0x00000e40:    02db        ..      LSLS     r3,r3,#11
        0x00000e42:    4318        .C      ORRS     r0,r0,r3
        0x00000e44:    4b1a        .K      LDR      r3,[pc,#104] ; [0xeb0] = 0x50000040
        0x00000e46:    6118        .a      STR      r0,[r3,#0x10]
        0x00000e48:    2005        .       MOVS     r0,#5
        0x00000e4a:    0700        ..      LSLS     r0,r0,#28
        0x00000e4c:    6b80        .k      LDR      r0,[r0,#0x38]
        0x00000e4e:    23ff        .#      MOVS     r3,#0xff
        0x00000e50:    3301        .3      ADDS     r3,#1
        0x00000e52:    4318        .C      ORRS     r0,r0,r3
        0x00000e54:    2305        .#      MOVS     r3,#5
        0x00000e56:    071b        ..      LSLS     r3,r3,#28
        0x00000e58:    6398        .c      STR      r0,[r3,#0x38]
        0x00000e5a:    4618        .F      MOV      r0,r3
        0x00000e5c:    6b00        .k      LDR      r0,[r0,#0x30]
        0x00000e5e:    2303        .#      MOVS     r3,#3
        0x00000e60:    029b        ..      LSLS     r3,r3,#10
        0x00000e62:    4318        .C      ORRS     r0,r0,r3
        0x00000e64:    2305        .#      MOVS     r3,#5
        0x00000e66:    071b        ..      LSLS     r3,r3,#28
        0x00000e68:    6318        .c      STR      r0,[r3,#0x30]
        0x00000e6a:    4618        .F      MOV      r0,r3
        0x00000e6c:    6b40        @k      LDR      r0,[r0,#0x34]
        0x00000e6e:    23c0        .#      MOVS     r3,#0xc0
        0x00000e70:    4318        .C      ORRS     r0,r0,r3
        0x00000e72:    2305        .#      MOVS     r3,#5
        0x00000e74:    071b        ..      LSLS     r3,r3,#28
        0x00000e76:    6358        Xc      STR      r0,[r3,#0x34]
        0x00000e78:    4618        .F      MOV      r0,r3
        0x00000e7a:    6b00        .k      LDR      r0,[r0,#0x30]
        0x00000e7c:    23c0        .#      MOVS     r3,#0xc0
        0x00000e7e:    4318        .C      ORRS     r0,r0,r3
        0x00000e80:    2305        .#      MOVS     r3,#5
        0x00000e82:    071b        ..      LSLS     r3,r3,#28
        0x00000e84:    6318        .c      STR      r0,[r3,#0x30]
        0x00000e86:    4618        .F      MOV      r0,r3
        0x00000e88:    6b80        .k      LDR      r0,[r0,#0x38]
        0x00000e8a:    4b0b        .K      LDR      r3,[pc,#44] ; [0xeb8] = 0xc0c0
        0x00000e8c:    4318        .C      ORRS     r0,r0,r3
        0x00000e8e:    2305        .#      MOVS     r3,#5
        0x00000e90:    071b        ..      LSLS     r3,r3,#28
        0x00000e92:    6398        .c      STR      r0,[r3,#0x38]
        0x00000e94:    4618        .F      MOV      r0,r3
        0x00000e96:    6b40        @k      LDR      r0,[r0,#0x34]
        0x00000e98:    2303        .#      MOVS     r3,#3
        0x00000e9a:    031b        ..      LSLS     r3,r3,#12
        0x00000e9c:    4318        .C      ORRS     r0,r0,r3
        0x00000e9e:    2305        .#      MOVS     r3,#5
        0x00000ea0:    071b        ..      LSLS     r3,r3,#28
        0x00000ea2:    6358        Xc      STR      r0,[r3,#0x34]
        0x00000ea4:    e001        ..      B        0xeaa ; DrvGPIO_InitFunction + 1858
        0x00000ea6:    4805        .H      LDR      r0,[pc,#20] ; [0xebc] = 0xffff8901
        0x00000ea8:    bd10        ..      POP      {r4,pc}
        0x00000eaa:    bf00        ..      NOP      
        0x00000eac:    2000        .       MOVS     r0,#0
        0x00000eae:    e7fb        ..      B        0xea8 ; DrvGPIO_InitFunction + 1856
    $d
        0x00000eb0:    50000040    @..P    DCD    1342177344
        0x00000eb4:    0000703e    >p..    DCD    28734
        0x00000eb8:    0000c0c0    ....    DCD    49344
        0x00000ebc:    ffff8901    ....    DCD    4294936833
    $t
    i.DrvGPIO_Open
    DrvGPIO_Open
        0x00000ec0:    b570        p.      PUSH     {r4-r6,lr}
        0x00000ec2:    4604        .F      MOV      r4,r0
        0x00000ec4:    460b        .F      MOV      r3,r1
        0x00000ec6:    2b00        .+      CMP      r3,#0
        0x00000ec8:    db01        ..      BLT      0xece ; DrvGPIO_Open + 14
        0x00000eca:    2b10        .+      CMP      r3,#0x10
        0x00000ecc:    dd01        ..      BLE      0xed2 ; DrvGPIO_Open + 18
        0x00000ece:    4818        .H      LDR      r0,[pc,#96] ; [0xf30] = 0xffff8901
        0x00000ed0:    bd70        p.      POP      {r4-r6,pc}
        0x00000ed2:    01a0        ..      LSLS     r0,r4,#6
        0x00000ed4:    4d17        .M      LDR      r5,[pc,#92] ; [0xf34] = 0x50004000
        0x00000ed6:    1941        A.      ADDS     r1,r0,r5
        0x00000ed8:    2a00        .*      CMP      r2,#0
        0x00000eda:    d003        ..      BEQ      0xee4 ; DrvGPIO_Open + 36
        0x00000edc:    2a01        .*      CMP      r2,#1
        0x00000ede:    d001        ..      BEQ      0xee4 ; DrvGPIO_Open + 36
        0x00000ee0:    2a02        .*      CMP      r2,#2
        0x00000ee2:    d117        ..      BNE      0xf14 ; DrvGPIO_Open + 84
        0x00000ee4:    6808        .h      LDR      r0,[r1,#0]
        0x00000ee6:    005e        ^.      LSLS     r6,r3,#1
        0x00000ee8:    2503        .%      MOVS     r5,#3
        0x00000eea:    40b5        .@      LSLS     r5,r5,r6
        0x00000eec:    43a8        .C      BICS     r0,r0,r5
        0x00000eee:    6008        .`      STR      r0,[r1,#0]
        0x00000ef0:    2a01        .*      CMP      r2,#1
        0x00000ef2:    d106        ..      BNE      0xf02 ; DrvGPIO_Open + 66
        0x00000ef4:    6808        .h      LDR      r0,[r1,#0]
        0x00000ef6:    005e        ^.      LSLS     r6,r3,#1
        0x00000ef8:    2501        .%      MOVS     r5,#1
        0x00000efa:    40b5        .@      LSLS     r5,r5,r6
        0x00000efc:    4328        (C      ORRS     r0,r0,r5
        0x00000efe:    6008        .`      STR      r0,[r1,#0]
        0x00000f00:    e013        ..      B        0xf2a ; DrvGPIO_Open + 106
        0x00000f02:    2a02        .*      CMP      r2,#2
        0x00000f04:    d111        ..      BNE      0xf2a ; DrvGPIO_Open + 106
        0x00000f06:    6808        .h      LDR      r0,[r1,#0]
        0x00000f08:    005e        ^.      LSLS     r6,r3,#1
        0x00000f0a:    2502        .%      MOVS     r5,#2
        0x00000f0c:    40b5        .@      LSLS     r5,r5,r6
        0x00000f0e:    4328        (C      ORRS     r0,r0,r5
        0x00000f10:    6008        .`      STR      r0,[r1,#0]
        0x00000f12:    e00a        ..      B        0xf2a ; DrvGPIO_Open + 106
        0x00000f14:    2a03        .*      CMP      r2,#3
        0x00000f16:    d106        ..      BNE      0xf26 ; DrvGPIO_Open + 102
        0x00000f18:    6808        .h      LDR      r0,[r1,#0]
        0x00000f1a:    005e        ^.      LSLS     r6,r3,#1
        0x00000f1c:    2503        .%      MOVS     r5,#3
        0x00000f1e:    40b5        .@      LSLS     r5,r5,r6
        0x00000f20:    4328        (C      ORRS     r0,r0,r5
        0x00000f22:    6008        .`      STR      r0,[r1,#0]
        0x00000f24:    e001        ..      B        0xf2a ; DrvGPIO_Open + 106
        0x00000f26:    4802        .H      LDR      r0,[pc,#8] ; [0xf30] = 0xffff8901
        0x00000f28:    e7d2        ..      B        0xed0 ; DrvGPIO_Open + 16
        0x00000f2a:    2000        .       MOVS     r0,#0
        0x00000f2c:    e7d0        ..      B        0xed0 ; DrvGPIO_Open + 16
    $d
        0x00000f2e:    0000        ..      DCW    0
        0x00000f30:    ffff8901    ....    DCD    4294936833
        0x00000f34:    50004000    .@.P    DCD    1342193664
    $t
    i.DrvGPIO_SetBit
    DrvGPIO_SetBit
        0x00000f38:    b510        ..      PUSH     {r4,lr}
        0x00000f3a:    4603        .F      MOV      r3,r0
        0x00000f3c:    2900        .)      CMP      r1,#0
        0x00000f3e:    db01        ..      BLT      0xf44 ; DrvGPIO_SetBit + 12
        0x00000f40:    2910        .)      CMP      r1,#0x10
        0x00000f42:    dd01        ..      BLE      0xf48 ; DrvGPIO_SetBit + 16
        0x00000f44:    4805        .H      LDR      r0,[pc,#20] ; [0xf5c] = 0xffff8901
        0x00000f46:    bd10        ..      POP      {r4,pc}
        0x00000f48:    0198        ..      LSLS     r0,r3,#6
        0x00000f4a:    4c05        .L      LDR      r4,[pc,#20] ; [0xf60] = 0x50004000
        0x00000f4c:    1902        ..      ADDS     r2,r0,r4
        0x00000f4e:    6890        .h      LDR      r0,[r2,#8]
        0x00000f50:    2401        .$      MOVS     r4,#1
        0x00000f52:    408c        .@      LSLS     r4,r4,r1
        0x00000f54:    4320         C      ORRS     r0,r0,r4
        0x00000f56:    6090        .`      STR      r0,[r2,#8]
        0x00000f58:    2000        .       MOVS     r0,#0
        0x00000f5a:    e7f4        ..      B        0xf46 ; DrvGPIO_SetBit + 14
    $d
        0x00000f5c:    ffff8901    ....    DCD    4294936833
        0x00000f60:    50004000    .@.P    DCD    1342193664
    $t
    i.DrvI2C_Close
    DrvI2C_Close
        0x00000f64:    4601        .F      MOV      r1,r0
        0x00000f66:    2900        .)      CMP      r1,#0
        0x00000f68:    d01e        ..      BEQ      0xfa8 ; DrvI2C_Close + 68
        0x00000f6a:    481f        .H      LDR      r0,[pc,#124] ; [0xfe8] = 0x40120000
        0x00000f6c:    6800        .h      LDR      r0,[r0,#0]
        0x00000f6e:    2240        @"      MOVS     r2,#0x40
        0x00000f70:    4390        .C      BICS     r0,r0,r2
        0x00000f72:    4a1d        .J      LDR      r2,[pc,#116] ; [0xfe8] = 0x40120000
        0x00000f74:    6010        .`      STR      r0,[r2,#0]
        0x00000f76:    2005        .       MOVS     r0,#5
        0x00000f78:    0700        ..      LSLS     r0,r0,#28
        0x00000f7a:    68c0        .h      LDR      r0,[r0,#0xc]
        0x00000f7c:    1552        R.      ASRS     r2,r2,#21
        0x00000f7e:    4390        .C      BICS     r0,r0,r2
        0x00000f80:    1880        ..      ADDS     r0,r0,r2
        0x00000f82:    2205        ."      MOVS     r2,#5
        0x00000f84:    0712        ..      LSLS     r2,r2,#28
        0x00000f86:    60d0        .`      STR      r0,[r2,#0xc]
        0x00000f88:    4610        .F      MOV      r0,r2
        0x00000f8a:    68c0        .h      LDR      r0,[r0,#0xc]
        0x00000f8c:    2201        ."      MOVS     r2,#1
        0x00000f8e:    0252        R.      LSLS     r2,r2,#9
        0x00000f90:    4390        .C      BICS     r0,r0,r2
        0x00000f92:    2205        ."      MOVS     r2,#5
        0x00000f94:    0712        ..      LSLS     r2,r2,#28
        0x00000f96:    60d0        .`      STR      r0,[r2,#0xc]
        0x00000f98:    4814        .H      LDR      r0,[pc,#80] ; [0xfec] = 0x50000200
        0x00000f9a:    6880        .h      LDR      r0,[r0,#8]
        0x00000f9c:    2201        ."      MOVS     r2,#1
        0x00000f9e:    0252        R.      LSLS     r2,r2,#9
        0x00000fa0:    4390        .C      BICS     r0,r0,r2
        0x00000fa2:    4a12        .J      LDR      r2,[pc,#72] ; [0xfec] = 0x50000200
        0x00000fa4:    6090        .`      STR      r0,[r2,#8]
        0x00000fa6:    e01d        ..      B        0xfe4 ; DrvI2C_Close + 128
        0x00000fa8:    4811        .H      LDR      r0,[pc,#68] ; [0xff0] = 0x40020000
        0x00000faa:    6800        .h      LDR      r0,[r0,#0]
        0x00000fac:    2240        @"      MOVS     r2,#0x40
        0x00000fae:    4390        .C      BICS     r0,r0,r2
        0x00000fb0:    4a0f        .J      LDR      r2,[pc,#60] ; [0xff0] = 0x40020000
        0x00000fb2:    6010        .`      STR      r0,[r2,#0]
        0x00000fb4:    2005        .       MOVS     r0,#5
        0x00000fb6:    0700        ..      LSLS     r0,r0,#28
        0x00000fb8:    68c0        .h      LDR      r0,[r0,#0xc]
        0x00000fba:    1592        ..      ASRS     r2,r2,#22
        0x00000fbc:    4390        .C      BICS     r0,r0,r2
        0x00000fbe:    1880        ..      ADDS     r0,r0,r2
        0x00000fc0:    2205        ."      MOVS     r2,#5
        0x00000fc2:    0712        ..      LSLS     r2,r2,#28
        0x00000fc4:    60d0        .`      STR      r0,[r2,#0xc]
        0x00000fc6:    4610        .F      MOV      r0,r2
        0x00000fc8:    68c0        .h      LDR      r0,[r0,#0xc]
        0x00000fca:    22ff        ."      MOVS     r2,#0xff
        0x00000fcc:    3201        .2      ADDS     r2,#1
        0x00000fce:    4390        .C      BICS     r0,r0,r2
        0x00000fd0:    2205        ."      MOVS     r2,#5
        0x00000fd2:    0712        ..      LSLS     r2,r2,#28
        0x00000fd4:    60d0        .`      STR      r0,[r2,#0xc]
        0x00000fd6:    4805        .H      LDR      r0,[pc,#20] ; [0xfec] = 0x50000200
        0x00000fd8:    6880        .h      LDR      r0,[r0,#8]
        0x00000fda:    22ff        ."      MOVS     r2,#0xff
        0x00000fdc:    3201        .2      ADDS     r2,#1
        0x00000fde:    4390        .C      BICS     r0,r0,r2
        0x00000fe0:    4a02        .J      LDR      r2,[pc,#8] ; [0xfec] = 0x50000200
        0x00000fe2:    6090        .`      STR      r0,[r2,#8]
        0x00000fe4:    2000        .       MOVS     r0,#0
        0x00000fe6:    4770        pG      BX       lr
    $d
        0x00000fe8:    40120000    ...@    DCD    1074921472
        0x00000fec:    50000200    ...P    DCD    1342177792
        0x00000ff0:    40020000    ...@    DCD    1073872896
    $t
    i.DrvI2C_Ctrl
    DrvI2C_Ctrl
        0x00000ff4:    b5f0        ..      PUSH     {r4-r7,lr}
        0x00000ff6:    9c05        ..      LDR      r4,[sp,#0x14]
        0x00000ff8:    2500        .%      MOVS     r5,#0
        0x00000ffa:    2900        .)      CMP      r1,#0
        0x00000ffc:    d001        ..      BEQ      0x1002 ; DrvI2C_Ctrl + 14
        0x00000ffe:    2620         &      MOVS     r6,#0x20
        0x00001000:    4335        5C      ORRS     r5,r5,r6
        0x00001002:    2a00        .*      CMP      r2,#0
        0x00001004:    d001        ..      BEQ      0x100a ; DrvI2C_Ctrl + 22
        0x00001006:    2610        .&      MOVS     r6,#0x10
        0x00001008:    4335        5C      ORRS     r5,r5,r6
        0x0000100a:    2b00        .+      CMP      r3,#0
        0x0000100c:    d001        ..      BEQ      0x1012 ; DrvI2C_Ctrl + 30
        0x0000100e:    2608        .&      MOVS     r6,#8
        0x00001010:    4335        5C      ORRS     r5,r5,r6
        0x00001012:    2c00        .,      CMP      r4,#0
        0x00001014:    d001        ..      BEQ      0x101a ; DrvI2C_Ctrl + 38
        0x00001016:    2604        .&      MOVS     r6,#4
        0x00001018:    4335        5C      ORRS     r5,r5,r6
        0x0000101a:    2800        .(      CMP      r0,#0
        0x0000101c:    d007        ..      BEQ      0x102e ; DrvI2C_Ctrl + 58
        0x0000101e:    4e08        .N      LDR      r6,[pc,#32] ; [0x1040] = 0x40120000
        0x00001020:    6836        6h      LDR      r6,[r6,#0]
        0x00001022:    273c        <'      MOVS     r7,#0x3c
        0x00001024:    43be        .C      BICS     r6,r6,r7
        0x00001026:    432e        .C      ORRS     r6,r6,r5
        0x00001028:    4f05        .O      LDR      r7,[pc,#20] ; [0x1040] = 0x40120000
        0x0000102a:    603e        >`      STR      r6,[r7,#0]
        0x0000102c:    e006        ..      B        0x103c ; DrvI2C_Ctrl + 72
        0x0000102e:    4e05        .N      LDR      r6,[pc,#20] ; [0x1044] = 0x40020000
        0x00001030:    6836        6h      LDR      r6,[r6,#0]
        0x00001032:    273c        <'      MOVS     r7,#0x3c
        0x00001034:    43be        .C      BICS     r6,r6,r7
        0x00001036:    432e        .C      ORRS     r6,r6,r5
        0x00001038:    4f02        .O      LDR      r7,[pc,#8] ; [0x1044] = 0x40020000
        0x0000103a:    603e        >`      STR      r6,[r7,#0]
        0x0000103c:    bdf0        ..      POP      {r4-r7,pc}
    $d
        0x0000103e:    0000        ..      DCW    0
        0x00001040:    40120000    ...@    DCD    1074921472
        0x00001044:    40020000    ...@    DCD    1073872896
    $t
    i.DrvI2C_Open
    DrvI2C_Open
        0x00001048:    b5f8        ..      PUSH     {r3-r7,lr}
        0x0000104a:    4605        .F      MOV      r5,r0
        0x0000104c:    460e        .F      MOV      r6,r1
        0x0000104e:    00b1        ..      LSLS     r1,r6,#2
        0x00001050:    4a2d        -J      LDR      r2,[pc,#180] ; [0x1108] = 0x20000000
        0x00001052:    6812        .h      LDR      r2,[r2,#0]
        0x00001054:    230a        .#      MOVS     r3,#0xa
        0x00001056:    435a        ZC      MULS     r2,r3,r2
        0x00001058:    4610        .F      MOV      r0,r2
        0x0000105a:    f7fff9dd    ....    BL       __aeabi_uidiv ; 0x418
        0x0000105e:    1d47        G.      ADDS     r7,r0,#5
        0x00001060:    210a        .!      MOVS     r1,#0xa
        0x00001062:    4638        8F      MOV      r0,r7
        0x00001064:    f7fff9d8    ....    BL       __aeabi_uidiv ; 0x418
        0x00001068:    1e44        D.      SUBS     r4,r0,#1
        0x0000106a:    2c04        .,      CMP      r4,#4
        0x0000106c:    d200        ..      BCS      0x1070 ; DrvI2C_Open + 40
        0x0000106e:    2404        .$      MOVS     r4,#4
        0x00001070:    2d00        .-      CMP      r5,#0
        0x00001072:    d023        #.      BEQ      0x10bc ; DrvI2C_Open + 116
        0x00001074:    4825        %H      LDR      r0,[pc,#148] ; [0x110c] = 0x50000200
        0x00001076:    6880        .h      LDR      r0,[r0,#8]
        0x00001078:    2101        .!      MOVS     r1,#1
        0x0000107a:    0249        I.      LSLS     r1,r1,#9
        0x0000107c:    4388        .C      BICS     r0,r0,r1
        0x0000107e:    1840        @.      ADDS     r0,r0,r1
        0x00001080:    4922        "I      LDR      r1,[pc,#136] ; [0x110c] = 0x50000200
        0x00001082:    6088        .`      STR      r0,[r1,#8]
        0x00001084:    2005        .       MOVS     r0,#5
        0x00001086:    0700        ..      LSLS     r0,r0,#28
        0x00001088:    68c0        .h      LDR      r0,[r0,#0xc]
        0x0000108a:    2101        .!      MOVS     r1,#1
        0x0000108c:    0249        I.      LSLS     r1,r1,#9
        0x0000108e:    4388        .C      BICS     r0,r0,r1
        0x00001090:    1840        @.      ADDS     r0,r0,r1
        0x00001092:    2105        .!      MOVS     r1,#5
        0x00001094:    0709        ..      LSLS     r1,r1,#28
        0x00001096:    60c8        .`      STR      r0,[r1,#0xc]
        0x00001098:    4608        .F      MOV      r0,r1
        0x0000109a:    68c0        .h      LDR      r0,[r0,#0xc]
        0x0000109c:    2101        .!      MOVS     r1,#1
        0x0000109e:    0249        I.      LSLS     r1,r1,#9
        0x000010a0:    4388        .C      BICS     r0,r0,r1
        0x000010a2:    2105        .!      MOVS     r1,#5
        0x000010a4:    0709        ..      LSLS     r1,r1,#28
        0x000010a6:    60c8        .`      STR      r0,[r1,#0xc]
        0x000010a8:    4819        .H      LDR      r0,[pc,#100] ; [0x1110] = 0x40120000
        0x000010aa:    6800        .h      LDR      r0,[r0,#0]
        0x000010ac:    2140        @!      MOVS     r1,#0x40
        0x000010ae:    4388        .C      BICS     r0,r0,r1
        0x000010b0:    3040        @0      ADDS     r0,r0,#0x40
        0x000010b2:    4917        .I      LDR      r1,[pc,#92] ; [0x1110] = 0x40120000
        0x000010b4:    6008        .`      STR      r0,[r1,#0]
        0x000010b6:    4608        .F      MOV      r0,r1
        0x000010b8:    6104        .a      STR      r4,[r0,#0x10]
        0x000010ba:    e022        ".      B        0x1102 ; DrvI2C_Open + 186
        0x000010bc:    4813        .H      LDR      r0,[pc,#76] ; [0x110c] = 0x50000200
        0x000010be:    6880        .h      LDR      r0,[r0,#8]
        0x000010c0:    21ff        .!      MOVS     r1,#0xff
        0x000010c2:    3101        .1      ADDS     r1,#1
        0x000010c4:    4388        .C      BICS     r0,r0,r1
        0x000010c6:    1840        @.      ADDS     r0,r0,r1
        0x000010c8:    4910        .I      LDR      r1,[pc,#64] ; [0x110c] = 0x50000200
        0x000010ca:    6088        .`      STR      r0,[r1,#8]
        0x000010cc:    2005        .       MOVS     r0,#5
        0x000010ce:    0700        ..      LSLS     r0,r0,#28
        0x000010d0:    68c0        .h      LDR      r0,[r0,#0xc]
        0x000010d2:    21ff        .!      MOVS     r1,#0xff
        0x000010d4:    3101        .1      ADDS     r1,#1
        0x000010d6:    4388        .C      BICS     r0,r0,r1
        0x000010d8:    1840        @.      ADDS     r0,r0,r1
        0x000010da:    2105        .!      MOVS     r1,#5
        0x000010dc:    0709        ..      LSLS     r1,r1,#28
        0x000010de:    60c8        .`      STR      r0,[r1,#0xc]
        0x000010e0:    4608        .F      MOV      r0,r1
        0x000010e2:    68c0        .h      LDR      r0,[r0,#0xc]
        0x000010e4:    21ff        .!      MOVS     r1,#0xff
        0x000010e6:    3101        .1      ADDS     r1,#1
        0x000010e8:    4388        .C      BICS     r0,r0,r1
        0x000010ea:    2105        .!      MOVS     r1,#5
        0x000010ec:    0709        ..      LSLS     r1,r1,#28
        0x000010ee:    60c8        .`      STR      r0,[r1,#0xc]
        0x000010f0:    4808        .H      LDR      r0,[pc,#32] ; [0x1114] = 0x40020000
        0x000010f2:    6800        .h      LDR      r0,[r0,#0]
        0x000010f4:    2140        @!      MOVS     r1,#0x40
        0x000010f6:    4388        .C      BICS     r0,r0,r1
        0x000010f8:    3040        @0      ADDS     r0,r0,#0x40
        0x000010fa:    4906        .I      LDR      r1,[pc,#24] ; [0x1114] = 0x40020000
        0x000010fc:    6008        .`      STR      r0,[r1,#0]
        0x000010fe:    4608        .F      MOV      r0,r1
        0x00001100:    6104        .a      STR      r4,[r0,#0x10]
        0x00001102:    2000        .       MOVS     r0,#0
        0x00001104:    bdf8        ..      POP      {r3-r7,pc}
    $d
        0x00001106:    0000        ..      DCW    0
        0x00001108:    20000000    ...     DCD    536870912
        0x0000110c:    50000200    ...P    DCD    1342177792
        0x00001110:    40120000    ...@    DCD    1074921472
        0x00001114:    40020000    ...@    DCD    1073872896
    $t
    i.DrvSYS_GetHCLKFreq
    DrvSYS_GetHCLKFreq
        0x00001118:    b570        p.      PUSH     {r4-r6,lr}
        0x0000111a:    2500        .%      MOVS     r5,#0
        0x0000111c:    4815        .H      LDR      r0,[pc,#84] ; [0x1174] = 0x50000200
        0x0000111e:    6900        .i      LDR      r0,[r0,#0x10]
        0x00001120:    0740        @.      LSLS     r0,r0,#29
        0x00001122:    0f40        @.      LSRS     r0,r0,#29
        0x00001124:    d101        ..      BNE      0x112a ; DrvSYS_GetHCLKFreq + 18
        0x00001126:    4d14        .M      LDR      r5,[pc,#80] ; [0x1178] = 0xb71b00
        0x00001128:    e01a        ..      B        0x1160 ; DrvSYS_GetHCLKFreq + 72
        0x0000112a:    4812        .H      LDR      r0,[pc,#72] ; [0x1174] = 0x50000200
        0x0000112c:    6900        .i      LDR      r0,[r0,#0x10]
        0x0000112e:    0740        @.      LSLS     r0,r0,#29
        0x00001130:    0f40        @.      LSRS     r0,r0,#29
        0x00001132:    2801        .(      CMP      r0,#1
        0x00001134:    d101        ..      BNE      0x113a ; DrvSYS_GetHCLKFreq + 34
        0x00001136:    03c5        ..      LSLS     r5,r0,#15
        0x00001138:    e012        ..      B        0x1160 ; DrvSYS_GetHCLKFreq + 72
        0x0000113a:    480e        .H      LDR      r0,[pc,#56] ; [0x1174] = 0x50000200
        0x0000113c:    6900        .i      LDR      r0,[r0,#0x10]
        0x0000113e:    0740        @.      LSLS     r0,r0,#29
        0x00001140:    0f40        @.      LSRS     r0,r0,#29
        0x00001142:    2802        .(      CMP      r0,#2
        0x00001144:    d103        ..      BNE      0x114e ; DrvSYS_GetHCLKFreq + 54
        0x00001146:    f000f81d    ....    BL       DrvSYS_GetPLLClockFreq ; 0x1184
        0x0000114a:    4605        .F      MOV      r5,r0
        0x0000114c:    e008        ..      B        0x1160 ; DrvSYS_GetHCLKFreq + 72
        0x0000114e:    4809        .H      LDR      r0,[pc,#36] ; [0x1174] = 0x50000200
        0x00001150:    6900        .i      LDR      r0,[r0,#0x10]
        0x00001152:    0740        @.      LSLS     r0,r0,#29
        0x00001154:    0f40        @.      LSRS     r0,r0,#29
        0x00001156:    2803        .(      CMP      r0,#3
        0x00001158:    d101        ..      BNE      0x115e ; DrvSYS_GetHCLKFreq + 70
        0x0000115a:    4d08        .M      LDR      r5,[pc,#32] ; [0x117c] = 0x2710
        0x0000115c:    e000        ..      B        0x1160 ; DrvSYS_GetHCLKFreq + 72
        0x0000115e:    4d08        .M      LDR      r5,[pc,#32] ; [0x1180] = 0x1518000
        0x00001160:    4804        .H      LDR      r0,[pc,#16] ; [0x1174] = 0x50000200
        0x00001162:    6980        .i      LDR      r0,[r0,#0x18]
        0x00001164:    0700        ..      LSLS     r0,r0,#28
        0x00001166:    0f00        ..      LSRS     r0,r0,#28
        0x00001168:    1c44        D.      ADDS     r4,r0,#1
        0x0000116a:    4621        !F      MOV      r1,r4
        0x0000116c:    4628        (F      MOV      r0,r5
        0x0000116e:    f7fff953    ..S.    BL       __aeabi_uidiv ; 0x418
        0x00001172:    bd70        p.      POP      {r4-r6,pc}
    $d
        0x00001174:    50000200    ...P    DCD    1342177792
        0x00001178:    00b71b00    ....    DCD    12000000
        0x0000117c:    00002710    .'..    DCD    10000
        0x00001180:    01518000    ..Q.    DCD    22118400
    $t
    i.DrvSYS_GetPLLClockFreq
    DrvSYS_GetPLLClockFreq
        0x00001184:    b57f        ..      PUSH     {r0-r6,lr}
        0x00001186:    2500        .%      MOVS     r5,#0
        0x00001188:    4b18        .K      LDR      r3,[pc,#96] ; [0x11ec] = 0x20e4
        0x0000118a:    cb0f        ..      LDM      r3,{r0-r3}
        0x0000118c:    466c        lF      MOV      r4,sp
        0x0000118e:    c40f        ..      STM      r4!,{r0-r3}
        0x00001190:    4817        .H      LDR      r0,[pc,#92] ; [0x11f0] = 0x50000200
        0x00001192:    6a00        .j      LDR      r0,[r0,#0x20]
        0x00001194:    0300        ..      LSLS     r0,r0,#12
        0x00001196:    0fc0        ..      LSRS     r0,r0,#31
        0x00001198:    2801        .(      CMP      r0,#1
        0x0000119a:    d101        ..      BNE      0x11a0 ; DrvSYS_GetPLLClockFreq + 28
        0x0000119c:    4c15        .L      LDR      r4,[pc,#84] ; [0x11f4] = 0x1518000
        0x0000119e:    e000        ..      B        0x11a2 ; DrvSYS_GetPLLClockFreq + 30
        0x000011a0:    4c15        .L      LDR      r4,[pc,#84] ; [0x11f8] = 0xb71b00
        0x000011a2:    4813        .H      LDR      r0,[pc,#76] ; [0x11f0] = 0x50000200
        0x000011a4:    6a00        .j      LDR      r0,[r0,#0x20]
        0x000011a6:    03c0        ..      LSLS     r0,r0,#15
        0x000011a8:    0fc0        ..      LSRS     r0,r0,#31
        0x000011aa:    2801        .(      CMP      r0,#1
        0x000011ac:    d101        ..      BNE      0x11b2 ; DrvSYS_GetPLLClockFreq + 46
        0x000011ae:    2500        .%      MOVS     r5,#0
        0x000011b0:    e019        ..      B        0x11e6 ; DrvSYS_GetPLLClockFreq + 98
        0x000011b2:    4a0f        .J      LDR      r2,[pc,#60] ; [0x11f0] = 0x50000200
        0x000011b4:    6a12        .j      LDR      r2,[r2,#0x20]
        0x000011b6:    0492        ..      LSLS     r2,r2,#18
        0x000011b8:    0ed2        ..      LSRS     r2,r2,#27
        0x000011ba:    1c91        ..      ADDS     r1,r2,#2
        0x000011bc:    4a0c        .J      LDR      r2,[pc,#48] ; [0x11f0] = 0x50000200
        0x000011be:    6a12        .j      LDR      r2,[r2,#0x20]
        0x000011c0:    05d2        ..      LSLS     r2,r2,#23
        0x000011c2:    0dd2        ..      LSRS     r2,r2,#23
        0x000011c4:    1c92        ..      ADDS     r2,r2,#2
        0x000011c6:    4362        bC      MULS     r2,r4,r2
        0x000011c8:    4610        .F      MOV      r0,r2
        0x000011ca:    f7fff925    ..%.    BL       __aeabi_uidiv ; 0x418
        0x000011ce:    4606        .F      MOV      r6,r0
        0x000011d0:    4807        .H      LDR      r0,[pc,#28] ; [0x11f0] = 0x50000200
        0x000011d2:    6a00        .j      LDR      r0,[r0,#0x20]
        0x000011d4:    0400        ..      LSLS     r0,r0,#16
        0x000011d6:    0f80        ..      LSRS     r0,r0,#30
        0x000011d8:    0080        ..      LSLS     r0,r0,#2
        0x000011da:    466a        jF      MOV      r2,sp
        0x000011dc:    5811        .X      LDR      r1,[r2,r0]
        0x000011de:    4630        0F      MOV      r0,r6
        0x000011e0:    f7fff91a    ....    BL       __aeabi_uidiv ; 0x418
        0x000011e4:    4605        .F      MOV      r5,r0
        0x000011e6:    4628        (F      MOV      r0,r5
        0x000011e8:    b004        ..      ADD      sp,sp,#0x10
        0x000011ea:    bd70        p.      POP      {r4-r6,pc}
    $d
        0x000011ec:    000020e4    . ..    DCD    8420
        0x000011f0:    50000200    ...P    DCD    1342177792
        0x000011f4:    01518000    ..Q.    DCD    22118400
        0x000011f8:    00b71b00    ....    DCD    12000000
    $t
    i.EINT0_IRQHandler
    EINT0_IRQHandler
        0x000011fc:    b510        ..      PUSH     {r4,lr}
        0x000011fe:    2001        .       MOVS     r0,#1
        0x00001200:    0380        ..      LSLS     r0,r0,#14
        0x00001202:    4905        .I      LDR      r1,[pc,#20] ; [0x1218] = 0x50004040
        0x00001204:    6208        .b      STR      r0,[r1,#0x20]
        0x00001206:    4805        .H      LDR      r0,[pc,#20] ; [0x121c] = 0x20000640
        0x00001208:    6800        .h      LDR      r0,[r0,#0]
        0x0000120a:    2800        .(      CMP      r0,#0
        0x0000120c:    d002        ..      BEQ      0x1214 ; EINT0_IRQHandler + 24
        0x0000120e:    4803        .H      LDR      r0,[pc,#12] ; [0x121c] = 0x20000640
        0x00001210:    6800        .h      LDR      r0,[r0,#0]
        0x00001212:    4780        .G      BLX      r0
        0x00001214:    bd10        ..      POP      {r4,pc}
    $d
        0x00001216:    0000        ..      DCW    0
        0x00001218:    50004040    @@.P    DCD    1342193728
        0x0000121c:    20000640    @..     DCD    536872512
    $t
    i.EINT1_IRQHandler
    EINT1_IRQHandler
        0x00001220:    b510        ..      PUSH     {r4,lr}
        0x00001222:    2001        .       MOVS     r0,#1
        0x00001224:    03c0        ..      LSLS     r0,r0,#15
        0x00001226:    4905        .I      LDR      r1,[pc,#20] ; [0x123c] = 0x50004040
        0x00001228:    6208        .b      STR      r0,[r1,#0x20]
        0x0000122a:    4805        .H      LDR      r0,[pc,#20] ; [0x1240] = 0x20000644
        0x0000122c:    6800        .h      LDR      r0,[r0,#0]
        0x0000122e:    2800        .(      CMP      r0,#0
        0x00001230:    d002        ..      BEQ      0x1238 ; EINT1_IRQHandler + 24
        0x00001232:    4803        .H      LDR      r0,[pc,#12] ; [0x1240] = 0x20000644
        0x00001234:    6800        .h      LDR      r0,[r0,#0]
        0x00001236:    4780        .G      BLX      r0
        0x00001238:    bd10        ..      POP      {r4,pc}
    $d
        0x0000123a:    0000        ..      DCW    0
        0x0000123c:    50004040    @@.P    DCD    1342193728
        0x00001240:    20000644    D..     DCD    536872516
    $t
    i.GPAB_IRQHandler
    GPAB_IRQHandler
        0x00001244:    b570        p.      PUSH     {r4-r6,lr}
        0x00001246:    480c        .H      LDR      r0,[pc,#48] ; [0x1278] = 0x50004000
        0x00001248:    6a05        .j      LDR      r5,[r0,#0x20]
        0x0000124a:    480b        .H      LDR      r0,[pc,#44] ; [0x1278] = 0x50004000
        0x0000124c:    3040        @0      ADDS     r0,r0,#0x40
        0x0000124e:    6a04        .j      LDR      r4,[r0,#0x20]
        0x00001250:    2103        .!      MOVS     r1,#3
        0x00001252:    0389        ..      LSLS     r1,r1,#14
        0x00001254:    4620         F      MOV      r0,r4
        0x00001256:    4388        .C      BICS     r0,r0,r1
        0x00001258:    4604        .F      MOV      r4,r0
        0x0000125a:    4807        .H      LDR      r0,[pc,#28] ; [0x1278] = 0x50004000
        0x0000125c:    6205        .b      STR      r5,[r0,#0x20]
        0x0000125e:    4806        .H      LDR      r0,[pc,#24] ; [0x1278] = 0x50004000
        0x00001260:    3040        @0      ADDS     r0,r0,#0x40
        0x00001262:    6204        .b      STR      r4,[r0,#0x20]
        0x00001264:    4805        .H      LDR      r0,[pc,#20] ; [0x127c] = 0x20000638
        0x00001266:    6800        .h      LDR      r0,[r0,#0]
        0x00001268:    2800        .(      CMP      r0,#0
        0x0000126a:    d004        ..      BEQ      0x1276 ; GPAB_IRQHandler + 50
        0x0000126c:    4621        !F      MOV      r1,r4
        0x0000126e:    4628        (F      MOV      r0,r5
        0x00001270:    4a02        .J      LDR      r2,[pc,#8] ; [0x127c] = 0x20000638
        0x00001272:    6812        .h      LDR      r2,[r2,#0]
        0x00001274:    4790        .G      BLX      r2
        0x00001276:    bd70        p.      POP      {r4-r6,pc}
    $d
        0x00001278:    50004000    .@.P    DCD    1342193664
        0x0000127c:    20000638    8..     DCD    536872504
    $t
    i.GPCDE_IRQHandler
    GPCDE_IRQHandler
        0x00001280:    b570        p.      PUSH     {r4-r6,lr}
        0x00001282:    480d        .H      LDR      r0,[pc,#52] ; [0x12b8] = 0x50004080
        0x00001284:    6a04        .j      LDR      r4,[r0,#0x20]
        0x00001286:    480c        .H      LDR      r0,[pc,#48] ; [0x12b8] = 0x50004080
        0x00001288:    3040        @0      ADDS     r0,r0,#0x40
        0x0000128a:    6a05        .j      LDR      r5,[r0,#0x20]
        0x0000128c:    480a        .H      LDR      r0,[pc,#40] ; [0x12b8] = 0x50004080
        0x0000128e:    3080        .0      ADDS     r0,r0,#0x80
        0x00001290:    6a06        .j      LDR      r6,[r0,#0x20]
        0x00001292:    4809        .H      LDR      r0,[pc,#36] ; [0x12b8] = 0x50004080
        0x00001294:    6204        .b      STR      r4,[r0,#0x20]
        0x00001296:    4808        .H      LDR      r0,[pc,#32] ; [0x12b8] = 0x50004080
        0x00001298:    3040        @0      ADDS     r0,r0,#0x40
        0x0000129a:    6205        .b      STR      r5,[r0,#0x20]
        0x0000129c:    4806        .H      LDR      r0,[pc,#24] ; [0x12b8] = 0x50004080
        0x0000129e:    3080        .0      ADDS     r0,r0,#0x80
        0x000012a0:    6206        .b      STR      r6,[r0,#0x20]
        0x000012a2:    4806        .H      LDR      r0,[pc,#24] ; [0x12bc] = 0x2000063c
        0x000012a4:    6800        .h      LDR      r0,[r0,#0]
        0x000012a6:    2800        .(      CMP      r0,#0
        0x000012a8:    d005        ..      BEQ      0x12b6 ; GPCDE_IRQHandler + 54
        0x000012aa:    4632        2F      MOV      r2,r6
        0x000012ac:    4629        )F      MOV      r1,r5
        0x000012ae:    4620         F      MOV      r0,r4
        0x000012b0:    4b02        .K      LDR      r3,[pc,#8] ; [0x12bc] = 0x2000063c
        0x000012b2:    681b        .h      LDR      r3,[r3,#0]
        0x000012b4:    4798        .G      BLX      r3
        0x000012b6:    bd70        p.      POP      {r4-r6,pc}
    $d
        0x000012b8:    50004080    .@.P    DCD    1342193792
        0x000012bc:    2000063c    <..     DCD    536872508
    $t
    i.HEX2Disp
    HEX2Disp
        0x000012c0:    4601        .F      MOV      r1,r0
        0x000012c2:    4a01        .J      LDR      r2,[pc,#4] ; [0x12c8] = 0x2098
        0x000012c4:    5c50        P\      LDRB     r0,[r2,r1]
        0x000012c6:    4770        pG      BX       lr
    $d
        0x000012c8:    00002098    . ..    DCD    8344
    $t
    i.I2C0_IRQHandler
    I2C0_IRQHandler
        0x000012cc:    b510        ..      PUSH     {r4,lr}
        0x000012ce:    481b        .H      LDR      r0,[pc,#108] ; [0x133c] = 0x40020000
        0x000012d0:    68c4        .h      LDR      r4,[r0,#0xc]
        0x000012d2:    6940        @i      LDR      r0,[r0,#0x14]
        0x000012d4:    07c0        ..      LSLS     r0,r0,#31
        0x000012d6:    0fc0        ..      LSRS     r0,r0,#31
        0x000012d8:    d00f        ..      BEQ      0x12fa ; I2C0_IRQHandler + 46
        0x000012da:    4818        .H      LDR      r0,[pc,#96] ; [0x133c] = 0x40020000
        0x000012dc:    6940        @i      LDR      r0,[r0,#0x14]
        0x000012de:    0840        @.      LSRS     r0,r0,#1
        0x000012e0:    0040        @.      LSLS     r0,r0,#1
        0x000012e2:    1c40        @.      ADDS     r0,r0,#1
        0x000012e4:    4915        .I      LDR      r1,[pc,#84] ; [0x133c] = 0x40020000
        0x000012e6:    6148        Ha      STR      r0,[r1,#0x14]
        0x000012e8:    4815        .H      LDR      r0,[pc,#84] ; [0x1340] = 0x20000648
        0x000012ea:    68c0        .h      LDR      r0,[r0,#0xc]
        0x000012ec:    2800        .(      CMP      r0,#0
        0x000012ee:    d024        $.      BEQ      0x133a ; I2C0_IRQHandler + 110
        0x000012f0:    4813        .H      LDR      r0,[pc,#76] ; [0x1340] = 0x20000648
        0x000012f2:    68c1        .h      LDR      r1,[r0,#0xc]
        0x000012f4:    4620         F      MOV      r0,r4
        0x000012f6:    4788        .G      BLX      r1
        0x000012f8:    e01f        ..      B        0x133a ; I2C0_IRQHandler + 110
        0x000012fa:    2c00        .,      CMP      r4,#0
        0x000012fc:    d00a        ..      BEQ      0x1314 ; I2C0_IRQHandler + 72
        0x000012fe:    2c38        8,      CMP      r4,#0x38
        0x00001300:    d111        ..      BNE      0x1326 ; I2C0_IRQHandler + 90
        0x00001302:    480f        .H      LDR      r0,[pc,#60] ; [0x1340] = 0x20000648
        0x00001304:    6840        @h      LDR      r0,[r0,#4]
        0x00001306:    2800        .(      CMP      r0,#0
        0x00001308:    d003        ..      BEQ      0x1312 ; I2C0_IRQHandler + 70
        0x0000130a:    480d        .H      LDR      r0,[pc,#52] ; [0x1340] = 0x20000648
        0x0000130c:    6841        Ah      LDR      r1,[r0,#4]
        0x0000130e:    4620         F      MOV      r0,r4
        0x00001310:    4788        .G      BLX      r1
        0x00001312:    e011        ..      B        0x1338 ; I2C0_IRQHandler + 108
        0x00001314:    480a        .H      LDR      r0,[pc,#40] ; [0x1340] = 0x20000648
        0x00001316:    6880        .h      LDR      r0,[r0,#8]
        0x00001318:    2800        .(      CMP      r0,#0
        0x0000131a:    d003        ..      BEQ      0x1324 ; I2C0_IRQHandler + 88
        0x0000131c:    4808        .H      LDR      r0,[pc,#32] ; [0x1340] = 0x20000648
        0x0000131e:    6881        .h      LDR      r1,[r0,#8]
        0x00001320:    4620         F      MOV      r0,r4
        0x00001322:    4788        .G      BLX      r1
        0x00001324:    e008        ..      B        0x1338 ; I2C0_IRQHandler + 108
        0x00001326:    4806        .H      LDR      r0,[pc,#24] ; [0x1340] = 0x20000648
        0x00001328:    6800        .h      LDR      r0,[r0,#0]
        0x0000132a:    2800        .(      CMP      r0,#0
        0x0000132c:    d003        ..      BEQ      0x1336 ; I2C0_IRQHandler + 106
        0x0000132e:    4804        .H      LDR      r0,[pc,#16] ; [0x1340] = 0x20000648
        0x00001330:    6801        .h      LDR      r1,[r0,#0]
        0x00001332:    4620         F      MOV      r0,r4
        0x00001334:    4788        .G      BLX      r1
        0x00001336:    bf00        ..      NOP      
        0x00001338:    bf00        ..      NOP      
        0x0000133a:    bd10        ..      POP      {r4,pc}
    $d
        0x0000133c:    40020000    ...@    DCD    1073872896
        0x00001340:    20000648    H..     DCD    536872520
    $t
    i.I2C1_IRQHandler
    I2C1_IRQHandler
        0x00001344:    b510        ..      PUSH     {r4,lr}
        0x00001346:    481b        .H      LDR      r0,[pc,#108] ; [0x13b4] = 0x40120000
        0x00001348:    68c4        .h      LDR      r4,[r0,#0xc]
        0x0000134a:    6940        @i      LDR      r0,[r0,#0x14]
        0x0000134c:    07c0        ..      LSLS     r0,r0,#31
        0x0000134e:    0fc0        ..      LSRS     r0,r0,#31
        0x00001350:    d00f        ..      BEQ      0x1372 ; I2C1_IRQHandler + 46
        0x00001352:    4818        .H      LDR      r0,[pc,#96] ; [0x13b4] = 0x40120000
        0x00001354:    6940        @i      LDR      r0,[r0,#0x14]
        0x00001356:    0840        @.      LSRS     r0,r0,#1
        0x00001358:    0040        @.      LSLS     r0,r0,#1
        0x0000135a:    1c40        @.      ADDS     r0,r0,#1
        0x0000135c:    4915        .I      LDR      r1,[pc,#84] ; [0x13b4] = 0x40120000
        0x0000135e:    6148        Ha      STR      r0,[r1,#0x14]
        0x00001360:    4815        .H      LDR      r0,[pc,#84] ; [0x13b8] = 0x20000658
        0x00001362:    68c0        .h      LDR      r0,[r0,#0xc]
        0x00001364:    2800        .(      CMP      r0,#0
        0x00001366:    d024        $.      BEQ      0x13b2 ; I2C1_IRQHandler + 110
        0x00001368:    4813        .H      LDR      r0,[pc,#76] ; [0x13b8] = 0x20000658
        0x0000136a:    68c1        .h      LDR      r1,[r0,#0xc]
        0x0000136c:    4620         F      MOV      r0,r4
        0x0000136e:    4788        .G      BLX      r1
        0x00001370:    e01f        ..      B        0x13b2 ; I2C1_IRQHandler + 110
        0x00001372:    2c00        .,      CMP      r4,#0
        0x00001374:    d00a        ..      BEQ      0x138c ; I2C1_IRQHandler + 72
        0x00001376:    2c38        8,      CMP      r4,#0x38
        0x00001378:    d111        ..      BNE      0x139e ; I2C1_IRQHandler + 90
        0x0000137a:    480f        .H      LDR      r0,[pc,#60] ; [0x13b8] = 0x20000658
        0x0000137c:    6840        @h      LDR      r0,[r0,#4]
        0x0000137e:    2800        .(      CMP      r0,#0
        0x00001380:    d003        ..      BEQ      0x138a ; I2C1_IRQHandler + 70
        0x00001382:    480d        .H      LDR      r0,[pc,#52] ; [0x13b8] = 0x20000658
        0x00001384:    6841        Ah      LDR      r1,[r0,#4]
        0x00001386:    4620         F      MOV      r0,r4
        0x00001388:    4788        .G      BLX      r1
        0x0000138a:    e011        ..      B        0x13b0 ; I2C1_IRQHandler + 108
        0x0000138c:    480a        .H      LDR      r0,[pc,#40] ; [0x13b8] = 0x20000658
        0x0000138e:    6880        .h      LDR      r0,[r0,#8]
        0x00001390:    2800        .(      CMP      r0,#0
        0x00001392:    d003        ..      BEQ      0x139c ; I2C1_IRQHandler + 88
        0x00001394:    4808        .H      LDR      r0,[pc,#32] ; [0x13b8] = 0x20000658
        0x00001396:    6881        .h      LDR      r1,[r0,#8]
        0x00001398:    4620         F      MOV      r0,r4
        0x0000139a:    4788        .G      BLX      r1
        0x0000139c:    e008        ..      B        0x13b0 ; I2C1_IRQHandler + 108
        0x0000139e:    4806        .H      LDR      r0,[pc,#24] ; [0x13b8] = 0x20000658
        0x000013a0:    6800        .h      LDR      r0,[r0,#0]
        0x000013a2:    2800        .(      CMP      r0,#0
        0x000013a4:    d003        ..      BEQ      0x13ae ; I2C1_IRQHandler + 106
        0x000013a6:    4804        .H      LDR      r0,[pc,#16] ; [0x13b8] = 0x20000658
        0x000013a8:    6801        .h      LDR      r1,[r0,#0]
        0x000013aa:    4620         F      MOV      r0,r4
        0x000013ac:    4788        .G      BLX      r1
        0x000013ae:    bf00        ..      NOP      
        0x000013b0:    bf00        ..      NOP      
        0x000013b2:    bd10        ..      POP      {r4,pc}
    $d
        0x000013b4:    40120000    ...@    DCD    1074921472
        0x000013b8:    20000658    X..     DCD    536872536
    $t
    i.InitADC7
    InitADC7
        0x000013bc:    4824        $H      LDR      r0,[pc,#144] ; [0x1450] = 0x50004000
        0x000013be:    6840        @h      LDR      r0,[r0,#4]
        0x000013c0:    2101        .!      MOVS     r1,#1
        0x000013c2:    05c9        ..      LSLS     r1,r1,#23
        0x000013c4:    4308        .C      ORRS     r0,r0,r1
        0x000013c6:    4922        "I      LDR      r1,[pc,#136] ; [0x1450] = 0x50004000
        0x000013c8:    6048        H`      STR      r0,[r1,#4]
        0x000013ca:    2005        .       MOVS     r0,#5
        0x000013cc:    0700        ..      LSLS     r0,r0,#28
        0x000013ce:    6b00        .k      LDR      r0,[r0,#0x30]
        0x000013d0:    2180        .!      MOVS     r1,#0x80
        0x000013d2:    4388        .C      BICS     r0,r0,r1
        0x000013d4:    3080        .0      ADDS     r0,r0,#0x80
        0x000013d6:    2105        .!      MOVS     r1,#5
        0x000013d8:    0709        ..      LSLS     r1,r1,#28
        0x000013da:    6308        .c      STR      r0,[r1,#0x30]
        0x000013dc:    481d        .H      LDR      r0,[pc,#116] ; [0x1454] = 0x50000200
        0x000013de:    6940        @i      LDR      r0,[r0,#0x14]
        0x000013e0:    210c        .!      MOVS     r1,#0xc
        0x000013e2:    4388        .C      BICS     r0,r0,r1
        0x000013e4:    3008        .0      ADDS     r0,r0,#8
        0x000013e6:    491b        .I      LDR      r1,[pc,#108] ; [0x1454] = 0x50000200
        0x000013e8:    6148        Ha      STR      r0,[r1,#0x14]
        0x000013ea:    4608        .F      MOV      r0,r1
        0x000013ec:    6980        .i      LDR      r0,[r0,#0x18]
        0x000013ee:    21ff        .!      MOVS     r1,#0xff
        0x000013f0:    0409        ..      LSLS     r1,r1,#16
        0x000013f2:    4388        .C      BICS     r0,r0,r1
        0x000013f4:    2101        .!      MOVS     r1,#1
        0x000013f6:    0409        ..      LSLS     r1,r1,#16
        0x000013f8:    1840        @.      ADDS     r0,r0,r1
        0x000013fa:    4916        .I      LDR      r1,[pc,#88] ; [0x1454] = 0x50000200
        0x000013fc:    6188        .a      STR      r0,[r1,#0x18]
        0x000013fe:    4608        .F      MOV      r0,r1
        0x00001400:    6880        .h      LDR      r0,[r0,#8]
        0x00001402:    04c9        ..      LSLS     r1,r1,#19
        0x00001404:    4388        .C      BICS     r0,r0,r1
        0x00001406:    1840        @.      ADDS     r0,r0,r1
        0x00001408:    4912        .I      LDR      r1,[pc,#72] ; [0x1454] = 0x50000200
        0x0000140a:    6088        .`      STR      r0,[r1,#8]
        0x0000140c:    4812        .H      LDR      r0,[pc,#72] ; [0x1458] = 0x400e0000
        0x0000140e:    6a00        .j      LDR      r0,[r0,#0x20]
        0x00001410:    0840        @.      LSRS     r0,r0,#1
        0x00001412:    0040        @.      LSLS     r0,r0,#1
        0x00001414:    1c40        @.      ADDS     r0,r0,#1
        0x00001416:    4910        .I      LDR      r1,[pc,#64] ; [0x1458] = 0x400e0000
        0x00001418:    6208        .b      STR      r0,[r1,#0x20]
        0x0000141a:    4608        .F      MOV      r0,r1
        0x0000141c:    6a00        .j      LDR      r0,[r0,#0x20]
        0x0000141e:    1509        ..      ASRS     r1,r1,#20
        0x00001420:    4388        .C      BICS     r0,r0,r1
        0x00001422:    490d        .I      LDR      r1,[pc,#52] ; [0x1458] = 0x400e0000
        0x00001424:    6208        .b      STR      r0,[r1,#0x20]
        0x00001426:    4608        .F      MOV      r0,r1
        0x00001428:    6a00        .j      LDR      r0,[r0,#0x20]
        0x0000142a:    210c        .!      MOVS     r1,#0xc
        0x0000142c:    4388        .C      BICS     r0,r0,r1
        0x0000142e:    490a        .I      LDR      r1,[pc,#40] ; [0x1458] = 0x400e0000
        0x00001430:    6208        .b      STR      r0,[r1,#0x20]
        0x00001432:    4608        .F      MOV      r0,r1
        0x00001434:    6a40        @j      LDR      r0,[r0,#0x24]
        0x00001436:    0a00        ..      LSRS     r0,r0,#8
        0x00001438:    0200        ..      LSLS     r0,r0,#8
        0x0000143a:    3080        .0      ADDS     r0,r0,#0x80
        0x0000143c:    6248        Hb      STR      r0,[r1,#0x24]
        0x0000143e:    4608        .F      MOV      r0,r1
        0x00001440:    6a00        .j      LDR      r0,[r0,#0x20]
        0x00001442:    2101        .!      MOVS     r1,#1
        0x00001444:    02c9        ..      LSLS     r1,r1,#11
        0x00001446:    4388        .C      BICS     r0,r0,r1
        0x00001448:    1840        @.      ADDS     r0,r0,r1
        0x0000144a:    4903        .I      LDR      r1,[pc,#12] ; [0x1458] = 0x400e0000
        0x0000144c:    6208        .b      STR      r0,[r1,#0x20]
        0x0000144e:    4770        pG      BX       lr
    $d
        0x00001450:    50004000    .@.P    DCD    1342193664
        0x00001454:    50000200    ...P    DCD    1342177792
        0x00001458:    400e0000    ...@    DCD    1074659328
    $t
    i.InitGPIO
    InitGPIO
        0x0000145c:    b510        ..      PUSH     {r4,lr}
        0x0000145e:    2201        ."      MOVS     r2,#1
        0x00001460:    210c        .!      MOVS     r1,#0xc
        0x00001462:    2000        .       MOVS     r0,#0
        0x00001464:    f7fffd2c    ..,.    BL       DrvGPIO_Open ; 0xec0
        0x00001468:    2201        ."      MOVS     r2,#1
        0x0000146a:    210d        .!      MOVS     r1,#0xd
        0x0000146c:    2000        .       MOVS     r0,#0
        0x0000146e:    f7fffd27    ..'.    BL       DrvGPIO_Open ; 0xec0
        0x00001472:    210c        .!      MOVS     r1,#0xc
        0x00001474:    2000        .       MOVS     r0,#0
        0x00001476:    f7fff94d    ..M.    BL       DrvGPIO_ClrBit ; 0x714
        0x0000147a:    210d        .!      MOVS     r1,#0xd
        0x0000147c:    2000        .       MOVS     r0,#0
        0x0000147e:    f7fff949    ..I.    BL       DrvGPIO_ClrBit ; 0x714
        0x00001482:    bd10        ..      POP      {r4,pc}
    i.InitPWM6
    InitPWM6
        0x00001484:    4824        $H      LDR      r0,[pc,#144] ; [0x1518] = 0x50000040
        0x00001486:    6800        .h      LDR      r0,[r0,#0]
        0x00001488:    0840        @.      LSRS     r0,r0,#1
        0x0000148a:    0040        @.      LSLS     r0,r0,#1
        0x0000148c:    1c40        @.      ADDS     r0,r0,#1
        0x0000148e:    4922        "I      LDR      r1,[pc,#136] ; [0x1518] = 0x50000040
        0x00001490:    6008        .`      STR      r0,[r1,#0]
        0x00001492:    4822        "H      LDR      r0,[pc,#136] ; [0x151c] = 0x50000200
        0x00001494:    6880        .h      LDR      r0,[r0,#8]
        0x00001496:    0449        I.      LSLS     r1,r1,#17
        0x00001498:    4388        .C      BICS     r0,r0,r1
        0x0000149a:    1840        @.      ADDS     r0,r0,r1
        0x0000149c:    491f        .I      LDR      r1,[pc,#124] ; [0x151c] = 0x50000200
        0x0000149e:    6088        .`      STR      r0,[r1,#8]
        0x000014a0:    4608        .F      MOV      r0,r1
        0x000014a2:    69c0        .i      LDR      r0,[r0,#0x1c]
        0x000014a4:    21c0        .!      MOVS     r1,#0xc0
        0x000014a6:    4388        .C      BICS     r0,r0,r1
        0x000014a8:    30c0        .0      ADDS     r0,r0,#0xc0
        0x000014aa:    491c        .I      LDR      r1,[pc,#112] ; [0x151c] = 0x50000200
        0x000014ac:    61c8        .a      STR      r0,[r1,#0x1c]
        0x000014ae:    481c        .H      LDR      r0,[pc,#112] ; [0x1520] = 0x40140000
        0x000014b0:    6800        .h      LDR      r0,[r0,#0]
        0x000014b2:    21ff        .!      MOVS     r1,#0xff
        0x000014b4:    0209        ..      LSLS     r1,r1,#8
        0x000014b6:    4388        .C      BICS     r0,r0,r1
        0x000014b8:    30ff        .0      ADDS     r0,r0,#0xff
        0x000014ba:    3001        .0      ADDS     r0,#1
        0x000014bc:    4918        .I      LDR      r1,[pc,#96] ; [0x1520] = 0x40140000
        0x000014be:    6008        .`      STR      r0,[r1,#0]
        0x000014c0:    4608        .F      MOV      r0,r1
        0x000014c2:    6840        @h      LDR      r0,[r0,#4]
        0x000014c4:    2107        .!      MOVS     r1,#7
        0x000014c6:    0209        ..      LSLS     r1,r1,#8
        0x000014c8:    4388        .C      BICS     r0,r0,r1
        0x000014ca:    4915        .I      LDR      r1,[pc,#84] ; [0x1520] = 0x40140000
        0x000014cc:    6048        H`      STR      r0,[r1,#4]
        0x000014ce:    4608        .F      MOV      r0,r1
        0x000014d0:    6880        .h      LDR      r0,[r0,#8]
        0x000014d2:    2101        .!      MOVS     r1,#1
        0x000014d4:    04c9        ..      LSLS     r1,r1,#19
        0x000014d6:    4388        .C      BICS     r0,r0,r1
        0x000014d8:    1840        @.      ADDS     r0,r0,r1
        0x000014da:    4911        .I      LDR      r1,[pc,#68] ; [0x1520] = 0x40140000
        0x000014dc:    6088        .`      STR      r0,[r1,#8]
        0x000014de:    4811        .H      LDR      r0,[pc,#68] ; [0x1524] = 0xffff
        0x000014e0:    6248        Hb      STR      r0,[r1,#0x24]
        0x000014e2:    6288        .b      STR      r0,[r1,#0x28]
        0x000014e4:    4608        .F      MOV      r0,r1
        0x000014e6:    6880        .h      LDR      r0,[r0,#8]
        0x000014e8:    2101        .!      MOVS     r1,#1
        0x000014ea:    0489        ..      LSLS     r1,r1,#18
        0x000014ec:    4388        .C      BICS     r0,r0,r1
        0x000014ee:    490c        .I      LDR      r1,[pc,#48] ; [0x1520] = 0x40140000
        0x000014f0:    6088        .`      STR      r0,[r1,#8]
        0x000014f2:    4608        .F      MOV      r0,r1
        0x000014f4:    6880        .h      LDR      r0,[r0,#8]
        0x000014f6:    2101        .!      MOVS     r1,#1
        0x000014f8:    0409        ..      LSLS     r1,r1,#16
        0x000014fa:    4388        .C      BICS     r0,r0,r1
        0x000014fc:    1840        @.      ADDS     r0,r0,r1
        0x000014fe:    4908        .I      LDR      r1,[pc,#32] ; [0x1520] = 0x40140000
        0x00001500:    6088        .`      STR      r0,[r1,#8]
        0x00001502:    4807        .H      LDR      r0,[pc,#28] ; [0x1520] = 0x40140000
        0x00001504:    3040        @0      ADDS     r0,r0,#0x40
        0x00001506:    6bc0        .k      LDR      r0,[r0,#0x3c]
        0x00001508:    2104        .!      MOVS     r1,#4
        0x0000150a:    4388        .C      BICS     r0,r0,r1
        0x0000150c:    1d00        ..      ADDS     r0,r0,#4
        0x0000150e:    4904        .I      LDR      r1,[pc,#16] ; [0x1520] = 0x40140000
        0x00001510:    3140        @1      ADDS     r1,r1,#0x40
        0x00001512:    63c8        .c      STR      r0,[r1,#0x3c]
        0x00001514:    4770        pG      BX       lr
    $d
        0x00001516:    0000        ..      DCW    0
        0x00001518:    50000040    @..P    DCD    1342177344
        0x0000151c:    50000200    ...P    DCD    1342177792
        0x00001520:    40140000    ...@    DCD    1075052544
        0x00001524:    0000ffff    ....    DCD    65535
    $t
    i.InitTIMER1
    InitTIMER1
        0x00001528:    4821        !H      LDR      r0,[pc,#132] ; [0x15b0] = 0x50000200
        0x0000152a:    6940        @i      LDR      r0,[r0,#0x14]
        0x0000152c:    2107        .!      MOVS     r1,#7
        0x0000152e:    0309        ..      LSLS     r1,r1,#12
        0x00001530:    4388        .C      BICS     r0,r0,r1
        0x00001532:    491f        .I      LDR      r1,[pc,#124] ; [0x15b0] = 0x50000200
        0x00001534:    6148        Ha      STR      r0,[r1,#0x14]
        0x00001536:    4608        .F      MOV      r0,r1
        0x00001538:    6880        .h      LDR      r0,[r0,#8]
        0x0000153a:    2108        .!      MOVS     r1,#8
        0x0000153c:    4388        .C      BICS     r0,r0,r1
        0x0000153e:    3008        .0      ADDS     r0,r0,#8
        0x00001540:    491b        .I      LDR      r1,[pc,#108] ; [0x15b0] = 0x50000200
        0x00001542:    6088        .`      STR      r0,[r1,#8]
        0x00001544:    481b        .H      LDR      r0,[pc,#108] ; [0x15b4] = 0x40010000
        0x00001546:    6a00        .j      LDR      r0,[r0,#0x20]
        0x00001548:    2103        .!      MOVS     r1,#3
        0x0000154a:    06c9        ..      LSLS     r1,r1,#27
        0x0000154c:    4388        .C      BICS     r0,r0,r1
        0x0000154e:    2101        .!      MOVS     r1,#1
        0x00001550:    06c9        ..      LSLS     r1,r1,#27
        0x00001552:    1840        @.      ADDS     r0,r0,r1
        0x00001554:    4917        .I      LDR      r1,[pc,#92] ; [0x15b4] = 0x40010000
        0x00001556:    6208        .b      STR      r0,[r1,#0x20]
        0x00001558:    4608        .F      MOV      r0,r1
        0x0000155a:    6a00        .j      LDR      r0,[r0,#0x20]
        0x0000155c:    0a00        ..      LSRS     r0,r0,#8
        0x0000155e:    0200        ..      LSLS     r0,r0,#8
        0x00001560:    300b        .0      ADDS     r0,r0,#0xb
        0x00001562:    6208        .b      STR      r0,[r1,#0x20]
        0x00001564:    4814        .H      LDR      r0,[pc,#80] ; [0x15b8] = 0xf4240
        0x00001566:    6248        Hb      STR      r0,[r1,#0x24]
        0x00001568:    4608        .F      MOV      r0,r1
        0x0000156a:    6a00        .j      LDR      r0,[r0,#0x20]
        0x0000156c:    0349        I.      LSLS     r1,r1,#13
        0x0000156e:    4388        .C      BICS     r0,r0,r1
        0x00001570:    1840        @.      ADDS     r0,r0,r1
        0x00001572:    4910        .I      LDR      r1,[pc,#64] ; [0x15b4] = 0x40010000
        0x00001574:    6208        .b      STR      r0,[r1,#0x20]
        0x00001576:    4608        .F      MOV      r0,r1
        0x00001578:    6a80        .j      LDR      r0,[r0,#0x28]
        0x0000157a:    0840        @.      LSRS     r0,r0,#1
        0x0000157c:    0040        @.      LSLS     r0,r0,#1
        0x0000157e:    1c40        @.      ADDS     r0,r0,#1
        0x00001580:    6288        .b      STR      r0,[r1,#0x28]
        0x00001582:    2009        .       MOVS     r0,#9
        0x00001584:    2101        .!      MOVS     r1,#1
        0x00001586:    4081        .@      LSLS     r1,r1,r0
        0x00001588:    4a0c        .J      LDR      r2,[pc,#48] ; [0x15bc] = 0xe000e100
        0x0000158a:    6011        .`      STR      r1,[r2,#0]
        0x0000158c:    bf00        ..      NOP      
        0x0000158e:    4809        .H      LDR      r0,[pc,#36] ; [0x15b4] = 0x40010000
        0x00001590:    6a00        .j      LDR      r0,[r0,#0x20]
        0x00001592:    2101        .!      MOVS     r1,#1
        0x00001594:    0689        ..      LSLS     r1,r1,#26
        0x00001596:    4388        .C      BICS     r0,r0,r1
        0x00001598:    1840        @.      ADDS     r0,r0,r1
        0x0000159a:    4906        .I      LDR      r1,[pc,#24] ; [0x15b4] = 0x40010000
        0x0000159c:    6208        .b      STR      r0,[r1,#0x20]
        0x0000159e:    4608        .F      MOV      r0,r1
        0x000015a0:    6a00        .j      LDR      r0,[r0,#0x20]
        0x000015a2:    0389        ..      LSLS     r1,r1,#14
        0x000015a4:    4388        .C      BICS     r0,r0,r1
        0x000015a6:    1840        @.      ADDS     r0,r0,r1
        0x000015a8:    4902        .I      LDR      r1,[pc,#8] ; [0x15b4] = 0x40010000
        0x000015aa:    6208        .b      STR      r0,[r1,#0x20]
        0x000015ac:    4770        pG      BX       lr
    $d
        0x000015ae:    0000        ..      DCW    0
        0x000015b0:    50000200    ...P    DCD    1342177792
        0x000015b4:    40010000    ...@    DCD    1073807360
        0x000015b8:    000f4240    @B..    DCD    1000000
        0x000015bc:    e000e100    ....    DCD    3758153984
    $t
    i.InitTIMER2
    InitTIMER2
        0x000015c0:    4826        &H      LDR      r0,[pc,#152] ; [0x165c] = 0x50000200
        0x000015c2:    6940        @i      LDR      r0,[r0,#0x14]
        0x000015c4:    2107        .!      MOVS     r1,#7
        0x000015c6:    0409        ..      LSLS     r1,r1,#16
        0x000015c8:    4388        .C      BICS     r0,r0,r1
        0x000015ca:    2101        .!      MOVS     r1,#1
        0x000015cc:    0449        I.      LSLS     r1,r1,#17
        0x000015ce:    1840        @.      ADDS     r0,r0,r1
        0x000015d0:    4922        "I      LDR      r1,[pc,#136] ; [0x165c] = 0x50000200
        0x000015d2:    6148        Ha      STR      r0,[r1,#0x14]
        0x000015d4:    4608        .F      MOV      r0,r1
        0x000015d6:    6880        .h      LDR      r0,[r0,#8]
        0x000015d8:    2110        .!      MOVS     r1,#0x10
        0x000015da:    4388        .C      BICS     r0,r0,r1
        0x000015dc:    3010        .0      ADDS     r0,r0,#0x10
        0x000015de:    491f        .I      LDR      r1,[pc,#124] ; [0x165c] = 0x50000200
        0x000015e0:    6088        .`      STR      r0,[r1,#8]
        0x000015e2:    2005        .       MOVS     r0,#5
        0x000015e4:    0700        ..      LSLS     r0,r0,#28
        0x000015e6:    6b40        @k      LDR      r0,[r0,#0x34]
        0x000015e8:    2101        .!      MOVS     r1,#1
        0x000015ea:    0289        ..      LSLS     r1,r1,#10
        0x000015ec:    4388        .C      BICS     r0,r0,r1
        0x000015ee:    1840        @.      ADDS     r0,r0,r1
        0x000015f0:    2105        .!      MOVS     r1,#5
        0x000015f2:    0709        ..      LSLS     r1,r1,#28
        0x000015f4:    6348        Hc      STR      r0,[r1,#0x34]
        0x000015f6:    481a        .H      LDR      r0,[pc,#104] ; [0x1660] = 0x40110000
        0x000015f8:    6940        @i      LDR      r0,[r0,#0x14]
        0x000015fa:    0840        @.      LSRS     r0,r0,#1
        0x000015fc:    0040        @.      LSLS     r0,r0,#1
        0x000015fe:    1c40        @.      ADDS     r0,r0,#1
        0x00001600:    4917        .I      LDR      r1,[pc,#92] ; [0x1660] = 0x40110000
        0x00001602:    6148        Ha      STR      r0,[r1,#0x14]
        0x00001604:    4608        .F      MOV      r0,r1
        0x00001606:    6940        @i      LDR      r0,[r0,#0x14]
        0x00001608:    2180        .!      MOVS     r1,#0x80
        0x0000160a:    4388        .C      BICS     r0,r0,r1
        0x0000160c:    3080        .0      ADDS     r0,r0,#0x80
        0x0000160e:    4914        .I      LDR      r1,[pc,#80] ; [0x1660] = 0x40110000
        0x00001610:    6148        Ha      STR      r0,[r1,#0x14]
        0x00001612:    4608        .F      MOV      r0,r1
        0x00001614:    6800        .h      LDR      r0,[r0,#0]
        0x00001616:    2101        .!      MOVS     r1,#1
        0x00001618:    0609        ..      LSLS     r1,r1,#24
        0x0000161a:    4388        .C      BICS     r0,r0,r1
        0x0000161c:    1840        @.      ADDS     r0,r0,r1
        0x0000161e:    4910        .I      LDR      r1,[pc,#64] ; [0x1660] = 0x40110000
        0x00001620:    6008        .`      STR      r0,[r1,#0]
        0x00001622:    4608        .F      MOV      r0,r1
        0x00001624:    6800        .h      LDR      r0,[r0,#0]
        0x00001626:    0a00        ..      LSRS     r0,r0,#8
        0x00001628:    0200        ..      LSLS     r0,r0,#8
        0x0000162a:    6008        .`      STR      r0,[r1,#0]
        0x0000162c:    4608        .F      MOV      r0,r1
        0x0000162e:    6800        .h      LDR      r0,[r0,#0]
        0x00001630:    2101        .!      MOVS     r1,#1
        0x00001632:    0689        ..      LSLS     r1,r1,#26
        0x00001634:    4388        .C      BICS     r0,r0,r1
        0x00001636:    1840        @.      ADDS     r0,r0,r1
        0x00001638:    4909        .I      LDR      r1,[pc,#36] ; [0x1660] = 0x40110000
        0x0000163a:    6008        .`      STR      r0,[r1,#0]
        0x0000163c:    4608        .F      MOV      r0,r1
        0x0000163e:    6800        .h      LDR      r0,[r0,#0]
        0x00001640:    0389        ..      LSLS     r1,r1,#14
        0x00001642:    4388        .C      BICS     r0,r0,r1
        0x00001644:    1840        @.      ADDS     r0,r0,r1
        0x00001646:    4906        .I      LDR      r1,[pc,#24] ; [0x1660] = 0x40110000
        0x00001648:    6008        .`      STR      r0,[r1,#0]
        0x0000164a:    4608        .F      MOV      r0,r1
        0x0000164c:    6800        .h      LDR      r0,[r0,#0]
        0x0000164e:    2101        .!      MOVS     r1,#1
        0x00001650:    0409        ..      LSLS     r1,r1,#16
        0x00001652:    4388        .C      BICS     r0,r0,r1
        0x00001654:    1840        @.      ADDS     r0,r0,r1
        0x00001656:    4902        .I      LDR      r1,[pc,#8] ; [0x1660] = 0x40110000
        0x00001658:    6008        .`      STR      r0,[r1,#0]
        0x0000165a:    4770        pG      BX       lr
    $d
        0x0000165c:    50000200    ...P    DCD    1342177792
        0x00001660:    40110000    ...@    DCD    1074855936
    $t
    i.Initial_pannel
    Initial_pannel
        0x00001664:    4883        .H      LDR      r0,[pc,#524] ; [0x1874] = 0x50000200
        0x00001666:    6880        .h      LDR      r0,[r0,#8]
        0x00001668:    2101        .!      MOVS     r1,#1
        0x0000166a:    03c9        ..      LSLS     r1,r1,#15
        0x0000166c:    4388        .C      BICS     r0,r0,r1
        0x0000166e:    1840        @.      ADDS     r0,r0,r1
        0x00001670:    4980        .I      LDR      r1,[pc,#512] ; [0x1874] = 0x50000200
        0x00001672:    6088        .`      STR      r0,[r1,#8]
        0x00001674:    2005        .       MOVS     r0,#5
        0x00001676:    0700        ..      LSLS     r0,r0,#28
        0x00001678:    68c0        .h      LDR      r0,[r0,#0xc]
        0x0000167a:    0189        ..      LSLS     r1,r1,#6
        0x0000167c:    4388        .C      BICS     r0,r0,r1
        0x0000167e:    1840        @.      ADDS     r0,r0,r1
        0x00001680:    2105        .!      MOVS     r1,#5
        0x00001682:    0709        ..      LSLS     r1,r1,#28
        0x00001684:    60c8        .`      STR      r0,[r1,#0xc]
        0x00001686:    4608        .F      MOV      r0,r1
        0x00001688:    68c0        .h      LDR      r0,[r0,#0xc]
        0x0000168a:    2101        .!      MOVS     r1,#1
        0x0000168c:    03c9        ..      LSLS     r1,r1,#15
        0x0000168e:    4388        .C      BICS     r0,r0,r1
        0x00001690:    2105        .!      MOVS     r1,#5
        0x00001692:    0709        ..      LSLS     r1,r1,#28
        0x00001694:    60c8        .`      STR      r0,[r1,#0xc]
        0x00001696:    4608        .F      MOV      r0,r1
        0x00001698:    6bc0        .k      LDR      r0,[r0,#0x3c]
        0x0000169a:    21ff        .!      MOVS     r1,#0xff
        0x0000169c:    3101        .1      ADDS     r1,#1
        0x0000169e:    4388        .C      BICS     r0,r0,r1
        0x000016a0:    1840        @.      ADDS     r0,r0,r1
        0x000016a2:    2105        .!      MOVS     r1,#5
        0x000016a4:    0709        ..      LSLS     r1,r1,#28
        0x000016a6:    63c8        .c      STR      r0,[r1,#0x3c]
        0x000016a8:    4608        .F      MOV      r0,r1
        0x000016aa:    6bc0        .k      LDR      r0,[r0,#0x3c]
        0x000016ac:    2101        .!      MOVS     r1,#1
        0x000016ae:    0249        I.      LSLS     r1,r1,#9
        0x000016b0:    4388        .C      BICS     r0,r0,r1
        0x000016b2:    1840        @.      ADDS     r0,r0,r1
        0x000016b4:    2105        .!      MOVS     r1,#5
        0x000016b6:    0709        ..      LSLS     r1,r1,#28
        0x000016b8:    63c8        .c      STR      r0,[r1,#0x3c]
        0x000016ba:    4608        .F      MOV      r0,r1
        0x000016bc:    6bc0        .k      LDR      r0,[r0,#0x3c]
        0x000016be:    2101        .!      MOVS     r1,#1
        0x000016c0:    02c9        ..      LSLS     r1,r1,#11
        0x000016c2:    4388        .C      BICS     r0,r0,r1
        0x000016c4:    1840        @.      ADDS     r0,r0,r1
        0x000016c6:    2105        .!      MOVS     r1,#5
        0x000016c8:    0709        ..      LSLS     r1,r1,#28
        0x000016ca:    63c8        .c      STR      r0,[r1,#0x3c]
        0x000016cc:    486a        jH      LDR      r0,[pc,#424] ; [0x1878] = 0x20000024
        0x000016ce:    68c0        .h      LDR      r0,[r0,#0xc]
        0x000016d0:    6800        .h      LDR      r0,[r0,#0]
        0x000016d2:    2101        .!      MOVS     r1,#1
        0x000016d4:    02c9        ..      LSLS     r1,r1,#11
        0x000016d6:    4388        .C      BICS     r0,r0,r1
        0x000016d8:    1840        @.      ADDS     r0,r0,r1
        0x000016da:    4967        gI      LDR      r1,[pc,#412] ; [0x1878] = 0x20000024
        0x000016dc:    68c9        .h      LDR      r1,[r1,#0xc]
        0x000016de:    6008        .`      STR      r0,[r1,#0]
        0x000016e0:    4865        eH      LDR      r0,[pc,#404] ; [0x1878] = 0x20000024
        0x000016e2:    68c0        .h      LDR      r0,[r0,#0xc]
        0x000016e4:    6800        .h      LDR      r0,[r0,#0]
        0x000016e6:    21f8        .!      MOVS     r1,#0xf8
        0x000016e8:    4388        .C      BICS     r0,r0,r1
        0x000016ea:    3048        H0      ADDS     r0,r0,#0x48
        0x000016ec:    4962        bI      LDR      r1,[pc,#392] ; [0x1878] = 0x20000024
        0x000016ee:    68c9        .h      LDR      r1,[r1,#0xc]
        0x000016f0:    6008        .`      STR      r0,[r1,#0]
        0x000016f2:    4861        aH      LDR      r0,[pc,#388] ; [0x1878] = 0x20000024
        0x000016f4:    68c0        .h      LDR      r0,[r0,#0xc]
        0x000016f6:    6800        .h      LDR      r0,[r0,#0]
        0x000016f8:    2104        .!      MOVS     r1,#4
        0x000016fa:    4388        .C      BICS     r0,r0,r1
        0x000016fc:    1d00        ..      ADDS     r0,r0,#4
        0x000016fe:    495e        ^I      LDR      r1,[pc,#376] ; [0x1878] = 0x20000024
        0x00001700:    68c9        .h      LDR      r1,[r1,#0xc]
        0x00001702:    6008        .`      STR      r0,[r1,#0]
        0x00001704:    485c        \H      LDR      r0,[pc,#368] ; [0x1878] = 0x20000024
        0x00001706:    68c0        .h      LDR      r0,[r0,#0xc]
        0x00001708:    6840        @h      LDR      r0,[r0,#4]
        0x0000170a:    0c00        ..      LSRS     r0,r0,#16
        0x0000170c:    0400        ..      LSLS     r0,r0,#16
        0x0000170e:    1cc0        ..      ADDS     r0,r0,#3
        0x00001710:    4959        YI      LDR      r1,[pc,#356] ; [0x1878] = 0x20000024
        0x00001712:    68c9        .h      LDR      r1,[r1,#0xc]
        0x00001714:    6048        H`      STR      r0,[r1,#4]
        0x00001716:    4858        XH      LDR      r0,[pc,#352] ; [0x1878] = 0x20000024
        0x00001718:    68c0        .h      LDR      r0,[r0,#0xc]
        0x0000171a:    6880        .h      LDR      r0,[r0,#8]
        0x0000171c:    0880        ..      LSRS     r0,r0,#2
        0x0000171e:    0080        ..      LSLS     r0,r0,#2
        0x00001720:    1c40        @.      ADDS     r0,r0,#1
        0x00001722:    4955        UI      LDR      r1,[pc,#340] ; [0x1878] = 0x20000024
        0x00001724:    68c9        .h      LDR      r1,[r1,#0xc]
        0x00001726:    6088        .`      STR      r0,[r1,#8]
        0x00001728:    20eb        .       MOVS     r0,#0xeb
        0x0000172a:    4953        SI      LDR      r1,[pc,#332] ; [0x1878] = 0x20000024
        0x0000172c:    68c9        .h      LDR      r1,[r1,#0xc]
        0x0000172e:    6208        .b      STR      r0,[r1,#0x20]
        0x00001730:    4851        QH      LDR      r0,[pc,#324] ; [0x1878] = 0x20000024
        0x00001732:    68c0        .h      LDR      r0,[r0,#0xc]
        0x00001734:    6800        .h      LDR      r0,[r0,#0]
        0x00001736:    0840        @.      LSRS     r0,r0,#1
        0x00001738:    0040        @.      LSLS     r0,r0,#1
        0x0000173a:    1c40        @.      ADDS     r0,r0,#1
        0x0000173c:    494e        NI      LDR      r1,[pc,#312] ; [0x1878] = 0x20000024
        0x0000173e:    68c9        .h      LDR      r1,[r1,#0xc]
        0x00001740:    6008        .`      STR      r0,[r1,#0]
        0x00001742:    bf00        ..      NOP      
        0x00001744:    484c        LH      LDR      r0,[pc,#304] ; [0x1878] = 0x20000024
        0x00001746:    68c0        .h      LDR      r0,[r0,#0xc]
        0x00001748:    6800        .h      LDR      r0,[r0,#0]
        0x0000174a:    07c0        ..      LSLS     r0,r0,#31
        0x0000174c:    0fc0        ..      LSRS     r0,r0,#31
        0x0000174e:    2801        .(      CMP      r0,#1
        0x00001750:    d0f8        ..      BEQ      0x1744 ; Initial_pannel + 224
        0x00001752:    4849        IH      LDR      r0,[pc,#292] ; [0x1878] = 0x20000024
        0x00001754:    68c0        .h      LDR      r0,[r0,#0xc]
        0x00001756:    6880        .h      LDR      r0,[r0,#8]
        0x00001758:    0880        ..      LSRS     r0,r0,#2
        0x0000175a:    0080        ..      LSLS     r0,r0,#2
        0x0000175c:    4946        FI      LDR      r1,[pc,#280] ; [0x1878] = 0x20000024
        0x0000175e:    68c9        .h      LDR      r1,[r1,#0xc]
        0x00001760:    6088        .`      STR      r0,[r1,#8]
        0x00001762:    4845        EH      LDR      r0,[pc,#276] ; [0x1878] = 0x20000024
        0x00001764:    68c0        .h      LDR      r0,[r0,#0xc]
        0x00001766:    6880        .h      LDR      r0,[r0,#8]
        0x00001768:    0880        ..      LSRS     r0,r0,#2
        0x0000176a:    0080        ..      LSLS     r0,r0,#2
        0x0000176c:    1c40        @.      ADDS     r0,r0,#1
        0x0000176e:    4942        BI      LDR      r1,[pc,#264] ; [0x1878] = 0x20000024
        0x00001770:    68c9        .h      LDR      r1,[r1,#0xc]
        0x00001772:    6088        .`      STR      r0,[r1,#8]
        0x00001774:    2081        .       MOVS     r0,#0x81
        0x00001776:    4940        @I      LDR      r1,[pc,#256] ; [0x1878] = 0x20000024
        0x00001778:    68c9        .h      LDR      r1,[r1,#0xc]
        0x0000177a:    6208        .b      STR      r0,[r1,#0x20]
        0x0000177c:    483e        >H      LDR      r0,[pc,#248] ; [0x1878] = 0x20000024
        0x0000177e:    68c0        .h      LDR      r0,[r0,#0xc]
        0x00001780:    6800        .h      LDR      r0,[r0,#0]
        0x00001782:    0840        @.      LSRS     r0,r0,#1
        0x00001784:    0040        @.      LSLS     r0,r0,#1
        0x00001786:    1c40        @.      ADDS     r0,r0,#1
        0x00001788:    493b        ;I      LDR      r1,[pc,#236] ; [0x1878] = 0x20000024
        0x0000178a:    68c9        .h      LDR      r1,[r1,#0xc]
        0x0000178c:    6008        .`      STR      r0,[r1,#0]
        0x0000178e:    bf00        ..      NOP      
        0x00001790:    4839        9H      LDR      r0,[pc,#228] ; [0x1878] = 0x20000024
        0x00001792:    68c0        .h      LDR      r0,[r0,#0xc]
        0x00001794:    6800        .h      LDR      r0,[r0,#0]
        0x00001796:    07c0        ..      LSLS     r0,r0,#31
        0x00001798:    0fc0        ..      LSRS     r0,r0,#31
        0x0000179a:    2801        .(      CMP      r0,#1
        0x0000179c:    d0f8        ..      BEQ      0x1790 ; Initial_pannel + 300
        0x0000179e:    20a0        .       MOVS     r0,#0xa0
        0x000017a0:    4935        5I      LDR      r1,[pc,#212] ; [0x1878] = 0x20000024
        0x000017a2:    68c9        .h      LDR      r1,[r1,#0xc]
        0x000017a4:    6208        .b      STR      r0,[r1,#0x20]
        0x000017a6:    4834        4H      LDR      r0,[pc,#208] ; [0x1878] = 0x20000024
        0x000017a8:    68c0        .h      LDR      r0,[r0,#0xc]
        0x000017aa:    6800        .h      LDR      r0,[r0,#0]
        0x000017ac:    0840        @.      LSRS     r0,r0,#1
        0x000017ae:    0040        @.      LSLS     r0,r0,#1
        0x000017b0:    1c40        @.      ADDS     r0,r0,#1
        0x000017b2:    4931        1I      LDR      r1,[pc,#196] ; [0x1878] = 0x20000024
        0x000017b4:    68c9        .h      LDR      r1,[r1,#0xc]
        0x000017b6:    6008        .`      STR      r0,[r1,#0]
        0x000017b8:    bf00        ..      NOP      
        0x000017ba:    482f        /H      LDR      r0,[pc,#188] ; [0x1878] = 0x20000024
        0x000017bc:    68c0        .h      LDR      r0,[r0,#0xc]
        0x000017be:    6800        .h      LDR      r0,[r0,#0]
        0x000017c0:    07c0        ..      LSLS     r0,r0,#31
        0x000017c2:    0fc0        ..      LSRS     r0,r0,#31
        0x000017c4:    2801        .(      CMP      r0,#1
        0x000017c6:    d0f8        ..      BEQ      0x17ba ; Initial_pannel + 342
        0x000017c8:    482b        +H      LDR      r0,[pc,#172] ; [0x1878] = 0x20000024
        0x000017ca:    68c0        .h      LDR      r0,[r0,#0xc]
        0x000017cc:    6880        .h      LDR      r0,[r0,#8]
        0x000017ce:    0880        ..      LSRS     r0,r0,#2
        0x000017d0:    0080        ..      LSLS     r0,r0,#2
        0x000017d2:    4929        )I      LDR      r1,[pc,#164] ; [0x1878] = 0x20000024
        0x000017d4:    68c9        .h      LDR      r1,[r1,#0xc]
        0x000017d6:    6088        .`      STR      r0,[r1,#8]
        0x000017d8:    4827        'H      LDR      r0,[pc,#156] ; [0x1878] = 0x20000024
        0x000017da:    68c0        .h      LDR      r0,[r0,#0xc]
        0x000017dc:    6880        .h      LDR      r0,[r0,#8]
        0x000017de:    0880        ..      LSRS     r0,r0,#2
        0x000017e0:    0080        ..      LSLS     r0,r0,#2
        0x000017e2:    1c40        @.      ADDS     r0,r0,#1
        0x000017e4:    4924        $I      LDR      r1,[pc,#144] ; [0x1878] = 0x20000024
        0x000017e6:    68c9        .h      LDR      r1,[r1,#0xc]
        0x000017e8:    6088        .`      STR      r0,[r1,#8]
        0x000017ea:    20c0        .       MOVS     r0,#0xc0
        0x000017ec:    4922        "I      LDR      r1,[pc,#136] ; [0x1878] = 0x20000024
        0x000017ee:    68c9        .h      LDR      r1,[r1,#0xc]
        0x000017f0:    6208        .b      STR      r0,[r1,#0x20]
        0x000017f2:    4821        !H      LDR      r0,[pc,#132] ; [0x1878] = 0x20000024
        0x000017f4:    68c0        .h      LDR      r0,[r0,#0xc]
        0x000017f6:    6800        .h      LDR      r0,[r0,#0]
        0x000017f8:    0840        @.      LSRS     r0,r0,#1
        0x000017fa:    0040        @.      LSLS     r0,r0,#1
        0x000017fc:    1c40        @.      ADDS     r0,r0,#1
        0x000017fe:    491e        .I      LDR      r1,[pc,#120] ; [0x1878] = 0x20000024
        0x00001800:    68c9        .h      LDR      r1,[r1,#0xc]
        0x00001802:    6008        .`      STR      r0,[r1,#0]
        0x00001804:    bf00        ..      NOP      
        0x00001806:    481c        .H      LDR      r0,[pc,#112] ; [0x1878] = 0x20000024
        0x00001808:    68c0        .h      LDR      r0,[r0,#0xc]
        0x0000180a:    6800        .h      LDR      r0,[r0,#0]
        0x0000180c:    07c0        ..      LSLS     r0,r0,#31
        0x0000180e:    0fc0        ..      LSRS     r0,r0,#31
        0x00001810:    2801        .(      CMP      r0,#1
        0x00001812:    d0f8        ..      BEQ      0x1806 ; Initial_pannel + 418
        0x00001814:    4818        .H      LDR      r0,[pc,#96] ; [0x1878] = 0x20000024
        0x00001816:    68c0        .h      LDR      r0,[r0,#0xc]
        0x00001818:    6880        .h      LDR      r0,[r0,#8]
        0x0000181a:    0880        ..      LSRS     r0,r0,#2
        0x0000181c:    0080        ..      LSLS     r0,r0,#2
        0x0000181e:    4916        .I      LDR      r1,[pc,#88] ; [0x1878] = 0x20000024
        0x00001820:    68c9        .h      LDR      r1,[r1,#0xc]
        0x00001822:    6088        .`      STR      r0,[r1,#8]
        0x00001824:    4814        .H      LDR      r0,[pc,#80] ; [0x1878] = 0x20000024
        0x00001826:    68c0        .h      LDR      r0,[r0,#0xc]
        0x00001828:    6880        .h      LDR      r0,[r0,#8]
        0x0000182a:    0880        ..      LSRS     r0,r0,#2
        0x0000182c:    0080        ..      LSLS     r0,r0,#2
        0x0000182e:    1c40        @.      ADDS     r0,r0,#1
        0x00001830:    4911        .I      LDR      r1,[pc,#68] ; [0x1878] = 0x20000024
        0x00001832:    68c9        .h      LDR      r1,[r1,#0xc]
        0x00001834:    6088        .`      STR      r0,[r1,#8]
        0x00001836:    20af        .       MOVS     r0,#0xaf
        0x00001838:    490f        .I      LDR      r1,[pc,#60] ; [0x1878] = 0x20000024
        0x0000183a:    68c9        .h      LDR      r1,[r1,#0xc]
        0x0000183c:    6208        .b      STR      r0,[r1,#0x20]
        0x0000183e:    480e        .H      LDR      r0,[pc,#56] ; [0x1878] = 0x20000024
        0x00001840:    68c0        .h      LDR      r0,[r0,#0xc]
        0x00001842:    6800        .h      LDR      r0,[r0,#0]
        0x00001844:    0840        @.      LSRS     r0,r0,#1
        0x00001846:    0040        @.      LSLS     r0,r0,#1
        0x00001848:    1c40        @.      ADDS     r0,r0,#1
        0x0000184a:    490b        .I      LDR      r1,[pc,#44] ; [0x1878] = 0x20000024
        0x0000184c:    68c9        .h      LDR      r1,[r1,#0xc]
        0x0000184e:    6008        .`      STR      r0,[r1,#0]
        0x00001850:    bf00        ..      NOP      
        0x00001852:    4809        .H      LDR      r0,[pc,#36] ; [0x1878] = 0x20000024
        0x00001854:    68c0        .h      LDR      r0,[r0,#0xc]
        0x00001856:    6800        .h      LDR      r0,[r0,#0]
        0x00001858:    07c0        ..      LSLS     r0,r0,#31
        0x0000185a:    0fc0        ..      LSRS     r0,r0,#31
        0x0000185c:    2801        .(      CMP      r0,#1
        0x0000185e:    d0f8        ..      BEQ      0x1852 ; Initial_pannel + 494
        0x00001860:    4805        .H      LDR      r0,[pc,#20] ; [0x1878] = 0x20000024
        0x00001862:    68c0        .h      LDR      r0,[r0,#0xc]
        0x00001864:    6880        .h      LDR      r0,[r0,#8]
        0x00001866:    0880        ..      LSRS     r0,r0,#2
        0x00001868:    0080        ..      LSLS     r0,r0,#2
        0x0000186a:    4903        .I      LDR      r1,[pc,#12] ; [0x1878] = 0x20000024
        0x0000186c:    68c9        .h      LDR      r1,[r1,#0xc]
        0x0000186e:    6088        .`      STR      r0,[r1,#8]
        0x00001870:    4770        pG      BX       lr
    $d
        0x00001872:    0000        ..      DCW    0
        0x00001874:    50000200    ...P    DCD    1342177792
        0x00001878:    20000024    $..     DCD    536870948
    $t
    i.PWRWU_IRQHandler
    PWRWU_IRQHandler
        0x0000187c:    b510        ..      PUSH     {r4,lr}
        0x0000187e:    4807        .H      LDR      r0,[pc,#28] ; [0x189c] = 0x50000200
        0x00001880:    6800        .h      LDR      r0,[r0,#0]
        0x00001882:    2140        @!      MOVS     r1,#0x40
        0x00001884:    4388        .C      BICS     r0,r0,r1
        0x00001886:    3040        @0      ADDS     r0,r0,#0x40
        0x00001888:    4904        .I      LDR      r1,[pc,#16] ; [0x189c] = 0x50000200
        0x0000188a:    6008        .`      STR      r0,[r1,#0]
        0x0000188c:    4804        .H      LDR      r0,[pc,#16] ; [0x18a0] = 0x20000628
        0x0000188e:    6800        .h      LDR      r0,[r0,#0]
        0x00001890:    2800        .(      CMP      r0,#0
        0x00001892:    d002        ..      BEQ      0x189a ; PWRWU_IRQHandler + 30
        0x00001894:    4802        .H      LDR      r0,[pc,#8] ; [0x18a0] = 0x20000628
        0x00001896:    6800        .h      LDR      r0,[r0,#0]
        0x00001898:    4780        .G      BLX      r0
        0x0000189a:    bd10        ..      POP      {r4,pc}
    $d
        0x0000189c:    50000200    ...P    DCD    1342177792
        0x000018a0:    20000628    (..     DCD    536872488
    $t
    i.SPI0_IRQHandler
    SPI0_IRQHandler
        0x000018a4:    b510        ..      PUSH     {r4,lr}
        0x000018a6:    4816        .H      LDR      r0,[pc,#88] ; [0x1900] = 0x40030000
        0x000018a8:    6800        .h      LDR      r0,[r0,#0]
        0x000018aa:    03c0        ..      LSLS     r0,r0,#15
        0x000018ac:    0fc0        ..      LSRS     r0,r0,#31
        0x000018ae:    2801        .(      CMP      r0,#1
        0x000018b0:    d10f        ..      BNE      0x18d2 ; SPI0_IRQHandler + 46
        0x000018b2:    4813        .H      LDR      r0,[pc,#76] ; [0x1900] = 0x40030000
        0x000018b4:    6800        .h      LDR      r0,[r0,#0]
        0x000018b6:    2101        .!      MOVS     r1,#1
        0x000018b8:    0409        ..      LSLS     r1,r1,#16
        0x000018ba:    4388        .C      BICS     r0,r0,r1
        0x000018bc:    1840        @.      ADDS     r0,r0,r1
        0x000018be:    4910        .I      LDR      r1,[pc,#64] ; [0x1900] = 0x40030000
        0x000018c0:    6008        .`      STR      r0,[r1,#0]
        0x000018c2:    4810        .H      LDR      r0,[pc,#64] ; [0x1904] = 0x20000668
        0x000018c4:    6840        @h      LDR      r0,[r0,#4]
        0x000018c6:    2800        .(      CMP      r0,#0
        0x000018c8:    d003        ..      BEQ      0x18d2 ; SPI0_IRQHandler + 46
        0x000018ca:    4a0e        .J      LDR      r2,[pc,#56] ; [0x1904] = 0x20000668
        0x000018cc:    6890        .h      LDR      r0,[r2,#8]
        0x000018ce:    6851        Qh      LDR      r1,[r2,#4]
        0x000018d0:    4788        .G      BLX      r1
        0x000018d2:    480b        .H      LDR      r0,[pc,#44] ; [0x1900] = 0x40030000
        0x000018d4:    6bc0        .k      LDR      r0,[r0,#0x3c]
        0x000018d6:    0500        ..      LSLS     r0,r0,#20
        0x000018d8:    0fc0        ..      LSRS     r0,r0,#31
        0x000018da:    2801        .(      CMP      r0,#1
        0x000018dc:    d10f        ..      BNE      0x18fe ; SPI0_IRQHandler + 90
        0x000018de:    4808        .H      LDR      r0,[pc,#32] ; [0x1900] = 0x40030000
        0x000018e0:    6bc0        .k      LDR      r0,[r0,#0x3c]
        0x000018e2:    2101        .!      MOVS     r1,#1
        0x000018e4:    02c9        ..      LSLS     r1,r1,#11
        0x000018e6:    4388        .C      BICS     r0,r0,r1
        0x000018e8:    1840        @.      ADDS     r0,r0,r1
        0x000018ea:    4905        .I      LDR      r1,[pc,#20] ; [0x1900] = 0x40030000
        0x000018ec:    63c8        .c      STR      r0,[r1,#0x3c]
        0x000018ee:    4805        .H      LDR      r0,[pc,#20] ; [0x1904] = 0x20000668
        0x000018f0:    68c0        .h      LDR      r0,[r0,#0xc]
        0x000018f2:    2800        .(      CMP      r0,#0
        0x000018f4:    d003        ..      BEQ      0x18fe ; SPI0_IRQHandler + 90
        0x000018f6:    4a03        .J      LDR      r2,[pc,#12] ; [0x1904] = 0x20000668
        0x000018f8:    6910        .i      LDR      r0,[r2,#0x10]
        0x000018fa:    68d1        .h      LDR      r1,[r2,#0xc]
        0x000018fc:    4788        .G      BLX      r1
        0x000018fe:    bd10        ..      POP      {r4,pc}
    $d
        0x00001900:    40030000    ...@    DCD    1073938432
        0x00001904:    20000668    h..     DCD    536872552
    $t
    i.SPI1_IRQHandler
    SPI1_IRQHandler
        0x00001908:    b510        ..      PUSH     {r4,lr}
        0x0000190a:    4816        .H      LDR      r0,[pc,#88] ; [0x1964] = 0x40034000
        0x0000190c:    6800        .h      LDR      r0,[r0,#0]
        0x0000190e:    03c0        ..      LSLS     r0,r0,#15
        0x00001910:    0fc0        ..      LSRS     r0,r0,#31
        0x00001912:    2801        .(      CMP      r0,#1
        0x00001914:    d10f        ..      BNE      0x1936 ; SPI1_IRQHandler + 46
        0x00001916:    4813        .H      LDR      r0,[pc,#76] ; [0x1964] = 0x40034000
        0x00001918:    6800        .h      LDR      r0,[r0,#0]
        0x0000191a:    2101        .!      MOVS     r1,#1
        0x0000191c:    0409        ..      LSLS     r1,r1,#16
        0x0000191e:    4388        .C      BICS     r0,r0,r1
        0x00001920:    1840        @.      ADDS     r0,r0,r1
        0x00001922:    4910        .I      LDR      r1,[pc,#64] ; [0x1964] = 0x40034000
        0x00001924:    6008        .`      STR      r0,[r1,#0]
        0x00001926:    4810        .H      LDR      r0,[pc,#64] ; [0x1968] = 0x20000668
        0x00001928:    6980        .i      LDR      r0,[r0,#0x18]
        0x0000192a:    2800        .(      CMP      r0,#0
        0x0000192c:    d003        ..      BEQ      0x1936 ; SPI1_IRQHandler + 46
        0x0000192e:    4a0e        .J      LDR      r2,[pc,#56] ; [0x1968] = 0x20000668
        0x00001930:    69d0        .i      LDR      r0,[r2,#0x1c]
        0x00001932:    6991        .i      LDR      r1,[r2,#0x18]
        0x00001934:    4788        .G      BLX      r1
        0x00001936:    480b        .H      LDR      r0,[pc,#44] ; [0x1964] = 0x40034000
        0x00001938:    6bc0        .k      LDR      r0,[r0,#0x3c]
        0x0000193a:    0500        ..      LSLS     r0,r0,#20
        0x0000193c:    0fc0        ..      LSRS     r0,r0,#31
        0x0000193e:    2801        .(      CMP      r0,#1
        0x00001940:    d10f        ..      BNE      0x1962 ; SPI1_IRQHandler + 90
        0x00001942:    4808        .H      LDR      r0,[pc,#32] ; [0x1964] = 0x40034000
        0x00001944:    6bc0        .k      LDR      r0,[r0,#0x3c]
        0x00001946:    2101        .!      MOVS     r1,#1
        0x00001948:    02c9        ..      LSLS     r1,r1,#11
        0x0000194a:    4388        .C      BICS     r0,r0,r1
        0x0000194c:    1840        @.      ADDS     r0,r0,r1
        0x0000194e:    4905        .I      LDR      r1,[pc,#20] ; [0x1964] = 0x40034000
        0x00001950:    63c8        .c      STR      r0,[r1,#0x3c]
        0x00001952:    4805        .H      LDR      r0,[pc,#20] ; [0x1968] = 0x20000668
        0x00001954:    6a00        .j      LDR      r0,[r0,#0x20]
        0x00001956:    2800        .(      CMP      r0,#0
        0x00001958:    d003        ..      BEQ      0x1962 ; SPI1_IRQHandler + 90
        0x0000195a:    4a03        .J      LDR      r2,[pc,#12] ; [0x1968] = 0x20000668
        0x0000195c:    6a50        Pj      LDR      r0,[r2,#0x24]
        0x0000195e:    6a11        .j      LDR      r1,[r2,#0x20]
        0x00001960:    4788        .G      BLX      r1
        0x00001962:    bd10        ..      POP      {r4,pc}
    $d
        0x00001964:    40034000    .@.@    DCD    1073954816
        0x00001968:    20000668    h..     DCD    536872552
    $t
    i.SPI2_IRQHandler
    SPI2_IRQHandler
        0x0000196c:    b510        ..      PUSH     {r4,lr}
        0x0000196e:    4816        .H      LDR      r0,[pc,#88] ; [0x19c8] = 0x40130000
        0x00001970:    6800        .h      LDR      r0,[r0,#0]
        0x00001972:    03c0        ..      LSLS     r0,r0,#15
        0x00001974:    0fc0        ..      LSRS     r0,r0,#31
        0x00001976:    2801        .(      CMP      r0,#1
        0x00001978:    d10f        ..      BNE      0x199a ; SPI2_IRQHandler + 46
        0x0000197a:    4813        .H      LDR      r0,[pc,#76] ; [0x19c8] = 0x40130000
        0x0000197c:    6800        .h      LDR      r0,[r0,#0]
        0x0000197e:    2101        .!      MOVS     r1,#1
        0x00001980:    0409        ..      LSLS     r1,r1,#16
        0x00001982:    4388        .C      BICS     r0,r0,r1
        0x00001984:    1840        @.      ADDS     r0,r0,r1
        0x00001986:    4910        .I      LDR      r1,[pc,#64] ; [0x19c8] = 0x40130000
        0x00001988:    6008        .`      STR      r0,[r1,#0]
        0x0000198a:    4810        .H      LDR      r0,[pc,#64] ; [0x19cc] = 0x20000668
        0x0000198c:    6ac0        .j      LDR      r0,[r0,#0x2c]
        0x0000198e:    2800        .(      CMP      r0,#0
        0x00001990:    d003        ..      BEQ      0x199a ; SPI2_IRQHandler + 46
        0x00001992:    4a0e        .J      LDR      r2,[pc,#56] ; [0x19cc] = 0x20000668
        0x00001994:    6b10        .k      LDR      r0,[r2,#0x30]
        0x00001996:    6ad1        .j      LDR      r1,[r2,#0x2c]
        0x00001998:    4788        .G      BLX      r1
        0x0000199a:    480b        .H      LDR      r0,[pc,#44] ; [0x19c8] = 0x40130000
        0x0000199c:    6bc0        .k      LDR      r0,[r0,#0x3c]
        0x0000199e:    0500        ..      LSLS     r0,r0,#20
        0x000019a0:    0fc0        ..      LSRS     r0,r0,#31
        0x000019a2:    2801        .(      CMP      r0,#1
        0x000019a4:    d10f        ..      BNE      0x19c6 ; SPI2_IRQHandler + 90
        0x000019a6:    4808        .H      LDR      r0,[pc,#32] ; [0x19c8] = 0x40130000
        0x000019a8:    6bc0        .k      LDR      r0,[r0,#0x3c]
        0x000019aa:    2101        .!      MOVS     r1,#1
        0x000019ac:    02c9        ..      LSLS     r1,r1,#11
        0x000019ae:    4388        .C      BICS     r0,r0,r1
        0x000019b0:    1840        @.      ADDS     r0,r0,r1
        0x000019b2:    4905        .I      LDR      r1,[pc,#20] ; [0x19c8] = 0x40130000
        0x000019b4:    63c8        .c      STR      r0,[r1,#0x3c]
        0x000019b6:    4805        .H      LDR      r0,[pc,#20] ; [0x19cc] = 0x20000668
        0x000019b8:    6b40        @k      LDR      r0,[r0,#0x34]
        0x000019ba:    2800        .(      CMP      r0,#0
        0x000019bc:    d003        ..      BEQ      0x19c6 ; SPI2_IRQHandler + 90
        0x000019be:    4a03        .J      LDR      r2,[pc,#12] ; [0x19cc] = 0x20000668
        0x000019c0:    6b90        .k      LDR      r0,[r2,#0x38]
        0x000019c2:    6b51        Qk      LDR      r1,[r2,#0x34]
        0x000019c4:    4788        .G      BLX      r1
        0x000019c6:    bd10        ..      POP      {r4,pc}
    $d
        0x000019c8:    40130000    ...@    DCD    1074987008
        0x000019cc:    20000668    h..     DCD    536872552
    $t
    i.SPI3_IRQHandler
    SPI3_IRQHandler
        0x000019d0:    b510        ..      PUSH     {r4,lr}
        0x000019d2:    4816        .H      LDR      r0,[pc,#88] ; [0x1a2c] = 0x40134000
        0x000019d4:    6800        .h      LDR      r0,[r0,#0]
        0x000019d6:    03c0        ..      LSLS     r0,r0,#15
        0x000019d8:    0fc0        ..      LSRS     r0,r0,#31
        0x000019da:    2801        .(      CMP      r0,#1
        0x000019dc:    d10f        ..      BNE      0x19fe ; SPI3_IRQHandler + 46
        0x000019de:    4813        .H      LDR      r0,[pc,#76] ; [0x1a2c] = 0x40134000
        0x000019e0:    6800        .h      LDR      r0,[r0,#0]
        0x000019e2:    2101        .!      MOVS     r1,#1
        0x000019e4:    0409        ..      LSLS     r1,r1,#16
        0x000019e6:    4388        .C      BICS     r0,r0,r1
        0x000019e8:    1840        @.      ADDS     r0,r0,r1
        0x000019ea:    4910        .I      LDR      r1,[pc,#64] ; [0x1a2c] = 0x40134000
        0x000019ec:    6008        .`      STR      r0,[r1,#0]
        0x000019ee:    4810        .H      LDR      r0,[pc,#64] ; [0x1a30] = 0x20000668
        0x000019f0:    6c00        .l      LDR      r0,[r0,#0x40]
        0x000019f2:    2800        .(      CMP      r0,#0
        0x000019f4:    d003        ..      BEQ      0x19fe ; SPI3_IRQHandler + 46
        0x000019f6:    4a0e        .J      LDR      r2,[pc,#56] ; [0x1a30] = 0x20000668
        0x000019f8:    6c50        Pl      LDR      r0,[r2,#0x44]
        0x000019fa:    6c11        .l      LDR      r1,[r2,#0x40]
        0x000019fc:    4788        .G      BLX      r1
        0x000019fe:    480b        .H      LDR      r0,[pc,#44] ; [0x1a2c] = 0x40134000
        0x00001a00:    6bc0        .k      LDR      r0,[r0,#0x3c]
        0x00001a02:    0500        ..      LSLS     r0,r0,#20
        0x00001a04:    0fc0        ..      LSRS     r0,r0,#31
        0x00001a06:    2801        .(      CMP      r0,#1
        0x00001a08:    d10f        ..      BNE      0x1a2a ; SPI3_IRQHandler + 90
        0x00001a0a:    4808        .H      LDR      r0,[pc,#32] ; [0x1a2c] = 0x40134000
        0x00001a0c:    6bc0        .k      LDR      r0,[r0,#0x3c]
        0x00001a0e:    2101        .!      MOVS     r1,#1
        0x00001a10:    02c9        ..      LSLS     r1,r1,#11
        0x00001a12:    4388        .C      BICS     r0,r0,r1
        0x00001a14:    1840        @.      ADDS     r0,r0,r1
        0x00001a16:    4905        .I      LDR      r1,[pc,#20] ; [0x1a2c] = 0x40134000
        0x00001a18:    63c8        .c      STR      r0,[r1,#0x3c]
        0x00001a1a:    4805        .H      LDR      r0,[pc,#20] ; [0x1a30] = 0x20000668
        0x00001a1c:    6c80        .l      LDR      r0,[r0,#0x48]
        0x00001a1e:    2800        .(      CMP      r0,#0
        0x00001a20:    d003        ..      BEQ      0x1a2a ; SPI3_IRQHandler + 90
        0x00001a22:    4a03        .J      LDR      r2,[pc,#12] ; [0x1a30] = 0x20000668
        0x00001a24:    6cd0        .l      LDR      r0,[r2,#0x4c]
        0x00001a26:    6c91        .l      LDR      r1,[r2,#0x48]
        0x00001a28:    4788        .G      BLX      r1
        0x00001a2a:    bd10        ..      POP      {r4,pc}
    $d
        0x00001a2c:    40134000    .@.@    DCD    1075003392
        0x00001a30:    20000668    h..     DCD    536872552
    $t
    i.Scankey
    Scankey
        0x00001a34:    b5f8        ..      PUSH     {r3-r7,lr}
        0x00001a36:    481f        .H      LDR      r0,[pc,#124] ; [0x1ab4] = 0x20e0
        0x00001a38:    6800        .h      LDR      r0,[r0,#0]
        0x00001a3a:    9000        ..      STR      r0,[sp,#0]
        0x00001a3c:    2400        .$      MOVS     r4,#0
        0x00001a3e:    e034        4.      B        0x1aaa ; Scankey + 118
        0x00001a40:    4668        hF      MOV      r0,sp
        0x00001a42:    5d06        .]      LDRB     r6,[r0,r4]
        0x00001a44:    2500        .%      MOVS     r5,#0
        0x00001a46:    e00f        ..      B        0x1a68 ; Scankey + 52
        0x00001a48:    07f0        ..      LSLS     r0,r6,#31
        0x00001a4a:    0fc0        ..      LSRS     r0,r0,#31
        0x00001a4c:    2801        .(      CMP      r0,#1
        0x00001a4e:    d104        ..      BNE      0x1a5a ; Scankey + 38
        0x00001a50:    4629        )F      MOV      r1,r5
        0x00001a52:    2000        .       MOVS     r0,#0
        0x00001a54:    f7fffa70    ..p.    BL       DrvGPIO_SetBit ; 0xf38
        0x00001a58:    e003        ..      B        0x1a62 ; Scankey + 46
        0x00001a5a:    4629        )F      MOV      r1,r5
        0x00001a5c:    2000        .       MOVS     r0,#0
        0x00001a5e:    f7fefe59    ..Y.    BL       DrvGPIO_ClrBit ; 0x714
        0x00001a62:    1076        v.      ASRS     r6,r6,#1
        0x00001a64:    1c68        h.      ADDS     r0,r5,#1
        0x00001a66:    b2c5        ..      UXTB     r5,r0
        0x00001a68:    2d06        .-      CMP      r5,#6
        0x00001a6a:    dbed        ..      BLT      0x1a48 ; Scankey + 20
        0x00001a6c:    f000fa4b    ..K.    BL       delay ; 0x1f06
        0x00001a70:    2103        .!      MOVS     r1,#3
        0x00001a72:    2000        .       MOVS     r0,#0
        0x00001a74:    f7fefe64    ..d.    BL       DrvGPIO_GetBit ; 0x740
        0x00001a78:    2800        .(      CMP      r0,#0
        0x00001a7a:    d102        ..      BNE      0x1a82 ; Scankey + 78
        0x00001a7c:    1c60        `.      ADDS     r0,r4,#1
        0x00001a7e:    b2c0        ..      UXTB     r0,r0
        0x00001a80:    bdf8        ..      POP      {r3-r7,pc}
        0x00001a82:    2104        .!      MOVS     r1,#4
        0x00001a84:    2000        .       MOVS     r0,#0
        0x00001a86:    f7fefe5b    ..[.    BL       DrvGPIO_GetBit ; 0x740
        0x00001a8a:    2800        .(      CMP      r0,#0
        0x00001a8c:    d102        ..      BNE      0x1a94 ; Scankey + 96
        0x00001a8e:    1d20         .      ADDS     r0,r4,#4
        0x00001a90:    b2c0        ..      UXTB     r0,r0
        0x00001a92:    e7f5        ..      B        0x1a80 ; Scankey + 76
        0x00001a94:    2105        .!      MOVS     r1,#5
        0x00001a96:    2000        .       MOVS     r0,#0
        0x00001a98:    f7fefe52    ..R.    BL       DrvGPIO_GetBit ; 0x740
        0x00001a9c:    2800        .(      CMP      r0,#0
        0x00001a9e:    d102        ..      BNE      0x1aa6 ; Scankey + 114
        0x00001aa0:    1de0        ..      ADDS     r0,r4,#7
        0x00001aa2:    b2c0        ..      UXTB     r0,r0
        0x00001aa4:    e7ec        ..      B        0x1a80 ; Scankey + 76
        0x00001aa6:    1c60        `.      ADDS     r0,r4,#1
        0x00001aa8:    b2c4        ..      UXTB     r4,r0
        0x00001aaa:    2c03        .,      CMP      r4,#3
        0x00001aac:    dbc8        ..      BLT      0x1a40 ; Scankey + 12
        0x00001aae:    2000        .       MOVS     r0,#0
        0x00001ab0:    e7e6        ..      B        0x1a80 ; Scankey + 76
    $d
        0x00001ab2:    0000        ..      DCW    0
        0x00001ab4:    000020e0    . ..    DCD    8416
    $t
    i.SetPACA
    SetPACA
        0x00001ab8:    4a3b        ;J      LDR      r2,[pc,#236] ; [0x1ba8] = 0x20000024
        0x00001aba:    68d2        .h      LDR      r2,[r2,#0xc]
        0x00001abc:    6892        .h      LDR      r2,[r2,#8]
        0x00001abe:    0892        ..      LSRS     r2,r2,#2
        0x00001ac0:    0092        ..      LSLS     r2,r2,#2
        0x00001ac2:    1c52        R.      ADDS     r2,r2,#1
        0x00001ac4:    4b38        8K      LDR      r3,[pc,#224] ; [0x1ba8] = 0x20000024
        0x00001ac6:    68db        .h      LDR      r3,[r3,#0xc]
        0x00001ac8:    609a        .`      STR      r2,[r3,#8]
        0x00001aca:    22b0        ."      MOVS     r2,#0xb0
        0x00001acc:    4302        .C      ORRS     r2,r2,r0
        0x00001ace:    4b36        6K      LDR      r3,[pc,#216] ; [0x1ba8] = 0x20000024
        0x00001ad0:    68db        .h      LDR      r3,[r3,#0xc]
        0x00001ad2:    621a        .b      STR      r2,[r3,#0x20]
        0x00001ad4:    4a34        4J      LDR      r2,[pc,#208] ; [0x1ba8] = 0x20000024
        0x00001ad6:    68d2        .h      LDR      r2,[r2,#0xc]
        0x00001ad8:    6812        .h      LDR      r2,[r2,#0]
        0x00001ada:    0852        R.      LSRS     r2,r2,#1
        0x00001adc:    0052        R.      LSLS     r2,r2,#1
        0x00001ade:    1c52        R.      ADDS     r2,r2,#1
        0x00001ae0:    4b31        1K      LDR      r3,[pc,#196] ; [0x1ba8] = 0x20000024
        0x00001ae2:    68db        .h      LDR      r3,[r3,#0xc]
        0x00001ae4:    601a        .`      STR      r2,[r3,#0]
        0x00001ae6:    bf00        ..      NOP      
        0x00001ae8:    4a2f        /J      LDR      r2,[pc,#188] ; [0x1ba8] = 0x20000024
        0x00001aea:    68d2        .h      LDR      r2,[r2,#0xc]
        0x00001aec:    6812        .h      LDR      r2,[r2,#0]
        0x00001aee:    07d2        ..      LSLS     r2,r2,#31
        0x00001af0:    0fd2        ..      LSRS     r2,r2,#31
        0x00001af2:    2a01        .*      CMP      r2,#1
        0x00001af4:    d0f8        ..      BEQ      0x1ae8 ; SetPACA + 48
        0x00001af6:    4a2c        ,J      LDR      r2,[pc,#176] ; [0x1ba8] = 0x20000024
        0x00001af8:    68d2        .h      LDR      r2,[r2,#0xc]
        0x00001afa:    6892        .h      LDR      r2,[r2,#8]
        0x00001afc:    0892        ..      LSRS     r2,r2,#2
        0x00001afe:    0092        ..      LSLS     r2,r2,#2
        0x00001b00:    4b29        )K      LDR      r3,[pc,#164] ; [0x1ba8] = 0x20000024
        0x00001b02:    68db        .h      LDR      r3,[r3,#0xc]
        0x00001b04:    609a        .`      STR      r2,[r3,#8]
        0x00001b06:    4a28        (J      LDR      r2,[pc,#160] ; [0x1ba8] = 0x20000024
        0x00001b08:    68d2        .h      LDR      r2,[r2,#0xc]
        0x00001b0a:    6892        .h      LDR      r2,[r2,#8]
        0x00001b0c:    0892        ..      LSRS     r2,r2,#2
        0x00001b0e:    0092        ..      LSLS     r2,r2,#2
        0x00001b10:    1c52        R.      ADDS     r2,r2,#1
        0x00001b12:    4b25        %K      LDR      r3,[pc,#148] ; [0x1ba8] = 0x20000024
        0x00001b14:    68db        .h      LDR      r3,[r3,#0xc]
        0x00001b16:    609a        .`      STR      r2,[r3,#8]
        0x00001b18:    110a        ..      ASRS     r2,r1,#4
        0x00001b1a:    2310        .#      MOVS     r3,#0x10
        0x00001b1c:    431a        .C      ORRS     r2,r2,r3
        0x00001b1e:    4b22        "K      LDR      r3,[pc,#136] ; [0x1ba8] = 0x20000024
        0x00001b20:    68db        .h      LDR      r3,[r3,#0xc]
        0x00001b22:    621a        .b      STR      r2,[r3,#0x20]
        0x00001b24:    4a20         J      LDR      r2,[pc,#128] ; [0x1ba8] = 0x20000024
        0x00001b26:    68d2        .h      LDR      r2,[r2,#0xc]
        0x00001b28:    6812        .h      LDR      r2,[r2,#0]
        0x00001b2a:    0852        R.      LSRS     r2,r2,#1
        0x00001b2c:    0052        R.      LSLS     r2,r2,#1
        0x00001b2e:    1c52        R.      ADDS     r2,r2,#1
        0x00001b30:    4b1d        .K      LDR      r3,[pc,#116] ; [0x1ba8] = 0x20000024
        0x00001b32:    68db        .h      LDR      r3,[r3,#0xc]
        0x00001b34:    601a        .`      STR      r2,[r3,#0]
        0x00001b36:    bf00        ..      NOP      
        0x00001b38:    4a1b        .J      LDR      r2,[pc,#108] ; [0x1ba8] = 0x20000024
        0x00001b3a:    68d2        .h      LDR      r2,[r2,#0xc]
        0x00001b3c:    6812        .h      LDR      r2,[r2,#0]
        0x00001b3e:    07d2        ..      LSLS     r2,r2,#31
        0x00001b40:    0fd2        ..      LSRS     r2,r2,#31
        0x00001b42:    2a01        .*      CMP      r2,#1
        0x00001b44:    d0f8        ..      BEQ      0x1b38 ; SetPACA + 128
        0x00001b46:    4a18        .J      LDR      r2,[pc,#96] ; [0x1ba8] = 0x20000024
        0x00001b48:    68d2        .h      LDR      r2,[r2,#0xc]
        0x00001b4a:    6892        .h      LDR      r2,[r2,#8]
        0x00001b4c:    0892        ..      LSRS     r2,r2,#2
        0x00001b4e:    0092        ..      LSLS     r2,r2,#2
        0x00001b50:    4b15        .K      LDR      r3,[pc,#84] ; [0x1ba8] = 0x20000024
        0x00001b52:    68db        .h      LDR      r3,[r3,#0xc]
        0x00001b54:    609a        .`      STR      r2,[r3,#8]
        0x00001b56:    4a14        .J      LDR      r2,[pc,#80] ; [0x1ba8] = 0x20000024
        0x00001b58:    68d2        .h      LDR      r2,[r2,#0xc]
        0x00001b5a:    6892        .h      LDR      r2,[r2,#8]
        0x00001b5c:    0892        ..      LSRS     r2,r2,#2
        0x00001b5e:    0092        ..      LSLS     r2,r2,#2
        0x00001b60:    1c52        R.      ADDS     r2,r2,#1
        0x00001b62:    4b11        .K      LDR      r3,[pc,#68] ; [0x1ba8] = 0x20000024
        0x00001b64:    68db        .h      LDR      r3,[r3,#0xc]
        0x00001b66:    609a        .`      STR      r2,[r3,#8]
        0x00001b68:    070a        ..      LSLS     r2,r1,#28
        0x00001b6a:    0f12        ..      LSRS     r2,r2,#28
        0x00001b6c:    4b0e        .K      LDR      r3,[pc,#56] ; [0x1ba8] = 0x20000024
        0x00001b6e:    68db        .h      LDR      r3,[r3,#0xc]
        0x00001b70:    621a        .b      STR      r2,[r3,#0x20]
        0x00001b72:    4a0d        .J      LDR      r2,[pc,#52] ; [0x1ba8] = 0x20000024
        0x00001b74:    68d2        .h      LDR      r2,[r2,#0xc]
        0x00001b76:    6812        .h      LDR      r2,[r2,#0]
        0x00001b78:    0852        R.      LSRS     r2,r2,#1
        0x00001b7a:    0052        R.      LSLS     r2,r2,#1
        0x00001b7c:    1c52        R.      ADDS     r2,r2,#1
        0x00001b7e:    4b0a        .K      LDR      r3,[pc,#40] ; [0x1ba8] = 0x20000024
        0x00001b80:    68db        .h      LDR      r3,[r3,#0xc]
        0x00001b82:    601a        .`      STR      r2,[r3,#0]
        0x00001b84:    bf00        ..      NOP      
        0x00001b86:    4a08        .J      LDR      r2,[pc,#32] ; [0x1ba8] = 0x20000024
        0x00001b88:    68d2        .h      LDR      r2,[r2,#0xc]
        0x00001b8a:    6812        .h      LDR      r2,[r2,#0]
        0x00001b8c:    07d2        ..      LSLS     r2,r2,#31
        0x00001b8e:    0fd2        ..      LSRS     r2,r2,#31
        0x00001b90:    2a01        .*      CMP      r2,#1
        0x00001b92:    d0f8        ..      BEQ      0x1b86 ; SetPACA + 206
        0x00001b94:    4a04        .J      LDR      r2,[pc,#16] ; [0x1ba8] = 0x20000024
        0x00001b96:    68d2        .h      LDR      r2,[r2,#0xc]
        0x00001b98:    6892        .h      LDR      r2,[r2,#8]
        0x00001b9a:    0892        ..      LSRS     r2,r2,#2
        0x00001b9c:    0092        ..      LSLS     r2,r2,#2
        0x00001b9e:    4b02        .K      LDR      r3,[pc,#8] ; [0x1ba8] = 0x20000024
        0x00001ba0:    68db        .h      LDR      r3,[r3,#0xc]
        0x00001ba2:    609a        .`      STR      r2,[r3,#8]
        0x00001ba4:    4770        pG      BX       lr
    $d
        0x00001ba6:    0000        ..      DCW    0
        0x00001ba8:    20000024    $..     DCD    536870948
    $t
    i.Show_Word
    Show_Word
        0x00001bac:    b5fc        ..      PUSH     {r2-r7,lr}
        0x00001bae:    4605        .F      MOV      r5,r0
        0x00001bb0:    460e        .F      MOV      r6,r1
        0x00001bb2:    4617        .F      MOV      r7,r2
        0x00001bb4:    2400        .$      MOVS     r4,#0
        0x00001bb6:    2000        .       MOVS     r0,#0
        0x00001bb8:    9001        ..      STR      r0,[sp,#4]
        0x00001bba:    4638        8F      MOV      r0,r7
        0x00001bbc:    3820         8      SUBS     r0,r0,#0x20
        0x00001bbe:    0100        ..      LSLS     r0,r0,#4
        0x00001bc0:    9001        ..      STR      r0,[sp,#4]
        0x00001bc2:    bf00        ..      NOP      
        0x00001bc4:    e011        ..      B        0x1bea ; Show_Word + 62
        0x00001bc6:    00f2        ..      LSLS     r2,r6,#3
        0x00001bc8:    2381        .#      MOVS     r3,#0x81
        0x00001bca:    1a9a        ..      SUBS     r2,r3,r2
        0x00001bcc:    1b12        ..      SUBS     r2,r2,r4
        0x00001bce:    b2d1        ..      UXTB     r1,r2
        0x00001bd0:    066a        j.      LSLS     r2,r5,#25
        0x00001bd2:    0e10        ..      LSRS     r0,r2,#24
        0x00001bd4:    f7ffff70    ..p.    BL       SetPACA ; 0x1ab8
        0x00001bd8:    9801        ..      LDR      r0,[sp,#4]
        0x00001bda:    1900        ..      ADDS     r0,r0,r4
        0x00001bdc:    4910        .I      LDR      r1,[pc,#64] ; [0x1c20] = 0x20000034
        0x00001bde:    5c08        .\      LDRB     r0,[r1,r0]
        0x00001be0:    9000        ..      STR      r0,[sp,#0]
        0x00001be2:    9800        ..      LDR      r0,[sp,#0]
        0x00001be4:    f000f8ea    ....    BL       WriteData ; 0x1dbc
        0x00001be8:    1c64        d.      ADDS     r4,r4,#1
        0x00001bea:    2c08        .,      CMP      r4,#8
        0x00001bec:    dbeb        ..      BLT      0x1bc6 ; Show_Word + 26
        0x00001bee:    2400        .$      MOVS     r4,#0
        0x00001bf0:    e013        ..      B        0x1c1a ; Show_Word + 110
        0x00001bf2:    00f2        ..      LSLS     r2,r6,#3
        0x00001bf4:    2381        .#      MOVS     r3,#0x81
        0x00001bf6:    1a9a        ..      SUBS     r2,r3,r2
        0x00001bf8:    1b12        ..      SUBS     r2,r2,r4
        0x00001bfa:    b2d1        ..      UXTB     r1,r2
        0x00001bfc:    006a        j.      LSLS     r2,r5,#1
        0x00001bfe:    1c52        R.      ADDS     r2,r2,#1
        0x00001c00:    b2d0        ..      UXTB     r0,r2
        0x00001c02:    f7ffff59    ..Y.    BL       SetPACA ; 0x1ab8
        0x00001c06:    9801        ..      LDR      r0,[sp,#4]
        0x00001c08:    1900        ..      ADDS     r0,r0,r4
        0x00001c0a:    3008        .0      ADDS     r0,r0,#8
        0x00001c0c:    4904        .I      LDR      r1,[pc,#16] ; [0x1c20] = 0x20000034
        0x00001c0e:    5c08        .\      LDRB     r0,[r1,r0]
        0x00001c10:    9000        ..      STR      r0,[sp,#0]
        0x00001c12:    9800        ..      LDR      r0,[sp,#0]
        0x00001c14:    f000f8d2    ....    BL       WriteData ; 0x1dbc
        0x00001c18:    1c64        d.      ADDS     r4,r4,#1
        0x00001c1a:    2c08        .,      CMP      r4,#8
        0x00001c1c:    dbe9        ..      BLT      0x1bf2 ; Show_Word + 70
        0x00001c1e:    bdfc        ..      POP      {r2-r7,pc}
    $d
        0x00001c20:    20000034    4..     DCD    536870964
    $t
    i.SystemInit
    SystemInit
        0x00001c24:    4770        pG      BX       lr
        0x00001c26:    0000        ..      MOVS     r0,r0
    i.TMR1_IRQHandler
    TMR1_IRQHandler
        0x00001c28:    b500        ..      PUSH     {lr}
        0x00001c2a:    b08f        ..      SUB      sp,sp,#0x3c
        0x00001c2c:    4b3e        >K      LDR      r3,[pc,#248] ; [0x1d28] = 0x20a8
        0x00001c2e:    cb0f        ..      LDM      r3,{r0-r3}
        0x00001c30:    930e        ..      STR      r3,[sp,#0x38]
        0x00001c32:    ab0b        ..      ADD      r3,sp,#0x2c
        0x00001c34:    c307        ..      STM      r3!,{r0-r2}
        0x00001c36:    2214        ."      MOVS     r2,#0x14
        0x00001c38:    493b        ;I      LDR      r1,[pc,#236] ; [0x1d28] = 0x20a8
        0x00001c3a:    3110        .1      ADDS     r1,r1,#0x10
        0x00001c3c:    a806        ..      ADD      r0,sp,#0x18
        0x00001c3e:    f7fefa9f    ....    BL       __aeabi_memcpy4 ; 0x180
        0x00001c42:    2214        ."      MOVS     r2,#0x14
        0x00001c44:    4938        8I      LDR      r1,[pc,#224] ; [0x1d28] = 0x20a8
        0x00001c46:    3124        $1      ADDS     r1,r1,#0x24
        0x00001c48:    a801        ..      ADD      r0,sp,#4
        0x00001c4a:    f7fefa99    ....    BL       __aeabi_memcpy4 ; 0x180
        0x00001c4e:    bf00        ..      NOP      
        0x00001c50:    4836        6H      LDR      r0,[pc,#216] ; [0x1d2c] = 0x400e0000
        0x00001c52:    6b00        .k      LDR      r0,[r0,#0x30]
        0x00001c54:    07c0        ..      LSLS     r0,r0,#31
        0x00001c56:    0fc0        ..      LSRS     r0,r0,#31
        0x00001c58:    d0fa        ..      BEQ      0x1c50 ; TMR1_IRQHandler + 40
        0x00001c5a:    4834        4H      LDR      r0,[pc,#208] ; [0x1d2c] = 0x400e0000
        0x00001c5c:    6b00        .k      LDR      r0,[r0,#0x30]
        0x00001c5e:    0840        @.      LSRS     r0,r0,#1
        0x00001c60:    0040        @.      LSLS     r0,r0,#1
        0x00001c62:    1c40        @.      ADDS     r0,r0,#1
        0x00001c64:    4931        1I      LDR      r1,[pc,#196] ; [0x1d2c] = 0x400e0000
        0x00001c66:    6308        .c      STR      r0,[r1,#0x30]
        0x00001c68:    4608        .F      MOV      r0,r1
        0x00001c6a:    69c0        .i      LDR      r0,[r0,#0x1c]
        0x00001c6c:    0400        ..      LSLS     r0,r0,#16
        0x00001c6e:    0b00        ..      LSRS     r0,r0,#12
        0x00001c70:    492f        /I      LDR      r1,[pc,#188] ; [0x1d30] = 0x40140000
        0x00001c72:    6288        .b      STR      r0,[r1,#0x28]
        0x00001c74:    482d        -H      LDR      r0,[pc,#180] ; [0x1d2c] = 0x400e0000
        0x00001c76:    69c0        .i      LDR      r0,[r0,#0x1c]
        0x00001c78:    b282        ..      UXTH     r2,r0
        0x00001c7a:    a12e        ..      ADR      r1,{pc}+0xba ; 0x1d34
        0x00001c7c:    a80d        ..      ADD      r0,sp,#0x34
        0x00001c7e:    3003        .0      ADDS     r0,#3
        0x00001c80:    f7fefacc    ....    BL       __2sprintf ; 0x21c
        0x00001c84:    a90b        ..      ADD      r1,sp,#0x2c
        0x00001c86:    2000        .       MOVS     r0,#0
        0x00001c88:    f000f9f2    ....    BL       print_lcd ; 0x2070
        0x00001c8c:    4827        'H      LDR      r0,[pc,#156] ; [0x1d2c] = 0x400e0000
        0x00001c8e:    6a00        .j      LDR      r0,[r0,#0x20]
        0x00001c90:    2101        .!      MOVS     r1,#1
        0x00001c92:    02c9        ..      LSLS     r1,r1,#11
        0x00001c94:    4388        .C      BICS     r0,r0,r1
        0x00001c96:    1840        @.      ADDS     r0,r0,r1
        0x00001c98:    4924        $I      LDR      r1,[pc,#144] ; [0x1d2c] = 0x400e0000
        0x00001c9a:    6208        .b      STR      r0,[r1,#0x20]
        0x00001c9c:    4827        'H      LDR      r0,[pc,#156] ; [0x1d3c] = 0x2000001c
        0x00001c9e:    8800        ..      LDRH     r0,[r0,#0]
        0x00001ca0:    1c40        @.      ADDS     r0,r0,#1
        0x00001ca2:    4926        &I      LDR      r1,[pc,#152] ; [0x1d3c] = 0x2000001c
        0x00001ca4:    8008        ..      STRH     r0,[r1,#0]
        0x00001ca6:    4608        .F      MOV      r0,r1
        0x00001ca8:    8802        ..      LDRH     r2,[r0,#0]
        0x00001caa:    a125        %.      ADR      r1,{pc}+0x96 ; 0x1d40
        0x00001cac:    a807        ..      ADD      r0,sp,#0x1c
        0x00001cae:    3003        .0      ADDS     r0,#3
        0x00001cb0:    f7fefab4    ....    BL       __2sprintf ; 0x21c
        0x00001cb4:    a906        ..      ADD      r1,sp,#0x18
        0x00001cb6:    2002        .       MOVS     r0,#2
        0x00001cb8:    f000f9da    ....    BL       print_lcd ; 0x2070
        0x00001cbc:    4821        !H      LDR      r0,[pc,#132] ; [0x1d44] = 0x40110000
        0x00001cbe:    68c3        .h      LDR      r3,[r0,#0xc]
        0x00001cc0:    68c2        .h      LDR      r2,[r0,#0xc]
        0x00001cc2:    a121        !.      ADR      r1,{pc}+0x86 ; 0x1d48
        0x00001cc4:    a801        ..      ADD      r0,sp,#4
        0x00001cc6:    f7fefaa9    ....    BL       __2sprintf ; 0x21c
        0x00001cca:    a901        ..      ADD      r1,sp,#4
        0x00001ccc:    2003        .       MOVS     r0,#3
        0x00001cce:    f000f9cf    ....    BL       print_lcd ; 0x2070
        0x00001cd2:    4821        !H      LDR      r0,[pc,#132] ; [0x1d58] = 0x20000020
        0x00001cd4:    6800        .h      LDR      r0,[r0,#0]
        0x00001cd6:    2801        .(      CMP      r0,#1
        0x00001cd8:    d104        ..      BNE      0x1ce4 ; TMR1_IRQHandler + 188
        0x00001cda:    491a        .I      LDR      r1,[pc,#104] ; [0x1d44] = 0x40110000
        0x00001cdc:    68c9        .h      LDR      r1,[r1,#0xc]
        0x00001cde:    b208        ..      SXTH     r0,r1
        0x00001ce0:    f000f94a    ..J.    BL       disp2Digit8574_inHex ; 0x1f78
        0x00001ce4:    481c        .H      LDR      r0,[pc,#112] ; [0x1d58] = 0x20000020
        0x00001ce6:    6800        .h      LDR      r0,[r0,#0]
        0x00001ce8:    2802        .(      CMP      r0,#2
        0x00001cea:    d104        ..      BNE      0x1cf6 ; TMR1_IRQHandler + 206
        0x00001cec:    4915        .I      LDR      r1,[pc,#84] ; [0x1d44] = 0x40110000
        0x00001cee:    68c9        .h      LDR      r1,[r1,#0xc]
        0x00001cf0:    b208        ..      SXTH     r0,r1
        0x00001cf2:    f000f910    ....    BL       disp2Digit8574_inDec ; 0x1f16
        0x00001cf6:    4813        .H      LDR      r0,[pc,#76] ; [0x1d44] = 0x40110000
        0x00001cf8:    6800        .h      LDR      r0,[r0,#0]
        0x00001cfa:    2101        .!      MOVS     r1,#1
        0x00001cfc:    0689        ..      LSLS     r1,r1,#26
        0x00001cfe:    4388        .C      BICS     r0,r0,r1
        0x00001d00:    1840        @.      ADDS     r0,r0,r1
        0x00001d02:    4910        .I      LDR      r1,[pc,#64] ; [0x1d44] = 0x40110000
        0x00001d04:    6008        .`      STR      r0,[r1,#0]
        0x00001d06:    4608        .F      MOV      r0,r1
        0x00001d08:    6800        .h      LDR      r0,[r0,#0]
        0x00001d0a:    0389        ..      LSLS     r1,r1,#14
        0x00001d0c:    4388        .C      BICS     r0,r0,r1
        0x00001d0e:    1840        @.      ADDS     r0,r0,r1
        0x00001d10:    490c        .I      LDR      r1,[pc,#48] ; [0x1d44] = 0x40110000
        0x00001d12:    6008        .`      STR      r0,[r1,#0]
        0x00001d14:    4811        .H      LDR      r0,[pc,#68] ; [0x1d5c] = 0x40010000
        0x00001d16:    6a80        .j      LDR      r0,[r0,#0x28]
        0x00001d18:    0840        @.      LSRS     r0,r0,#1
        0x00001d1a:    0040        @.      LSLS     r0,r0,#1
        0x00001d1c:    1c40        @.      ADDS     r0,r0,#1
        0x00001d1e:    490f        .I      LDR      r1,[pc,#60] ; [0x1d5c] = 0x40010000
        0x00001d20:    6288        .b      STR      r0,[r1,#0x28]
        0x00001d22:    b00f        ..      ADD      sp,sp,#0x3c
        0x00001d24:    bd00        ..      POP      {pc}
    $d
        0x00001d26:    0000        ..      DCW    0
        0x00001d28:    000020a8    . ..    DCD    8360
        0x00001d2c:    400e0000    ...@    DCD    1074659328
        0x00001d30:    40140000    ...@    DCD    1075052544
        0x00001d34:    20206425    %d      DCD    538993701
        0x00001d38:    00000020     ...    DCD    32
        0x00001d3c:    2000001c    ...     DCD    536870940
        0x00001d40:    00642520     %d.    DCD    6563104
        0x00001d44:    40110000    ...@    DCD    1074855936
        0x00001d48:    303a3254    T2:0    DCD    809120340
        0x00001d4c:    2c782578    x%x,    DCD    746071416
        0x00001d50:    20206425    %d      DCD    538993701
        0x00001d54:    00000020     ...    DCD    32
        0x00001d58:    20000020     ..     DCD    536870944
        0x00001d5c:    40010000    ...@    DCD    1073807360
    $t
    i.UART02_IRQHandler
    UART02_IRQHandler
        0x00001d60:    b570        p.      PUSH     {r4-r6,lr}
        0x00001d62:    480a        .H      LDR      r0,[pc,#40] ; [0x1d8c] = 0x40050000
        0x00001d64:    69c4        .i      LDR      r4,[r0,#0x1c]
        0x00001d66:    480a        .H      LDR      r0,[pc,#40] ; [0x1d90] = 0x40154000
        0x00001d68:    69c5        .i      LDR      r5,[r0,#0x1c]
        0x00001d6a:    480a        .H      LDR      r0,[pc,#40] ; [0x1d94] = 0x2000062c
        0x00001d6c:    6800        .h      LDR      r0,[r0,#0]
        0x00001d6e:    2800        .(      CMP      r0,#0
        0x00001d70:    d003        ..      BEQ      0x1d7a ; UART02_IRQHandler + 26
        0x00001d72:    4620         F      MOV      r0,r4
        0x00001d74:    4907        .I      LDR      r1,[pc,#28] ; [0x1d94] = 0x2000062c
        0x00001d76:    6809        .h      LDR      r1,[r1,#0]
        0x00001d78:    4788        .G      BLX      r1
        0x00001d7a:    4807        .H      LDR      r0,[pc,#28] ; [0x1d98] = 0x20000634
        0x00001d7c:    6800        .h      LDR      r0,[r0,#0]
        0x00001d7e:    2800        .(      CMP      r0,#0
        0x00001d80:    d003        ..      BEQ      0x1d8a ; UART02_IRQHandler + 42
        0x00001d82:    4628        (F      MOV      r0,r5
        0x00001d84:    4904        .I      LDR      r1,[pc,#16] ; [0x1d98] = 0x20000634
        0x00001d86:    6809        .h      LDR      r1,[r1,#0]
        0x00001d88:    4788        .G      BLX      r1
        0x00001d8a:    bd70        p.      POP      {r4-r6,pc}
    $d
        0x00001d8c:    40050000    ...@    DCD    1074069504
        0x00001d90:    40154000    .@.@    DCD    1075134464
        0x00001d94:    2000062c    ,..     DCD    536872492
        0x00001d98:    20000634    4..     DCD    536872500
    $t
    i.UART1_IRQHandler
    UART1_IRQHandler
        0x00001d9c:    b510        ..      PUSH     {r4,lr}
        0x00001d9e:    4805        .H      LDR      r0,[pc,#20] ; [0x1db4] = 0x40150000
        0x00001da0:    69c4        .i      LDR      r4,[r0,#0x1c]
        0x00001da2:    4805        .H      LDR      r0,[pc,#20] ; [0x1db8] = 0x20000630
        0x00001da4:    6800        .h      LDR      r0,[r0,#0]
        0x00001da6:    2800        .(      CMP      r0,#0
        0x00001da8:    d003        ..      BEQ      0x1db2 ; UART1_IRQHandler + 22
        0x00001daa:    4620         F      MOV      r0,r4
        0x00001dac:    4902        .I      LDR      r1,[pc,#8] ; [0x1db8] = 0x20000630
        0x00001dae:    6809        .h      LDR      r1,[r1,#0]
        0x00001db0:    4788        .G      BLX      r1
        0x00001db2:    bd10        ..      POP      {r4,pc}
    $d
        0x00001db4:    40150000    ...@    DCD    1075118080
        0x00001db8:    20000630    0..     DCD    536872496
    $t
    i.WriteData
    WriteData
        0x00001dbc:    4914        .I      LDR      r1,[pc,#80] ; [0x1e10] = 0x20000024
        0x00001dbe:    68c9        .h      LDR      r1,[r1,#0xc]
        0x00001dc0:    6889        .h      LDR      r1,[r1,#8]
        0x00001dc2:    0889        ..      LSRS     r1,r1,#2
        0x00001dc4:    0089        ..      LSLS     r1,r1,#2
        0x00001dc6:    1c49        I.      ADDS     r1,r1,#1
        0x00001dc8:    4a11        .J      LDR      r2,[pc,#68] ; [0x1e10] = 0x20000024
        0x00001dca:    68d2        .h      LDR      r2,[r2,#0xc]
        0x00001dcc:    6091        .`      STR      r1,[r2,#8]
        0x00001dce:    21ff        .!      MOVS     r1,#0xff
        0x00001dd0:    3101        .1      ADDS     r1,#1
        0x00001dd2:    4301        .C      ORRS     r1,r1,r0
        0x00001dd4:    4a0e        .J      LDR      r2,[pc,#56] ; [0x1e10] = 0x20000024
        0x00001dd6:    68d2        .h      LDR      r2,[r2,#0xc]
        0x00001dd8:    6211        .b      STR      r1,[r2,#0x20]
        0x00001dda:    490d        .I      LDR      r1,[pc,#52] ; [0x1e10] = 0x20000024
        0x00001ddc:    68c9        .h      LDR      r1,[r1,#0xc]
        0x00001dde:    6809        .h      LDR      r1,[r1,#0]
        0x00001de0:    0849        I.      LSRS     r1,r1,#1
        0x00001de2:    0049        I.      LSLS     r1,r1,#1
        0x00001de4:    1c49        I.      ADDS     r1,r1,#1
        0x00001de6:    4a0a        .J      LDR      r2,[pc,#40] ; [0x1e10] = 0x20000024
        0x00001de8:    68d2        .h      LDR      r2,[r2,#0xc]
        0x00001dea:    6011        .`      STR      r1,[r2,#0]
        0x00001dec:    bf00        ..      NOP      
        0x00001dee:    4908        .I      LDR      r1,[pc,#32] ; [0x1e10] = 0x20000024
        0x00001df0:    68c9        .h      LDR      r1,[r1,#0xc]
        0x00001df2:    6809        .h      LDR      r1,[r1,#0]
        0x00001df4:    07c9        ..      LSLS     r1,r1,#31
        0x00001df6:    0fc9        ..      LSRS     r1,r1,#31
        0x00001df8:    2901        .)      CMP      r1,#1
        0x00001dfa:    d0f8        ..      BEQ      0x1dee ; WriteData + 50
        0x00001dfc:    4904        .I      LDR      r1,[pc,#16] ; [0x1e10] = 0x20000024
        0x00001dfe:    68c9        .h      LDR      r1,[r1,#0xc]
        0x00001e00:    6889        .h      LDR      r1,[r1,#8]
        0x00001e02:    0889        ..      LSRS     r1,r1,#2
        0x00001e04:    0089        ..      LSLS     r1,r1,#2
        0x00001e06:    4a02        .J      LDR      r2,[pc,#8] ; [0x1e10] = 0x20000024
        0x00001e08:    68d2        .h      LDR      r2,[r2,#0xc]
        0x00001e0a:    6091        .`      STR      r1,[r2,#8]
        0x00001e0c:    4770        pG      BX       lr
    $d
        0x00001e0e:    0000        ..      DCW    0
        0x00001e10:    20000024    $..     DCD    536870948
    $t
    i.Write_to_any8574
    Write_to_any8574
        0x00001e14:    b538        8.      PUSH     {r3-r5,lr}
        0x00001e16:    4604        .F      MOV      r4,r0
        0x00001e18:    460d        .F      MOV      r5,r1
        0x00001e1a:    f7fff97d    ..}.    BL       DrvSYS_GetHCLKFreq ; 0x1118
        0x00001e1e:    4922        "I      LDR      r1,[pc,#136] ; [0x1ea8] = 0x20000000
        0x00001e20:    6008        .`      STR      r0,[r1,#0]
        0x00001e22:    4922        "I      LDR      r1,[pc,#136] ; [0x1eac] = 0xc350
        0x00001e24:    2001        .       MOVS     r0,#1
        0x00001e26:    f7fff90f    ....    BL       DrvI2C_Open ; 0x1048
        0x00001e2a:    2000        .       MOVS     r0,#0
        0x00001e2c:    4603        .F      MOV      r3,r0
        0x00001e2e:    4602        .F      MOV      r2,r0
        0x00001e30:    2101        .!      MOVS     r1,#1
        0x00001e32:    9000        ..      STR      r0,[sp,#0]
        0x00001e34:    4608        .F      MOV      r0,r1
        0x00001e36:    f7fff8dd    ....    BL       DrvI2C_Ctrl ; 0xff4
        0x00001e3a:    bf00        ..      NOP      
        0x00001e3c:    481c        .H      LDR      r0,[pc,#112] ; [0x1eb0] = 0x40120000
        0x00001e3e:    6800        .h      LDR      r0,[r0,#0]
        0x00001e40:    0700        ..      LSLS     r0,r0,#28
        0x00001e42:    0fc0        ..      LSRS     r0,r0,#31
        0x00001e44:    d0fa        ..      BEQ      0x1e3c ; Write_to_any8574 + 40
        0x00001e46:    481a        .H      LDR      r0,[pc,#104] ; [0x1eb0] = 0x40120000
        0x00001e48:    6084        .`      STR      r4,[r0,#8]
        0x00001e4a:    2000        .       MOVS     r0,#0
        0x00001e4c:    2301        .#      MOVS     r3,#1
        0x00001e4e:    4602        .F      MOV      r2,r0
        0x00001e50:    4601        .F      MOV      r1,r0
        0x00001e52:    9000        ..      STR      r0,[sp,#0]
        0x00001e54:    4618        .F      MOV      r0,r3
        0x00001e56:    f7fff8cd    ....    BL       DrvI2C_Ctrl ; 0xff4
        0x00001e5a:    bf00        ..      NOP      
        0x00001e5c:    4814        .H      LDR      r0,[pc,#80] ; [0x1eb0] = 0x40120000
        0x00001e5e:    6800        .h      LDR      r0,[r0,#0]
        0x00001e60:    0700        ..      LSLS     r0,r0,#28
        0x00001e62:    0fc0        ..      LSRS     r0,r0,#31
        0x00001e64:    d0fa        ..      BEQ      0x1e5c ; Write_to_any8574 + 72
        0x00001e66:    4812        .H      LDR      r0,[pc,#72] ; [0x1eb0] = 0x40120000
        0x00001e68:    6085        .`      STR      r5,[r0,#8]
        0x00001e6a:    2001        .       MOVS     r0,#1
        0x00001e6c:    4603        .F      MOV      r3,r0
        0x00001e6e:    2200        ."      MOVS     r2,#0
        0x00001e70:    4611        .F      MOV      r1,r2
        0x00001e72:    9000        ..      STR      r0,[sp,#0]
        0x00001e74:    f7fff8be    ....    BL       DrvI2C_Ctrl ; 0xff4
        0x00001e78:    bf00        ..      NOP      
        0x00001e7a:    480d        .H      LDR      r0,[pc,#52] ; [0x1eb0] = 0x40120000
        0x00001e7c:    6800        .h      LDR      r0,[r0,#0]
        0x00001e7e:    0700        ..      LSLS     r0,r0,#28
        0x00001e80:    0fc0        ..      LSRS     r0,r0,#31
        0x00001e82:    d0fa        ..      BEQ      0x1e7a ; Write_to_any8574 + 102
        0x00001e84:    2000        .       MOVS     r0,#0
        0x00001e86:    2301        .#      MOVS     r3,#1
        0x00001e88:    461a        .F      MOV      r2,r3
        0x00001e8a:    4601        .F      MOV      r1,r0
        0x00001e8c:    9000        ..      STR      r0,[sp,#0]
        0x00001e8e:    4618        .F      MOV      r0,r3
        0x00001e90:    f7fff8b0    ....    BL       DrvI2C_Ctrl ; 0xff4
        0x00001e94:    bf00        ..      NOP      
        0x00001e96:    4806        .H      LDR      r0,[pc,#24] ; [0x1eb0] = 0x40120000
        0x00001e98:    6800        .h      LDR      r0,[r0,#0]
        0x00001e9a:    06c0        ..      LSLS     r0,r0,#27
        0x00001e9c:    0fc0        ..      LSRS     r0,r0,#31
        0x00001e9e:    d1fa        ..      BNE      0x1e96 ; Write_to_any8574 + 130
        0x00001ea0:    2001        .       MOVS     r0,#1
        0x00001ea2:    f7fff85f    .._.    BL       DrvI2C_Close ; 0xf64
        0x00001ea6:    bd38        8.      POP      {r3-r5,pc}
    $d
        0x00001ea8:    20000000    ...     DCD    536870912
        0x00001eac:    0000c350    P...    DCD    50000
        0x00001eb0:    40120000    ...@    DCD    1074921472
    $t
    i.__ARM_common_switch8
    __ARM_common_switch8
        0x00001eb4:    b430        0.      PUSH     {r4,r5}
        0x00001eb6:    4674        tF      MOV      r4,lr
        0x00001eb8:    1e64        d.      SUBS     r4,r4,#1
        0x00001eba:    7825        %x      LDRB     r5,[r4,#0]
        0x00001ebc:    1c64        d.      ADDS     r4,r4,#1
        0x00001ebe:    42ab        .B      CMP      r3,r5
        0x00001ec0:    d304        ..      BCC      0x1ecc ; __ARM_common_switch8 + 24
        0x00001ec2:    5d63        c]      LDRB     r3,[r4,r5]
        0x00001ec4:    005b        [.      LSLS     r3,r3,#1
        0x00001ec6:    18e3        ..      ADDS     r3,r4,r3
        0x00001ec8:    bc30        0.      POP      {r4,r5}
        0x00001eca:    4718        .G      BX       r3
        0x00001ecc:    461d        .F      MOV      r5,r3
        0x00001ece:    e7f8        ..      B        0x1ec2 ; __ARM_common_switch8 + 14
    i._is_digit
    _is_digit
        0x00001ed0:    3830        08      SUBS     r0,r0,#0x30
        0x00001ed2:    280a        .(      CMP      r0,#0xa
        0x00001ed4:    d201        ..      BCS      0x1eda ; _is_digit + 10
        0x00001ed6:    2001        .       MOVS     r0,#1
        0x00001ed8:    4770        pG      BX       lr
        0x00001eda:    2000        .       MOVS     r0,#0
        0x00001edc:    4770        pG      BX       lr
    i.clr_all_pannal
    clr_all_pannal
        0x00001ede:    b510        ..      PUSH     {r4,lr}
        0x00001ee0:    2400        .$      MOVS     r4,#0
        0x00001ee2:    2100        .!      MOVS     r1,#0
        0x00001ee4:    4608        .F      MOV      r0,r1
        0x00001ee6:    f7fffde7    ....    BL       SetPACA ; 0x1ab8
        0x00001eea:    bf00        ..      NOP      
        0x00001eec:    e003        ..      B        0x1ef6 ; clr_all_pannal + 24
        0x00001eee:    2000        .       MOVS     r0,#0
        0x00001ef0:    f7ffff64    ..d.    BL       WriteData ; 0x1dbc
        0x00001ef4:    1c64        d.      ADDS     r4,r4,#1
        0x00001ef6:    2021        !       MOVS     r0,#0x21
        0x00001ef8:    0140        @.      LSLS     r0,r0,#5
        0x00001efa:    4284        .B      CMP      r4,r0
        0x00001efc:    dbf7        ..      BLT      0x1eee ; clr_all_pannal + 16
        0x00001efe:    200f        .       MOVS     r0,#0xf
        0x00001f00:    f7ffff5c    ..\.    BL       WriteData ; 0x1dbc
        0x00001f04:    bd10        ..      POP      {r4,pc}
    i.delay
    delay
        0x00001f06:    2000        .       MOVS     r0,#0
        0x00001f08:    e000        ..      B        0x1f0c ; delay + 6
        0x00001f0a:    1c40        @.      ADDS     r0,r0,#1
        0x00001f0c:    217d        }!      MOVS     r1,#0x7d
        0x00001f0e:    00c9        ..      LSLS     r1,r1,#3
        0x00001f10:    4288        .B      CMP      r0,r1
        0x00001f12:    dbfa        ..      BLT      0x1f0a ; delay + 4
        0x00001f14:    4770        pG      BX       lr
    i.disp2Digit8574_inDec
    disp2Digit8574_inDec
        0x00001f16:    b570        p.      PUSH     {r4-r6,lr}
        0x00001f18:    4605        .F      MOV      r5,r0
        0x00001f1a:    217d        }!      MOVS     r1,#0x7d
        0x00001f1c:    00c9        ..      LSLS     r1,r1,#3
        0x00001f1e:    4628        (F      MOV      r0,r5
        0x00001f20:    f7fefa84    ....    BL       __aeabi_idiv ; 0x42c
        0x00001f24:    b244        D.      SXTB     r4,r0
        0x00001f26:    207d        }       MOVS     r0,#0x7d
        0x00001f28:    00c0        ..      LSLS     r0,r0,#3
        0x00001f2a:    4360        `C      MULS     r0,r4,r0
        0x00001f2c:    1a28        (.      SUBS     r0,r5,r0
        0x00001f2e:    b205        ..      SXTH     r5,r0
        0x00001f30:    2164        d!      MOVS     r1,#0x64
        0x00001f32:    4628        (F      MOV      r0,r5
        0x00001f34:    f7fefa7a    ..z.    BL       __aeabi_idiv ; 0x42c
        0x00001f38:    b244        D.      SXTB     r4,r0
        0x00001f3a:    b2e0        ..      UXTB     r0,r4
        0x00001f3c:    f7fff9c0    ....    BL       HEX2Disp ; 0x12c0
        0x00001f40:    4606        .F      MOV      r6,r0
        0x00001f42:    4631        1F      MOV      r1,r6
        0x00001f44:    2072        r       MOVS     r0,#0x72
        0x00001f46:    f7ffff65    ..e.    BL       Write_to_any8574 ; 0x1e14
        0x00001f4a:    2064        d       MOVS     r0,#0x64
        0x00001f4c:    4360        `C      MULS     r0,r4,r0
        0x00001f4e:    1a28        (.      SUBS     r0,r5,r0
        0x00001f50:    b205        ..      SXTH     r5,r0
        0x00001f52:    210a        .!      MOVS     r1,#0xa
        0x00001f54:    4628        (F      MOV      r0,r5
        0x00001f56:    f7fefa69    ..i.    BL       __aeabi_idiv ; 0x42c
        0x00001f5a:    b244        D.      SXTB     r4,r0
        0x00001f5c:    b2e0        ..      UXTB     r0,r4
        0x00001f5e:    f7fff9af    ....    BL       HEX2Disp ; 0x12c0
        0x00001f62:    4606        .F      MOV      r6,r0
        0x00001f64:    4631        1F      MOV      r1,r6
        0x00001f66:    2070        p       MOVS     r0,#0x70
        0x00001f68:    f7ffff54    ..T.    BL       Write_to_any8574 ; 0x1e14
        0x00001f6c:    200a        .       MOVS     r0,#0xa
        0x00001f6e:    4360        `C      MULS     r0,r4,r0
        0x00001f70:    1a28        (.      SUBS     r0,r5,r0
        0x00001f72:    b205        ..      SXTH     r5,r0
        0x00001f74:    bf00        ..      NOP      
        0x00001f76:    bd70        p.      POP      {r4-r6,pc}
    i.disp2Digit8574_inHex
    disp2Digit8574_inHex
        0x00001f78:    b570        p.      PUSH     {r4-r6,lr}
        0x00001f7a:    4604        .F      MOV      r4,r0
        0x00001f7c:    4620         F      MOV      r0,r4
        0x00001f7e:    17e1        ..      ASRS     r1,r4,#31
        0x00001f80:    0e09        ..      LSRS     r1,r1,#24
        0x00001f82:    1809        ..      ADDS     r1,r1,r0
        0x00001f84:    1209        ..      ASRS     r1,r1,#8
        0x00001f86:    b24d        M.      SXTB     r5,r1
        0x00001f88:    0228        (.      LSLS     r0,r5,#8
        0x00001f8a:    1a20         .      SUBS     r0,r4,r0
        0x00001f8c:    b204        ..      SXTH     r4,r0
        0x00001f8e:    4620         F      MOV      r0,r4
        0x00001f90:    17e1        ..      ASRS     r1,r4,#31
        0x00001f92:    0f09        ..      LSRS     r1,r1,#28
        0x00001f94:    1809        ..      ADDS     r1,r1,r0
        0x00001f96:    1109        ..      ASRS     r1,r1,#4
        0x00001f98:    b24d        M.      SXTB     r5,r1
        0x00001f9a:    b2e8        ..      UXTB     r0,r5
        0x00001f9c:    f7fff990    ....    BL       HEX2Disp ; 0x12c0
        0x00001fa0:    4606        .F      MOV      r6,r0
        0x00001fa2:    4631        1F      MOV      r1,r6
        0x00001fa4:    2072        r       MOVS     r0,#0x72
        0x00001fa6:    f7ffff35    ..5.    BL       Write_to_any8574 ; 0x1e14
        0x00001faa:    0128        (.      LSLS     r0,r5,#4
        0x00001fac:    1a20         .      SUBS     r0,r4,r0
        0x00001fae:    b204        ..      SXTH     r4,r0
        0x00001fb0:    b265        e.      SXTB     r5,r4
        0x00001fb2:    b2e8        ..      UXTB     r0,r5
        0x00001fb4:    f7fff984    ....    BL       HEX2Disp ; 0x12c0
        0x00001fb8:    4606        .F      MOV      r6,r0
        0x00001fba:    4631        1F      MOV      r1,r6
        0x00001fbc:    2070        p       MOVS     r0,#0x70
        0x00001fbe:    f7ffff29    ..).    BL       Write_to_any8574 ; 0x1e14
        0x00001fc2:    1b60        `.      SUBS     r0,r4,r5
        0x00001fc4:    b204        ..      SXTH     r4,r0
        0x00001fc6:    b265        e.      SXTB     r5,r4
        0x00001fc8:    bd70        p.      POP      {r4-r6,pc}
        0x00001fca:    0000        ..      MOVS     r0,r0
    i.main
    main
        0x00001fcc:    2002        .       MOVS     r0,#2
        0x00001fce:    4925        %I      LDR      r1,[pc,#148] ; [0x2064] = 0x20000020
        0x00001fd0:    6008        .`      STR      r0,[r1,#0]
        0x00001fd2:    2059        Y       MOVS     r0,#0x59
        0x00001fd4:    4924        $I      LDR      r1,[pc,#144] ; [0x2068] = 0x50000100
        0x00001fd6:    6008        .`      STR      r0,[r1,#0]
        0x00001fd8:    2016        .       MOVS     r0,#0x16
        0x00001fda:    6008        .`      STR      r0,[r1,#0]
        0x00001fdc:    2088        .       MOVS     r0,#0x88
        0x00001fde:    6008        .`      STR      r0,[r1,#0]
        0x00001fe0:    4822        "H      LDR      r0,[pc,#136] ; [0x206c] = 0x50000200
        0x00001fe2:    6800        .h      LDR      r0,[r0,#0]
        0x00001fe4:    0840        @.      LSRS     r0,r0,#1
        0x00001fe6:    0040        @.      LSLS     r0,r0,#1
        0x00001fe8:    1c40        @.      ADDS     r0,r0,#1
        0x00001fea:    4920         I      LDR      r1,[pc,#128] ; [0x206c] = 0x50000200
        0x00001fec:    6008        .`      STR      r0,[r1,#0]
        0x00001fee:    4608        .F      MOV      r0,r1
        0x00001ff0:    6900        .i      LDR      r0,[r0,#0x10]
        0x00001ff2:    08c0        ..      LSRS     r0,r0,#3
        0x00001ff4:    00c0        ..      LSLS     r0,r0,#3
        0x00001ff6:    6108        .a      STR      r0,[r1,#0x10]
        0x00001ff8:    2000        .       MOVS     r0,#0
        0x00001ffa:    491b        .I      LDR      r1,[pc,#108] ; [0x2068] = 0x50000100
        0x00001ffc:    6008        .`      STR      r0,[r1,#0]
        0x00001ffe:    f7fffa2d    ..-.    BL       InitGPIO ; 0x145c
        0x00002002:    210d        .!      MOVS     r1,#0xd
        0x00002004:    2000        .       MOVS     r0,#0
        0x00002006:    f7feff97    ....    BL       DrvGPIO_SetBit ; 0xf38
        0x0000200a:    210c        .!      MOVS     r1,#0xc
        0x0000200c:    2000        .       MOVS     r0,#0
        0x0000200e:    f7fefb81    ....    BL       DrvGPIO_ClrBit ; 0x714
        0x00002012:    f7fffa37    ..7.    BL       InitPWM6 ; 0x1484
        0x00002016:    f7fff9d1    ....    BL       InitADC7 ; 0x13bc
        0x0000201a:    f7fffad1    ....    BL       InitTIMER2 ; 0x15c0
        0x0000201e:    f7fffa83    ....    BL       InitTIMER1 ; 0x1528
        0x00002022:    f7fffb1f    ....    BL       Initial_pannel ; 0x1664
        0x00002026:    f7ffff5a    ..Z.    BL       clr_all_pannal ; 0x1ede
        0x0000202a:    2003        .       MOVS     r0,#3
        0x0000202c:    f7fefb9c    ....    BL       DrvGPIO_InitFunction ; 0x768
        0x00002030:    e017        ..      B        0x2062 ; main + 150
        0x00002032:    f7fffcff    ....    BL       Scankey ; 0x1a34
        0x00002036:    4604        .F      MOV      r4,r0
        0x00002038:    2c01        .,      CMP      r4,#1
        0x0000203a:    d101        ..      BNE      0x2040 ; main + 116
        0x0000203c:    4909        .I      LDR      r1,[pc,#36] ; [0x2064] = 0x20000020
        0x0000203e:    6008        .`      STR      r0,[r1,#0]
        0x00002040:    2c02        .,      CMP      r4,#2
        0x00002042:    d102        ..      BNE      0x204a ; main + 126
        0x00002044:    2002        .       MOVS     r0,#2
        0x00002046:    4907        .I      LDR      r1,[pc,#28] ; [0x2064] = 0x20000020
        0x00002048:    6008        .`      STR      r0,[r1,#0]
        0x0000204a:    2c03        .,      CMP      r4,#3
        0x0000204c:    d103        ..      BNE      0x2056 ; main + 138
        0x0000204e:    210d        .!      MOVS     r1,#0xd
        0x00002050:    2000        .       MOVS     r0,#0
        0x00002052:    f7fefb5f    .._.    BL       DrvGPIO_ClrBit ; 0x714
        0x00002056:    2c04        .,      CMP      r4,#4
        0x00002058:    d103        ..      BNE      0x2062 ; main + 150
        0x0000205a:    210d        .!      MOVS     r1,#0xd
        0x0000205c:    2000        .       MOVS     r0,#0
        0x0000205e:    f7feff6b    ..k.    BL       DrvGPIO_SetBit ; 0xf38
        0x00002062:    e7e6        ..      B        0x2032 ; main + 102
    $d
        0x00002064:    20000020     ..     DCD    536870944
        0x00002068:    50000100    ...P    DCD    1342177536
        0x0000206c:    50000200    ...P    DCD    1342177792
    $t
    i.print_lcd
    print_lcd
        0x00002070:    b570        p.      PUSH     {r4-r6,lr}
        0x00002072:    4606        .F      MOV      r6,r0
        0x00002074:    460c        .F      MOV      r4,r1
        0x00002076:    2500        .%      MOVS     r5,#0
        0x00002078:    bf00        ..      NOP      
        0x0000207a:    7822        "x      LDRB     r2,[r4,#0]
        0x0000207c:    1c64        d.      ADDS     r4,r4,#1
        0x0000207e:    b2e9        ..      UXTB     r1,r5
        0x00002080:    4630        0F      MOV      r0,r6
        0x00002082:    f7fffd93    ....    BL       Show_Word ; 0x1bac
        0x00002086:    1c6d        m.      ADDS     r5,r5,#1
        0x00002088:    2d0f        .-      CMP      r5,#0xf
        0x0000208a:    dd00        ..      BLE      0x208e ; print_lcd + 30
        0x0000208c:    e002        ..      B        0x2094 ; print_lcd + 36
        0x0000208e:    7820         x      LDRB     r0,[r4,#0]
        0x00002090:    2800        .(      CMP      r0,#0
        0x00002092:    d1f2        ..      BNE      0x207a ; print_lcd + 10
        0x00002094:    bf00        ..      NOP      
        0x00002096:    bd70        p.      POP      {r4-r6,pc}
    $d.realdata
    .constdata
    lookUp
        0x00002098:    b0a4f9c0    ....    DCD    2963601856
        0x0000209c:    f8829299    ....    DCD    4169306777
        0x000020a0:    83889080    ....    DCD    2206765184
        0x000020a4:    8e86a1c6    ....    DCD    2391187910
        0x000020a8:    37434441    ADC7    DCD    927155265
        0x000020ac:    6c615620     Val    DCD    1818318368
        0x000020b0:    003a6575    ue:.    DCD    3827061
        0x000020b4:    00000000    ....    DCD    0
        0x000020b8:    656d6954    Time    DCD    1701669204
        0x000020bc:    003a3172    r1:.    DCD    3813746
        0x000020c0:    00000000    ....    DCD    0
        0x000020c4:    00000000    ....    DCD    0
        0x000020c8:    00000000    ....    DCD    0
        0x000020cc:    303a3254    T2:0    DCD    809120340
        0x000020d0:    2c484878    xHH,    DCD    742934648
        0x000020d4:    00444444    DDD.    DCD    4473924
        0x000020d8:    00000000    ....    DCD    0
        0x000020dc:    00000000    ....    DCD    0
    .constdata
        0x000020e0:    003e3d3b    ;=>.    DCD    4078907
    .constdata
        0x000020e4:    00000001    ....    DCD    1
        0x000020e8:    00000002    ....    DCD    2
        0x000020ec:    00000002    ....    DCD    2
        0x000020f0:    00000004    ....    DCD    4
    .constdata
    uc_hextab
        0x000020f4:    33323130    0123    DCD    858927408
        0x000020f8:    37363534    4567    DCD    926299444
        0x000020fc:    42413938    89AB    DCD    1111570744
        0x00002100:    46454443    CDEF    DCD    1178944579
        0x00002104:    00583040    @0X.    DCD    5779520
    lc_hextab
        0x00002108:    33323130    0123    DCD    858927408
        0x0000210c:    37363534    4567    DCD    926299444
        0x00002110:    62613938    89ab    DCD    1650538808
        0x00002114:    66656463    cdef    DCD    1717920867
        0x00002118:    00783040    @0x.    DCD    7876672
    Region$$Table$$Base
        0x0000211c:    0000213c    <!..    DCD    8508
        0x00002120:    20000000    ...     DCD    536870912
        0x00002124:    00000648    H...    DCD    1608
        0x00002128:    00000104    ....    DCD    260
        0x0000212c:    00002784    .'..    DCD    10116
        0x00002130:    20000648    H..     DCD    536872520
        0x00002134:    000004d0    ....    DCD    1232
        0x00002138:    00000120     ...    DCD    288
    Region$$Table$$Limit

** Section #2 'ER_RW' (SHT_PROGBITS) [SHF_ALLOC + SHF_WRITE]
    Size   : 1608 bytes (alignment 4)
    Address: 0x20000000


** Section #3 'ER_ZI' (SHT_NOBITS) [SHF_ALLOC + SHF_WRITE]
    Size   : 1232 bytes (alignment 8)
    Address: 0x20000648


** Section #4 '.debug_abbrev' (SHT_PROGBITS)
    Size   : 1476 bytes


** Section #5 '.debug_frame' (SHT_PROGBITS)
    Size   : 1940 bytes


** Section #6 '.debug_info' (SHT_PROGBITS)
    Size   : 125184 bytes


** Section #7 '.debug_line' (SHT_PROGBITS)
    Size   : 9704 bytes


** Section #8 '.debug_loc' (SHT_PROGBITS)
    Size   : 2724 bytes


** Section #9 '.debug_macinfo' (SHT_PROGBITS)
    Size   : 150036 bytes


** Section #10 '.debug_pubnames' (SHT_PROGBITS)
    Size   : 1775 bytes


** Section #11 '.symtab' (SHT_SYMTAB)
    Size   : 8112 bytes (alignment 4)
    String table #12 '.strtab'
    Last local symbol no. 346


** Section #12 '.strtab' (SHT_STRTAB)
    Size   : 6412 bytes


** Section #13 '.note' (SHT_NOTE)
    Size   : 28 bytes (alignment 4)


** Section #14 '.comment' (SHT_PROGBITS)
    Size   : 6964 bytes


** Section #15 '.shstrtab' (SHT_STRTAB)
    Size   : 156 bytes


