
========================================================================

** ELF Header Information

    File Name: .\obj\Smpl_Start_Kit.axf

    Machine class: ELFCLASS32 (32-bit)
    Data encoding: ELFDATA2LSB (Little endian)
    Header version: EV_CURRENT (Current version)
    Operating System ABI: none
    ABI Version: 0
    File Type: ET_EXEC (Executable) (2)
    Machine: EM_ARM (ARM)

    Image Entry point: 0x000001b1
    Flags: EF_ARM_HASENTRY (0x05000002)

    ARM ELF revision: 5 (ABI version 2)

    Built with
    ARM C/C++ Compiler, 4.1 [Build 894]
    ARM Assembler, 4.1 [Build 894]
    ARM Linker, 4.1 [Build 894] 

    Header size: 52 bytes (0x34)
    Program header entry size: 32 bytes (0x20)
    Section header entry size: 40 bytes (0x28)

    Program header entries: 1
    Section header entries: 16

    Program header offset: 318496 (0x0004dc20)
    Section header offset: 318528 (0x0004dc40)

    Section header string table index: 15

========================================================================

** Program header #0 (PT_LOAD) [PF_X + PF_W + PF_R + PF_ARM_ENTRY]
    Size : 11344 bytes (10112 bytes in file)
    Virtual address: 0x00000000 (Alignment 8)


========================================================================

** Section #1 'ER_RO' (SHT_PROGBITS) [SHF_ALLOC + SHF_EXECINSTR]
    Size   : 8496 bytes (alignment 4)
    Address: 0x00000000

    $d.realdata
    RESET
    __Vectors
        0x00000000:    20000b20     ..     DCD    536873760
        0x00000004:    000001b1    ....    DCD    433
        0x00000008:    000001d1    ....    DCD    465
        0x0000000c:    000001d3    ....    DCD    467
        0x00000010:    00000000    ....    DCD    0
        0x00000014:    00000000    ....    DCD    0
        0x00000018:    00000000    ....    DCD    0
        0x0000001c:    00000000    ....    DCD    0
        0x00000020:    00000000    ....    DCD    0
        0x00000024:    00000000    ....    DCD    0
        0x00000028:    00000000    ....    DCD    0
        0x0000002c:    000001d5    ....    DCD    469
        0x00000030:    00000000    ....    DCD    0
        0x00000034:    00000000    ....    DCD    0
        0x00000038:    000001d7    ....    DCD    471
        0x0000003c:    000001d9    ....    DCD    473
        0x00000040:    00000651    Q...    DCD    1617
        0x00000044:    000001db    ....    DCD    475
        0x00000048:    000012cd    ....    DCD    4813
        0x0000004c:    000012f1    ....    DCD    4849
        0x00000050:    00001315    ....    DCD    4885
        0x00000054:    00001351    Q...    DCD    4945
        0x00000058:    000001db    ....    DCD    475
        0x0000005c:    000001db    ....    DCD    475
        0x00000060:    000001db    ....    DCD    475
        0x00000064:    000001db    ....    DCD    475
        0x00000068:    000001db    ....    DCD    475
        0x0000006c:    000001db    ....    DCD    475
        0x00000070:    00001b15    ....    DCD    6933
        0x00000074:    00001b51    Q...    DCD    6993
        0x00000078:    000016cd    ....    DCD    5837
        0x0000007c:    00001731    1...    DCD    5937
        0x00000080:    00001795    ....    DCD    6037
        0x00000084:    000017f9    ....    DCD    6137
        0x00000088:    0000139d    ....    DCD    5021
        0x0000008c:    00001415    ....    DCD    5141
        0x00000090:    000001db    ....    DCD    475
        0x00000094:    000001db    ....    DCD    475
        0x00000098:    000001db    ....    DCD    475
        0x0000009c:    000001db    ....    DCD    475
        0x000000a0:    000001db    ....    DCD    475
        0x000000a4:    000001db    ....    DCD    475
        0x000000a8:    000001db    ....    DCD    475
        0x000000ac:    000001db    ....    DCD    475
        0x000000b0:    000016a5    ....    DCD    5797
        0x000000b4:    000001db    ....    DCD    475
        0x000000b8:    000001db    ....    DCD    475
        0x000000bc:    000001db    ....    DCD    475
    $t
    !!!main
    __main
        0x000000c0:    f000f802    ....    BL       __scatterload ; 0xc8
        0x000000c4:    f000f848    ..H.    BL       __rt_entry ; 0x158
    !!!scatter
    __scatterload
    __scatterload_rt2
    __scatterload_rt2_thumb_only
        0x000000c8:    a00c        ..      ADR      r0,{pc}+0x34 ; 0xfc
        0x000000ca:    c830        0.      LDM      r0!,{r4,r5}
        0x000000cc:    3808        .8      SUBS     r0,r0,#8
        0x000000ce:    1824        $.      ADDS     r4,r4,r0
        0x000000d0:    182d        -.      ADDS     r5,r5,r0
        0x000000d2:    46a2        .F      MOV      r10,r4
        0x000000d4:    1e67        g.      SUBS     r7,r4,#1
        0x000000d6:    46ab        .F      MOV      r11,r5
    __scatterload_null
        0x000000d8:    4654        TF      MOV      r4,r10
        0x000000da:    465d        ]F      MOV      r5,r11
        0x000000dc:    42ac        .B      CMP      r4,r5
        0x000000de:    d101        ..      BNE      0xe4 ; __scatterload_null + 12
        0x000000e0:    f000f83a    ..:.    BL       __rt_entry ; 0x158
        0x000000e4:    467e        ~F      MOV      r6,pc
        0x000000e6:    3e0f        .>      SUBS     r6,r6,#0xf
        0x000000e8:    cc0f        ..      LDM      r4!,{r0-r3}
        0x000000ea:    46b6        .F      MOV      lr,r6
        0x000000ec:    2601        .&      MOVS     r6,#1
        0x000000ee:    4233        3B      TST      r3,r6
        0x000000f0:    d000        ..      BEQ      0xf4 ; __scatterload_null + 28
        0x000000f2:    1afb        ..      SUBS     r3,r7,r3
        0x000000f4:    46a2        .F      MOV      r10,r4
        0x000000f6:    46ab        .F      MOV      r11,r5
        0x000000f8:    4333        3C      ORRS     r3,r3,r6
        0x000000fa:    4718        .G      BX       r3
    $d
        0x000000fc:    00002014    . ..    DCD    8212
        0x00000100:    00002034    4 ..    DCD    8244
    $t
    !!handler_copy
    __scatterload_copy
        0x00000104:    3a10        .:      SUBS     r2,r2,#0x10
        0x00000106:    d302        ..      BCC      0x10e ; __scatterload_copy + 10
        0x00000108:    c878        x.      LDM      r0!,{r3-r6}
        0x0000010a:    c178        x.      STM      r1!,{r3-r6}
        0x0000010c:    d8fa        ..      BHI      __scatterload_copy ; 0x104
        0x0000010e:    0752        R.      LSLS     r2,r2,#29
        0x00000110:    d301        ..      BCC      0x116 ; __scatterload_copy + 18
        0x00000112:    c830        0.      LDM      r0!,{r4,r5}
        0x00000114:    c130        0.      STM      r1!,{r4,r5}
        0x00000116:    d501        ..      BPL      0x11c ; __scatterload_copy + 24
        0x00000118:    6804        .h      LDR      r4,[r0,#0]
        0x0000011a:    600c        .`      STR      r4,[r1,#0]
        0x0000011c:    4770        pG      BX       lr
        0x0000011e:    0000        ..      MOVS     r0,r0
    !!handler_zi
    __scatterload_zeroinit
        0x00000120:    2300        .#      MOVS     r3,#0
        0x00000122:    2400        .$      MOVS     r4,#0
        0x00000124:    2500        .%      MOVS     r5,#0
        0x00000126:    2600        .&      MOVS     r6,#0
        0x00000128:    3a10        .:      SUBS     r2,r2,#0x10
        0x0000012a:    d301        ..      BCC      0x130 ; __scatterload_zeroinit + 16
        0x0000012c:    c178        x.      STM      r1!,{r3-r6}
        0x0000012e:    d8fb        ..      BHI      0x128 ; __scatterload_zeroinit + 8
        0x00000130:    0752        R.      LSLS     r2,r2,#29
        0x00000132:    d300        ..      BCC      0x136 ; __scatterload_zeroinit + 22
        0x00000134:    c130        0.      STM      r1!,{r4,r5}
        0x00000136:    d500        ..      BPL      0x13a ; __scatterload_zeroinit + 26
        0x00000138:    600b        .`      STR      r3,[r1,#0]
        0x0000013a:    4770        pG      BX       lr
    .ARM.Collect$$_printf_percent$$00000000
    _printf_percent
        0x0000013c:    b510        ..      PUSH     {r4,lr}
    .ARM.Collect$$_printf_percent$$0000000C
    _printf_x
        0x0000013e:    2978        x)      CMP      r1,#0x78
        0x00000140:    d102        ..      BNE      _printf_percent_end ; 0x148
        0x00000142:    f000f87b    ..{.    BL       _printf_int_hex ; 0x23c
        0x00000146:    bd10        ..      POP      {r4,pc}
    .ARM.Collect$$_printf_percent$$00000017
    _printf_percent_end
        0x00000148:    2000        .       MOVS     r0,#0
        0x0000014a:    bd10        ..      POP      {r4,pc}
    .ARM.Collect$$libinit$$00000000
    __rt_lib_init
        0x0000014c:    b51f        ..      PUSH     {r0-r4,lr}
        0x0000014e:    46c0        .F      MOV      r8,r8
        0x00000150:    46c0        .F      MOV      r8,r8
    .ARM.Collect$$libinit$$00000006
    .ARM.Collect$$libinit$$00000008
    .ARM.Collect$$libinit$$0000000A
    .ARM.Collect$$libinit$$0000000D
    .ARM.Collect$$libinit$$0000000F
    .ARM.Collect$$libinit$$00000011
    .ARM.Collect$$libinit$$00000013
    .ARM.Collect$$libinit$$00000015
    .ARM.Collect$$libinit$$00000017
    .ARM.Collect$$libinit$$00000019
    .ARM.Collect$$libinit$$0000001B
    .ARM.Collect$$libinit$$0000001D
    .ARM.Collect$$libinit$$0000001F
    .ARM.Collect$$libinit$$00000021
    .ARM.Collect$$libinit$$00000028
    .ARM.Collect$$libinit$$0000002A
    .ARM.Collect$$libinit$$0000002C
    .ARM.Collect$$libinit$$0000002E
    .ARM.Collect$$libinit$$0000002F
    __rt_lib_init_alloca_1
    __rt_lib_init_argv_1
    __rt_lib_init_atexit_1
    __rt_lib_init_clock_1
    __rt_lib_init_cpp_1
    __rt_lib_init_exceptions_1
    __rt_lib_init_fp_trap_1
    __rt_lib_init_getenv_1
    __rt_lib_init_heap_1
    __rt_lib_init_lc_collate_1
    __rt_lib_init_lc_ctype_1
    __rt_lib_init_lc_monetary_1
    __rt_lib_init_lc_numeric_1
    __rt_lib_init_lc_time_1
    __rt_lib_init_rand_1
    __rt_lib_init_return
    __rt_lib_init_signal_1
    __rt_lib_init_stdio_1
    __rt_lib_init_user_alloc_1
        0x00000152:    bd1f        ..      POP      {r0-r4,pc}
    .ARM.Collect$$libshutdown$$00000000
    __rt_lib_shutdown
        0x00000154:    b510        ..      PUSH     {r4,lr}
    .ARM.Collect$$libshutdown$$00000003
    .ARM.Collect$$libshutdown$$00000006
    .ARM.Collect$$libshutdown$$00000009
    .ARM.Collect$$libshutdown$$0000000B
    .ARM.Collect$$libshutdown$$0000000E
    .ARM.Collect$$libshutdown$$0000000F
    __rt_lib_shutdown_fp_trap_1
    __rt_lib_shutdown_heap_1
    __rt_lib_shutdown_return
    __rt_lib_shutdown_signal_1
    __rt_lib_shutdown_stdio_1
    __rt_lib_shutdown_user_alloc_1
        0x00000156:    bd10        ..      POP      {r4,pc}
    .ARM.Collect$$rtentry$$00000000
    .ARM.Collect$$rtentry$$00000002
    .ARM.Collect$$rtentry$$00000004
    __rt_entry
    __rt_entry_presh_1
    __rt_entry_sh
        0x00000158:    f000fa49    ..I.    BL       __user_setup_stackheap ; 0x5ee
        0x0000015c:    4611        .F      MOV      r1,r2
    .ARM.Collect$$rtentry$$00000009
    .ARM.Collect$$rtentry$$0000000A
    __rt_entry_li
    __rt_entry_postsh_1
        0x0000015e:    f7fffff5    ....    BL       __rt_lib_init ; 0x14c
    .ARM.Collect$$rtentry$$0000000C
    .ARM.Collect$$rtentry$$0000000D
    __rt_entry_main
    __rt_entry_postli_1
        0x00000162:    f001fdd9    ....    BL       main ; 0x1d18
        0x00000166:    f000fa61    ..a.    BL       exit ; 0x62c
    .ARM.Collect$$rtexit$$00000000
    __rt_exit
        0x0000016a:    b403        ..      PUSH     {r0,r1}
    .ARM.Collect$$rtexit$$00000002
    .ARM.Collect$$rtexit$$00000003
    __rt_exit_ls
    __rt_exit_prels_1
        0x0000016c:    f7fffff2    ....    BL       __rt_lib_shutdown ; 0x154
    .ARM.Collect$$rtexit$$00000004
    __rt_exit_exit
        0x00000170:    bc03        ..      POP      {r0,r1}
        0x00000172:    f000fa65    ..e.    BL       _sys_exit ; 0x640
        0x00000176:    0000        ..      MOVS     r0,r0
    .emb_text
    __aeabi_memcpy4
    __aeabi_memcpy8
        0x00000178:    b570        p.      PUSH     {r4-r6,lr}
        0x0000017a:    4605        .F      MOV      r5,r0
        0x0000017c:    460c        .F      MOV      r4,r1
        0x0000017e:    4616        .F      MOV      r6,r2
        0x00000180:    e002        ..      B        0x188 ; __aeabi_memcpy4 + 16
        0x00000182:    cc0f        ..      LDM      r4!,{r0-r3}
        0x00000184:    c50f        ..      STM      r5!,{r0-r3}
        0x00000186:    3e10        .>      SUBS     r6,r6,#0x10
        0x00000188:    2e10        ..      CMP      r6,#0x10
        0x0000018a:    d2fa        ..      BCS      0x182 ; __aeabi_memcpy4 + 10
        0x0000018c:    2e08        ..      CMP      r6,#8
        0x0000018e:    d302        ..      BCC      0x196 ; __aeabi_memcpy4 + 30
        0x00000190:    cc03        ..      LDM      r4!,{r0,r1}
        0x00000192:    c503        ..      STM      r5!,{r0,r1}
        0x00000194:    3e08        .>      SUBS     r6,r6,#8
        0x00000196:    2e04        ..      CMP      r6,#4
        0x00000198:    d307        ..      BCC      0x1aa ; __aeabi_memcpy4 + 50
        0x0000019a:    cc01        ..      LDM      r4!,{r0}
        0x0000019c:    c501        ..      STM      r5!,{r0}
        0x0000019e:    1f36        6.      SUBS     r6,r6,#4
        0x000001a0:    e003        ..      B        0x1aa ; __aeabi_memcpy4 + 50
        0x000001a2:    7821        !x      LDRB     r1,[r4,#0]
        0x000001a4:    7029        )p      STRB     r1,[r5,#0]
        0x000001a6:    1c64        d.      ADDS     r4,r4,#1
        0x000001a8:    1c6d        m.      ADDS     r5,r5,#1
        0x000001aa:    1e76        v.      SUBS     r6,r6,#1
        0x000001ac:    d2f9        ..      BCS      0x1a2 ; __aeabi_memcpy4 + 42
        0x000001ae:    bd70        p.      POP      {r4-r6,pc}
    .text
    Reset_Handler
        0x000001b0:    480d        .H      LDR      r0,[pc,#52] ; [0x1e8] = 0x50000100
        0x000001b2:    490e        .I      LDR      r1,[pc,#56] ; [0x1ec] = 0x59
        0x000001b4:    6001        .`      STR      r1,[r0,#0]
        0x000001b6:    490e        .I      LDR      r1,[pc,#56] ; [0x1f0] = 0x16
        0x000001b8:    6001        .`      STR      r1,[r0,#0]
        0x000001ba:    490e        .I      LDR      r1,[pc,#56] ; [0x1f4] = 0x88
        0x000001bc:    6001        .`      STR      r1,[r0,#0]
        0x000001be:    4a0e        .J      LDR      r2,[pc,#56] ; [0x1f8] = 0x50000024
        0x000001c0:    490e        .I      LDR      r1,[pc,#56] ; [0x1fc] = 0x5aa5
        0x000001c2:    6011        .`      STR      r1,[r2,#0]
        0x000001c4:    2100        .!      MOVS     r1,#0
        0x000001c6:    6001        .`      STR      r1,[r0,#0]
        0x000001c8:    480d        .H      LDR      r0,[pc,#52] ; [0x200] = 0x1b11
        0x000001ca:    4780        .G      BLX      r0
        0x000001cc:    480d        .H      LDR      r0,[pc,#52] ; [0x204] = 0xc1
        0x000001ce:    4700        .G      BX       r0
    NMI_Handler
        0x000001d0:    e7fe        ..      B        NMI_Handler ; 0x1d0
    HardFault_Handler
        0x000001d2:    e7fe        ..      B        HardFault_Handler ; 0x1d2
    SVC_Handler
        0x000001d4:    e7fe        ..      B        SVC_Handler ; 0x1d4
    PendSV_Handler
        0x000001d6:    e7fe        ..      B        PendSV_Handler ; 0x1d6
    SysTick_Handler
        0x000001d8:    e7fe        ..      B        SysTick_Handler ; 0x1d8
    Default_Handler
    ACMP_IRQHandler
    ADC_IRQHandler
    CAN0_IRQHandler
    I2S_IRQHandler
    PDMA_IRQHandler
    PS2_IRQHandler
    PWMA_IRQHandler
    PWMB_IRQHandler
    RTC_IRQHandler
    TMR0_IRQHandler
    TMR1_IRQHandler
    TMR2_IRQHandler
    TMR3_IRQHandler
    USBD_IRQHandler
    WDT_IRQHandler
        0x000001da:    e7fe        ..      B        Default_Handler ; 0x1da
    __user_initial_stackheap
        0x000001dc:    480a        .H      LDR      r0,[pc,#40] ; [0x208] = 0x20000720
        0x000001de:    490b        .I      LDR      r1,[pc,#44] ; [0x20c] = 0x20000b20
        0x000001e0:    4a09        .J      LDR      r2,[pc,#36] ; [0x208] = 0x20000720
        0x000001e2:    4b0b        .K      LDR      r3,[pc,#44] ; [0x210] = 0x20000720
        0x000001e4:    4770        pG      BX       lr
    $d
        0x000001e6:    0000        ..      DCW    0
        0x000001e8:    50000100    ...P    DCD    1342177536
        0x000001ec:    00000059    Y...    DCD    89
        0x000001f0:    00000016    ....    DCD    22
        0x000001f4:    00000088    ....    DCD    136
        0x000001f8:    50000024    $..P    DCD    1342177316
        0x000001fc:    00005aa5    .Z..    DCD    23205
        0x00000200:    00001b11    ....    DCD    6929
        0x00000204:    000000c1    ....    DCD    193
        0x00000208:    20000720     ..     DCD    536872736
        0x0000020c:    20000b20     ..     DCD    536873760
        0x00000210:    20000720     ..     DCD    536872736
    $t
    .text
    __2sprintf
        0x00000214:    b40f        ..      PUSH     {r0-r3}
        0x00000216:    b51c        ..      PUSH     {r2-r4,lr}
        0x00000218:    4b07        .K      LDR      r3,[pc,#28] ; [0x238] = 0x3c5
        0x0000021a:    aa06        ..      ADD      r2,sp,#0x18
        0x0000021c:    447b        {D      ADD      r3,r3,pc
        0x0000021e:    4669        iF      MOV      r1,sp
        0x00000220:    9000        ..      STR      r0,[sp,#0]
        0x00000222:    9805        ..      LDR      r0,[sp,#0x14]
        0x00000224:    f000f9cb    ....    BL       _printf_char_common ; 0x5be
        0x00000228:    2000        .       MOVS     r0,#0
        0x0000022a:    4669        iF      MOV      r1,sp
        0x0000022c:    f000f9da    ....    BL       _sputc ; 0x5e4
        0x00000230:    bc1c        ..      POP      {r2-r4}
        0x00000232:    bc08        ..      POP      {r3}
        0x00000234:    b004        ..      ADD      sp,sp,#0x10
        0x00000236:    4718        .G      BX       r3
    $d
        0x00000238:    000003c5    ....    DCD    965
    $t
    .text
    _printf_int_hex
    _printf_longlong_hex
        0x0000023c:    b570        p.      PUSH     {r4-r6,lr}
        0x0000023e:    4604        .F      MOV      r4,r0
        0x00000240:    460d        .F      MOV      r5,r1
        0x00000242:    4621        !F      MOV      r1,r4
        0x00000244:    6810        .h      LDR      r0,[r2,#0]
        0x00000246:    46c0        .F      MOV      r8,r8
        0x00000248:    46c0        .F      MOV      r8,r8
        0x0000024a:    6821        !h      LDR      r1,[r4,#0]
        0x0000024c:    0509        ..      LSLS     r1,r1,#20
        0x0000024e:    d502        ..      BPL      0x256 ; _printf_int_hex + 26
        0x00000250:    4a0f        .J      LDR      r2,[pc,#60] ; [0x290] = 0x1e92
        0x00000252:    447a        zD      ADD      r2,r2,pc
        0x00000254:    e002        ..      B        0x25c ; _printf_int_hex + 32
        0x00000256:    4a0e        .J      LDR      r2,[pc,#56] ; [0x290] = 0x1e92
        0x00000258:    447a        zD      ADD      r2,r2,pc
        0x0000025a:    320e        .2      ADDS     r2,r2,#0xe
        0x0000025c:    4623        #F      MOV      r3,r4
        0x0000025e:    2100        .!      MOVS     r1,#0
        0x00000260:    3324        $3      ADDS     r3,r3,#0x24
        0x00000262:    e005        ..      B        0x270 ; _printf_int_hex + 52
        0x00000264:    0706        ..      LSLS     r6,r0,#28
        0x00000266:    0f36        6.      LSRS     r6,r6,#28
        0x00000268:    5d96        .]      LDRB     r6,[r2,r6]
        0x0000026a:    545e        ^T      STRB     r6,[r3,r1]
        0x0000026c:    1c49        I.      ADDS     r1,r1,#1
        0x0000026e:    0900        ..      LSRS     r0,r0,#4
        0x00000270:    2800        .(      CMP      r0,#0
        0x00000272:    d1f7        ..      BNE      0x264 ; _printf_int_hex + 40
        0x00000274:    6820         h      LDR      r0,[r4,#0]
        0x00000276:    2300        .#      MOVS     r3,#0
        0x00000278:    0700        ..      LSLS     r0,r0,#28
        0x0000027a:    d505        ..      BPL      0x288 ; _printf_int_hex + 76
        0x0000027c:    2d70        p-      CMP      r5,#0x70
        0x0000027e:    d003        ..      BEQ      0x288 ; _printf_int_hex + 76
        0x00000280:    2900        .)      CMP      r1,#0
        0x00000282:    d001        ..      BEQ      0x288 ; _printf_int_hex + 76
        0x00000284:    3211        .2      ADDS     r2,r2,#0x11
        0x00000286:    2302        .#      MOVS     r3,#2
        0x00000288:    4620         F      MOV      r0,r4
        0x0000028a:    f000f93b    ..;.    BL       _printf_int_common ; 0x504
        0x0000028e:    bd70        p.      POP      {r4-r6,pc}
    $d
        0x00000290:    00001e92    ....    DCD    7826
    $t
    .text
    __printf
        0x00000294:    b5f3        ..      PUSH     {r0,r1,r4-r7,lr}
        0x00000296:    4604        .F      MOV      r4,r0
        0x00000298:    2000        .       MOVS     r0,#0
        0x0000029a:    b081        ..      SUB      sp,sp,#4
        0x0000029c:    e07e        ~.      B        0x39c ; __printf + 264
        0x0000029e:    68e1        .h      LDR      r1,[r4,#0xc]
        0x000002a0:    4620         F      MOV      r0,r4
        0x000002a2:    4788        .G      BLX      r1
        0x000002a4:    2800        .(      CMP      r0,#0
        0x000002a6:    d07b        {.      BEQ      0x3a0 ; __printf + 268
        0x000002a8:    2825        %(      CMP      r0,#0x25
        0x000002aa:    d002        ..      BEQ      0x2b2 ; __printf + 30
        0x000002ac:    6862        bh      LDR      r2,[r4,#4]
        0x000002ae:    68a1        .h      LDR      r1,[r4,#8]
        0x000002b0:    e071        q.      B        0x396 ; __printf + 258
        0x000002b2:    68e1        .h      LDR      r1,[r4,#0xc]
        0x000002b4:    4620         F      MOV      r0,r4
        0x000002b6:    2500        .%      MOVS     r5,#0
        0x000002b8:    4788        .G      BLX      r1
        0x000002ba:    4606        .F      MOV      r6,r0
        0x000002bc:    2000        .       MOVS     r0,#0
        0x000002be:    61e0        .a      STR      r0,[r4,#0x1c]
        0x000002c0:    4607        .F      MOV      r7,r0
        0x000002c2:    61a0        .a      STR      r0,[r4,#0x18]
        0x000002c4:    2e2a        *.      CMP      r6,#0x2a
        0x000002c6:    d00a        ..      BEQ      0x2de ; __printf + 74
        0x000002c8:    4630        0F      MOV      r0,r6
        0x000002ca:    f001fcef    ....    BL       _is_digit ; 0x1cac
        0x000002ce:    2800        .(      CMP      r0,#0
        0x000002d0:    d027        '.      BEQ      0x322 ; __printf + 142
        0x000002d2:    3e30        0>      SUBS     r6,r6,#0x30
        0x000002d4:    00b8        ..      LSLS     r0,r7,#2
        0x000002d6:    1900        ..      ADDS     r0,r0,r4
        0x000002d8:    9000        ..      STR      r0,[sp,#0]
        0x000002da:    6186        .a      STR      r6,[r0,#0x18]
        0x000002dc:    e019        ..      B        0x312 ; __printf + 126
        0x000002de:    9802        ..      LDR      r0,[sp,#8]
        0x000002e0:    00ba        ..      LSLS     r2,r7,#2
        0x000002e2:    1912        ..      ADDS     r2,r2,r4
        0x000002e4:    c802        ..      LDM      r0!,{r1}
        0x000002e6:    6191        .a      STR      r1,[r2,#0x18]
        0x000002e8:    9002        ..      STR      r0,[sp,#8]
        0x000002ea:    4620         F      MOV      r0,r4
        0x000002ec:    68e1        .h      LDR      r1,[r4,#0xc]
        0x000002ee:    4788        .G      BLX      r1
        0x000002f0:    2f01        ./      CMP      r7,#1
        0x000002f2:    4606        .F      MOV      r6,r0
        0x000002f4:    d117        ..      BNE      0x326 ; __printf + 146
        0x000002f6:    69e0        .i      LDR      r0,[r4,#0x1c]
        0x000002f8:    2800        .(      CMP      r0,#0
        0x000002fa:    da1f        ..      BGE      0x33c ; __printf + 168
        0x000002fc:    2020                MOVS     r0,#0x20
        0x000002fe:    4385        .C      BICS     r5,r5,r0
        0x00000300:    e01c        ..      B        0x33c ; __printf + 168
        0x00000302:    9800        ..      LDR      r0,[sp,#0]
        0x00000304:    210a        .!      MOVS     r1,#0xa
        0x00000306:    6980        .i      LDR      r0,[r0,#0x18]
        0x00000308:    4348        HC      MULS     r0,r1,r0
        0x0000030a:    9900        ..      LDR      r1,[sp,#0]
        0x0000030c:    1980        ..      ADDS     r0,r0,r6
        0x0000030e:    3830        08      SUBS     r0,r0,#0x30
        0x00000310:    6188        .a      STR      r0,[r1,#0x18]
        0x00000312:    4620         F      MOV      r0,r4
        0x00000314:    68e1        .h      LDR      r1,[r4,#0xc]
        0x00000316:    4788        .G      BLX      r1
        0x00000318:    4606        .F      MOV      r6,r0
        0x0000031a:    f001fcc7    ....    BL       _is_digit ; 0x1cac
        0x0000031e:    2800        .(      CMP      r0,#0
        0x00000320:    d1ef        ..      BNE      0x302 ; __printf + 110
        0x00000322:    2f01        ./      CMP      r7,#1
        0x00000324:    d00a        ..      BEQ      0x33c ; __printf + 168
        0x00000326:    2e2e        ..      CMP      r6,#0x2e
        0x00000328:    d108        ..      BNE      0x33c ; __printf + 168
        0x0000032a:    4620         F      MOV      r0,r4
        0x0000032c:    68e1        .h      LDR      r1,[r4,#0xc]
        0x0000032e:    4788        .G      BLX      r1
        0x00000330:    4606        .F      MOV      r6,r0
        0x00000332:    2020                MOVS     r0,#0x20
        0x00000334:    4305        .C      ORRS     r5,r5,r0
        0x00000336:    1c7f        ..      ADDS     r7,r7,#1
        0x00000338:    2f02        ./      CMP      r7,#2
        0x0000033a:    dbc3        ..      BLT      0x2c4 ; __printf + 48
        0x0000033c:    69a0        .i      LDR      r0,[r4,#0x18]
        0x0000033e:    2800        .(      CMP      r0,#0
        0x00000340:    da03        ..      BGE      0x34a ; __printf + 182
        0x00000342:    4240        @B      RSBS     r0,r0,#0
        0x00000344:    61a0        .a      STR      r0,[r4,#0x18]
        0x00000346:    2001        .       MOVS     r0,#1
        0x00000348:    4305        .C      ORRS     r5,r5,r0
        0x0000034a:    07e8        ..      LSLS     r0,r5,#31
        0x0000034c:    d001        ..      BEQ      0x352 ; __printf + 190
        0x0000034e:    2010        .       MOVS     r0,#0x10
        0x00000350:    4385        .C      BICS     r5,r5,r0
        0x00000352:    2e00        ..      CMP      r6,#0
        0x00000354:    d024        $.      BEQ      0x3a0 ; __printf + 268
        0x00000356:    4630        0F      MOV      r0,r6
        0x00000358:    3841        A8      SUBS     r0,r0,#0x41
        0x0000035a:    2819        .(      CMP      r0,#0x19
        0x0000035c:    d803        ..      BHI      0x366 ; __printf + 210
        0x0000035e:    2001        .       MOVS     r0,#1
        0x00000360:    02c0        ..      LSLS     r0,r0,#11
        0x00000362:    4305        .C      ORRS     r5,r5,r0
        0x00000364:    3620         6      ADDS     r6,r6,#0x20
        0x00000366:    4620         F      MOV      r0,r4
        0x00000368:    6025        %`      STR      r5,[r4,#0]
        0x0000036a:    4631        1F      MOV      r1,r6
        0x0000036c:    9a02        ..      LDR      r2,[sp,#8]
        0x0000036e:    4615        .F      MOV      r5,r2
        0x00000370:    f7fffee4    ....    BL       _printf_percent ; 0x13c
        0x00000374:    2800        .(      CMP      r0,#0
        0x00000376:    d00b        ..      BEQ      0x390 ; __printf + 252
        0x00000378:    2801        .(      CMP      r0,#1
        0x0000037a:    d006        ..      BEQ      0x38a ; __printf + 246
        0x0000037c:    1ded        ..      ADDS     r5,r5,#7
        0x0000037e:    08e8        ..      LSRS     r0,r5,#3
        0x00000380:    00c0        ..      LSLS     r0,r0,#3
        0x00000382:    3008        .0      ADDS     r0,r0,#8
        0x00000384:    9002        ..      STR      r0,[sp,#8]
        0x00000386:    e78a        ..      B        0x29e ; __printf + 10
        0x00000388:    e00a        ..      B        0x3a0 ; __printf + 268
        0x0000038a:    1d2d        -.      ADDS     r5,r5,#4
        0x0000038c:    9502        ..      STR      r5,[sp,#8]
        0x0000038e:    e786        ..      B        0x29e ; __printf + 10
        0x00000390:    6862        bh      LDR      r2,[r4,#4]
        0x00000392:    4630        0F      MOV      r0,r6
        0x00000394:    68a1        .h      LDR      r1,[r4,#8]
        0x00000396:    4790        .G      BLX      r2
        0x00000398:    6a20         j      LDR      r0,[r4,#0x20]
        0x0000039a:    1c40        @.      ADDS     r0,r0,#1
        0x0000039c:    6220         b      STR      r0,[r4,#0x20]
        0x0000039e:    e77e        ~.      B        0x29e ; __printf + 10
        0x000003a0:    6a20         j      LDR      r0,[r4,#0x20]
        0x000003a2:    bdfe        ..      POP      {r1-r7,pc}
    .text
    __aeabi_uidiv
    __aeabi_uidivmod
        0x000003a4:    2200        ."      MOVS     r2,#0
        0x000003a6:    0903        ..      LSRS     r3,r0,#4
        0x000003a8:    428b        .B      CMP      r3,r1
        0x000003aa:    d32c        ,.      BCC      0x406 ; __aeabi_idiv + 78
        0x000003ac:    0a03        ..      LSRS     r3,r0,#8
        0x000003ae:    428b        .B      CMP      r3,r1
        0x000003b0:    d311        ..      BCC      0x3d6 ; __aeabi_idiv + 30
        0x000003b2:    2300        .#      MOVS     r3,#0
        0x000003b4:    469c        .F      MOV      r12,r3
        0x000003b6:    e04e        N.      B        0x456 ; __aeabi_idiv + 158
    __aeabi_idiv
    __aeabi_idivmod
        0x000003b8:    4603        .F      MOV      r3,r0
        0x000003ba:    430b        .C      ORRS     r3,r3,r1
        0x000003bc:    d43c        <.      BMI      0x438 ; __aeabi_idiv + 128
        0x000003be:    2200        ."      MOVS     r2,#0
        0x000003c0:    0843        C.      LSRS     r3,r0,#1
        0x000003c2:    428b        .B      CMP      r3,r1
        0x000003c4:    d331        1.      BCC      0x42a ; __aeabi_idiv + 114
        0x000003c6:    0903        ..      LSRS     r3,r0,#4
        0x000003c8:    428b        .B      CMP      r3,r1
        0x000003ca:    d31c        ..      BCC      0x406 ; __aeabi_idiv + 78
        0x000003cc:    0a03        ..      LSRS     r3,r0,#8
        0x000003ce:    428b        .B      CMP      r3,r1
        0x000003d0:    d301        ..      BCC      0x3d6 ; __aeabi_idiv + 30
        0x000003d2:    4694        .F      MOV      r12,r2
        0x000003d4:    e03f        ?.      B        0x456 ; __aeabi_idiv + 158
        0x000003d6:    09c3        ..      LSRS     r3,r0,#7
        0x000003d8:    428b        .B      CMP      r3,r1
        0x000003da:    d301        ..      BCC      0x3e0 ; __aeabi_idiv + 40
        0x000003dc:    01cb        ..      LSLS     r3,r1,#7
        0x000003de:    1ac0        ..      SUBS     r0,r0,r3
        0x000003e0:    4152        RA      ADCS     r2,r2,r2
        0x000003e2:    0983        ..      LSRS     r3,r0,#6
        0x000003e4:    428b        .B      CMP      r3,r1
        0x000003e6:    d301        ..      BCC      0x3ec ; __aeabi_idiv + 52
        0x000003e8:    018b        ..      LSLS     r3,r1,#6
        0x000003ea:    1ac0        ..      SUBS     r0,r0,r3
        0x000003ec:    4152        RA      ADCS     r2,r2,r2
        0x000003ee:    0943        C.      LSRS     r3,r0,#5
        0x000003f0:    428b        .B      CMP      r3,r1
        0x000003f2:    d301        ..      BCC      0x3f8 ; __aeabi_idiv + 64
        0x000003f4:    014b        K.      LSLS     r3,r1,#5
        0x000003f6:    1ac0        ..      SUBS     r0,r0,r3
        0x000003f8:    4152        RA      ADCS     r2,r2,r2
        0x000003fa:    0903        ..      LSRS     r3,r0,#4
        0x000003fc:    428b        .B      CMP      r3,r1
        0x000003fe:    d301        ..      BCC      0x404 ; __aeabi_idiv + 76
        0x00000400:    010b        ..      LSLS     r3,r1,#4
        0x00000402:    1ac0        ..      SUBS     r0,r0,r3
        0x00000404:    4152        RA      ADCS     r2,r2,r2
        0x00000406:    08c3        ..      LSRS     r3,r0,#3
        0x00000408:    428b        .B      CMP      r3,r1
        0x0000040a:    d301        ..      BCC      0x410 ; __aeabi_idiv + 88
        0x0000040c:    00cb        ..      LSLS     r3,r1,#3
        0x0000040e:    1ac0        ..      SUBS     r0,r0,r3
        0x00000410:    4152        RA      ADCS     r2,r2,r2
        0x00000412:    0883        ..      LSRS     r3,r0,#2
        0x00000414:    428b        .B      CMP      r3,r1
        0x00000416:    d301        ..      BCC      0x41c ; __aeabi_idiv + 100
        0x00000418:    008b        ..      LSLS     r3,r1,#2
        0x0000041a:    1ac0        ..      SUBS     r0,r0,r3
        0x0000041c:    4152        RA      ADCS     r2,r2,r2
        0x0000041e:    0843        C.      LSRS     r3,r0,#1
        0x00000420:    428b        .B      CMP      r3,r1
        0x00000422:    d301        ..      BCC      0x428 ; __aeabi_idiv + 112
        0x00000424:    004b        K.      LSLS     r3,r1,#1
        0x00000426:    1ac0        ..      SUBS     r0,r0,r3
        0x00000428:    4152        RA      ADCS     r2,r2,r2
        0x0000042a:    1a41        A.      SUBS     r1,r0,r1
        0x0000042c:    d200        ..      BCS      0x430 ; __aeabi_idiv + 120
        0x0000042e:    4601        .F      MOV      r1,r0
        0x00000430:    4152        RA      ADCS     r2,r2,r2
        0x00000432:    4610        .F      MOV      r0,r2
        0x00000434:    4770        pG      BX       lr
        0x00000436:    e05d        ].      B        0x4f4 ; __aeabi_idiv + 316
        0x00000438:    0fca        ..      LSRS     r2,r1,#31
        0x0000043a:    d000        ..      BEQ      0x43e ; __aeabi_idiv + 134
        0x0000043c:    4249        IB      RSBS     r1,r1,#0
        0x0000043e:    1003        ..      ASRS     r3,r0,#32
        0x00000440:    d300        ..      BCC      0x444 ; __aeabi_idiv + 140
        0x00000442:    4240        @B      RSBS     r0,r0,#0
        0x00000444:    4053        S@      EORS     r3,r3,r2
        0x00000446:    2200        ."      MOVS     r2,#0
        0x00000448:    469c        .F      MOV      r12,r3
        0x0000044a:    0903        ..      LSRS     r3,r0,#4
        0x0000044c:    428b        .B      CMP      r3,r1
        0x0000044e:    d32d        -.      BCC      0x4ac ; __aeabi_idiv + 244
        0x00000450:    0a03        ..      LSRS     r3,r0,#8
        0x00000452:    428b        .B      CMP      r3,r1
        0x00000454:    d312        ..      BCC      0x47c ; __aeabi_idiv + 196
        0x00000456:    22fc        ."      MOVS     r2,#0xfc
        0x00000458:    0189        ..      LSLS     r1,r1,#6
        0x0000045a:    ba12        ..      REV      r2,r2
        0x0000045c:    0a03        ..      LSRS     r3,r0,#8
        0x0000045e:    428b        .B      CMP      r3,r1
        0x00000460:    d30c        ..      BCC      0x47c ; __aeabi_idiv + 196
        0x00000462:    0189        ..      LSLS     r1,r1,#6
        0x00000464:    1192        ..      ASRS     r2,r2,#6
        0x00000466:    428b        .B      CMP      r3,r1
        0x00000468:    d308        ..      BCC      0x47c ; __aeabi_idiv + 196
        0x0000046a:    0189        ..      LSLS     r1,r1,#6
        0x0000046c:    1192        ..      ASRS     r2,r2,#6
        0x0000046e:    428b        .B      CMP      r3,r1
        0x00000470:    d304        ..      BCC      0x47c ; __aeabi_idiv + 196
        0x00000472:    0189        ..      LSLS     r1,r1,#6
        0x00000474:    d03a        :.      BEQ      0x4ec ; __aeabi_idiv + 308
        0x00000476:    1192        ..      ASRS     r2,r2,#6
        0x00000478:    e000        ..      B        0x47c ; __aeabi_idiv + 196
        0x0000047a:    0989        ..      LSRS     r1,r1,#6
        0x0000047c:    09c3        ..      LSRS     r3,r0,#7
        0x0000047e:    428b        .B      CMP      r3,r1
        0x00000480:    d301        ..      BCC      0x486 ; __aeabi_idiv + 206
        0x00000482:    01cb        ..      LSLS     r3,r1,#7
        0x00000484:    1ac0        ..      SUBS     r0,r0,r3
        0x00000486:    4152        RA      ADCS     r2,r2,r2
        0x00000488:    0983        ..      LSRS     r3,r0,#6
        0x0000048a:    428b        .B      CMP      r3,r1
        0x0000048c:    d301        ..      BCC      0x492 ; __aeabi_idiv + 218
        0x0000048e:    018b        ..      LSLS     r3,r1,#6
        0x00000490:    1ac0        ..      SUBS     r0,r0,r3
        0x00000492:    4152        RA      ADCS     r2,r2,r2
        0x00000494:    0943        C.      LSRS     r3,r0,#5
        0x00000496:    428b        .B      CMP      r3,r1
        0x00000498:    d301        ..      BCC      0x49e ; __aeabi_idiv + 230
        0x0000049a:    014b        K.      LSLS     r3,r1,#5
        0x0000049c:    1ac0        ..      SUBS     r0,r0,r3
        0x0000049e:    4152        RA      ADCS     r2,r2,r2
        0x000004a0:    0903        ..      LSRS     r3,r0,#4
        0x000004a2:    428b        .B      CMP      r3,r1
        0x000004a4:    d301        ..      BCC      0x4aa ; __aeabi_idiv + 242
        0x000004a6:    010b        ..      LSLS     r3,r1,#4
        0x000004a8:    1ac0        ..      SUBS     r0,r0,r3
        0x000004aa:    4152        RA      ADCS     r2,r2,r2
        0x000004ac:    08c3        ..      LSRS     r3,r0,#3
        0x000004ae:    428b        .B      CMP      r3,r1
        0x000004b0:    d301        ..      BCC      0x4b6 ; __aeabi_idiv + 254
        0x000004b2:    00cb        ..      LSLS     r3,r1,#3
        0x000004b4:    1ac0        ..      SUBS     r0,r0,r3
        0x000004b6:    4152        RA      ADCS     r2,r2,r2
        0x000004b8:    0883        ..      LSRS     r3,r0,#2
        0x000004ba:    428b        .B      CMP      r3,r1
        0x000004bc:    d301        ..      BCC      0x4c2 ; __aeabi_idiv + 266
        0x000004be:    008b        ..      LSLS     r3,r1,#2
        0x000004c0:    1ac0        ..      SUBS     r0,r0,r3
        0x000004c2:    4152        RA      ADCS     r2,r2,r2
        0x000004c4:    d2d9        ..      BCS      0x47a ; __aeabi_idiv + 194
        0x000004c6:    0843        C.      LSRS     r3,r0,#1
        0x000004c8:    428b        .B      CMP      r3,r1
        0x000004ca:    d301        ..      BCC      0x4d0 ; __aeabi_idiv + 280
        0x000004cc:    004b        K.      LSLS     r3,r1,#1
        0x000004ce:    1ac0        ..      SUBS     r0,r0,r3
        0x000004d0:    4152        RA      ADCS     r2,r2,r2
        0x000004d2:    1a41        A.      SUBS     r1,r0,r1
        0x000004d4:    d200        ..      BCS      0x4d8 ; __aeabi_idiv + 288
        0x000004d6:    4601        .F      MOV      r1,r0
        0x000004d8:    4663        cF      MOV      r3,r12
        0x000004da:    4152        RA      ADCS     r2,r2,r2
        0x000004dc:    105b        [.      ASRS     r3,r3,#1
        0x000004de:    4610        .F      MOV      r0,r2
        0x000004e0:    d301        ..      BCC      0x4e6 ; __aeabi_idiv + 302
        0x000004e2:    4240        @B      RSBS     r0,r0,#0
        0x000004e4:    2b00        .+      CMP      r3,#0
        0x000004e6:    d500        ..      BPL      0x4ea ; __aeabi_idiv + 306
        0x000004e8:    4249        IB      RSBS     r1,r1,#0
        0x000004ea:    4770        pG      BX       lr
        0x000004ec:    4663        cF      MOV      r3,r12
        0x000004ee:    105b        [.      ASRS     r3,r3,#1
        0x000004f0:    d300        ..      BCC      0x4f4 ; __aeabi_idiv + 316
        0x000004f2:    4240        @B      RSBS     r0,r0,#0
        0x000004f4:    b501        ..      PUSH     {r0,lr}
        0x000004f6:    2000        .       MOVS     r0,#0
        0x000004f8:    46c0        .F      MOV      r8,r8
        0x000004fa:    46c0        .F      MOV      r8,r8
        0x000004fc:    bd02        ..      POP      {r1,pc}
    .text
    __use_two_region_memory
        0x000004fe:    4770        pG      BX       lr
    __rt_heap_escrow$2region
        0x00000500:    4770        pG      BX       lr
    __rt_heap_expand$2region
        0x00000502:    4770        pG      BX       lr
    .text
    _printf_int_common
        0x00000504:    b5ff        ..      PUSH     {r0-r7,lr}
        0x00000506:    4604        .F      MOV      r4,r0
        0x00000508:    460d        .F      MOV      r5,r1
        0x0000050a:    b081        ..      SUB      sp,sp,#4
        0x0000050c:    3024        $0      ADDS     r0,r0,#0x24
        0x0000050e:    9000        ..      STR      r0,[sp,#0]
        0x00000510:    6821        !h      LDR      r1,[r4,#0]
        0x00000512:    0688        ..      LSLS     r0,r1,#26
        0x00000514:    d504        ..      BPL      0x520 ; _printf_int_common + 28
        0x00000516:    2210        ."      MOVS     r2,#0x10
        0x00000518:    69e0        .i      LDR      r0,[r4,#0x1c]
        0x0000051a:    4391        .C      BICS     r1,r1,r2
        0x0000051c:    6021        !`      STR      r1,[r4,#0]
        0x0000051e:    e000        ..      B        0x522 ; _printf_int_common + 30
        0x00000520:    2001        .       MOVS     r0,#1
        0x00000522:    42a8        .B      CMP      r0,r5
        0x00000524:    dd01        ..      BLE      0x52a ; _printf_int_common + 38
        0x00000526:    1b47        G.      SUBS     r7,r0,r5
        0x00000528:    e000        ..      B        0x52c ; _printf_int_common + 40
        0x0000052a:    2700        .'      MOVS     r7,#0
        0x0000052c:    9804        ..      LDR      r0,[sp,#0x10]
        0x0000052e:    69a1        .i      LDR      r1,[r4,#0x18]
        0x00000530:    197a        z.      ADDS     r2,r7,r5
        0x00000532:    1810        ..      ADDS     r0,r2,r0
        0x00000534:    1a08        ..      SUBS     r0,r1,r0
        0x00000536:    61a0        .a      STR      r0,[r4,#0x18]
        0x00000538:    6820         h      LDR      r0,[r4,#0]
        0x0000053a:    06c0        ..      LSLS     r0,r0,#27
        0x0000053c:    d402        ..      BMI      0x544 ; _printf_int_common + 64
        0x0000053e:    4620         F      MOV      r0,r4
        0x00000540:    46c0        .F      MOV      r8,r8
        0x00000542:    46c0        .F      MOV      r8,r8
        0x00000544:    2600        .&      MOVS     r6,#0
        0x00000546:    e008        ..      B        0x55a ; _printf_int_common + 86
        0x00000548:    9803        ..      LDR      r0,[sp,#0xc]
        0x0000054a:    6862        bh      LDR      r2,[r4,#4]
        0x0000054c:    68a1        .h      LDR      r1,[r4,#8]
        0x0000054e:    5d80        .]      LDRB     r0,[r0,r6]
        0x00000550:    4790        .G      BLX      r2
        0x00000552:    6a20         j      LDR      r0,[r4,#0x20]
        0x00000554:    1c40        @.      ADDS     r0,r0,#1
        0x00000556:    1c76        v.      ADDS     r6,r6,#1
        0x00000558:    6220         b      STR      r0,[r4,#0x20]
        0x0000055a:    9804        ..      LDR      r0,[sp,#0x10]
        0x0000055c:    4286        .B      CMP      r6,r0
        0x0000055e:    dbf3        ..      BLT      0x548 ; _printf_int_common + 68
        0x00000560:    6820         h      LDR      r0,[r4,#0]
        0x00000562:    06c0        ..      LSLS     r0,r0,#27
        0x00000564:    d50a        ..      BPL      0x57c ; _printf_int_common + 120
        0x00000566:    4620         F      MOV      r0,r4
        0x00000568:    46c0        .F      MOV      r8,r8
        0x0000056a:    46c0        .F      MOV      r8,r8
        0x0000056c:    e006        ..      B        0x57c ; _printf_int_common + 120
        0x0000056e:    6862        bh      LDR      r2,[r4,#4]
        0x00000570:    68a1        .h      LDR      r1,[r4,#8]
        0x00000572:    2030        0       MOVS     r0,#0x30
        0x00000574:    4790        .G      BLX      r2
        0x00000576:    6a20         j      LDR      r0,[r4,#0x20]
        0x00000578:    1c40        @.      ADDS     r0,r0,#1
        0x0000057a:    6220         b      STR      r0,[r4,#0x20]
        0x0000057c:    4638        8F      MOV      r0,r7
        0x0000057e:    1e7f        ..      SUBS     r7,r7,#1
        0x00000580:    2800        .(      CMP      r0,#0
        0x00000582:    dcf4        ..      BGT      0x56e ; _printf_int_common + 106
        0x00000584:    e007        ..      B        0x596 ; _printf_int_common + 146
        0x00000586:    9800        ..      LDR      r0,[sp,#0]
        0x00000588:    6862        bh      LDR      r2,[r4,#4]
        0x0000058a:    68a1        .h      LDR      r1,[r4,#8]
        0x0000058c:    5d40        @]      LDRB     r0,[r0,r5]
        0x0000058e:    4790        .G      BLX      r2
        0x00000590:    6a20         j      LDR      r0,[r4,#0x20]
        0x00000592:    1c40        @.      ADDS     r0,r0,#1
        0x00000594:    6220         b      STR      r0,[r4,#0x20]
        0x00000596:    4628        (F      MOV      r0,r5
        0x00000598:    1e6d        m.      SUBS     r5,r5,#1
        0x0000059a:    2800        .(      CMP      r0,#0
        0x0000059c:    dcf3        ..      BGT      0x586 ; _printf_int_common + 130
        0x0000059e:    4620         F      MOV      r0,r4
        0x000005a0:    46c0        .F      MOV      r8,r8
        0x000005a2:    46c0        .F      MOV      r8,r8
        0x000005a4:    6820         h      LDR      r0,[r4,#0]
        0x000005a6:    0600        ..      LSLS     r0,r0,#24
        0x000005a8:    d502        ..      BPL      0x5b0 ; _printf_int_common + 172
        0x000005aa:    2002        .       MOVS     r0,#2
        0x000005ac:    b005        ..      ADD      sp,sp,#0x14
        0x000005ae:    bdf0        ..      POP      {r4-r7,pc}
        0x000005b0:    2001        .       MOVS     r0,#1
        0x000005b2:    e7fb        ..      B        0x5ac ; _printf_int_common + 168
    .text
    _printf_input_char
        0x000005b4:    6901        .i      LDR      r1,[r0,#0x10]
        0x000005b6:    1c4a        J.      ADDS     r2,r1,#1
        0x000005b8:    6102        .a      STR      r2,[r0,#0x10]
        0x000005ba:    7808        .x      LDRB     r0,[r1,#0]
        0x000005bc:    4770        pG      BX       lr
    _printf_char_common
        0x000005be:    b500        ..      PUSH     {lr}
        0x000005c0:    b08f        ..      SUB      sp,sp,#0x3c
        0x000005c2:    9102        ..      STR      r1,[sp,#8]
        0x000005c4:    2100        .!      MOVS     r1,#0
        0x000005c6:    9105        ..      STR      r1,[sp,#0x14]
        0x000005c8:    4905        .I      LDR      r1,[pc,#20] ; [0x5e0] = 0xffffffe5
        0x000005ca:    9301        ..      STR      r3,[sp,#4]
        0x000005cc:    4479        yD      ADD      r1,r1,pc
        0x000005ce:    9103        ..      STR      r1,[sp,#0xc]
        0x000005d0:    4611        .F      MOV      r1,r2
        0x000005d2:    9004        ..      STR      r0,[sp,#0x10]
        0x000005d4:    4668        hF      MOV      r0,sp
        0x000005d6:    f7fffe5d    ..].    BL       __printf ; 0x294
        0x000005da:    b00f        ..      ADD      sp,sp,#0x3c
        0x000005dc:    bd00        ..      POP      {pc}
    $d
        0x000005de:    0000        ..      DCW    0
        0x000005e0:    ffffffe5    ....    DCD    4294967269
    $t
    .text
    _sputc
        0x000005e4:    680a        .h      LDR      r2,[r1,#0]
        0x000005e6:    7010        .p      STRB     r0,[r2,#0]
        0x000005e8:    1c52        R.      ADDS     r2,r2,#1
        0x000005ea:    600a        .`      STR      r2,[r1,#0]
        0x000005ec:    4770        pG      BX       lr
    .text
    __user_setup_stackheap
        0x000005ee:    4675        uF      MOV      r5,lr
        0x000005f0:    f000f822    ..".    BL       __user_libspace ; 0x638
        0x000005f4:    46ae        .F      MOV      lr,r5
        0x000005f6:    0005        ..      MOVS     r5,r0
        0x000005f8:    4669        iF      MOV      r1,sp
        0x000005fa:    4653        SF      MOV      r3,r10
        0x000005fc:    08c0        ..      LSRS     r0,r0,#3
        0x000005fe:    00c0        ..      LSLS     r0,r0,#3
        0x00000600:    4685        .F      MOV      sp,r0
        0x00000602:    b018        ..      ADD      sp,sp,#0x60
        0x00000604:    b520         .      PUSH     {r5,lr}
        0x00000606:    f7fffde9    ....    BL       __user_initial_stackheap ; 0x1dc
        0x0000060a:    bc60        `.      POP      {r5,r6}
        0x0000060c:    2700        .'      MOVS     r7,#0
        0x0000060e:    0849        I.      LSRS     r1,r1,#1
        0x00000610:    46b6        .F      MOV      lr,r6
        0x00000612:    2600        .&      MOVS     r6,#0
        0x00000614:    c5c0        ..      STM      r5!,{r6,r7}
        0x00000616:    c5c0        ..      STM      r5!,{r6,r7}
        0x00000618:    c5c0        ..      STM      r5!,{r6,r7}
        0x0000061a:    c5c0        ..      STM      r5!,{r6,r7}
        0x0000061c:    c5c0        ..      STM      r5!,{r6,r7}
        0x0000061e:    c5c0        ..      STM      r5!,{r6,r7}
        0x00000620:    c5c0        ..      STM      r5!,{r6,r7}
        0x00000622:    c5c0        ..      STM      r5!,{r6,r7}
        0x00000624:    3d40        @=      SUBS     r5,r5,#0x40
        0x00000626:    0049        I.      LSLS     r1,r1,#1
        0x00000628:    468d        .F      MOV      sp,r1
        0x0000062a:    4770        pG      BX       lr
    .text
    exit
        0x0000062c:    4604        .F      MOV      r4,r0
        0x0000062e:    46c0        .F      MOV      r8,r8
        0x00000630:    46c0        .F      MOV      r8,r8
        0x00000632:    4620         F      MOV      r0,r4
        0x00000634:    f7fffd99    ....    BL       __rt_exit ; 0x16a
    .text
    __user_libspace
    __user_perproc_libspace
    __user_perthread_libspace
        0x00000638:    4800        .H      LDR      r0,[pc,#0] ; [0x63c] = 0x200006c0
        0x0000063a:    4770        pG      BX       lr
    $d
        0x0000063c:    200006c0    ...     DCD    536872640
    $t
    .text
    _sys_exit
        0x00000640:    4901        .I      LDR      r1,[pc,#4] ; [0x648] = 0x20026
        0x00000642:    2018        .       MOVS     r0,#0x18
        0x00000644:    beab        ..      BKPT     #0xab
        0x00000646:    e7fe        ..      B        0x646 ; _sys_exit + 6
    $d
        0x00000648:    00020026    &...    DCD    131110
    $t
    .text
    __I$use$semihosting
    __use_no_semihosting_swi
        0x0000064c:    4770        pG      BX       lr
    .text
    __semihosting_library_function
        0x0000064e:    0000        ..      MOVS     r0,r0
    i.BOD_IRQHandler
    BOD_IRQHandler
        0x00000650:    b510        ..      PUSH     {r4,lr}
        0x00000652:    2005        .       MOVS     r0,#5
        0x00000654:    0700        ..      LSLS     r0,r0,#28
        0x00000656:    6980        .i      LDR      r0,[r0,#0x18]
        0x00000658:    2110        .!      MOVS     r1,#0x10
        0x0000065a:    4388        .C      BICS     r0,r0,r1
        0x0000065c:    3010        .0      ADDS     r0,r0,#0x10
        0x0000065e:    2105        .!      MOVS     r1,#5
        0x00000660:    0709        ..      LSLS     r1,r1,#28
        0x00000662:    6188        .a      STR      r0,[r1,#0x18]
        0x00000664:    4803        .H      LDR      r0,[pc,#12] ; [0x674] = 0x2000062c
        0x00000666:    6800        .h      LDR      r0,[r0,#0]
        0x00000668:    2800        .(      CMP      r0,#0
        0x0000066a:    d002        ..      BEQ      0x672 ; BOD_IRQHandler + 34
        0x0000066c:    4801        .H      LDR      r0,[pc,#4] ; [0x674] = 0x2000062c
        0x0000066e:    6800        .h      LDR      r0,[r0,#0]
        0x00000670:    4780        .G      BLX      r0
        0x00000672:    bd10        ..      POP      {r4,pc}
    $d
        0x00000674:    2000062c    ,..     DCD    536872492
    $t
    i.DrvGPIO_ClrBit
    DrvGPIO_ClrBit
        0x00000678:    b510        ..      PUSH     {r4,lr}
        0x0000067a:    4603        .F      MOV      r3,r0
        0x0000067c:    2900        .)      CMP      r1,#0
        0x0000067e:    db01        ..      BLT      0x684 ; DrvGPIO_ClrBit + 12
        0x00000680:    2910        .)      CMP      r1,#0x10
        0x00000682:    dd01        ..      BLE      0x688 ; DrvGPIO_ClrBit + 16
        0x00000684:    4805        .H      LDR      r0,[pc,#20] ; [0x69c] = 0xffff8901
        0x00000686:    bd10        ..      POP      {r4,pc}
        0x00000688:    0198        ..      LSLS     r0,r3,#6
        0x0000068a:    4c05        .L      LDR      r4,[pc,#20] ; [0x6a0] = 0x50004000
        0x0000068c:    1902        ..      ADDS     r2,r0,r4
        0x0000068e:    6890        .h      LDR      r0,[r2,#8]
        0x00000690:    2401        .$      MOVS     r4,#1
        0x00000692:    408c        .@      LSLS     r4,r4,r1
        0x00000694:    43a0        .C      BICS     r0,r0,r4
        0x00000696:    6090        .`      STR      r0,[r2,#8]
        0x00000698:    2000        .       MOVS     r0,#0
        0x0000069a:    e7f4        ..      B        0x686 ; DrvGPIO_ClrBit + 14
    $d
        0x0000069c:    ffff8901    ....    DCD    4294936833
        0x000006a0:    50004000    .@.P    DCD    1342193664
    $t
    i.DrvGPIO_GetBit
    DrvGPIO_GetBit
        0x000006a4:    b510        ..      PUSH     {r4,lr}
        0x000006a6:    4602        .F      MOV      r2,r0
        0x000006a8:    2900        .)      CMP      r1,#0
        0x000006aa:    db01        ..      BLT      0x6b0 ; DrvGPIO_GetBit + 12
        0x000006ac:    2910        .)      CMP      r1,#0x10
        0x000006ae:    dd01        ..      BLE      0x6b4 ; DrvGPIO_GetBit + 16
        0x000006b0:    4804        .H      LDR      r0,[pc,#16] ; [0x6c4] = 0xffff8901
        0x000006b2:    bd10        ..      POP      {r4,pc}
        0x000006b4:    4804        .H      LDR      r0,[pc,#16] ; [0x6c8] = 0x50004010
        0x000006b6:    0194        ..      LSLS     r4,r2,#6
        0x000006b8:    1903        ..      ADDS     r3,r0,r4
        0x000006ba:    6818        .h      LDR      r0,[r3,#0]
        0x000006bc:    40c8        .@      LSRS     r0,r0,r1
        0x000006be:    07c0        ..      LSLS     r0,r0,#31
        0x000006c0:    0fc0        ..      LSRS     r0,r0,#31
        0x000006c2:    e7f6        ..      B        0x6b2 ; DrvGPIO_GetBit + 14
    $d
        0x000006c4:    ffff8901    ....    DCD    4294936833
        0x000006c8:    50004010    .@.P    DCD    1342193680
    $t
    i.DrvGPIO_InitFunction
    DrvGPIO_InitFunction
        0x000006cc:    b510        ..      PUSH     {r4,lr}
        0x000006ce:    4601        .F      MOV      r1,r0
        0x000006d0:    000b        ..      MOVS     r3,r1
        0x000006d2:    f001fadd    ....    BL       __ARM_common_switch8 ; 0x1c90
    $d
        0x000006d6:    203e        >       DCW    8254
        0x000006d8:    5c4b412a    *AK\    DCD    1548435754
        0x000006dc:    947e7d74    t}~.    DCD    2491317620
        0x000006e0:    eff1b4a4    ....    DCD    4025595044
        0x000006e4:    ebecedee    ....    DCD    3958173166
        0x000006e8:    e7e8e9ea    ....    DCD    3890801130
        0x000006ec:    e3e4e5e6    ....    DCD    3823429094
        0x000006f0:    dfe0e1e2    ....    DCD    3756057058
        0x000006f4:    dbdcddde    ....    DCD    3688685022
        0x000006f8:    d7d8d9da    ....    DCD    3621312986
        0x000006fc:    d3d4d5d6    ....    DCD    3553940950
        0x00000700:    cfd0d1d2    ....    DCD    3486568914
        0x00000704:    cbcccdce    ....    DCD    3419196878
        0x00000708:    c7c8c9ca    ....    DCD    3351824842
        0x0000070c:    c3c4c5c6    ....    DCD    3284452806
        0x00000710:    bfc0c1c2    ....    DCD    3217080770
        0x00000714:    bdbe        ..      DCW    48574
    $t
        0x00000716:    2000        .       MOVS     r0,#0
        0x00000718:    2305        .#      MOVS     r3,#5
        0x0000071a:    071b        ..      LSLS     r3,r3,#28
        0x0000071c:    6318        .c      STR      r0,[r3,#0x30]
        0x0000071e:    6358        Xc      STR      r0,[r3,#0x34]
        0x00000720:    6398        .c      STR      r0,[r3,#0x38]
        0x00000722:    63d8        .c      STR      r0,[r3,#0x3c]
        0x00000724:    4bfa        .K      LDR      r3,[pc,#1000] ; [0xb10] = 0x50000040
        0x00000726:    6018        .`      STR      r0,[r3,#0]
        0x00000728:    e371        q.      B        0xe0e ; DrvGPIO_InitFunction + 1858
        0x0000072a:    2005        .       MOVS     r0,#5
        0x0000072c:    0700        ..      LSLS     r0,r0,#28
        0x0000072e:    6b40        @k      LDR      r0,[r0,#0x34]
        0x00000730:    2301        .#      MOVS     r3,#1
        0x00000732:    031b        ..      LSLS     r3,r3,#12
        0x00000734:    4318        .C      ORRS     r0,r0,r3
        0x00000736:    2305        .#      MOVS     r3,#5
        0x00000738:    071b        ..      LSLS     r3,r3,#28
        0x0000073a:    6358        Xc      STR      r0,[r3,#0x34]
        0x0000073c:    48f4        .H      LDR      r0,[pc,#976] ; [0xb10] = 0x50000040
        0x0000073e:    6900        .i      LDR      r0,[r0,#0x10]
        0x00000740:    2301        .#      MOVS     r3,#1
        0x00000742:    029b        ..      LSLS     r3,r3,#10
        0x00000744:    4318        .C      ORRS     r0,r0,r3
        0x00000746:    4bf2        .K      LDR      r3,[pc,#968] ; [0xb10] = 0x50000040
        0x00000748:    6118        .a      STR      r0,[r3,#0x10]
        0x0000074a:    4618        .F      MOV      r0,r3
        0x0000074c:    6900        .i      LDR      r0,[r0,#0x10]
        0x0000074e:    015b        [.      LSLS     r3,r3,#5
        0x00000750:    4398        .C      BICS     r0,r0,r3
        0x00000752:    4bef        .K      LDR      r3,[pc,#956] ; [0xb10] = 0x50000040
        0x00000754:    6118        .a      STR      r0,[r3,#0x10]
        0x00000756:    e35a        Z.      B        0xe0e ; DrvGPIO_InitFunction + 1858
        0x00000758:    2005        .       MOVS     r0,#5
        0x0000075a:    0700        ..      LSLS     r0,r0,#28
        0x0000075c:    6b00        .k      LDR      r0,[r0,#0x30]
        0x0000075e:    2303        .#      MOVS     r3,#3
        0x00000760:    021b        ..      LSLS     r3,r3,#8
        0x00000762:    4318        .C      ORRS     r0,r0,r3
        0x00000764:    2305        .#      MOVS     r3,#5
        0x00000766:    071b        ..      LSLS     r3,r3,#28
        0x00000768:    6318        .c      STR      r0,[r3,#0x30]
        0x0000076a:    e350        P.      B        0xe0e ; DrvGPIO_InitFunction + 1858
        0x0000076c:    2005        .       MOVS     r0,#5
        0x0000076e:    0700        ..      LSLS     r0,r0,#28
        0x00000770:    6b00        .k      LDR      r0,[r0,#0x30]
        0x00000772:    2303        .#      MOVS     r3,#3
        0x00000774:    029b        ..      LSLS     r3,r3,#10
        0x00000776:    4318        .C      ORRS     r0,r0,r3
        0x00000778:    2305        .#      MOVS     r3,#5
        0x0000077a:    071b        ..      LSLS     r3,r3,#28
        0x0000077c:    6318        .c      STR      r0,[r3,#0x30]
        0x0000077e:    48e4        .H      LDR      r0,[pc,#912] ; [0xb10] = 0x50000040
        0x00000780:    6900        .i      LDR      r0,[r0,#0x10]
        0x00000782:    2301        .#      MOVS     r3,#1
        0x00000784:    02db        ..      LSLS     r3,r3,#11
        0x00000786:    4398        .C      BICS     r0,r0,r3
        0x00000788:    4be1        .K      LDR      r3,[pc,#900] ; [0xb10] = 0x50000040
        0x0000078a:    6118        .a      STR      r0,[r3,#0x10]
        0x0000078c:    e33f        ?.      B        0xe0e ; DrvGPIO_InitFunction + 1858
        0x0000078e:    2005        .       MOVS     r0,#5
        0x00000790:    0700        ..      LSLS     r0,r0,#28
        0x00000792:    6b80        .k      LDR      r0,[r0,#0x38]
        0x00000794:    230f        .#      MOVS     r3,#0xf
        0x00000796:    4318        .C      ORRS     r0,r0,r3
        0x00000798:    2305        .#      MOVS     r3,#5
        0x0000079a:    071b        ..      LSLS     r3,r3,#28
        0x0000079c:    6398        .c      STR      r0,[r3,#0x38]
        0x0000079e:    4618        .F      MOV      r0,r3
        0x000007a0:    6b00        .k      LDR      r0,[r0,#0x30]
        0x000007a2:    2301        .#      MOVS     r3,#1
        0x000007a4:    03db        ..      LSLS     r3,r3,#15
        0x000007a6:    4318        .C      ORRS     r0,r0,r3
        0x000007a8:    2305        .#      MOVS     r3,#5
        0x000007aa:    071b        ..      LSLS     r3,r3,#28
        0x000007ac:    6318        .c      STR      r0,[r3,#0x30]
        0x000007ae:    48d8        .H      LDR      r0,[pc,#864] ; [0xb10] = 0x50000040
        0x000007b0:    6900        .i      LDR      r0,[r0,#0x10]
        0x000007b2:    231f        .#      MOVS     r3,#0x1f
        0x000007b4:    015b        [.      LSLS     r3,r3,#5
        0x000007b6:    4318        .C      ORRS     r0,r0,r3
        0x000007b8:    4bd5        .K      LDR      r3,[pc,#852] ; [0xb10] = 0x50000040
        0x000007ba:    6118        .a      STR      r0,[r3,#0x10]
        0x000007bc:    e327        '.      B        0xe0e ; DrvGPIO_InitFunction + 1858
        0x000007be:    2005        .       MOVS     r0,#5
        0x000007c0:    0700        ..      LSLS     r0,r0,#28
        0x000007c2:    6bc0        .k      LDR      r0,[r0,#0x3c]
        0x000007c4:    23c0        .#      MOVS     r3,#0xc0
        0x000007c6:    4318        .C      ORRS     r0,r0,r3
        0x000007c8:    2305        .#      MOVS     r3,#5
        0x000007ca:    071b        ..      LSLS     r3,r3,#28
        0x000007cc:    63d8        .c      STR      r0,[r3,#0x3c]
        0x000007ce:    e31e        ..      B        0xe0e ; DrvGPIO_InitFunction + 1858
        0x000007d0:    bf00        ..      NOP      
        0x000007d2:    2906        .)      CMP      r1,#6
        0x000007d4:    d101        ..      BNE      0x7da ; DrvGPIO_InitFunction + 270
        0x000007d6:    2206        ."      MOVS     r2,#6
        0x000007d8:    e000        ..      B        0x7dc ; DrvGPIO_InitFunction + 272
        0x000007da:    220e        ."      MOVS     r2,#0xe
        0x000007dc:    2005        .       MOVS     r0,#5
        0x000007de:    0700        ..      LSLS     r0,r0,#28
        0x000007e0:    6b80        .k      LDR      r0,[r0,#0x38]
        0x000007e2:    2303        .#      MOVS     r3,#3
        0x000007e4:    4093        .@      LSLS     r3,r3,r2
        0x000007e6:    4318        .C      ORRS     r0,r0,r3
        0x000007e8:    2305        .#      MOVS     r3,#5
        0x000007ea:    071b        ..      LSLS     r3,r3,#28
        0x000007ec:    6398        .c      STR      r0,[r3,#0x38]
        0x000007ee:    48c8        .H      LDR      r0,[pc,#800] ; [0xb10] = 0x50000040
        0x000007f0:    6900        .i      LDR      r0,[r0,#0x10]
        0x000007f2:    2301        .#      MOVS     r3,#1
        0x000007f4:    02db        ..      LSLS     r3,r3,#11
        0x000007f6:    4398        .C      BICS     r0,r0,r3
        0x000007f8:    4bc5        .K      LDR      r3,[pc,#788] ; [0xb10] = 0x50000040
        0x000007fa:    6118        .a      STR      r0,[r3,#0x10]
        0x000007fc:    e307        ..      B        0xe0e ; DrvGPIO_InitFunction + 1858
        0x000007fe:    2005        .       MOVS     r0,#5
        0x00000800:    0700        ..      LSLS     r0,r0,#28
        0x00000802:    6b80        .k      LDR      r0,[r0,#0x38]
        0x00000804:    230f        .#      MOVS     r3,#0xf
        0x00000806:    4318        .C      ORRS     r0,r0,r3
        0x00000808:    2305        .#      MOVS     r3,#5
        0x0000080a:    071b        ..      LSLS     r3,r3,#28
        0x0000080c:    6398        .c      STR      r0,[r3,#0x38]
        0x0000080e:    48c0        .H      LDR      r0,[pc,#768] ; [0xb10] = 0x50000040
        0x00000810:    6900        .i      LDR      r0,[r0,#0x10]
        0x00000812:    23ff        .#      MOVS     r3,#0xff
        0x00000814:    33e1        .3      ADDS     r3,r3,#0xe1
        0x00000816:    4398        .C      BICS     r0,r0,r3
        0x00000818:    4bbd        .K      LDR      r3,[pc,#756] ; [0xb10] = 0x50000040
        0x0000081a:    6118        .a      STR      r0,[r3,#0x10]
        0x0000081c:    e2f7        ..      B        0xe0e ; DrvGPIO_InitFunction + 1858
        0x0000081e:    2005        .       MOVS     r0,#5
        0x00000820:    0700        ..      LSLS     r0,r0,#28
        0x00000822:    6b40        @k      LDR      r0,[r0,#0x34]
        0x00000824:    2301        .#      MOVS     r3,#1
        0x00000826:    029b        ..      LSLS     r3,r3,#10
        0x00000828:    4318        .C      ORRS     r0,r0,r3
        0x0000082a:    2305        .#      MOVS     r3,#5
        0x0000082c:    071b        ..      LSLS     r3,r3,#28
        0x0000082e:    6358        Xc      STR      r0,[r3,#0x34]
        0x00000830:    48b7        .H      LDR      r0,[pc,#732] ; [0xb10] = 0x50000040
        0x00000832:    6900        .i      LDR      r0,[r0,#0x10]
        0x00000834:    2301        .#      MOVS     r3,#1
        0x00000836:    4318        .C      ORRS     r0,r0,r3
        0x00000838:    4bb5        .K      LDR      r3,[pc,#724] ; [0xb10] = 0x50000040
        0x0000083a:    6118        .a      STR      r0,[r3,#0x10]
        0x0000083c:    e2e7        ..      B        0xe0e ; DrvGPIO_InitFunction + 1858
        0x0000083e:    2005        .       MOVS     r0,#5
        0x00000840:    0700        ..      LSLS     r0,r0,#28
        0x00000842:    6b80        .k      LDR      r0,[r0,#0x38]
        0x00000844:    2330        0#      MOVS     r3,#0x30
        0x00000846:    4318        .C      ORRS     r0,r0,r3
        0x00000848:    2305        .#      MOVS     r3,#5
        0x0000084a:    071b        ..      LSLS     r3,r3,#28
        0x0000084c:    6398        .c      STR      r0,[r3,#0x38]
        0x0000084e:    e2de        ..      B        0xe0e ; DrvGPIO_InitFunction + 1858
        0x00000850:    e2db        ..      B        0xe0a ; DrvGPIO_InitFunction + 1854
        0x00000852:    e264        d.      B        0xd1e ; DrvGPIO_InitFunction + 1618
        0x00000854:    e282        ..      B        0xd5c ; DrvGPIO_InitFunction + 1680
        0x00000856:    e248        H.      B        0xcea ; DrvGPIO_InitFunction + 1566
        0x00000858:    e246        F.      B        0xce8 ; DrvGPIO_InitFunction + 1564
        0x0000085a:    e213        ..      B        0xc84 ; DrvGPIO_InitFunction + 1464
        0x0000085c:    e211        ..      B        0xc82 ; DrvGPIO_InitFunction + 1462
        0x0000085e:    e1d9        ..      B        0xc14 ; DrvGPIO_InitFunction + 1352
        0x00000860:    e1d7        ..      B        0xc12 ; DrvGPIO_InitFunction + 1350
        0x00000862:    e1b7        ..      B        0xbd4 ; DrvGPIO_InitFunction + 1288
        0x00000864:    e1b5        ..      B        0xbd2 ; DrvGPIO_InitFunction + 1286
        0x00000866:    e241        A.      B        0xcec ; DrvGPIO_InitFunction + 1568
        0x00000868:    e20d        ..      B        0xc86 ; DrvGPIO_InitFunction + 1466
        0x0000086a:    e1d4        ..      B        0xc16 ; DrvGPIO_InitFunction + 1354
        0x0000086c:    e1b3        ..      B        0xbd6 ; DrvGPIO_InitFunction + 1290
        0x0000086e:    e1a6        ..      B        0xbbe ; DrvGPIO_InitFunction + 1266
        0x00000870:    e165        e.      B        0xb3e ; DrvGPIO_InitFunction + 1138
        0x00000872:    e163        c.      B        0xb3c ; DrvGPIO_InitFunction + 1136
        0x00000874:    e161        a.      B        0xb3a ; DrvGPIO_InitFunction + 1134
        0x00000876:    e15f        _.      B        0xb38 ; DrvGPIO_InitFunction + 1132
        0x00000878:    e15d        ].      B        0xb36 ; DrvGPIO_InitFunction + 1130
        0x0000087a:    e15b        [.      B        0xb34 ; DrvGPIO_InitFunction + 1128
        0x0000087c:    e14a        J.      B        0xb14 ; DrvGPIO_InitFunction + 1096
        0x0000087e:    e137        7.      B        0xaf0 ; DrvGPIO_InitFunction + 1060
        0x00000880:    e129        ).      B        0xad6 ; DrvGPIO_InitFunction + 1034
        0x00000882:    e117        ..      B        0xab4 ; DrvGPIO_InitFunction + 1000
        0x00000884:    e106        ..      B        0xa94 ; DrvGPIO_InitFunction + 968
        0x00000886:    e0f5        ..      B        0xa74 ; DrvGPIO_InitFunction + 936
        0x00000888:    e0e4        ..      B        0xa54 ; DrvGPIO_InitFunction + 904
        0x0000088a:    e0d9        ..      B        0xa40 ; DrvGPIO_InitFunction + 884
        0x0000088c:    e0cc        ..      B        0xa28 ; DrvGPIO_InitFunction + 860
        0x0000088e:    e0c4        ..      B        0xa1a ; DrvGPIO_InitFunction + 846
        0x00000890:    e0a3        ..      B        0x9da ; DrvGPIO_InitFunction + 782
        0x00000892:    e0ae        ..      B        0x9f2 ; DrvGPIO_InitFunction + 806
        0x00000894:    e0ac        ..      B        0x9f0 ; DrvGPIO_InitFunction + 804
        0x00000896:    e0aa        ..      B        0x9ee ; DrvGPIO_InitFunction + 802
        0x00000898:    e0a8        ..      B        0x9ec ; DrvGPIO_InitFunction + 800
        0x0000089a:    e0a6        ..      B        0x9ea ; DrvGPIO_InitFunction + 798
        0x0000089c:    e0a4        ..      B        0x9e8 ; DrvGPIO_InitFunction + 796
        0x0000089e:    e0b0        ..      B        0xa02 ; DrvGPIO_InitFunction + 822
        0x000008a0:    e092        ..      B        0x9c8 ; DrvGPIO_InitFunction + 764
        0x000008a2:    e088        ..      B        0x9b6 ; DrvGPIO_InitFunction + 746
        0x000008a4:    e07e        ~.      B        0x9a4 ; DrvGPIO_InitFunction + 728
        0x000008a6:    e073        s.      B        0x990 ; DrvGPIO_InitFunction + 708
        0x000008a8:    e062        b.      B        0x970 ; DrvGPIO_InitFunction + 676
        0x000008aa:    e057        W.      B        0x95c ; DrvGPIO_InitFunction + 656
        0x000008ac:    e04d        M.      B        0x94a ; DrvGPIO_InitFunction + 638
        0x000008ae:    e037        7.      B        0x920 ; DrvGPIO_InitFunction + 596
        0x000008b0:    e02d        -.      B        0x90e ; DrvGPIO_InitFunction + 578
        0x000008b2:    e022        ".      B        0x8fa ; DrvGPIO_InitFunction + 558
        0x000008b4:    e011        ..      B        0x8da ; DrvGPIO_InitFunction + 526
        0x000008b6:    e7ff        ..      B        0x8b8 ; DrvGPIO_InitFunction + 492
        0x000008b8:    2005        .       MOVS     r0,#5
        0x000008ba:    0700        ..      LSLS     r0,r0,#28
        0x000008bc:    6b80        .k      LDR      r0,[r0,#0x38]
        0x000008be:    230f        .#      MOVS     r3,#0xf
        0x000008c0:    021b        ..      LSLS     r3,r3,#8
        0x000008c2:    4318        .C      ORRS     r0,r0,r3
        0x000008c4:    2305        .#      MOVS     r3,#5
        0x000008c6:    071b        ..      LSLS     r3,r3,#28
        0x000008c8:    6398        .c      STR      r0,[r3,#0x38]
        0x000008ca:    4891        .H      LDR      r0,[pc,#580] ; [0xb10] = 0x50000040
        0x000008cc:    6900        .i      LDR      r0,[r0,#0x10]
        0x000008ce:    2301        .#      MOVS     r3,#1
        0x000008d0:    02db        ..      LSLS     r3,r3,#11
        0x000008d2:    4398        .C      BICS     r0,r0,r3
        0x000008d4:    4b8e        .K      LDR      r3,[pc,#568] ; [0xb10] = 0x50000040
        0x000008d6:    6118        .a      STR      r0,[r3,#0x10]
        0x000008d8:    e299        ..      B        0xe0e ; DrvGPIO_InitFunction + 1858
        0x000008da:    2005        .       MOVS     r0,#5
        0x000008dc:    0700        ..      LSLS     r0,r0,#28
        0x000008de:    6b40        @k      LDR      r0,[r0,#0x34]
        0x000008e0:    2301        .#      MOVS     r3,#1
        0x000008e2:    025b        [.      LSLS     r3,r3,#9
        0x000008e4:    4318        .C      ORRS     r0,r0,r3
        0x000008e6:    2305        .#      MOVS     r3,#5
        0x000008e8:    071b        ..      LSLS     r3,r3,#28
        0x000008ea:    6358        Xc      STR      r0,[r3,#0x34]
        0x000008ec:    4888        .H      LDR      r0,[pc,#544] ; [0xb10] = 0x50000040
        0x000008ee:    6900        .i      LDR      r0,[r0,#0x10]
        0x000008f0:    2302        .#      MOVS     r3,#2
        0x000008f2:    4318        .C      ORRS     r0,r0,r3
        0x000008f4:    4b86        .K      LDR      r3,[pc,#536] ; [0xb10] = 0x50000040
        0x000008f6:    6118        .a      STR      r0,[r3,#0x10]
        0x000008f8:    e289        ..      B        0xe0e ; DrvGPIO_InitFunction + 1858
        0x000008fa:    2005        .       MOVS     r0,#5
        0x000008fc:    0700        ..      LSLS     r0,r0,#28
        0x000008fe:    6b80        .k      LDR      r0,[r0,#0x38]
        0x00000900:    2303        .#      MOVS     r3,#3
        0x00000902:    031b        ..      LSLS     r3,r3,#12
        0x00000904:    4318        .C      ORRS     r0,r0,r3
        0x00000906:    2305        .#      MOVS     r3,#5
        0x00000908:    071b        ..      LSLS     r3,r3,#28
        0x0000090a:    6398        .c      STR      r0,[r3,#0x38]
        0x0000090c:    e27f        ..      B        0xe0e ; DrvGPIO_InitFunction + 1858
        0x0000090e:    2005        .       MOVS     r0,#5
        0x00000910:    0700        ..      LSLS     r0,r0,#28
        0x00000912:    6bc0        .k      LDR      r0,[r0,#0x3c]
        0x00000914:    230f        .#      MOVS     r3,#0xf
        0x00000916:    4318        .C      ORRS     r0,r0,r3
        0x00000918:    2305        .#      MOVS     r3,#5
        0x0000091a:    071b        ..      LSLS     r3,r3,#28
        0x0000091c:    63d8        .c      STR      r0,[r3,#0x3c]
        0x0000091e:    e276        v.      B        0xe0e ; DrvGPIO_InitFunction + 1858
        0x00000920:    2005        .       MOVS     r0,#5
        0x00000922:    0700        ..      LSLS     r0,r0,#28
        0x00000924:    6b00        .k      LDR      r0,[r0,#0x30]
        0x00000926:    2380        .#      MOVS     r3,#0x80
        0x00000928:    4318        .C      ORRS     r0,r0,r3
        0x0000092a:    2305        .#      MOVS     r3,#5
        0x0000092c:    071b        ..      LSLS     r3,r3,#28
        0x0000092e:    6318        .c      STR      r0,[r3,#0x30]
        0x00000930:    4877        wH      LDR      r0,[pc,#476] ; [0xb10] = 0x50000040
        0x00000932:    6900        .i      LDR      r0,[r0,#0x10]
        0x00000934:    2304        .#      MOVS     r3,#4
        0x00000936:    4318        .C      ORRS     r0,r0,r3
        0x00000938:    4b75        uK      LDR      r3,[pc,#468] ; [0xb10] = 0x50000040
        0x0000093a:    6118        .a      STR      r0,[r3,#0x10]
        0x0000093c:    4618        .F      MOV      r0,r3
        0x0000093e:    6900        .i      LDR      r0,[r0,#0x10]
        0x00000940:    015b        [.      LSLS     r3,r3,#5
        0x00000942:    4398        .C      BICS     r0,r0,r3
        0x00000944:    4b72        rK      LDR      r3,[pc,#456] ; [0xb10] = 0x50000040
        0x00000946:    6118        .a      STR      r0,[r3,#0x10]
        0x00000948:    e261        a.      B        0xe0e ; DrvGPIO_InitFunction + 1858
        0x0000094a:    2005        .       MOVS     r0,#5
        0x0000094c:    0700        ..      LSLS     r0,r0,#28
        0x0000094e:    6bc0        .k      LDR      r0,[r0,#0x3c]
        0x00000950:    2330        0#      MOVS     r3,#0x30
        0x00000952:    4318        .C      ORRS     r0,r0,r3
        0x00000954:    2305        .#      MOVS     r3,#5
        0x00000956:    071b        ..      LSLS     r3,r3,#28
        0x00000958:    63d8        .c      STR      r0,[r3,#0x3c]
        0x0000095a:    e258        X.      B        0xe0e ; DrvGPIO_InitFunction + 1858
        0x0000095c:    2005        .       MOVS     r0,#5
        0x0000095e:    0700        ..      LSLS     r0,r0,#28
        0x00000960:    6bc0        .k      LDR      r0,[r0,#0x3c]
        0x00000962:    230f        .#      MOVS     r3,#0xf
        0x00000964:    021b        ..      LSLS     r3,r3,#8
        0x00000966:    4318        .C      ORRS     r0,r0,r3
        0x00000968:    2305        .#      MOVS     r3,#5
        0x0000096a:    071b        ..      LSLS     r3,r3,#28
        0x0000096c:    63d8        .c      STR      r0,[r3,#0x3c]
        0x0000096e:    e24e        N.      B        0xe0e ; DrvGPIO_InitFunction + 1858
        0x00000970:    2005        .       MOVS     r0,#5
        0x00000972:    0700        ..      LSLS     r0,r0,#28
        0x00000974:    6b40        @k      LDR      r0,[r0,#0x34]
        0x00000976:    2301        .#      MOVS     r3,#1
        0x00000978:    039b        ..      LSLS     r3,r3,#14
        0x0000097a:    4318        .C      ORRS     r0,r0,r3
        0x0000097c:    2305        .#      MOVS     r3,#5
        0x0000097e:    071b        ..      LSLS     r3,r3,#28
        0x00000980:    6358        Xc      STR      r0,[r3,#0x34]
        0x00000982:    4863        cH      LDR      r0,[pc,#396] ; [0xb10] = 0x50000040
        0x00000984:    6900        .i      LDR      r0,[r0,#0x10]
        0x00000986:    2308        .#      MOVS     r3,#8
        0x00000988:    4318        .C      ORRS     r0,r0,r3
        0x0000098a:    4b61        aK      LDR      r3,[pc,#388] ; [0xb10] = 0x50000040
        0x0000098c:    6118        .a      STR      r0,[r3,#0x10]
        0x0000098e:    e23e        >.      B        0xe0e ; DrvGPIO_InitFunction + 1858
        0x00000990:    2005        .       MOVS     r0,#5
        0x00000992:    0700        ..      LSLS     r0,r0,#28
        0x00000994:    6bc0        .k      LDR      r0,[r0,#0x3c]
        0x00000996:    2303        .#      MOVS     r3,#3
        0x00000998:    031b        ..      LSLS     r3,r3,#12
        0x0000099a:    4318        .C      ORRS     r0,r0,r3
        0x0000099c:    2305        .#      MOVS     r3,#5
        0x0000099e:    071b        ..      LSLS     r3,r3,#28
        0x000009a0:    63d8        .c      STR      r0,[r3,#0x3c]
        0x000009a2:    e234        4.      B        0xe0e ; DrvGPIO_InitFunction + 1858
        0x000009a4:    2005        .       MOVS     r0,#5
        0x000009a6:    0700        ..      LSLS     r0,r0,#28
        0x000009a8:    6b80        .k      LDR      r0,[r0,#0x38]
        0x000009aa:    230f        .#      MOVS     r3,#0xf
        0x000009ac:    4318        .C      ORRS     r0,r0,r3
        0x000009ae:    2305        .#      MOVS     r3,#5
        0x000009b0:    071b        ..      LSLS     r3,r3,#28
        0x000009b2:    6398        .c      STR      r0,[r3,#0x38]
        0x000009b4:    e22b        +.      B        0xe0e ; DrvGPIO_InitFunction + 1858
        0x000009b6:    2005        .       MOVS     r0,#5
        0x000009b8:    0700        ..      LSLS     r0,r0,#28
        0x000009ba:    6bc0        .k      LDR      r0,[r0,#0x3c]
        0x000009bc:    2302        .#      MOVS     r3,#2
        0x000009be:    4318        .C      ORRS     r0,r0,r3
        0x000009c0:    2305        .#      MOVS     r3,#5
        0x000009c2:    071b        ..      LSLS     r3,r3,#28
        0x000009c4:    63d8        .c      STR      r0,[r3,#0x3c]
        0x000009c6:    e222        ".      B        0xe0e ; DrvGPIO_InitFunction + 1858
        0x000009c8:    2005        .       MOVS     r0,#5
        0x000009ca:    0700        ..      LSLS     r0,r0,#28
        0x000009cc:    6bc0        .k      LDR      r0,[r0,#0x3c]
        0x000009ce:    2304        .#      MOVS     r3,#4
        0x000009d0:    4318        .C      ORRS     r0,r0,r3
        0x000009d2:    2305        .#      MOVS     r3,#5
        0x000009d4:    071b        ..      LSLS     r3,r3,#28
        0x000009d6:    63d8        .c      STR      r0,[r3,#0x3c]
        0x000009d8:    e219        ..      B        0xe0e ; DrvGPIO_InitFunction + 1858
        0x000009da:    484d        MH      LDR      r0,[pc,#308] ; [0xb10] = 0x50000040
        0x000009dc:    6900        .i      LDR      r0,[r0,#0x10]
        0x000009de:    2304        .#      MOVS     r3,#4
        0x000009e0:    4398        .C      BICS     r0,r0,r3
        0x000009e2:    4b4b        KK      LDR      r3,[pc,#300] ; [0xb10] = 0x50000040
        0x000009e4:    6118        .a      STR      r0,[r3,#0x10]
        0x000009e6:    bf00        ..      NOP      
        0x000009e8:    bf00        ..      NOP      
        0x000009ea:    bf00        ..      NOP      
        0x000009ec:    bf00        ..      NOP      
        0x000009ee:    bf00        ..      NOP      
        0x000009f0:    bf00        ..      NOP      
        0x000009f2:    4847        GH      LDR      r0,[pc,#284] ; [0xb10] = 0x50000040
        0x000009f4:    6900        .i      LDR      r0,[r0,#0x10]
        0x000009f6:    2301        .#      MOVS     r3,#1
        0x000009f8:    02db        ..      LSLS     r3,r3,#11
        0x000009fa:    4398        .C      BICS     r0,r0,r3
        0x000009fc:    4b44        DK      LDR      r3,[pc,#272] ; [0xb10] = 0x50000040
        0x000009fe:    6118        .a      STR      r0,[r3,#0x10]
        0x00000a00:    bf00        ..      NOP      
        0x00000a02:    2005        .       MOVS     r0,#5
        0x00000a04:    0700        ..      LSLS     r0,r0,#28
        0x00000a06:    6b00        .k      LDR      r0,[r0,#0x30]
        0x00000a08:    460b        .F      MOV      r3,r1
        0x00000a0a:    3b17        .;      SUBS     r3,r3,#0x17
        0x00000a0c:    2401        .$      MOVS     r4,#1
        0x00000a0e:    409c        .@      LSLS     r4,r4,r3
        0x00000a10:    4320         C      ORRS     r0,r0,r4
        0x00000a12:    2305        .#      MOVS     r3,#5
        0x00000a14:    071b        ..      LSLS     r3,r3,#28
        0x00000a16:    6318        .c      STR      r0,[r3,#0x30]
        0x00000a18:    e1f9        ..      B        0xe0e ; DrvGPIO_InitFunction + 1858
        0x00000a1a:    483d        =H      LDR      r0,[pc,#244] ; [0xb10] = 0x50000040
        0x00000a1c:    6900        .i      LDR      r0,[r0,#0x10]
        0x00000a1e:    2308        .#      MOVS     r3,#8
        0x00000a20:    4398        .C      BICS     r0,r0,r3
        0x00000a22:    4b3b        ;K      LDR      r3,[pc,#236] ; [0xb10] = 0x50000040
        0x00000a24:    6118        .a      STR      r0,[r3,#0x10]
        0x00000a26:    bf00        ..      NOP      
        0x00000a28:    2005        .       MOVS     r0,#5
        0x00000a2a:    0700        ..      LSLS     r0,r0,#28
        0x00000a2c:    6b43        Ck      LDR      r3,[r0,#0x34]
        0x00000a2e:    4608        .F      MOV      r0,r1
        0x00000a30:    3811        .8      SUBS     r0,r0,#0x11
        0x00000a32:    2401        .$      MOVS     r4,#1
        0x00000a34:    4084        .@      LSLS     r4,r4,r0
        0x00000a36:    4323        #C      ORRS     r3,r3,r4
        0x00000a38:    2005        .       MOVS     r0,#5
        0x00000a3a:    0700        ..      LSLS     r0,r0,#28
        0x00000a3c:    6343        Cc      STR      r3,[r0,#0x34]
        0x00000a3e:    e1e6        ..      B        0xe0e ; DrvGPIO_InitFunction + 1858
        0x00000a40:    2005        .       MOVS     r0,#5
        0x00000a42:    0700        ..      LSLS     r0,r0,#28
        0x00000a44:    6b40        @k      LDR      r0,[r0,#0x34]
        0x00000a46:    23ff        .#      MOVS     r3,#0xff
        0x00000a48:    3301        .3      ADDS     r3,#1
        0x00000a4a:    4318        .C      ORRS     r0,r0,r3
        0x00000a4c:    2305        .#      MOVS     r3,#5
        0x00000a4e:    071b        ..      LSLS     r3,r3,#28
        0x00000a50:    6358        Xc      STR      r0,[r3,#0x34]
        0x00000a52:    e1dc        ..      B        0xe0e ; DrvGPIO_InitFunction + 1858
        0x00000a54:    2005        .       MOVS     r0,#5
        0x00000a56:    0700        ..      LSLS     r0,r0,#28
        0x00000a58:    6b40        @k      LDR      r0,[r0,#0x34]
        0x00000a5a:    2301        .#      MOVS     r3,#1
        0x00000a5c:    025b        [.      LSLS     r3,r3,#9
        0x00000a5e:    4318        .C      ORRS     r0,r0,r3
        0x00000a60:    2305        .#      MOVS     r3,#5
        0x00000a62:    071b        ..      LSLS     r3,r3,#28
        0x00000a64:    6358        Xc      STR      r0,[r3,#0x34]
        0x00000a66:    482a        *H      LDR      r0,[pc,#168] ; [0xb10] = 0x50000040
        0x00000a68:    6900        .i      LDR      r0,[r0,#0x10]
        0x00000a6a:    2302        .#      MOVS     r3,#2
        0x00000a6c:    4398        .C      BICS     r0,r0,r3
        0x00000a6e:    4b28        (K      LDR      r3,[pc,#160] ; [0xb10] = 0x50000040
        0x00000a70:    6118        .a      STR      r0,[r3,#0x10]
        0x00000a72:    e1cc        ..      B        0xe0e ; DrvGPIO_InitFunction + 1858
        0x00000a74:    2005        .       MOVS     r0,#5
        0x00000a76:    0700        ..      LSLS     r0,r0,#28
        0x00000a78:    6b40        @k      LDR      r0,[r0,#0x34]
        0x00000a7a:    2301        .#      MOVS     r3,#1
        0x00000a7c:    029b        ..      LSLS     r3,r3,#10
        0x00000a7e:    4318        .C      ORRS     r0,r0,r3
        0x00000a80:    2305        .#      MOVS     r3,#5
        0x00000a82:    071b        ..      LSLS     r3,r3,#28
        0x00000a84:    6358        Xc      STR      r0,[r3,#0x34]
        0x00000a86:    4822        "H      LDR      r0,[pc,#136] ; [0xb10] = 0x50000040
        0x00000a88:    6900        .i      LDR      r0,[r0,#0x10]
        0x00000a8a:    0840        @.      LSRS     r0,r0,#1
        0x00000a8c:    0040        @.      LSLS     r0,r0,#1
        0x00000a8e:    4b20         K      LDR      r3,[pc,#128] ; [0xb10] = 0x50000040
        0x00000a90:    6118        .a      STR      r0,[r3,#0x10]
        0x00000a92:    e1bc        ..      B        0xe0e ; DrvGPIO_InitFunction + 1858
        0x00000a94:    2005        .       MOVS     r0,#5
        0x00000a96:    0700        ..      LSLS     r0,r0,#28
        0x00000a98:    6b40        @k      LDR      r0,[r0,#0x34]
        0x00000a9a:    2301        .#      MOVS     r3,#1
        0x00000a9c:    02db        ..      LSLS     r3,r3,#11
        0x00000a9e:    4318        .C      ORRS     r0,r0,r3
        0x00000aa0:    2305        .#      MOVS     r3,#5
        0x00000aa2:    071b        ..      LSLS     r3,r3,#28
        0x00000aa4:    6358        Xc      STR      r0,[r3,#0x34]
        0x00000aa6:    481a        .H      LDR      r0,[pc,#104] ; [0xb10] = 0x50000040
        0x00000aa8:    6900        .i      LDR      r0,[r0,#0x10]
        0x00000aaa:    2310        .#      MOVS     r3,#0x10
        0x00000aac:    4398        .C      BICS     r0,r0,r3
        0x00000aae:    4b18        .K      LDR      r3,[pc,#96] ; [0xb10] = 0x50000040
        0x00000ab0:    6118        .a      STR      r0,[r3,#0x10]
        0x00000ab2:    e1ac        ..      B        0xe0e ; DrvGPIO_InitFunction + 1858
        0x00000ab4:    2005        .       MOVS     r0,#5
        0x00000ab6:    0700        ..      LSLS     r0,r0,#28
        0x00000ab8:    6b40        @k      LDR      r0,[r0,#0x34]
        0x00000aba:    2301        .#      MOVS     r3,#1
        0x00000abc:    03db        ..      LSLS     r3,r3,#15
        0x00000abe:    4318        .C      ORRS     r0,r0,r3
        0x00000ac0:    2305        .#      MOVS     r3,#5
        0x00000ac2:    071b        ..      LSLS     r3,r3,#28
        0x00000ac4:    6358        Xc      STR      r0,[r3,#0x34]
        0x00000ac6:    4812        .H      LDR      r0,[pc,#72] ; [0xb10] = 0x50000040
        0x00000ac8:    6900        .i      LDR      r0,[r0,#0x10]
        0x00000aca:    2301        .#      MOVS     r3,#1
        0x00000acc:    061b        ..      LSLS     r3,r3,#24
        0x00000ace:    4318        .C      ORRS     r0,r0,r3
        0x00000ad0:    4b0f        .K      LDR      r3,[pc,#60] ; [0xb10] = 0x50000040
        0x00000ad2:    6118        .a      STR      r0,[r3,#0x10]
        0x00000ad4:    e19b        ..      B        0xe0e ; DrvGPIO_InitFunction + 1858
        0x00000ad6:    480e        .H      LDR      r0,[pc,#56] ; [0xb10] = 0x50000040
        0x00000ad8:    6800        .h      LDR      r0,[r0,#0]
        0x00000ada:    2320         #      MOVS     r3,#0x20
        0x00000adc:    4318        .C      ORRS     r0,r0,r3
        0x00000ade:    4b0c        .K      LDR      r3,[pc,#48] ; [0xb10] = 0x50000040
        0x00000ae0:    6018        .`      STR      r0,[r3,#0]
        0x00000ae2:    4618        .F      MOV      r0,r3
        0x00000ae4:    6900        .i      LDR      r0,[r0,#0x10]
        0x00000ae6:    04db        ..      LSLS     r3,r3,#19
        0x00000ae8:    4318        .C      ORRS     r0,r0,r3
        0x00000aea:    4b09        .K      LDR      r3,[pc,#36] ; [0xb10] = 0x50000040
        0x00000aec:    6118        .a      STR      r0,[r3,#0x10]
        0x00000aee:    e18e        ..      B        0xe0e ; DrvGPIO_InitFunction + 1858
        0x00000af0:    2005        .       MOVS     r0,#5
        0x00000af2:    0700        ..      LSLS     r0,r0,#28
        0x00000af4:    6b40        @k      LDR      r0,[r0,#0x34]
        0x00000af6:    2304        .#      MOVS     r3,#4
        0x00000af8:    4318        .C      ORRS     r0,r0,r3
        0x00000afa:    2305        .#      MOVS     r3,#5
        0x00000afc:    071b        ..      LSLS     r3,r3,#28
        0x00000afe:    6358        Xc      STR      r0,[r3,#0x34]
        0x00000b00:    4803        .H      LDR      r0,[pc,#12] ; [0xb10] = 0x50000040
        0x00000b02:    6900        .i      LDR      r0,[r0,#0x10]
        0x00000b04:    2301        .#      MOVS     r3,#1
        0x00000b06:    069b        ..      LSLS     r3,r3,#26
        0x00000b08:    4318        .C      ORRS     r0,r0,r3
        0x00000b0a:    4b01        .K      LDR      r3,[pc,#4] ; [0xb10] = 0x50000040
        0x00000b0c:    6118        .a      STR      r0,[r3,#0x10]
        0x00000b0e:    e17e        ~.      B        0xe0e ; DrvGPIO_InitFunction + 1858
    $d
        0x00000b10:    50000040    @..P    DCD    1342177344
    $t
        0x00000b14:    2005        .       MOVS     r0,#5
        0x00000b16:    0700        ..      LSLS     r0,r0,#28
        0x00000b18:    6b40        @k      LDR      r0,[r0,#0x34]
        0x00000b1a:    2308        .#      MOVS     r3,#8
        0x00000b1c:    4318        .C      ORRS     r0,r0,r3
        0x00000b1e:    2305        .#      MOVS     r3,#5
        0x00000b20:    071b        ..      LSLS     r3,r3,#28
        0x00000b22:    6358        Xc      STR      r0,[r3,#0x34]
        0x00000b24:    48bb        .H      LDR      r0,[pc,#748] ; [0xe14] = 0x50000040
        0x00000b26:    6900        .i      LDR      r0,[r0,#0x10]
        0x00000b28:    2301        .#      MOVS     r3,#1
        0x00000b2a:    06db        ..      LSLS     r3,r3,#27
        0x00000b2c:    4318        .C      ORRS     r0,r0,r3
        0x00000b2e:    4bb9        .K      LDR      r3,[pc,#740] ; [0xe14] = 0x50000040
        0x00000b30:    6118        .a      STR      r0,[r3,#0x10]
        0x00000b32:    e16c        l.      B        0xe0e ; DrvGPIO_InitFunction + 1858
        0x00000b34:    bf00        ..      NOP      
        0x00000b36:    bf00        ..      NOP      
        0x00000b38:    bf00        ..      NOP      
        0x00000b3a:    bf00        ..      NOP      
        0x00000b3c:    bf00        ..      NOP      
        0x00000b3e:    2929        ))      CMP      r1,#0x29
        0x00000b40:    db03        ..      BLT      0xb4a ; DrvGPIO_InitFunction + 1150
        0x00000b42:    292b        +)      CMP      r1,#0x2b
        0x00000b44:    dc01        ..      BGT      0xb4a ; DrvGPIO_InitFunction + 1150
        0x00000b46:    2200        ."      MOVS     r2,#0
        0x00000b48:    e000        ..      B        0xb4c ; DrvGPIO_InitFunction + 1152
        0x00000b4a:    2204        ."      MOVS     r2,#4
        0x00000b4c:    2929        ))      CMP      r1,#0x29
        0x00000b4e:    d001        ..      BEQ      0xb54 ; DrvGPIO_InitFunction + 1160
        0x00000b50:    292c        ,)      CMP      r1,#0x2c
        0x00000b52:    d110        ..      BNE      0xb76 ; DrvGPIO_InitFunction + 1194
        0x00000b54:    2005        .       MOVS     r0,#5
        0x00000b56:    0700        ..      LSLS     r0,r0,#28
        0x00000b58:    6b40        @k      LDR      r0,[r0,#0x34]
        0x00000b5a:    230f        .#      MOVS     r3,#0xf
        0x00000b5c:    4093        .@      LSLS     r3,r3,r2
        0x00000b5e:    4318        .C      ORRS     r0,r0,r3
        0x00000b60:    2305        .#      MOVS     r3,#5
        0x00000b62:    071b        ..      LSLS     r3,r3,#28
        0x00000b64:    6358        Xc      STR      r0,[r3,#0x34]
        0x00000b66:    48ab        .H      LDR      r0,[pc,#684] ; [0xe14] = 0x50000040
        0x00000b68:    6900        .i      LDR      r0,[r0,#0x10]
        0x00000b6a:    2301        .#      MOVS     r3,#1
        0x00000b6c:    02db        ..      LSLS     r3,r3,#11
        0x00000b6e:    4398        .C      BICS     r0,r0,r3
        0x00000b70:    4ba8        .K      LDR      r3,[pc,#672] ; [0xe14] = 0x50000040
        0x00000b72:    6118        .a      STR      r0,[r3,#0x10]
        0x00000b74:    e022        ".      B        0xbbc ; DrvGPIO_InitFunction + 1264
        0x00000b76:    292a        *)      CMP      r1,#0x2a
        0x00000b78:    d001        ..      BEQ      0xb7e ; DrvGPIO_InitFunction + 1202
        0x00000b7a:    292d        -)      CMP      r1,#0x2d
        0x00000b7c:    d109        ..      BNE      0xb92 ; DrvGPIO_InitFunction + 1222
        0x00000b7e:    2005        .       MOVS     r0,#5
        0x00000b80:    0700        ..      LSLS     r0,r0,#28
        0x00000b82:    6b40        @k      LDR      r0,[r0,#0x34]
        0x00000b84:    2303        .#      MOVS     r3,#3
        0x00000b86:    4093        .@      LSLS     r3,r3,r2
        0x00000b88:    4318        .C      ORRS     r0,r0,r3
        0x00000b8a:    2305        .#      MOVS     r3,#5
        0x00000b8c:    071b        ..      LSLS     r3,r3,#28
        0x00000b8e:    6358        Xc      STR      r0,[r3,#0x34]
        0x00000b90:    e014        ..      B        0xbbc ; DrvGPIO_InitFunction + 1264
        0x00000b92:    292b        +)      CMP      r1,#0x2b
        0x00000b94:    d001        ..      BEQ      0xb9a ; DrvGPIO_InitFunction + 1230
        0x00000b96:    292e        .)      CMP      r1,#0x2e
        0x00000b98:    d110        ..      BNE      0xbbc ; DrvGPIO_InitFunction + 1264
        0x00000b9a:    2005        .       MOVS     r0,#5
        0x00000b9c:    0700        ..      LSLS     r0,r0,#28
        0x00000b9e:    6b40        @k      LDR      r0,[r0,#0x34]
        0x00000ba0:    1c93        ..      ADDS     r3,r2,#2
        0x00000ba2:    2403        .$      MOVS     r4,#3
        0x00000ba4:    409c        .@      LSLS     r4,r4,r3
        0x00000ba6:    4320         C      ORRS     r0,r0,r4
        0x00000ba8:    2305        .#      MOVS     r3,#5
        0x00000baa:    071b        ..      LSLS     r3,r3,#28
        0x00000bac:    6358        Xc      STR      r0,[r3,#0x34]
        0x00000bae:    4899        .H      LDR      r0,[pc,#612] ; [0xe14] = 0x50000040
        0x00000bb0:    6900        .i      LDR      r0,[r0,#0x10]
        0x00000bb2:    2301        .#      MOVS     r3,#1
        0x00000bb4:    02db        ..      LSLS     r3,r3,#11
        0x00000bb6:    4398        .C      BICS     r0,r0,r3
        0x00000bb8:    4b96        .K      LDR      r3,[pc,#600] ; [0xe14] = 0x50000040
        0x00000bba:    6118        .a      STR      r0,[r3,#0x10]
        0x00000bbc:    e127        '.      B        0xe0e ; DrvGPIO_InitFunction + 1858
        0x00000bbe:    2005        .       MOVS     r0,#5
        0x00000bc0:    0700        ..      LSLS     r0,r0,#28
        0x00000bc2:    6bc0        .k      LDR      r0,[r0,#0x3c]
        0x00000bc4:    2303        .#      MOVS     r3,#3
        0x00000bc6:    039b        ..      LSLS     r3,r3,#14
        0x00000bc8:    4318        .C      ORRS     r0,r0,r3
        0x00000bca:    2305        .#      MOVS     r3,#5
        0x00000bcc:    071b        ..      LSLS     r3,r3,#28
        0x00000bce:    63d8        .c      STR      r0,[r3,#0x3c]
        0x00000bd0:    e11d        ..      B        0xe0e ; DrvGPIO_InitFunction + 1858
        0x00000bd2:    bf00        ..      NOP      
        0x00000bd4:    bf00        ..      NOP      
        0x00000bd6:    2930        0)      CMP      r1,#0x30
        0x00000bd8:    d108        ..      BNE      0xbec ; DrvGPIO_InitFunction + 1312
        0x00000bda:    2005        .       MOVS     r0,#5
        0x00000bdc:    0700        ..      LSLS     r0,r0,#28
        0x00000bde:    6b00        .k      LDR      r0,[r0,#0x30]
        0x00000be0:    020b        ..      LSLS     r3,r1,#8
        0x00000be2:    4318        .C      ORRS     r0,r0,r3
        0x00000be4:    2305        .#      MOVS     r3,#5
        0x00000be6:    071b        ..      LSLS     r3,r3,#28
        0x00000be8:    6318        .c      STR      r0,[r3,#0x30]
        0x00000bea:    e00a        ..      B        0xc02 ; DrvGPIO_InitFunction + 1334
        0x00000bec:    2005        .       MOVS     r0,#5
        0x00000bee:    0700        ..      LSLS     r0,r0,#28
        0x00000bf0:    6b03        .k      LDR      r3,[r0,#0x30]
        0x00000bf2:    4608        .F      MOV      r0,r1
        0x00000bf4:    3828        (8      SUBS     r0,r0,#0x28
        0x00000bf6:    2401        .$      MOVS     r4,#1
        0x00000bf8:    4084        .@      LSLS     r4,r4,r0
        0x00000bfa:    4323        #C      ORRS     r3,r3,r4
        0x00000bfc:    2005        .       MOVS     r0,#5
        0x00000bfe:    0700        ..      LSLS     r0,r0,#28
        0x00000c00:    6303        .c      STR      r3,[r0,#0x30]
        0x00000c02:    4884        .H      LDR      r0,[pc,#528] ; [0xe14] = 0x50000040
        0x00000c04:    6900        .i      LDR      r0,[r0,#0x10]
        0x00000c06:    2301        .#      MOVS     r3,#1
        0x00000c08:    02db        ..      LSLS     r3,r3,#11
        0x00000c0a:    4398        .C      BICS     r0,r0,r3
        0x00000c0c:    4b81        .K      LDR      r3,[pc,#516] ; [0xe14] = 0x50000040
        0x00000c0e:    6118        .a      STR      r0,[r3,#0x10]
        0x00000c10:    e0fd        ..      B        0xe0e ; DrvGPIO_InitFunction + 1858
        0x00000c12:    bf00        ..      NOP      
        0x00000c14:    bf00        ..      NOP      
        0x00000c16:    2931        1)      CMP      r1,#0x31
        0x00000c18:    d116        ..      BNE      0xc48 ; DrvGPIO_InitFunction + 1404
        0x00000c1a:    2005        .       MOVS     r0,#5
        0x00000c1c:    0700        ..      LSLS     r0,r0,#28
        0x00000c1e:    6b00        .k      LDR      r0,[r0,#0x30]
        0x00000c20:    2303        .#      MOVS     r3,#3
        0x00000c22:    039b        ..      LSLS     r3,r3,#14
        0x00000c24:    4318        .C      ORRS     r0,r0,r3
        0x00000c26:    2305        .#      MOVS     r3,#5
        0x00000c28:    071b        ..      LSLS     r3,r3,#28
        0x00000c2a:    6318        .c      STR      r0,[r3,#0x30]
        0x00000c2c:    4879        yH      LDR      r0,[pc,#484] ; [0xe14] = 0x50000040
        0x00000c2e:    6900        .i      LDR      r0,[r0,#0x10]
        0x00000c30:    2301        .#      MOVS     r3,#1
        0x00000c32:    025b        [.      LSLS     r3,r3,#9
        0x00000c34:    4398        .C      BICS     r0,r0,r3
        0x00000c36:    4b77        wK      LDR      r3,[pc,#476] ; [0xe14] = 0x50000040
        0x00000c38:    6118        .a      STR      r0,[r3,#0x10]
        0x00000c3a:    4618        .F      MOV      r0,r3
        0x00000c3c:    6900        .i      LDR      r0,[r0,#0x10]
        0x00000c3e:    015b        [.      LSLS     r3,r3,#5
        0x00000c40:    4398        .C      BICS     r0,r0,r3
        0x00000c42:    4b74        tK      LDR      r3,[pc,#464] ; [0xe14] = 0x50000040
        0x00000c44:    6118        .a      STR      r0,[r3,#0x10]
        0x00000c46:    e01b        ..      B        0xc80 ; DrvGPIO_InitFunction + 1460
        0x00000c48:    2005        .       MOVS     r0,#5
        0x00000c4a:    0700        ..      LSLS     r0,r0,#28
        0x00000c4c:    6b03        .k      LDR      r3,[r0,#0x30]
        0x00000c4e:    4608        .F      MOV      r0,r1
        0x00000c50:    3828        (8      SUBS     r0,r0,#0x28
        0x00000c52:    2401        .$      MOVS     r4,#1
        0x00000c54:    4084        .@      LSLS     r4,r4,r0
        0x00000c56:    4323        #C      ORRS     r3,r3,r4
        0x00000c58:    2005        .       MOVS     r0,#5
        0x00000c5a:    0700        ..      LSLS     r0,r0,#28
        0x00000c5c:    6303        .c      STR      r3,[r0,#0x30]
        0x00000c5e:    2936        6)      CMP      r1,#0x36
        0x00000c60:    d107        ..      BNE      0xc72 ; DrvGPIO_InitFunction + 1446
        0x00000c62:    486c        lH      LDR      r0,[pc,#432] ; [0xe14] = 0x50000040
        0x00000c64:    6900        .i      LDR      r0,[r0,#0x10]
        0x00000c66:    2301        .#      MOVS     r3,#1
        0x00000c68:    02db        ..      LSLS     r3,r3,#11
        0x00000c6a:    4398        .C      BICS     r0,r0,r3
        0x00000c6c:    4b69        iK      LDR      r3,[pc,#420] ; [0xe14] = 0x50000040
        0x00000c6e:    6118        .a      STR      r0,[r3,#0x10]
        0x00000c70:    e006        ..      B        0xc80 ; DrvGPIO_InitFunction + 1460
        0x00000c72:    4868        hH      LDR      r0,[pc,#416] ; [0xe14] = 0x50000040
        0x00000c74:    6900        .i      LDR      r0,[r0,#0x10]
        0x00000c76:    2301        .#      MOVS     r3,#1
        0x00000c78:    025b        [.      LSLS     r3,r3,#9
        0x00000c7a:    4398        .C      BICS     r0,r0,r3
        0x00000c7c:    4b65        eK      LDR      r3,[pc,#404] ; [0xe14] = 0x50000040
        0x00000c7e:    6118        .a      STR      r0,[r3,#0x10]
        0x00000c80:    e0c5        ..      B        0xe0e ; DrvGPIO_InitFunction + 1858
        0x00000c82:    bf00        ..      NOP      
        0x00000c84:    bf00        ..      NOP      
        0x00000c86:    2932        2)      CMP      r1,#0x32
        0x00000c88:    d115        ..      BNE      0xcb6 ; DrvGPIO_InitFunction + 1514
        0x00000c8a:    2005        .       MOVS     r0,#5
        0x00000c8c:    0700        ..      LSLS     r0,r0,#28
        0x00000c8e:    6b40        @k      LDR      r0,[r0,#0x34]
        0x00000c90:    2301        .#      MOVS     r3,#1
        0x00000c92:    02db        ..      LSLS     r3,r3,#11
        0x00000c94:    4318        .C      ORRS     r0,r0,r3
        0x00000c96:    2305        .#      MOVS     r3,#5
        0x00000c98:    071b        ..      LSLS     r3,r3,#28
        0x00000c9a:    6358        Xc      STR      r0,[r3,#0x34]
        0x00000c9c:    485d        ]H      LDR      r0,[pc,#372] ; [0xe14] = 0x50000040
        0x00000c9e:    6900        .i      LDR      r0,[r0,#0x10]
        0x00000ca0:    2310        .#      MOVS     r3,#0x10
        0x00000ca2:    4318        .C      ORRS     r0,r0,r3
        0x00000ca4:    4b5b        [K      LDR      r3,[pc,#364] ; [0xe14] = 0x50000040
        0x00000ca6:    6118        .a      STR      r0,[r3,#0x10]
        0x00000ca8:    4618        .F      MOV      r0,r3
        0x00000caa:    6800        .h      LDR      r0,[r0,#0]
        0x00000cac:    2320         #      MOVS     r3,#0x20
        0x00000cae:    4318        .C      ORRS     r0,r0,r3
        0x00000cb0:    4b58        XK      LDR      r3,[pc,#352] ; [0xe14] = 0x50000040
        0x00000cb2:    6018        .`      STR      r0,[r3,#0]
        0x00000cb4:    e017        ..      B        0xce6 ; DrvGPIO_InitFunction + 1562
        0x00000cb6:    2938        8)      CMP      r1,#0x38
        0x00000cb8:    d10f        ..      BNE      0xcda ; DrvGPIO_InitFunction + 1550
        0x00000cba:    2005        .       MOVS     r0,#5
        0x00000cbc:    0700        ..      LSLS     r0,r0,#28
        0x00000cbe:    6b40        @k      LDR      r0,[r0,#0x34]
        0x00000cc0:    2301        .#      MOVS     r3,#1
        0x00000cc2:    02db        ..      LSLS     r3,r3,#11
        0x00000cc4:    4318        .C      ORRS     r0,r0,r3
        0x00000cc6:    2305        .#      MOVS     r3,#5
        0x00000cc8:    071b        ..      LSLS     r3,r3,#28
        0x00000cca:    6358        Xc      STR      r0,[r3,#0x34]
        0x00000ccc:    4851        QH      LDR      r0,[pc,#324] ; [0xe14] = 0x50000040
        0x00000cce:    6900        .i      LDR      r0,[r0,#0x10]
        0x00000cd0:    2310        .#      MOVS     r3,#0x10
        0x00000cd2:    4318        .C      ORRS     r0,r0,r3
        0x00000cd4:    4b4f        OK      LDR      r3,[pc,#316] ; [0xe14] = 0x50000040
        0x00000cd6:    6118        .a      STR      r0,[r3,#0x10]
        0x00000cd8:    e005        ..      B        0xce6 ; DrvGPIO_InitFunction + 1562
        0x00000cda:    484e        NH      LDR      r0,[pc,#312] ; [0xe14] = 0x50000040
        0x00000cdc:    6800        .h      LDR      r0,[r0,#0]
        0x00000cde:    2320         #      MOVS     r3,#0x20
        0x00000ce0:    4318        .C      ORRS     r0,r0,r3
        0x00000ce2:    4b4c        LK      LDR      r3,[pc,#304] ; [0xe14] = 0x50000040
        0x00000ce4:    6018        .`      STR      r0,[r3,#0]
        0x00000ce6:    e092        ..      B        0xe0e ; DrvGPIO_InitFunction + 1858
        0x00000ce8:    bf00        ..      NOP      
        0x00000cea:    bf00        ..      NOP      
        0x00000cec:    2933        3)      CMP      r1,#0x33
        0x00000cee:    d106        ..      BNE      0xcfe ; DrvGPIO_InitFunction + 1586
        0x00000cf0:    4848        HH      LDR      r0,[pc,#288] ; [0xe14] = 0x50000040
        0x00000cf2:    6800        .h      LDR      r0,[r0,#0]
        0x00000cf4:    2303        .#      MOVS     r3,#3
        0x00000cf6:    4318        .C      ORRS     r0,r0,r3
        0x00000cf8:    4b46        FK      LDR      r3,[pc,#280] ; [0xe14] = 0x50000040
        0x00000cfa:    6018        .`      STR      r0,[r3,#0]
        0x00000cfc:    e00e        ..      B        0xd1c ; DrvGPIO_InitFunction + 1616
        0x00000cfe:    293a        :)      CMP      r1,#0x3a
        0x00000d00:    d106        ..      BNE      0xd10 ; DrvGPIO_InitFunction + 1604
        0x00000d02:    4844        DH      LDR      r0,[pc,#272] ; [0xe14] = 0x50000040
        0x00000d04:    6800        .h      LDR      r0,[r0,#0]
        0x00000d06:    2301        .#      MOVS     r3,#1
        0x00000d08:    4318        .C      ORRS     r0,r0,r3
        0x00000d0a:    4b42        BK      LDR      r3,[pc,#264] ; [0xe14] = 0x50000040
        0x00000d0c:    6018        .`      STR      r0,[r3,#0]
        0x00000d0e:    e005        ..      B        0xd1c ; DrvGPIO_InitFunction + 1616
        0x00000d10:    4840        @H      LDR      r0,[pc,#256] ; [0xe14] = 0x50000040
        0x00000d12:    6800        .h      LDR      r0,[r0,#0]
        0x00000d14:    2302        .#      MOVS     r3,#2
        0x00000d16:    4318        .C      ORRS     r0,r0,r3
        0x00000d18:    4b3e        >K      LDR      r3,[pc,#248] ; [0xe14] = 0x50000040
        0x00000d1a:    6018        .`      STR      r0,[r3,#0]
        0x00000d1c:    e077        w.      B        0xe0e ; DrvGPIO_InitFunction + 1858
        0x00000d1e:    2005        .       MOVS     r0,#5
        0x00000d20:    0700        ..      LSLS     r0,r0,#28
        0x00000d22:    6b40        @k      LDR      r0,[r0,#0x34]
        0x00000d24:    230c        .#      MOVS     r3,#0xc
        0x00000d26:    4318        .C      ORRS     r0,r0,r3
        0x00000d28:    2305        .#      MOVS     r3,#5
        0x00000d2a:    071b        ..      LSLS     r3,r3,#28
        0x00000d2c:    6358        Xc      STR      r0,[r3,#0x34]
        0x00000d2e:    4839        9H      LDR      r0,[pc,#228] ; [0xe14] = 0x50000040
        0x00000d30:    6900        .i      LDR      r0,[r0,#0x10]
        0x00000d32:    2303        .#      MOVS     r3,#3
        0x00000d34:    035b        [.      LSLS     r3,r3,#13
        0x00000d36:    4318        .C      ORRS     r0,r0,r3
        0x00000d38:    4b36        6K      LDR      r3,[pc,#216] ; [0xe14] = 0x50000040
        0x00000d3a:    6118        .a      STR      r0,[r3,#0x10]
        0x00000d3c:    2005        .       MOVS     r0,#5
        0x00000d3e:    0700        ..      LSLS     r0,r0,#28
        0x00000d40:    6b00        .k      LDR      r0,[r0,#0x30]
        0x00000d42:    4b35        5K      LDR      r3,[pc,#212] ; [0xe18] = 0x703e
        0x00000d44:    4318        .C      ORRS     r0,r0,r3
        0x00000d46:    2305        .#      MOVS     r3,#5
        0x00000d48:    071b        ..      LSLS     r3,r3,#28
        0x00000d4a:    6318        .c      STR      r0,[r3,#0x30]
        0x00000d4c:    4831        1H      LDR      r0,[pc,#196] ; [0xe14] = 0x50000040
        0x00000d4e:    6900        .i      LDR      r0,[r0,#0x10]
        0x00000d50:    23ff        .#      MOVS     r3,#0xff
        0x00000d52:    041b        ..      LSLS     r3,r3,#16
        0x00000d54:    4318        .C      ORRS     r0,r0,r3
        0x00000d56:    4b2f        /K      LDR      r3,[pc,#188] ; [0xe14] = 0x50000040
        0x00000d58:    6118        .a      STR      r0,[r3,#0x10]
        0x00000d5a:    bf00        ..      NOP      
        0x00000d5c:    293c        <)      CMP      r1,#0x3c
        0x00000d5e:    d11e        ..      BNE      0xd9e ; DrvGPIO_InitFunction + 1746
        0x00000d60:    2005        .       MOVS     r0,#5
        0x00000d62:    0700        ..      LSLS     r0,r0,#28
        0x00000d64:    6b40        @k      LDR      r0,[r0,#0x34]
        0x00000d66:    230c        .#      MOVS     r3,#0xc
        0x00000d68:    4398        .C      BICS     r0,r0,r3
        0x00000d6a:    2305        .#      MOVS     r3,#5
        0x00000d6c:    071b        ..      LSLS     r3,r3,#28
        0x00000d6e:    6358        Xc      STR      r0,[r3,#0x34]
        0x00000d70:    4828        (H      LDR      r0,[pc,#160] ; [0xe14] = 0x50000040
        0x00000d72:    6900        .i      LDR      r0,[r0,#0x10]
        0x00000d74:    2303        .#      MOVS     r3,#3
        0x00000d76:    035b        [.      LSLS     r3,r3,#13
        0x00000d78:    4398        .C      BICS     r0,r0,r3
        0x00000d7a:    4b26        &K      LDR      r3,[pc,#152] ; [0xe14] = 0x50000040
        0x00000d7c:    6118        .a      STR      r0,[r3,#0x10]
        0x00000d7e:    2005        .       MOVS     r0,#5
        0x00000d80:    0700        ..      LSLS     r0,r0,#28
        0x00000d82:    6b00        .k      LDR      r0,[r0,#0x30]
        0x00000d84:    4b24        $K      LDR      r3,[pc,#144] ; [0xe18] = 0x703e
        0x00000d86:    43db        .C      MVNS     r3,r3
        0x00000d88:    4018        .@      ANDS     r0,r0,r3
        0x00000d8a:    2305        .#      MOVS     r3,#5
        0x00000d8c:    071b        ..      LSLS     r3,r3,#28
        0x00000d8e:    6318        .c      STR      r0,[r3,#0x30]
        0x00000d90:    4820         H      LDR      r0,[pc,#128] ; [0xe14] = 0x50000040
        0x00000d92:    6900        .i      LDR      r0,[r0,#0x10]
        0x00000d94:    23ff        .#      MOVS     r3,#0xff
        0x00000d96:    041b        ..      LSLS     r3,r3,#16
        0x00000d98:    4398        .C      BICS     r0,r0,r3
        0x00000d9a:    4b1e        .K      LDR      r3,[pc,#120] ; [0xe14] = 0x50000040
        0x00000d9c:    6118        .a      STR      r0,[r3,#0x10]
        0x00000d9e:    481d        .H      LDR      r0,[pc,#116] ; [0xe14] = 0x50000040
        0x00000da0:    6900        .i      LDR      r0,[r0,#0x10]
        0x00000da2:    2303        .#      MOVS     r3,#3
        0x00000da4:    02db        ..      LSLS     r3,r3,#11
        0x00000da6:    4318        .C      ORRS     r0,r0,r3
        0x00000da8:    4b1a        .K      LDR      r3,[pc,#104] ; [0xe14] = 0x50000040
        0x00000daa:    6118        .a      STR      r0,[r3,#0x10]
        0x00000dac:    2005        .       MOVS     r0,#5
        0x00000dae:    0700        ..      LSLS     r0,r0,#28
        0x00000db0:    6b80        .k      LDR      r0,[r0,#0x38]
        0x00000db2:    23ff        .#      MOVS     r3,#0xff
        0x00000db4:    3301        .3      ADDS     r3,#1
        0x00000db6:    4318        .C      ORRS     r0,r0,r3
        0x00000db8:    2305        .#      MOVS     r3,#5
        0x00000dba:    071b        ..      LSLS     r3,r3,#28
        0x00000dbc:    6398        .c      STR      r0,[r3,#0x38]
        0x00000dbe:    4618        .F      MOV      r0,r3
        0x00000dc0:    6b00        .k      LDR      r0,[r0,#0x30]
        0x00000dc2:    2303        .#      MOVS     r3,#3
        0x00000dc4:    029b        ..      LSLS     r3,r3,#10
        0x00000dc6:    4318        .C      ORRS     r0,r0,r3
        0x00000dc8:    2305        .#      MOVS     r3,#5
        0x00000dca:    071b        ..      LSLS     r3,r3,#28
        0x00000dcc:    6318        .c      STR      r0,[r3,#0x30]
        0x00000dce:    4618        .F      MOV      r0,r3
        0x00000dd0:    6b40        @k      LDR      r0,[r0,#0x34]
        0x00000dd2:    23c0        .#      MOVS     r3,#0xc0
        0x00000dd4:    4318        .C      ORRS     r0,r0,r3
        0x00000dd6:    2305        .#      MOVS     r3,#5
        0x00000dd8:    071b        ..      LSLS     r3,r3,#28
        0x00000dda:    6358        Xc      STR      r0,[r3,#0x34]
        0x00000ddc:    4618        .F      MOV      r0,r3
        0x00000dde:    6b00        .k      LDR      r0,[r0,#0x30]
        0x00000de0:    23c0        .#      MOVS     r3,#0xc0
        0x00000de2:    4318        .C      ORRS     r0,r0,r3
        0x00000de4:    2305        .#      MOVS     r3,#5
        0x00000de6:    071b        ..      LSLS     r3,r3,#28
        0x00000de8:    6318        .c      STR      r0,[r3,#0x30]
        0x00000dea:    4618        .F      MOV      r0,r3
        0x00000dec:    6b80        .k      LDR      r0,[r0,#0x38]
        0x00000dee:    4b0b        .K      LDR      r3,[pc,#44] ; [0xe1c] = 0xc0c0
        0x00000df0:    4318        .C      ORRS     r0,r0,r3
        0x00000df2:    2305        .#      MOVS     r3,#5
        0x00000df4:    071b        ..      LSLS     r3,r3,#28
        0x00000df6:    6398        .c      STR      r0,[r3,#0x38]
        0x00000df8:    4618        .F      MOV      r0,r3
        0x00000dfa:    6b40        @k      LDR      r0,[r0,#0x34]
        0x00000dfc:    2303        .#      MOVS     r3,#3
        0x00000dfe:    031b        ..      LSLS     r3,r3,#12
        0x00000e00:    4318        .C      ORRS     r0,r0,r3
        0x00000e02:    2305        .#      MOVS     r3,#5
        0x00000e04:    071b        ..      LSLS     r3,r3,#28
        0x00000e06:    6358        Xc      STR      r0,[r3,#0x34]
        0x00000e08:    e001        ..      B        0xe0e ; DrvGPIO_InitFunction + 1858
        0x00000e0a:    4805        .H      LDR      r0,[pc,#20] ; [0xe20] = 0xffff8901
        0x00000e0c:    bd10        ..      POP      {r4,pc}
        0x00000e0e:    bf00        ..      NOP      
        0x00000e10:    2000        .       MOVS     r0,#0
        0x00000e12:    e7fb        ..      B        0xe0c ; DrvGPIO_InitFunction + 1856
    $d
        0x00000e14:    50000040    @..P    DCD    1342177344
        0x00000e18:    0000703e    >p..    DCD    28734
        0x00000e1c:    0000c0c0    ....    DCD    49344
        0x00000e20:    ffff8901    ....    DCD    4294936833
    $t
    i.DrvGPIO_Open
    DrvGPIO_Open
        0x00000e24:    b570        p.      PUSH     {r4-r6,lr}
        0x00000e26:    4604        .F      MOV      r4,r0
        0x00000e28:    460b        .F      MOV      r3,r1
        0x00000e2a:    2b00        .+      CMP      r3,#0
        0x00000e2c:    db01        ..      BLT      0xe32 ; DrvGPIO_Open + 14
        0x00000e2e:    2b10        .+      CMP      r3,#0x10
        0x00000e30:    dd01        ..      BLE      0xe36 ; DrvGPIO_Open + 18
        0x00000e32:    4818        .H      LDR      r0,[pc,#96] ; [0xe94] = 0xffff8901
        0x00000e34:    bd70        p.      POP      {r4-r6,pc}
        0x00000e36:    01a0        ..      LSLS     r0,r4,#6
        0x00000e38:    4d17        .M      LDR      r5,[pc,#92] ; [0xe98] = 0x50004000
        0x00000e3a:    1941        A.      ADDS     r1,r0,r5
        0x00000e3c:    2a00        .*      CMP      r2,#0
        0x00000e3e:    d003        ..      BEQ      0xe48 ; DrvGPIO_Open + 36
        0x00000e40:    2a01        .*      CMP      r2,#1
        0x00000e42:    d001        ..      BEQ      0xe48 ; DrvGPIO_Open + 36
        0x00000e44:    2a02        .*      CMP      r2,#2
        0x00000e46:    d117        ..      BNE      0xe78 ; DrvGPIO_Open + 84
        0x00000e48:    6808        .h      LDR      r0,[r1,#0]
        0x00000e4a:    005e        ^.      LSLS     r6,r3,#1
        0x00000e4c:    2503        .%      MOVS     r5,#3
        0x00000e4e:    40b5        .@      LSLS     r5,r5,r6
        0x00000e50:    43a8        .C      BICS     r0,r0,r5
        0x00000e52:    6008        .`      STR      r0,[r1,#0]
        0x00000e54:    2a01        .*      CMP      r2,#1
        0x00000e56:    d106        ..      BNE      0xe66 ; DrvGPIO_Open + 66
        0x00000e58:    6808        .h      LDR      r0,[r1,#0]
        0x00000e5a:    005e        ^.      LSLS     r6,r3,#1
        0x00000e5c:    2501        .%      MOVS     r5,#1
        0x00000e5e:    40b5        .@      LSLS     r5,r5,r6
        0x00000e60:    4328        (C      ORRS     r0,r0,r5
        0x00000e62:    6008        .`      STR      r0,[r1,#0]
        0x00000e64:    e013        ..      B        0xe8e ; DrvGPIO_Open + 106
        0x00000e66:    2a02        .*      CMP      r2,#2
        0x00000e68:    d111        ..      BNE      0xe8e ; DrvGPIO_Open + 106
        0x00000e6a:    6808        .h      LDR      r0,[r1,#0]
        0x00000e6c:    005e        ^.      LSLS     r6,r3,#1
        0x00000e6e:    2502        .%      MOVS     r5,#2
        0x00000e70:    40b5        .@      LSLS     r5,r5,r6
        0x00000e72:    4328        (C      ORRS     r0,r0,r5
        0x00000e74:    6008        .`      STR      r0,[r1,#0]
        0x00000e76:    e00a        ..      B        0xe8e ; DrvGPIO_Open + 106
        0x00000e78:    2a03        .*      CMP      r2,#3
        0x00000e7a:    d106        ..      BNE      0xe8a ; DrvGPIO_Open + 102
        0x00000e7c:    6808        .h      LDR      r0,[r1,#0]
        0x00000e7e:    005e        ^.      LSLS     r6,r3,#1
        0x00000e80:    2503        .%      MOVS     r5,#3
        0x00000e82:    40b5        .@      LSLS     r5,r5,r6
        0x00000e84:    4328        (C      ORRS     r0,r0,r5
        0x00000e86:    6008        .`      STR      r0,[r1,#0]
        0x00000e88:    e001        ..      B        0xe8e ; DrvGPIO_Open + 106
        0x00000e8a:    4802        .H      LDR      r0,[pc,#8] ; [0xe94] = 0xffff8901
        0x00000e8c:    e7d2        ..      B        0xe34 ; DrvGPIO_Open + 16
        0x00000e8e:    2000        .       MOVS     r0,#0
        0x00000e90:    e7d0        ..      B        0xe34 ; DrvGPIO_Open + 16
    $d
        0x00000e92:    0000        ..      DCW    0
        0x00000e94:    ffff8901    ....    DCD    4294936833
        0x00000e98:    50004000    .@.P    DCD    1342193664
    $t
    i.DrvGPIO_SetBit
    DrvGPIO_SetBit
        0x00000e9c:    b510        ..      PUSH     {r4,lr}
        0x00000e9e:    4603        .F      MOV      r3,r0
        0x00000ea0:    2900        .)      CMP      r1,#0
        0x00000ea2:    db01        ..      BLT      0xea8 ; DrvGPIO_SetBit + 12
        0x00000ea4:    2910        .)      CMP      r1,#0x10
        0x00000ea6:    dd01        ..      BLE      0xeac ; DrvGPIO_SetBit + 16
        0x00000ea8:    4805        .H      LDR      r0,[pc,#20] ; [0xec0] = 0xffff8901
        0x00000eaa:    bd10        ..      POP      {r4,pc}
        0x00000eac:    0198        ..      LSLS     r0,r3,#6
        0x00000eae:    4c05        .L      LDR      r4,[pc,#20] ; [0xec4] = 0x50004000
        0x00000eb0:    1902        ..      ADDS     r2,r0,r4
        0x00000eb2:    6890        .h      LDR      r0,[r2,#8]
        0x00000eb4:    2401        .$      MOVS     r4,#1
        0x00000eb6:    408c        .@      LSLS     r4,r4,r1
        0x00000eb8:    4320         C      ORRS     r0,r0,r4
        0x00000eba:    6090        .`      STR      r0,[r2,#8]
        0x00000ebc:    2000        .       MOVS     r0,#0
        0x00000ebe:    e7f4        ..      B        0xeaa ; DrvGPIO_SetBit + 14
    $d
        0x00000ec0:    ffff8901    ....    DCD    4294936833
        0x00000ec4:    50004000    .@.P    DCD    1342193664
    $t
    i.DrvI2C_Close
    DrvI2C_Close
        0x00000ec8:    4601        .F      MOV      r1,r0
        0x00000eca:    2900        .)      CMP      r1,#0
        0x00000ecc:    d01e        ..      BEQ      0xf0c ; DrvI2C_Close + 68
        0x00000ece:    481f        .H      LDR      r0,[pc,#124] ; [0xf4c] = 0x40120000
        0x00000ed0:    6800        .h      LDR      r0,[r0,#0]
        0x00000ed2:    2240        @"      MOVS     r2,#0x40
        0x00000ed4:    4390        .C      BICS     r0,r0,r2
        0x00000ed6:    4a1d        .J      LDR      r2,[pc,#116] ; [0xf4c] = 0x40120000
        0x00000ed8:    6010        .`      STR      r0,[r2,#0]
        0x00000eda:    2005        .       MOVS     r0,#5
        0x00000edc:    0700        ..      LSLS     r0,r0,#28
        0x00000ede:    68c0        .h      LDR      r0,[r0,#0xc]
        0x00000ee0:    1552        R.      ASRS     r2,r2,#21
        0x00000ee2:    4390        .C      BICS     r0,r0,r2
        0x00000ee4:    1880        ..      ADDS     r0,r0,r2
        0x00000ee6:    2205        ."      MOVS     r2,#5
        0x00000ee8:    0712        ..      LSLS     r2,r2,#28
        0x00000eea:    60d0        .`      STR      r0,[r2,#0xc]
        0x00000eec:    4610        .F      MOV      r0,r2
        0x00000eee:    68c0        .h      LDR      r0,[r0,#0xc]
        0x00000ef0:    2201        ."      MOVS     r2,#1
        0x00000ef2:    0252        R.      LSLS     r2,r2,#9
        0x00000ef4:    4390        .C      BICS     r0,r0,r2
        0x00000ef6:    2205        ."      MOVS     r2,#5
        0x00000ef8:    0712        ..      LSLS     r2,r2,#28
        0x00000efa:    60d0        .`      STR      r0,[r2,#0xc]
        0x00000efc:    4814        .H      LDR      r0,[pc,#80] ; [0xf50] = 0x50000200
        0x00000efe:    6880        .h      LDR      r0,[r0,#8]
        0x00000f00:    2201        ."      MOVS     r2,#1
        0x00000f02:    0252        R.      LSLS     r2,r2,#9
        0x00000f04:    4390        .C      BICS     r0,r0,r2
        0x00000f06:    4a12        .J      LDR      r2,[pc,#72] ; [0xf50] = 0x50000200
        0x00000f08:    6090        .`      STR      r0,[r2,#8]
        0x00000f0a:    e01d        ..      B        0xf48 ; DrvI2C_Close + 128
        0x00000f0c:    4811        .H      LDR      r0,[pc,#68] ; [0xf54] = 0x40020000
        0x00000f0e:    6800        .h      LDR      r0,[r0,#0]
        0x00000f10:    2240        @"      MOVS     r2,#0x40
        0x00000f12:    4390        .C      BICS     r0,r0,r2
        0x00000f14:    4a0f        .J      LDR      r2,[pc,#60] ; [0xf54] = 0x40020000
        0x00000f16:    6010        .`      STR      r0,[r2,#0]
        0x00000f18:    2005        .       MOVS     r0,#5
        0x00000f1a:    0700        ..      LSLS     r0,r0,#28
        0x00000f1c:    68c0        .h      LDR      r0,[r0,#0xc]
        0x00000f1e:    1592        ..      ASRS     r2,r2,#22
        0x00000f20:    4390        .C      BICS     r0,r0,r2
        0x00000f22:    1880        ..      ADDS     r0,r0,r2
        0x00000f24:    2205        ."      MOVS     r2,#5
        0x00000f26:    0712        ..      LSLS     r2,r2,#28
        0x00000f28:    60d0        .`      STR      r0,[r2,#0xc]
        0x00000f2a:    4610        .F      MOV      r0,r2
        0x00000f2c:    68c0        .h      LDR      r0,[r0,#0xc]
        0x00000f2e:    22ff        ."      MOVS     r2,#0xff
        0x00000f30:    3201        .2      ADDS     r2,#1
        0x00000f32:    4390        .C      BICS     r0,r0,r2
        0x00000f34:    2205        ."      MOVS     r2,#5
        0x00000f36:    0712        ..      LSLS     r2,r2,#28
        0x00000f38:    60d0        .`      STR      r0,[r2,#0xc]
        0x00000f3a:    4805        .H      LDR      r0,[pc,#20] ; [0xf50] = 0x50000200
        0x00000f3c:    6880        .h      LDR      r0,[r0,#8]
        0x00000f3e:    22ff        ."      MOVS     r2,#0xff
        0x00000f40:    3201        .2      ADDS     r2,#1
        0x00000f42:    4390        .C      BICS     r0,r0,r2
        0x00000f44:    4a02        .J      LDR      r2,[pc,#8] ; [0xf50] = 0x50000200
        0x00000f46:    6090        .`      STR      r0,[r2,#8]
        0x00000f48:    2000        .       MOVS     r0,#0
        0x00000f4a:    4770        pG      BX       lr
    $d
        0x00000f4c:    40120000    ...@    DCD    1074921472
        0x00000f50:    50000200    ...P    DCD    1342177792
        0x00000f54:    40020000    ...@    DCD    1073872896
    $t
    i.DrvI2C_Ctrl
    DrvI2C_Ctrl
        0x00000f58:    b5f0        ..      PUSH     {r4-r7,lr}
        0x00000f5a:    9c05        ..      LDR      r4,[sp,#0x14]
        0x00000f5c:    2500        .%      MOVS     r5,#0
        0x00000f5e:    2900        .)      CMP      r1,#0
        0x00000f60:    d001        ..      BEQ      0xf66 ; DrvI2C_Ctrl + 14
        0x00000f62:    2620         &      MOVS     r6,#0x20
        0x00000f64:    4335        5C      ORRS     r5,r5,r6
        0x00000f66:    2a00        .*      CMP      r2,#0
        0x00000f68:    d001        ..      BEQ      0xf6e ; DrvI2C_Ctrl + 22
        0x00000f6a:    2610        .&      MOVS     r6,#0x10
        0x00000f6c:    4335        5C      ORRS     r5,r5,r6
        0x00000f6e:    2b00        .+      CMP      r3,#0
        0x00000f70:    d001        ..      BEQ      0xf76 ; DrvI2C_Ctrl + 30
        0x00000f72:    2608        .&      MOVS     r6,#8
        0x00000f74:    4335        5C      ORRS     r5,r5,r6
        0x00000f76:    2c00        .,      CMP      r4,#0
        0x00000f78:    d001        ..      BEQ      0xf7e ; DrvI2C_Ctrl + 38
        0x00000f7a:    2604        .&      MOVS     r6,#4
        0x00000f7c:    4335        5C      ORRS     r5,r5,r6
        0x00000f7e:    2800        .(      CMP      r0,#0
        0x00000f80:    d007        ..      BEQ      0xf92 ; DrvI2C_Ctrl + 58
        0x00000f82:    4e08        .N      LDR      r6,[pc,#32] ; [0xfa4] = 0x40120000
        0x00000f84:    6836        6h      LDR      r6,[r6,#0]
        0x00000f86:    273c        <'      MOVS     r7,#0x3c
        0x00000f88:    43be        .C      BICS     r6,r6,r7
        0x00000f8a:    432e        .C      ORRS     r6,r6,r5
        0x00000f8c:    4f05        .O      LDR      r7,[pc,#20] ; [0xfa4] = 0x40120000
        0x00000f8e:    603e        >`      STR      r6,[r7,#0]
        0x00000f90:    e006        ..      B        0xfa0 ; DrvI2C_Ctrl + 72
        0x00000f92:    4e05        .N      LDR      r6,[pc,#20] ; [0xfa8] = 0x40020000
        0x00000f94:    6836        6h      LDR      r6,[r6,#0]
        0x00000f96:    273c        <'      MOVS     r7,#0x3c
        0x00000f98:    43be        .C      BICS     r6,r6,r7
        0x00000f9a:    432e        .C      ORRS     r6,r6,r5
        0x00000f9c:    4f02        .O      LDR      r7,[pc,#8] ; [0xfa8] = 0x40020000
        0x00000f9e:    603e        >`      STR      r6,[r7,#0]
        0x00000fa0:    bdf0        ..      POP      {r4-r7,pc}
    $d
        0x00000fa2:    0000        ..      DCW    0
        0x00000fa4:    40120000    ...@    DCD    1074921472
        0x00000fa8:    40020000    ...@    DCD    1073872896
    $t
    i.DrvI2C_Open
    DrvI2C_Open
        0x00000fac:    b5f8        ..      PUSH     {r3-r7,lr}
        0x00000fae:    4605        .F      MOV      r5,r0
        0x00000fb0:    460e        .F      MOV      r6,r1
        0x00000fb2:    00b1        ..      LSLS     r1,r6,#2
        0x00000fb4:    4a2d        -J      LDR      r2,[pc,#180] ; [0x106c] = 0x20000000
        0x00000fb6:    6812        .h      LDR      r2,[r2,#0]
        0x00000fb8:    230a        .#      MOVS     r3,#0xa
        0x00000fba:    435a        ZC      MULS     r2,r3,r2
        0x00000fbc:    4610        .F      MOV      r0,r2
        0x00000fbe:    f7fff9f1    ....    BL       __aeabi_uidiv ; 0x3a4
        0x00000fc2:    1d47        G.      ADDS     r7,r0,#5
        0x00000fc4:    210a        .!      MOVS     r1,#0xa
        0x00000fc6:    4638        8F      MOV      r0,r7
        0x00000fc8:    f7fff9ec    ....    BL       __aeabi_uidiv ; 0x3a4
        0x00000fcc:    1e44        D.      SUBS     r4,r0,#1
        0x00000fce:    2c04        .,      CMP      r4,#4
        0x00000fd0:    d200        ..      BCS      0xfd4 ; DrvI2C_Open + 40
        0x00000fd2:    2404        .$      MOVS     r4,#4
        0x00000fd4:    2d00        .-      CMP      r5,#0
        0x00000fd6:    d023        #.      BEQ      0x1020 ; DrvI2C_Open + 116
        0x00000fd8:    4825        %H      LDR      r0,[pc,#148] ; [0x1070] = 0x50000200
        0x00000fda:    6880        .h      LDR      r0,[r0,#8]
        0x00000fdc:    2101        .!      MOVS     r1,#1
        0x00000fde:    0249        I.      LSLS     r1,r1,#9
        0x00000fe0:    4388        .C      BICS     r0,r0,r1
        0x00000fe2:    1840        @.      ADDS     r0,r0,r1
        0x00000fe4:    4922        "I      LDR      r1,[pc,#136] ; [0x1070] = 0x50000200
        0x00000fe6:    6088        .`      STR      r0,[r1,#8]
        0x00000fe8:    2005        .       MOVS     r0,#5
        0x00000fea:    0700        ..      LSLS     r0,r0,#28
        0x00000fec:    68c0        .h      LDR      r0,[r0,#0xc]
        0x00000fee:    2101        .!      MOVS     r1,#1
        0x00000ff0:    0249        I.      LSLS     r1,r1,#9
        0x00000ff2:    4388        .C      BICS     r0,r0,r1
        0x00000ff4:    1840        @.      ADDS     r0,r0,r1
        0x00000ff6:    2105        .!      MOVS     r1,#5
        0x00000ff8:    0709        ..      LSLS     r1,r1,#28
        0x00000ffa:    60c8        .`      STR      r0,[r1,#0xc]
        0x00000ffc:    4608        .F      MOV      r0,r1
        0x00000ffe:    68c0        .h      LDR      r0,[r0,#0xc]
        0x00001000:    2101        .!      MOVS     r1,#1
        0x00001002:    0249        I.      LSLS     r1,r1,#9
        0x00001004:    4388        .C      BICS     r0,r0,r1
        0x00001006:    2105        .!      MOVS     r1,#5
        0x00001008:    0709        ..      LSLS     r1,r1,#28
        0x0000100a:    60c8        .`      STR      r0,[r1,#0xc]
        0x0000100c:    4819        .H      LDR      r0,[pc,#100] ; [0x1074] = 0x40120000
        0x0000100e:    6800        .h      LDR      r0,[r0,#0]
        0x00001010:    2140        @!      MOVS     r1,#0x40
        0x00001012:    4388        .C      BICS     r0,r0,r1
        0x00001014:    3040        @0      ADDS     r0,r0,#0x40
        0x00001016:    4917        .I      LDR      r1,[pc,#92] ; [0x1074] = 0x40120000
        0x00001018:    6008        .`      STR      r0,[r1,#0]
        0x0000101a:    4608        .F      MOV      r0,r1
        0x0000101c:    6104        .a      STR      r4,[r0,#0x10]
        0x0000101e:    e022        ".      B        0x1066 ; DrvI2C_Open + 186
        0x00001020:    4813        .H      LDR      r0,[pc,#76] ; [0x1070] = 0x50000200
        0x00001022:    6880        .h      LDR      r0,[r0,#8]
        0x00001024:    21ff        .!      MOVS     r1,#0xff
        0x00001026:    3101        .1      ADDS     r1,#1
        0x00001028:    4388        .C      BICS     r0,r0,r1
        0x0000102a:    1840        @.      ADDS     r0,r0,r1
        0x0000102c:    4910        .I      LDR      r1,[pc,#64] ; [0x1070] = 0x50000200
        0x0000102e:    6088        .`      STR      r0,[r1,#8]
        0x00001030:    2005        .       MOVS     r0,#5
        0x00001032:    0700        ..      LSLS     r0,r0,#28
        0x00001034:    68c0        .h      LDR      r0,[r0,#0xc]
        0x00001036:    21ff        .!      MOVS     r1,#0xff
        0x00001038:    3101        .1      ADDS     r1,#1
        0x0000103a:    4388        .C      BICS     r0,r0,r1
        0x0000103c:    1840        @.      ADDS     r0,r0,r1
        0x0000103e:    2105        .!      MOVS     r1,#5
        0x00001040:    0709        ..      LSLS     r1,r1,#28
        0x00001042:    60c8        .`      STR      r0,[r1,#0xc]
        0x00001044:    4608        .F      MOV      r0,r1
        0x00001046:    68c0        .h      LDR      r0,[r0,#0xc]
        0x00001048:    21ff        .!      MOVS     r1,#0xff
        0x0000104a:    3101        .1      ADDS     r1,#1
        0x0000104c:    4388        .C      BICS     r0,r0,r1
        0x0000104e:    2105        .!      MOVS     r1,#5
        0x00001050:    0709        ..      LSLS     r1,r1,#28
        0x00001052:    60c8        .`      STR      r0,[r1,#0xc]
        0x00001054:    4808        .H      LDR      r0,[pc,#32] ; [0x1078] = 0x40020000
        0x00001056:    6800        .h      LDR      r0,[r0,#0]
        0x00001058:    2140        @!      MOVS     r1,#0x40
        0x0000105a:    4388        .C      BICS     r0,r0,r1
        0x0000105c:    3040        @0      ADDS     r0,r0,#0x40
        0x0000105e:    4906        .I      LDR      r1,[pc,#24] ; [0x1078] = 0x40020000
        0x00001060:    6008        .`      STR      r0,[r1,#0]
        0x00001062:    4608        .F      MOV      r0,r1
        0x00001064:    6104        .a      STR      r4,[r0,#0x10]
        0x00001066:    2000        .       MOVS     r0,#0
        0x00001068:    bdf8        ..      POP      {r3-r7,pc}
    $d
        0x0000106a:    0000        ..      DCW    0
        0x0000106c:    20000000    ...     DCD    536870912
        0x00001070:    50000200    ...P    DCD    1342177792
        0x00001074:    40120000    ...@    DCD    1074921472
        0x00001078:    40020000    ...@    DCD    1073872896
    $t
    i.DrvSYS_Delay
    DrvSYS_Delay
        0x0000107c:    4908        .I      LDR      r1,[pc,#32] ; [0x10a0] = 0x20000004
        0x0000107e:    6809        .h      LDR      r1,[r1,#0]
        0x00001080:    4341        AC      MULS     r1,r0,r1
        0x00001082:    4a08        .J      LDR      r2,[pc,#32] ; [0x10a4] = 0xe000e000
        0x00001084:    6151        Qa      STR      r1,[r2,#0x14]
        0x00001086:    2100        .!      MOVS     r1,#0
        0x00001088:    6191        .a      STR      r1,[r2,#0x18]
        0x0000108a:    2105        .!      MOVS     r1,#5
        0x0000108c:    6111        .a      STR      r1,[r2,#0x10]
        0x0000108e:    bf00        ..      NOP      
        0x00001090:    4904        .I      LDR      r1,[pc,#16] ; [0x10a4] = 0xe000e000
        0x00001092:    6909        .i      LDR      r1,[r1,#0x10]
        0x00001094:    2201        ."      MOVS     r2,#1
        0x00001096:    0412        ..      LSLS     r2,r2,#16
        0x00001098:    4211        .B      TST      r1,r2
        0x0000109a:    d0f9        ..      BEQ      0x1090 ; DrvSYS_Delay + 20
        0x0000109c:    4770        pG      BX       lr
    $d
        0x0000109e:    0000        ..      DCW    0
        0x000010a0:    20000004    ...     DCD    536870916
        0x000010a4:    e000e000    ....    DCD    3758153728
    $t
    i.DrvSYS_GetHCLKFreq
    DrvSYS_GetHCLKFreq
        0x000010a8:    b570        p.      PUSH     {r4-r6,lr}
        0x000010aa:    2500        .%      MOVS     r5,#0
        0x000010ac:    4815        .H      LDR      r0,[pc,#84] ; [0x1104] = 0x50000200
        0x000010ae:    6900        .i      LDR      r0,[r0,#0x10]
        0x000010b0:    0740        @.      LSLS     r0,r0,#29
        0x000010b2:    0f40        @.      LSRS     r0,r0,#29
        0x000010b4:    d101        ..      BNE      0x10ba ; DrvSYS_GetHCLKFreq + 18
        0x000010b6:    4d14        .M      LDR      r5,[pc,#80] ; [0x1108] = 0xb71b00
        0x000010b8:    e01a        ..      B        0x10f0 ; DrvSYS_GetHCLKFreq + 72
        0x000010ba:    4812        .H      LDR      r0,[pc,#72] ; [0x1104] = 0x50000200
        0x000010bc:    6900        .i      LDR      r0,[r0,#0x10]
        0x000010be:    0740        @.      LSLS     r0,r0,#29
        0x000010c0:    0f40        @.      LSRS     r0,r0,#29
        0x000010c2:    2801        .(      CMP      r0,#1
        0x000010c4:    d101        ..      BNE      0x10ca ; DrvSYS_GetHCLKFreq + 34
        0x000010c6:    03c5        ..      LSLS     r5,r0,#15
        0x000010c8:    e012        ..      B        0x10f0 ; DrvSYS_GetHCLKFreq + 72
        0x000010ca:    480e        .H      LDR      r0,[pc,#56] ; [0x1104] = 0x50000200
        0x000010cc:    6900        .i      LDR      r0,[r0,#0x10]
        0x000010ce:    0740        @.      LSLS     r0,r0,#29
        0x000010d0:    0f40        @.      LSRS     r0,r0,#29
        0x000010d2:    2802        .(      CMP      r0,#2
        0x000010d4:    d103        ..      BNE      0x10de ; DrvSYS_GetHCLKFreq + 54
        0x000010d6:    f000f81d    ....    BL       DrvSYS_GetPLLClockFreq ; 0x1114
        0x000010da:    4605        .F      MOV      r5,r0
        0x000010dc:    e008        ..      B        0x10f0 ; DrvSYS_GetHCLKFreq + 72
        0x000010de:    4809        .H      LDR      r0,[pc,#36] ; [0x1104] = 0x50000200
        0x000010e0:    6900        .i      LDR      r0,[r0,#0x10]
        0x000010e2:    0740        @.      LSLS     r0,r0,#29
        0x000010e4:    0f40        @.      LSRS     r0,r0,#29
        0x000010e6:    2803        .(      CMP      r0,#3
        0x000010e8:    d101        ..      BNE      0x10ee ; DrvSYS_GetHCLKFreq + 70
        0x000010ea:    4d08        .M      LDR      r5,[pc,#32] ; [0x110c] = 0x2710
        0x000010ec:    e000        ..      B        0x10f0 ; DrvSYS_GetHCLKFreq + 72
        0x000010ee:    4d08        .M      LDR      r5,[pc,#32] ; [0x1110] = 0x1518000
        0x000010f0:    4804        .H      LDR      r0,[pc,#16] ; [0x1104] = 0x50000200
        0x000010f2:    6980        .i      LDR      r0,[r0,#0x18]
        0x000010f4:    0700        ..      LSLS     r0,r0,#28
        0x000010f6:    0f00        ..      LSRS     r0,r0,#28
        0x000010f8:    1c44        D.      ADDS     r4,r0,#1
        0x000010fa:    4621        !F      MOV      r1,r4
        0x000010fc:    4628        (F      MOV      r0,r5
        0x000010fe:    f7fff951    ..Q.    BL       __aeabi_uidiv ; 0x3a4
        0x00001102:    bd70        p.      POP      {r4-r6,pc}
    $d
        0x00001104:    50000200    ...P    DCD    1342177792
        0x00001108:    00b71b00    ....    DCD    12000000
        0x0000110c:    00002710    .'..    DCD    10000
        0x00001110:    01518000    ..Q.    DCD    22118400
    $t
    i.DrvSYS_GetPLLClockFreq
    DrvSYS_GetPLLClockFreq
        0x00001114:    b57f        ..      PUSH     {r0-r6,lr}
        0x00001116:    2500        .%      MOVS     r5,#0
        0x00001118:    4b18        .K      LDR      r3,[pc,#96] ; [0x117c] = 0x20d8
        0x0000111a:    cb0f        ..      LDM      r3,{r0-r3}
        0x0000111c:    466c        lF      MOV      r4,sp
        0x0000111e:    c40f        ..      STM      r4!,{r0-r3}
        0x00001120:    4817        .H      LDR      r0,[pc,#92] ; [0x1180] = 0x50000200
        0x00001122:    6a00        .j      LDR      r0,[r0,#0x20]
        0x00001124:    0300        ..      LSLS     r0,r0,#12
        0x00001126:    0fc0        ..      LSRS     r0,r0,#31
        0x00001128:    2801        .(      CMP      r0,#1
        0x0000112a:    d101        ..      BNE      0x1130 ; DrvSYS_GetPLLClockFreq + 28
        0x0000112c:    4c15        .L      LDR      r4,[pc,#84] ; [0x1184] = 0x1518000
        0x0000112e:    e000        ..      B        0x1132 ; DrvSYS_GetPLLClockFreq + 30
        0x00001130:    4c15        .L      LDR      r4,[pc,#84] ; [0x1188] = 0xb71b00
        0x00001132:    4813        .H      LDR      r0,[pc,#76] ; [0x1180] = 0x50000200
        0x00001134:    6a00        .j      LDR      r0,[r0,#0x20]
        0x00001136:    03c0        ..      LSLS     r0,r0,#15
        0x00001138:    0fc0        ..      LSRS     r0,r0,#31
        0x0000113a:    2801        .(      CMP      r0,#1
        0x0000113c:    d101        ..      BNE      0x1142 ; DrvSYS_GetPLLClockFreq + 46
        0x0000113e:    2500        .%      MOVS     r5,#0
        0x00001140:    e019        ..      B        0x1176 ; DrvSYS_GetPLLClockFreq + 98
        0x00001142:    4a0f        .J      LDR      r2,[pc,#60] ; [0x1180] = 0x50000200
        0x00001144:    6a12        .j      LDR      r2,[r2,#0x20]
        0x00001146:    0492        ..      LSLS     r2,r2,#18
        0x00001148:    0ed2        ..      LSRS     r2,r2,#27
        0x0000114a:    1c91        ..      ADDS     r1,r2,#2
        0x0000114c:    4a0c        .J      LDR      r2,[pc,#48] ; [0x1180] = 0x50000200
        0x0000114e:    6a12        .j      LDR      r2,[r2,#0x20]
        0x00001150:    05d2        ..      LSLS     r2,r2,#23
        0x00001152:    0dd2        ..      LSRS     r2,r2,#23
        0x00001154:    1c92        ..      ADDS     r2,r2,#2
        0x00001156:    4362        bC      MULS     r2,r4,r2
        0x00001158:    4610        .F      MOV      r0,r2
        0x0000115a:    f7fff923    ..#.    BL       __aeabi_uidiv ; 0x3a4
        0x0000115e:    4606        .F      MOV      r6,r0
        0x00001160:    4807        .H      LDR      r0,[pc,#28] ; [0x1180] = 0x50000200
        0x00001162:    6a00        .j      LDR      r0,[r0,#0x20]
        0x00001164:    0400        ..      LSLS     r0,r0,#16
        0x00001166:    0f80        ..      LSRS     r0,r0,#30
        0x00001168:    0080        ..      LSLS     r0,r0,#2
        0x0000116a:    466a        jF      MOV      r2,sp
        0x0000116c:    5811        .X      LDR      r1,[r2,r0]
        0x0000116e:    4630        0F      MOV      r0,r6
        0x00001170:    f7fff918    ....    BL       __aeabi_uidiv ; 0x3a4
        0x00001174:    4605        .F      MOV      r5,r0
        0x00001176:    4628        (F      MOV      r0,r5
        0x00001178:    b004        ..      ADD      sp,sp,#0x10
        0x0000117a:    bd70        p.      POP      {r4-r6,pc}
    $d
        0x0000117c:    000020d8    . ..    DCD    8408
        0x00001180:    50000200    ...P    DCD    1342177792
        0x00001184:    01518000    ..Q.    DCD    22118400
        0x00001188:    00b71b00    ....    DCD    12000000
    $t
    i.DrvSYS_SelectHCLKSource
    DrvSYS_SelectHCLKSource
        0x0000118c:    b510        ..      PUSH     {r4,lr}
        0x0000118e:    4604        .F      MOV      r4,r0
        0x00001190:    2c07        .,      CMP      r4,#7
        0x00001192:    dc03        ..      BGT      0x119c ; DrvSYS_SelectHCLKSource + 16
        0x00001194:    2c03        .,      CMP      r4,#3
        0x00001196:    dd03        ..      BLE      0x11a0 ; DrvSYS_SelectHCLKSource + 20
        0x00001198:    2c07        .,      CMP      r4,#7
        0x0000119a:    da01        ..      BGE      0x11a0 ; DrvSYS_SelectHCLKSource + 20
        0x0000119c:    4807        .H      LDR      r0,[pc,#28] ; [0x11bc] = 0xffff9603
        0x0000119e:    bd10        ..      POP      {r4,pc}
        0x000011a0:    4807        .H      LDR      r0,[pc,#28] ; [0x11c0] = 0x50000200
        0x000011a2:    6900        .i      LDR      r0,[r0,#0x10]
        0x000011a4:    08c0        ..      LSRS     r0,r0,#3
        0x000011a6:    00c0        ..      LSLS     r0,r0,#3
        0x000011a8:    0761        a.      LSLS     r1,r4,#29
        0x000011aa:    0f49        I.      LSRS     r1,r1,#29
        0x000011ac:    4308        .C      ORRS     r0,r0,r1
        0x000011ae:    4904        .I      LDR      r1,[pc,#16] ; [0x11c0] = 0x50000200
        0x000011b0:    6108        .a      STR      r0,[r1,#0x10]
        0x000011b2:    f000fc5d    ..].    BL       SystemCoreClockUpdate ; 0x1a70
        0x000011b6:    2000        .       MOVS     r0,#0
        0x000011b8:    e7f1        ..      B        0x119e ; DrvSYS_SelectHCLKSource + 18
    $d
        0x000011ba:    0000        ..      DCW    0
        0x000011bc:    ffff9603    ....    DCD    4294940163
        0x000011c0:    50000200    ...P    DCD    1342177792
    $t
    i.DrvSYS_SetClockDivider
    DrvSYS_SetClockDivider
        0x000011c4:    b570        p.      PUSH     {r4-r6,lr}
        0x000011c6:    4604        .F      MOV      r4,r0
        0x000011c8:    460d        .F      MOV      r5,r1
        0x000011ca:    2c00        .,      CMP      r4,#0
        0x000011cc:    d10c        ..      BNE      0x11e8 ; DrvSYS_SetClockDivider + 36
        0x000011ce:    481d        .H      LDR      r0,[pc,#116] ; [0x1244] = 0x50000200
        0x000011d0:    6980        .i      LDR      r0,[r0,#0x18]
        0x000011d2:    21ff        .!      MOVS     r1,#0xff
        0x000011d4:    0409        ..      LSLS     r1,r1,#16
        0x000011d6:    4388        .C      BICS     r0,r0,r1
        0x000011d8:    0429        ).      LSLS     r1,r5,#16
        0x000011da:    22ff        ."      MOVS     r2,#0xff
        0x000011dc:    0412        ..      LSLS     r2,r2,#16
        0x000011de:    4011        .@      ANDS     r1,r1,r2
        0x000011e0:    4308        .C      ORRS     r0,r0,r1
        0x000011e2:    4918        .I      LDR      r1,[pc,#96] ; [0x1244] = 0x50000200
        0x000011e4:    6188        .a      STR      r0,[r1,#0x18]
        0x000011e6:    e02b        +.      B        0x1240 ; DrvSYS_SetClockDivider + 124
        0x000011e8:    2c01        .,      CMP      r4,#1
        0x000011ea:    d10c        ..      BNE      0x1206 ; DrvSYS_SetClockDivider + 66
        0x000011ec:    4815        .H      LDR      r0,[pc,#84] ; [0x1244] = 0x50000200
        0x000011ee:    6980        .i      LDR      r0,[r0,#0x18]
        0x000011f0:    210f        .!      MOVS     r1,#0xf
        0x000011f2:    0209        ..      LSLS     r1,r1,#8
        0x000011f4:    4388        .C      BICS     r0,r0,r1
        0x000011f6:    0229        ).      LSLS     r1,r5,#8
        0x000011f8:    220f        ."      MOVS     r2,#0xf
        0x000011fa:    0212        ..      LSLS     r2,r2,#8
        0x000011fc:    4011        .@      ANDS     r1,r1,r2
        0x000011fe:    4308        .C      ORRS     r0,r0,r1
        0x00001200:    4910        .I      LDR      r1,[pc,#64] ; [0x1244] = 0x50000200
        0x00001202:    6188        .a      STR      r0,[r1,#0x18]
        0x00001204:    e01c        ..      B        0x1240 ; DrvSYS_SetClockDivider + 124
        0x00001206:    2c02        .,      CMP      r4,#2
        0x00001208:    d10a        ..      BNE      0x1220 ; DrvSYS_SetClockDivider + 92
        0x0000120a:    480e        .H      LDR      r0,[pc,#56] ; [0x1244] = 0x50000200
        0x0000120c:    6980        .i      LDR      r0,[r0,#0x18]
        0x0000120e:    21f0        .!      MOVS     r1,#0xf0
        0x00001210:    4388        .C      BICS     r0,r0,r1
        0x00001212:    0129        ).      LSLS     r1,r5,#4
        0x00001214:    22f0        ."      MOVS     r2,#0xf0
        0x00001216:    4011        .@      ANDS     r1,r1,r2
        0x00001218:    4308        .C      ORRS     r0,r0,r1
        0x0000121a:    490a        .I      LDR      r1,[pc,#40] ; [0x1244] = 0x50000200
        0x0000121c:    6188        .a      STR      r0,[r1,#0x18]
        0x0000121e:    e00f        ..      B        0x1240 ; DrvSYS_SetClockDivider + 124
        0x00001220:    2c03        .,      CMP      r4,#3
        0x00001222:    d10b        ..      BNE      0x123c ; DrvSYS_SetClockDivider + 120
        0x00001224:    4807        .H      LDR      r0,[pc,#28] ; [0x1244] = 0x50000200
        0x00001226:    6980        .i      LDR      r0,[r0,#0x18]
        0x00001228:    0900        ..      LSRS     r0,r0,#4
        0x0000122a:    0100        ..      LSLS     r0,r0,#4
        0x0000122c:    0729        ).      LSLS     r1,r5,#28
        0x0000122e:    0f09        ..      LSRS     r1,r1,#28
        0x00001230:    4308        .C      ORRS     r0,r0,r1
        0x00001232:    4904        .I      LDR      r1,[pc,#16] ; [0x1244] = 0x50000200
        0x00001234:    6188        .a      STR      r0,[r1,#0x18]
        0x00001236:    f000fc1b    ....    BL       SystemCoreClockUpdate ; 0x1a70
        0x0000123a:    e001        ..      B        0x1240 ; DrvSYS_SetClockDivider + 124
        0x0000123c:    4802        .H      LDR      r0,[pc,#8] ; [0x1248] = 0xffff9605
        0x0000123e:    bd70        p.      POP      {r4-r6,pc}
        0x00001240:    2000        .       MOVS     r0,#0
        0x00001242:    e7fc        ..      B        0x123e ; DrvSYS_SetClockDivider + 122
    $d
        0x00001244:    50000200    ...P    DCD    1342177792
        0x00001248:    ffff9605    ....    DCD    4294940165
    $t
    i.DrvSYS_SetOscCtrl
    DrvSYS_SetOscCtrl
        0x0000124c:    b510        ..      PUSH     {r4,lr}
        0x0000124e:    4602        .F      MOV      r2,r0
        0x00001250:    2a00        .*      CMP      r2,#0
        0x00001252:    d006        ..      BEQ      0x1262 ; DrvSYS_SetOscCtrl + 22
        0x00001254:    2a01        .*      CMP      r2,#1
        0x00001256:    d00e        ..      BEQ      0x1276 ; DrvSYS_SetOscCtrl + 42
        0x00001258:    2a02        .*      CMP      r2,#2
        0x0000125a:    d017        ..      BEQ      0x128c ; DrvSYS_SetOscCtrl + 64
        0x0000125c:    2a03        .*      CMP      r2,#3
        0x0000125e:    d12b        +.      BNE      0x12b8 ; DrvSYS_SetOscCtrl + 108
        0x00001260:    e01f        ..      B        0x12a2 ; DrvSYS_SetOscCtrl + 86
        0x00001262:    4818        .H      LDR      r0,[pc,#96] ; [0x12c4] = 0x50000200
        0x00001264:    6800        .h      LDR      r0,[r0,#0]
        0x00001266:    0840        @.      LSRS     r0,r0,#1
        0x00001268:    0040        @.      LSLS     r0,r0,#1
        0x0000126a:    07cb        ..      LSLS     r3,r1,#31
        0x0000126c:    0fdb        ..      LSRS     r3,r3,#31
        0x0000126e:    4318        .C      ORRS     r0,r0,r3
        0x00001270:    4b14        .K      LDR      r3,[pc,#80] ; [0x12c4] = 0x50000200
        0x00001272:    6018        .`      STR      r0,[r3,#0]
        0x00001274:    e022        ".      B        0x12bc ; DrvSYS_SetOscCtrl + 112
        0x00001276:    4813        .H      LDR      r0,[pc,#76] ; [0x12c4] = 0x50000200
        0x00001278:    6800        .h      LDR      r0,[r0,#0]
        0x0000127a:    2302        .#      MOVS     r3,#2
        0x0000127c:    4398        .C      BICS     r0,r0,r3
        0x0000127e:    004b        K.      LSLS     r3,r1,#1
        0x00001280:    2402        .$      MOVS     r4,#2
        0x00001282:    4023        #@      ANDS     r3,r3,r4
        0x00001284:    4318        .C      ORRS     r0,r0,r3
        0x00001286:    4b0f        .K      LDR      r3,[pc,#60] ; [0x12c4] = 0x50000200
        0x00001288:    6018        .`      STR      r0,[r3,#0]
        0x0000128a:    e017        ..      B        0x12bc ; DrvSYS_SetOscCtrl + 112
        0x0000128c:    480d        .H      LDR      r0,[pc,#52] ; [0x12c4] = 0x50000200
        0x0000128e:    6800        .h      LDR      r0,[r0,#0]
        0x00001290:    2304        .#      MOVS     r3,#4
        0x00001292:    4398        .C      BICS     r0,r0,r3
        0x00001294:    008b        ..      LSLS     r3,r1,#2
        0x00001296:    2404        .$      MOVS     r4,#4
        0x00001298:    4023        #@      ANDS     r3,r3,r4
        0x0000129a:    4318        .C      ORRS     r0,r0,r3
        0x0000129c:    4b09        .K      LDR      r3,[pc,#36] ; [0x12c4] = 0x50000200
        0x0000129e:    6018        .`      STR      r0,[r3,#0]
        0x000012a0:    e00c        ..      B        0x12bc ; DrvSYS_SetOscCtrl + 112
        0x000012a2:    4808        .H      LDR      r0,[pc,#32] ; [0x12c4] = 0x50000200
        0x000012a4:    6800        .h      LDR      r0,[r0,#0]
        0x000012a6:    2308        .#      MOVS     r3,#8
        0x000012a8:    4398        .C      BICS     r0,r0,r3
        0x000012aa:    00cb        ..      LSLS     r3,r1,#3
        0x000012ac:    2408        .$      MOVS     r4,#8
        0x000012ae:    4023        #@      ANDS     r3,r3,r4
        0x000012b0:    4318        .C      ORRS     r0,r0,r3
        0x000012b2:    4b04        .K      LDR      r3,[pc,#16] ; [0x12c4] = 0x50000200
        0x000012b4:    6018        .`      STR      r0,[r3,#0]
        0x000012b6:    e001        ..      B        0x12bc ; DrvSYS_SetOscCtrl + 112
        0x000012b8:    4803        .H      LDR      r0,[pc,#12] ; [0x12c8] = 0xffff9603
        0x000012ba:    bd10        ..      POP      {r4,pc}
        0x000012bc:    bf00        ..      NOP      
        0x000012be:    2000        .       MOVS     r0,#0
        0x000012c0:    e7fb        ..      B        0x12ba ; DrvSYS_SetOscCtrl + 110
    $d
        0x000012c2:    0000        ..      DCW    0
        0x000012c4:    50000200    ...P    DCD    1342177792
        0x000012c8:    ffff9603    ....    DCD    4294940163
    $t
    i.EINT0_IRQHandler
    EINT0_IRQHandler
        0x000012cc:    b510        ..      PUSH     {r4,lr}
        0x000012ce:    2001        .       MOVS     r0,#1
        0x000012d0:    0380        ..      LSLS     r0,r0,#14
        0x000012d2:    4905        .I      LDR      r1,[pc,#20] ; [0x12e8] = 0x50004040
        0x000012d4:    6208        .b      STR      r0,[r1,#0x20]
        0x000012d6:    4805        .H      LDR      r0,[pc,#20] ; [0x12ec] = 0x20000648
        0x000012d8:    6800        .h      LDR      r0,[r0,#0]
        0x000012da:    2800        .(      CMP      r0,#0
        0x000012dc:    d002        ..      BEQ      0x12e4 ; EINT0_IRQHandler + 24
        0x000012de:    4803        .H      LDR      r0,[pc,#12] ; [0x12ec] = 0x20000648
        0x000012e0:    6800        .h      LDR      r0,[r0,#0]
        0x000012e2:    4780        .G      BLX      r0
        0x000012e4:    bd10        ..      POP      {r4,pc}
    $d
        0x000012e6:    0000        ..      DCW    0
        0x000012e8:    50004040    @@.P    DCD    1342193728
        0x000012ec:    20000648    H..     DCD    536872520
    $t
    i.EINT1_IRQHandler
    EINT1_IRQHandler
        0x000012f0:    b510        ..      PUSH     {r4,lr}
        0x000012f2:    2001        .       MOVS     r0,#1
        0x000012f4:    03c0        ..      LSLS     r0,r0,#15
        0x000012f6:    4905        .I      LDR      r1,[pc,#20] ; [0x130c] = 0x50004040
        0x000012f8:    6208        .b      STR      r0,[r1,#0x20]
        0x000012fa:    4805        .H      LDR      r0,[pc,#20] ; [0x1310] = 0x2000064c
        0x000012fc:    6800        .h      LDR      r0,[r0,#0]
        0x000012fe:    2800        .(      CMP      r0,#0
        0x00001300:    d002        ..      BEQ      0x1308 ; EINT1_IRQHandler + 24
        0x00001302:    4803        .H      LDR      r0,[pc,#12] ; [0x1310] = 0x2000064c
        0x00001304:    6800        .h      LDR      r0,[r0,#0]
        0x00001306:    4780        .G      BLX      r0
        0x00001308:    bd10        ..      POP      {r4,pc}
    $d
        0x0000130a:    0000        ..      DCW    0
        0x0000130c:    50004040    @@.P    DCD    1342193728
        0x00001310:    2000064c    L..     DCD    536872524
    $t
    i.GPAB_IRQHandler
    GPAB_IRQHandler
        0x00001314:    b570        p.      PUSH     {r4-r6,lr}
        0x00001316:    480c        .H      LDR      r0,[pc,#48] ; [0x1348] = 0x50004000
        0x00001318:    6a05        .j      LDR      r5,[r0,#0x20]
        0x0000131a:    480b        .H      LDR      r0,[pc,#44] ; [0x1348] = 0x50004000
        0x0000131c:    3040        @0      ADDS     r0,r0,#0x40
        0x0000131e:    6a04        .j      LDR      r4,[r0,#0x20]
        0x00001320:    2103        .!      MOVS     r1,#3
        0x00001322:    0389        ..      LSLS     r1,r1,#14
        0x00001324:    4620         F      MOV      r0,r4
        0x00001326:    4388        .C      BICS     r0,r0,r1
        0x00001328:    4604        .F      MOV      r4,r0
        0x0000132a:    4807        .H      LDR      r0,[pc,#28] ; [0x1348] = 0x50004000
        0x0000132c:    6205        .b      STR      r5,[r0,#0x20]
        0x0000132e:    4806        .H      LDR      r0,[pc,#24] ; [0x1348] = 0x50004000
        0x00001330:    3040        @0      ADDS     r0,r0,#0x40
        0x00001332:    6204        .b      STR      r4,[r0,#0x20]
        0x00001334:    4805        .H      LDR      r0,[pc,#20] ; [0x134c] = 0x20000640
        0x00001336:    6800        .h      LDR      r0,[r0,#0]
        0x00001338:    2800        .(      CMP      r0,#0
        0x0000133a:    d004        ..      BEQ      0x1346 ; GPAB_IRQHandler + 50
        0x0000133c:    4621        !F      MOV      r1,r4
        0x0000133e:    4628        (F      MOV      r0,r5
        0x00001340:    4a02        .J      LDR      r2,[pc,#8] ; [0x134c] = 0x20000640
        0x00001342:    6812        .h      LDR      r2,[r2,#0]
        0x00001344:    4790        .G      BLX      r2
        0x00001346:    bd70        p.      POP      {r4-r6,pc}
    $d
        0x00001348:    50004000    .@.P    DCD    1342193664
        0x0000134c:    20000640    @..     DCD    536872512
    $t
    i.GPCDE_IRQHandler
    GPCDE_IRQHandler
        0x00001350:    b570        p.      PUSH     {r4-r6,lr}
        0x00001352:    480d        .H      LDR      r0,[pc,#52] ; [0x1388] = 0x50004080
        0x00001354:    6a04        .j      LDR      r4,[r0,#0x20]
        0x00001356:    480c        .H      LDR      r0,[pc,#48] ; [0x1388] = 0x50004080
        0x00001358:    3040        @0      ADDS     r0,r0,#0x40
        0x0000135a:    6a05        .j      LDR      r5,[r0,#0x20]
        0x0000135c:    480a        .H      LDR      r0,[pc,#40] ; [0x1388] = 0x50004080
        0x0000135e:    3080        .0      ADDS     r0,r0,#0x80
        0x00001360:    6a06        .j      LDR      r6,[r0,#0x20]
        0x00001362:    4809        .H      LDR      r0,[pc,#36] ; [0x1388] = 0x50004080
        0x00001364:    6204        .b      STR      r4,[r0,#0x20]
        0x00001366:    4808        .H      LDR      r0,[pc,#32] ; [0x1388] = 0x50004080
        0x00001368:    3040        @0      ADDS     r0,r0,#0x40
        0x0000136a:    6205        .b      STR      r5,[r0,#0x20]
        0x0000136c:    4806        .H      LDR      r0,[pc,#24] ; [0x1388] = 0x50004080
        0x0000136e:    3080        .0      ADDS     r0,r0,#0x80
        0x00001370:    6206        .b      STR      r6,[r0,#0x20]
        0x00001372:    4806        .H      LDR      r0,[pc,#24] ; [0x138c] = 0x20000644
        0x00001374:    6800        .h      LDR      r0,[r0,#0]
        0x00001376:    2800        .(      CMP      r0,#0
        0x00001378:    d005        ..      BEQ      0x1386 ; GPCDE_IRQHandler + 54
        0x0000137a:    4632        2F      MOV      r2,r6
        0x0000137c:    4629        )F      MOV      r1,r5
        0x0000137e:    4620         F      MOV      r0,r4
        0x00001380:    4b02        .K      LDR      r3,[pc,#8] ; [0x138c] = 0x20000644
        0x00001382:    681b        .h      LDR      r3,[r3,#0]
        0x00001384:    4798        .G      BLX      r3
        0x00001386:    bd70        p.      POP      {r4-r6,pc}
    $d
        0x00001388:    50004080    .@.P    DCD    1342193792
        0x0000138c:    20000644    D..     DCD    536872516
    $t
    i.HEX2Disp
    HEX2Disp
        0x00001390:    4601        .F      MOV      r1,r0
        0x00001392:    4a01        .J      LDR      r2,[pc,#4] ; [0x1398] = 0x20b0
        0x00001394:    5c50        P\      LDRB     r0,[r2,r1]
        0x00001396:    4770        pG      BX       lr
    $d
        0x00001398:    000020b0    . ..    DCD    8368
    $t
    i.I2C0_IRQHandler
    I2C0_IRQHandler
        0x0000139c:    b510        ..      PUSH     {r4,lr}
        0x0000139e:    481b        .H      LDR      r0,[pc,#108] ; [0x140c] = 0x40020000
        0x000013a0:    68c4        .h      LDR      r4,[r0,#0xc]
        0x000013a2:    6940        @i      LDR      r0,[r0,#0x14]
        0x000013a4:    07c0        ..      LSLS     r0,r0,#31
        0x000013a6:    0fc0        ..      LSRS     r0,r0,#31
        0x000013a8:    d00f        ..      BEQ      0x13ca ; I2C0_IRQHandler + 46
        0x000013aa:    4818        .H      LDR      r0,[pc,#96] ; [0x140c] = 0x40020000
        0x000013ac:    6940        @i      LDR      r0,[r0,#0x14]
        0x000013ae:    0840        @.      LSRS     r0,r0,#1
        0x000013b0:    0040        @.      LSLS     r0,r0,#1
        0x000013b2:    1c40        @.      ADDS     r0,r0,#1
        0x000013b4:    4915        .I      LDR      r1,[pc,#84] ; [0x140c] = 0x40020000
        0x000013b6:    6148        Ha      STR      r0,[r1,#0x14]
        0x000013b8:    4815        .H      LDR      r0,[pc,#84] ; [0x1410] = 0x20000650
        0x000013ba:    68c0        .h      LDR      r0,[r0,#0xc]
        0x000013bc:    2800        .(      CMP      r0,#0
        0x000013be:    d024        $.      BEQ      0x140a ; I2C0_IRQHandler + 110
        0x000013c0:    4813        .H      LDR      r0,[pc,#76] ; [0x1410] = 0x20000650
        0x000013c2:    68c1        .h      LDR      r1,[r0,#0xc]
        0x000013c4:    4620         F      MOV      r0,r4
        0x000013c6:    4788        .G      BLX      r1
        0x000013c8:    e01f        ..      B        0x140a ; I2C0_IRQHandler + 110
        0x000013ca:    2c00        .,      CMP      r4,#0
        0x000013cc:    d00a        ..      BEQ      0x13e4 ; I2C0_IRQHandler + 72
        0x000013ce:    2c38        8,      CMP      r4,#0x38
        0x000013d0:    d111        ..      BNE      0x13f6 ; I2C0_IRQHandler + 90
        0x000013d2:    480f        .H      LDR      r0,[pc,#60] ; [0x1410] = 0x20000650
        0x000013d4:    6840        @h      LDR      r0,[r0,#4]
        0x000013d6:    2800        .(      CMP      r0,#0
        0x000013d8:    d003        ..      BEQ      0x13e2 ; I2C0_IRQHandler + 70
        0x000013da:    480d        .H      LDR      r0,[pc,#52] ; [0x1410] = 0x20000650
        0x000013dc:    6841        Ah      LDR      r1,[r0,#4]
        0x000013de:    4620         F      MOV      r0,r4
        0x000013e0:    4788        .G      BLX      r1
        0x000013e2:    e011        ..      B        0x1408 ; I2C0_IRQHandler + 108
        0x000013e4:    480a        .H      LDR      r0,[pc,#40] ; [0x1410] = 0x20000650
        0x000013e6:    6880        .h      LDR      r0,[r0,#8]
        0x000013e8:    2800        .(      CMP      r0,#0
        0x000013ea:    d003        ..      BEQ      0x13f4 ; I2C0_IRQHandler + 88
        0x000013ec:    4808        .H      LDR      r0,[pc,#32] ; [0x1410] = 0x20000650
        0x000013ee:    6881        .h      LDR      r1,[r0,#8]
        0x000013f0:    4620         F      MOV      r0,r4
        0x000013f2:    4788        .G      BLX      r1
        0x000013f4:    e008        ..      B        0x1408 ; I2C0_IRQHandler + 108
        0x000013f6:    4806        .H      LDR      r0,[pc,#24] ; [0x1410] = 0x20000650
        0x000013f8:    6800        .h      LDR      r0,[r0,#0]
        0x000013fa:    2800        .(      CMP      r0,#0
        0x000013fc:    d003        ..      BEQ      0x1406 ; I2C0_IRQHandler + 106
        0x000013fe:    4804        .H      LDR      r0,[pc,#16] ; [0x1410] = 0x20000650
        0x00001400:    6801        .h      LDR      r1,[r0,#0]
        0x00001402:    4620         F      MOV      r0,r4
        0x00001404:    4788        .G      BLX      r1
        0x00001406:    bf00        ..      NOP      
        0x00001408:    bf00        ..      NOP      
        0x0000140a:    bd10        ..      POP      {r4,pc}
    $d
        0x0000140c:    40020000    ...@    DCD    1073872896
        0x00001410:    20000650    P..     DCD    536872528
    $t
    i.I2C1_IRQHandler
    I2C1_IRQHandler
        0x00001414:    b510        ..      PUSH     {r4,lr}
        0x00001416:    481b        .H      LDR      r0,[pc,#108] ; [0x1484] = 0x40120000
        0x00001418:    68c4        .h      LDR      r4,[r0,#0xc]
        0x0000141a:    6940        @i      LDR      r0,[r0,#0x14]
        0x0000141c:    07c0        ..      LSLS     r0,r0,#31
        0x0000141e:    0fc0        ..      LSRS     r0,r0,#31
        0x00001420:    d00f        ..      BEQ      0x1442 ; I2C1_IRQHandler + 46
        0x00001422:    4818        .H      LDR      r0,[pc,#96] ; [0x1484] = 0x40120000
        0x00001424:    6940        @i      LDR      r0,[r0,#0x14]
        0x00001426:    0840        @.      LSRS     r0,r0,#1
        0x00001428:    0040        @.      LSLS     r0,r0,#1
        0x0000142a:    1c40        @.      ADDS     r0,r0,#1
        0x0000142c:    4915        .I      LDR      r1,[pc,#84] ; [0x1484] = 0x40120000
        0x0000142e:    6148        Ha      STR      r0,[r1,#0x14]
        0x00001430:    4815        .H      LDR      r0,[pc,#84] ; [0x1488] = 0x20000660
        0x00001432:    68c0        .h      LDR      r0,[r0,#0xc]
        0x00001434:    2800        .(      CMP      r0,#0
        0x00001436:    d024        $.      BEQ      0x1482 ; I2C1_IRQHandler + 110
        0x00001438:    4813        .H      LDR      r0,[pc,#76] ; [0x1488] = 0x20000660
        0x0000143a:    68c1        .h      LDR      r1,[r0,#0xc]
        0x0000143c:    4620         F      MOV      r0,r4
        0x0000143e:    4788        .G      BLX      r1
        0x00001440:    e01f        ..      B        0x1482 ; I2C1_IRQHandler + 110
        0x00001442:    2c00        .,      CMP      r4,#0
        0x00001444:    d00a        ..      BEQ      0x145c ; I2C1_IRQHandler + 72
        0x00001446:    2c38        8,      CMP      r4,#0x38
        0x00001448:    d111        ..      BNE      0x146e ; I2C1_IRQHandler + 90
        0x0000144a:    480f        .H      LDR      r0,[pc,#60] ; [0x1488] = 0x20000660
        0x0000144c:    6840        @h      LDR      r0,[r0,#4]
        0x0000144e:    2800        .(      CMP      r0,#0
        0x00001450:    d003        ..      BEQ      0x145a ; I2C1_IRQHandler + 70
        0x00001452:    480d        .H      LDR      r0,[pc,#52] ; [0x1488] = 0x20000660
        0x00001454:    6841        Ah      LDR      r1,[r0,#4]
        0x00001456:    4620         F      MOV      r0,r4
        0x00001458:    4788        .G      BLX      r1
        0x0000145a:    e011        ..      B        0x1480 ; I2C1_IRQHandler + 108
        0x0000145c:    480a        .H      LDR      r0,[pc,#40] ; [0x1488] = 0x20000660
        0x0000145e:    6880        .h      LDR      r0,[r0,#8]
        0x00001460:    2800        .(      CMP      r0,#0
        0x00001462:    d003        ..      BEQ      0x146c ; I2C1_IRQHandler + 88
        0x00001464:    4808        .H      LDR      r0,[pc,#32] ; [0x1488] = 0x20000660
        0x00001466:    6881        .h      LDR      r1,[r0,#8]
        0x00001468:    4620         F      MOV      r0,r4
        0x0000146a:    4788        .G      BLX      r1
        0x0000146c:    e008        ..      B        0x1480 ; I2C1_IRQHandler + 108
        0x0000146e:    4806        .H      LDR      r0,[pc,#24] ; [0x1488] = 0x20000660
        0x00001470:    6800        .h      LDR      r0,[r0,#0]
        0x00001472:    2800        .(      CMP      r0,#0
        0x00001474:    d003        ..      BEQ      0x147e ; I2C1_IRQHandler + 106
        0x00001476:    4804        .H      LDR      r0,[pc,#16] ; [0x1488] = 0x20000660
        0x00001478:    6801        .h      LDR      r1,[r0,#0]
        0x0000147a:    4620         F      MOV      r0,r4
        0x0000147c:    4788        .G      BLX      r1
        0x0000147e:    bf00        ..      NOP      
        0x00001480:    bf00        ..      NOP      
        0x00001482:    bd10        ..      POP      {r4,pc}
    $d
        0x00001484:    40120000    ...@    DCD    1074921472
        0x00001488:    20000660    `..     DCD    536872544
    $t
    i.Initial_pannel
    Initial_pannel
        0x0000148c:    4883        .H      LDR      r0,[pc,#524] ; [0x169c] = 0x50000200
        0x0000148e:    6880        .h      LDR      r0,[r0,#8]
        0x00001490:    2101        .!      MOVS     r1,#1
        0x00001492:    03c9        ..      LSLS     r1,r1,#15
        0x00001494:    4388        .C      BICS     r0,r0,r1
        0x00001496:    1840        @.      ADDS     r0,r0,r1
        0x00001498:    4980        .I      LDR      r1,[pc,#512] ; [0x169c] = 0x50000200
        0x0000149a:    6088        .`      STR      r0,[r1,#8]
        0x0000149c:    2005        .       MOVS     r0,#5
        0x0000149e:    0700        ..      LSLS     r0,r0,#28
        0x000014a0:    68c0        .h      LDR      r0,[r0,#0xc]
        0x000014a2:    0189        ..      LSLS     r1,r1,#6
        0x000014a4:    4388        .C      BICS     r0,r0,r1
        0x000014a6:    1840        @.      ADDS     r0,r0,r1
        0x000014a8:    2105        .!      MOVS     r1,#5
        0x000014aa:    0709        ..      LSLS     r1,r1,#28
        0x000014ac:    60c8        .`      STR      r0,[r1,#0xc]
        0x000014ae:    4608        .F      MOV      r0,r1
        0x000014b0:    68c0        .h      LDR      r0,[r0,#0xc]
        0x000014b2:    2101        .!      MOVS     r1,#1
        0x000014b4:    03c9        ..      LSLS     r1,r1,#15
        0x000014b6:    4388        .C      BICS     r0,r0,r1
        0x000014b8:    2105        .!      MOVS     r1,#5
        0x000014ba:    0709        ..      LSLS     r1,r1,#28
        0x000014bc:    60c8        .`      STR      r0,[r1,#0xc]
        0x000014be:    4608        .F      MOV      r0,r1
        0x000014c0:    6bc0        .k      LDR      r0,[r0,#0x3c]
        0x000014c2:    21ff        .!      MOVS     r1,#0xff
        0x000014c4:    3101        .1      ADDS     r1,#1
        0x000014c6:    4388        .C      BICS     r0,r0,r1
        0x000014c8:    1840        @.      ADDS     r0,r0,r1
        0x000014ca:    2105        .!      MOVS     r1,#5
        0x000014cc:    0709        ..      LSLS     r1,r1,#28
        0x000014ce:    63c8        .c      STR      r0,[r1,#0x3c]
        0x000014d0:    4608        .F      MOV      r0,r1
        0x000014d2:    6bc0        .k      LDR      r0,[r0,#0x3c]
        0x000014d4:    2101        .!      MOVS     r1,#1
        0x000014d6:    0249        I.      LSLS     r1,r1,#9
        0x000014d8:    4388        .C      BICS     r0,r0,r1
        0x000014da:    1840        @.      ADDS     r0,r0,r1
        0x000014dc:    2105        .!      MOVS     r1,#5
        0x000014de:    0709        ..      LSLS     r1,r1,#28
        0x000014e0:    63c8        .c      STR      r0,[r1,#0x3c]
        0x000014e2:    4608        .F      MOV      r0,r1
        0x000014e4:    6bc0        .k      LDR      r0,[r0,#0x3c]
        0x000014e6:    2101        .!      MOVS     r1,#1
        0x000014e8:    02c9        ..      LSLS     r1,r1,#11
        0x000014ea:    4388        .C      BICS     r0,r0,r1
        0x000014ec:    1840        @.      ADDS     r0,r0,r1
        0x000014ee:    2105        .!      MOVS     r1,#5
        0x000014f0:    0709        ..      LSLS     r1,r1,#28
        0x000014f2:    63c8        .c      STR      r0,[r1,#0x3c]
        0x000014f4:    486a        jH      LDR      r0,[pc,#424] ; [0x16a0] = 0x2000002c
        0x000014f6:    68c0        .h      LDR      r0,[r0,#0xc]
        0x000014f8:    6800        .h      LDR      r0,[r0,#0]
        0x000014fa:    2101        .!      MOVS     r1,#1
        0x000014fc:    02c9        ..      LSLS     r1,r1,#11
        0x000014fe:    4388        .C      BICS     r0,r0,r1
        0x00001500:    1840        @.      ADDS     r0,r0,r1
        0x00001502:    4967        gI      LDR      r1,[pc,#412] ; [0x16a0] = 0x2000002c
        0x00001504:    68c9        .h      LDR      r1,[r1,#0xc]
        0x00001506:    6008        .`      STR      r0,[r1,#0]
        0x00001508:    4865        eH      LDR      r0,[pc,#404] ; [0x16a0] = 0x2000002c
        0x0000150a:    68c0        .h      LDR      r0,[r0,#0xc]
        0x0000150c:    6800        .h      LDR      r0,[r0,#0]
        0x0000150e:    21f8        .!      MOVS     r1,#0xf8
        0x00001510:    4388        .C      BICS     r0,r0,r1
        0x00001512:    3048        H0      ADDS     r0,r0,#0x48
        0x00001514:    4962        bI      LDR      r1,[pc,#392] ; [0x16a0] = 0x2000002c
        0x00001516:    68c9        .h      LDR      r1,[r1,#0xc]
        0x00001518:    6008        .`      STR      r0,[r1,#0]
        0x0000151a:    4861        aH      LDR      r0,[pc,#388] ; [0x16a0] = 0x2000002c
        0x0000151c:    68c0        .h      LDR      r0,[r0,#0xc]
        0x0000151e:    6800        .h      LDR      r0,[r0,#0]
        0x00001520:    2104        .!      MOVS     r1,#4
        0x00001522:    4388        .C      BICS     r0,r0,r1
        0x00001524:    1d00        ..      ADDS     r0,r0,#4
        0x00001526:    495e        ^I      LDR      r1,[pc,#376] ; [0x16a0] = 0x2000002c
        0x00001528:    68c9        .h      LDR      r1,[r1,#0xc]
        0x0000152a:    6008        .`      STR      r0,[r1,#0]
        0x0000152c:    485c        \H      LDR      r0,[pc,#368] ; [0x16a0] = 0x2000002c
        0x0000152e:    68c0        .h      LDR      r0,[r0,#0xc]
        0x00001530:    6840        @h      LDR      r0,[r0,#4]
        0x00001532:    0c00        ..      LSRS     r0,r0,#16
        0x00001534:    0400        ..      LSLS     r0,r0,#16
        0x00001536:    1cc0        ..      ADDS     r0,r0,#3
        0x00001538:    4959        YI      LDR      r1,[pc,#356] ; [0x16a0] = 0x2000002c
        0x0000153a:    68c9        .h      LDR      r1,[r1,#0xc]
        0x0000153c:    6048        H`      STR      r0,[r1,#4]
        0x0000153e:    4858        XH      LDR      r0,[pc,#352] ; [0x16a0] = 0x2000002c
        0x00001540:    68c0        .h      LDR      r0,[r0,#0xc]
        0x00001542:    6880        .h      LDR      r0,[r0,#8]
        0x00001544:    0880        ..      LSRS     r0,r0,#2
        0x00001546:    0080        ..      LSLS     r0,r0,#2
        0x00001548:    1c40        @.      ADDS     r0,r0,#1
        0x0000154a:    4955        UI      LDR      r1,[pc,#340] ; [0x16a0] = 0x2000002c
        0x0000154c:    68c9        .h      LDR      r1,[r1,#0xc]
        0x0000154e:    6088        .`      STR      r0,[r1,#8]
        0x00001550:    20eb        .       MOVS     r0,#0xeb
        0x00001552:    4953        SI      LDR      r1,[pc,#332] ; [0x16a0] = 0x2000002c
        0x00001554:    68c9        .h      LDR      r1,[r1,#0xc]
        0x00001556:    6208        .b      STR      r0,[r1,#0x20]
        0x00001558:    4851        QH      LDR      r0,[pc,#324] ; [0x16a0] = 0x2000002c
        0x0000155a:    68c0        .h      LDR      r0,[r0,#0xc]
        0x0000155c:    6800        .h      LDR      r0,[r0,#0]
        0x0000155e:    0840        @.      LSRS     r0,r0,#1
        0x00001560:    0040        @.      LSLS     r0,r0,#1
        0x00001562:    1c40        @.      ADDS     r0,r0,#1
        0x00001564:    494e        NI      LDR      r1,[pc,#312] ; [0x16a0] = 0x2000002c
        0x00001566:    68c9        .h      LDR      r1,[r1,#0xc]
        0x00001568:    6008        .`      STR      r0,[r1,#0]
        0x0000156a:    bf00        ..      NOP      
        0x0000156c:    484c        LH      LDR      r0,[pc,#304] ; [0x16a0] = 0x2000002c
        0x0000156e:    68c0        .h      LDR      r0,[r0,#0xc]
        0x00001570:    6800        .h      LDR      r0,[r0,#0]
        0x00001572:    07c0        ..      LSLS     r0,r0,#31
        0x00001574:    0fc0        ..      LSRS     r0,r0,#31
        0x00001576:    2801        .(      CMP      r0,#1
        0x00001578:    d0f8        ..      BEQ      0x156c ; Initial_pannel + 224
        0x0000157a:    4849        IH      LDR      r0,[pc,#292] ; [0x16a0] = 0x2000002c
        0x0000157c:    68c0        .h      LDR      r0,[r0,#0xc]
        0x0000157e:    6880        .h      LDR      r0,[r0,#8]
        0x00001580:    0880        ..      LSRS     r0,r0,#2
        0x00001582:    0080        ..      LSLS     r0,r0,#2
        0x00001584:    4946        FI      LDR      r1,[pc,#280] ; [0x16a0] = 0x2000002c
        0x00001586:    68c9        .h      LDR      r1,[r1,#0xc]
        0x00001588:    6088        .`      STR      r0,[r1,#8]
        0x0000158a:    4845        EH      LDR      r0,[pc,#276] ; [0x16a0] = 0x2000002c
        0x0000158c:    68c0        .h      LDR      r0,[r0,#0xc]
        0x0000158e:    6880        .h      LDR      r0,[r0,#8]
        0x00001590:    0880        ..      LSRS     r0,r0,#2
        0x00001592:    0080        ..      LSLS     r0,r0,#2
        0x00001594:    1c40        @.      ADDS     r0,r0,#1
        0x00001596:    4942        BI      LDR      r1,[pc,#264] ; [0x16a0] = 0x2000002c
        0x00001598:    68c9        .h      LDR      r1,[r1,#0xc]
        0x0000159a:    6088        .`      STR      r0,[r1,#8]
        0x0000159c:    2081        .       MOVS     r0,#0x81
        0x0000159e:    4940        @I      LDR      r1,[pc,#256] ; [0x16a0] = 0x2000002c
        0x000015a0:    68c9        .h      LDR      r1,[r1,#0xc]
        0x000015a2:    6208        .b      STR      r0,[r1,#0x20]
        0x000015a4:    483e        >H      LDR      r0,[pc,#248] ; [0x16a0] = 0x2000002c
        0x000015a6:    68c0        .h      LDR      r0,[r0,#0xc]
        0x000015a8:    6800        .h      LDR      r0,[r0,#0]
        0x000015aa:    0840        @.      LSRS     r0,r0,#1
        0x000015ac:    0040        @.      LSLS     r0,r0,#1
        0x000015ae:    1c40        @.      ADDS     r0,r0,#1
        0x000015b0:    493b        ;I      LDR      r1,[pc,#236] ; [0x16a0] = 0x2000002c
        0x000015b2:    68c9        .h      LDR      r1,[r1,#0xc]
        0x000015b4:    6008        .`      STR      r0,[r1,#0]
        0x000015b6:    bf00        ..      NOP      
        0x000015b8:    4839        9H      LDR      r0,[pc,#228] ; [0x16a0] = 0x2000002c
        0x000015ba:    68c0        .h      LDR      r0,[r0,#0xc]
        0x000015bc:    6800        .h      LDR      r0,[r0,#0]
        0x000015be:    07c0        ..      LSLS     r0,r0,#31
        0x000015c0:    0fc0        ..      LSRS     r0,r0,#31
        0x000015c2:    2801        .(      CMP      r0,#1
        0x000015c4:    d0f8        ..      BEQ      0x15b8 ; Initial_pannel + 300
        0x000015c6:    20a0        .       MOVS     r0,#0xa0
        0x000015c8:    4935        5I      LDR      r1,[pc,#212] ; [0x16a0] = 0x2000002c
        0x000015ca:    68c9        .h      LDR      r1,[r1,#0xc]
        0x000015cc:    6208        .b      STR      r0,[r1,#0x20]
        0x000015ce:    4834        4H      LDR      r0,[pc,#208] ; [0x16a0] = 0x2000002c
        0x000015d0:    68c0        .h      LDR      r0,[r0,#0xc]
        0x000015d2:    6800        .h      LDR      r0,[r0,#0]
        0x000015d4:    0840        @.      LSRS     r0,r0,#1
        0x000015d6:    0040        @.      LSLS     r0,r0,#1
        0x000015d8:    1c40        @.      ADDS     r0,r0,#1
        0x000015da:    4931        1I      LDR      r1,[pc,#196] ; [0x16a0] = 0x2000002c
        0x000015dc:    68c9        .h      LDR      r1,[r1,#0xc]
        0x000015de:    6008        .`      STR      r0,[r1,#0]
        0x000015e0:    bf00        ..      NOP      
        0x000015e2:    482f        /H      LDR      r0,[pc,#188] ; [0x16a0] = 0x2000002c
        0x000015e4:    68c0        .h      LDR      r0,[r0,#0xc]
        0x000015e6:    6800        .h      LDR      r0,[r0,#0]
        0x000015e8:    07c0        ..      LSLS     r0,r0,#31
        0x000015ea:    0fc0        ..      LSRS     r0,r0,#31
        0x000015ec:    2801        .(      CMP      r0,#1
        0x000015ee:    d0f8        ..      BEQ      0x15e2 ; Initial_pannel + 342
        0x000015f0:    482b        +H      LDR      r0,[pc,#172] ; [0x16a0] = 0x2000002c
        0x000015f2:    68c0        .h      LDR      r0,[r0,#0xc]
        0x000015f4:    6880        .h      LDR      r0,[r0,#8]
        0x000015f6:    0880        ..      LSRS     r0,r0,#2
        0x000015f8:    0080        ..      LSLS     r0,r0,#2
        0x000015fa:    4929        )I      LDR      r1,[pc,#164] ; [0x16a0] = 0x2000002c
        0x000015fc:    68c9        .h      LDR      r1,[r1,#0xc]
        0x000015fe:    6088        .`      STR      r0,[r1,#8]
        0x00001600:    4827        'H      LDR      r0,[pc,#156] ; [0x16a0] = 0x2000002c
        0x00001602:    68c0        .h      LDR      r0,[r0,#0xc]
        0x00001604:    6880        .h      LDR      r0,[r0,#8]
        0x00001606:    0880        ..      LSRS     r0,r0,#2
        0x00001608:    0080        ..      LSLS     r0,r0,#2
        0x0000160a:    1c40        @.      ADDS     r0,r0,#1
        0x0000160c:    4924        $I      LDR      r1,[pc,#144] ; [0x16a0] = 0x2000002c
        0x0000160e:    68c9        .h      LDR      r1,[r1,#0xc]
        0x00001610:    6088        .`      STR      r0,[r1,#8]
        0x00001612:    20c0        .       MOVS     r0,#0xc0
        0x00001614:    4922        "I      LDR      r1,[pc,#136] ; [0x16a0] = 0x2000002c
        0x00001616:    68c9        .h      LDR      r1,[r1,#0xc]
        0x00001618:    6208        .b      STR      r0,[r1,#0x20]
        0x0000161a:    4821        !H      LDR      r0,[pc,#132] ; [0x16a0] = 0x2000002c
        0x0000161c:    68c0        .h      LDR      r0,[r0,#0xc]
        0x0000161e:    6800        .h      LDR      r0,[r0,#0]
        0x00001620:    0840        @.      LSRS     r0,r0,#1
        0x00001622:    0040        @.      LSLS     r0,r0,#1
        0x00001624:    1c40        @.      ADDS     r0,r0,#1
        0x00001626:    491e        .I      LDR      r1,[pc,#120] ; [0x16a0] = 0x2000002c
        0x00001628:    68c9        .h      LDR      r1,[r1,#0xc]
        0x0000162a:    6008        .`      STR      r0,[r1,#0]
        0x0000162c:    bf00        ..      NOP      
        0x0000162e:    481c        .H      LDR      r0,[pc,#112] ; [0x16a0] = 0x2000002c
        0x00001630:    68c0        .h      LDR      r0,[r0,#0xc]
        0x00001632:    6800        .h      LDR      r0,[r0,#0]
        0x00001634:    07c0        ..      LSLS     r0,r0,#31
        0x00001636:    0fc0        ..      LSRS     r0,r0,#31
        0x00001638:    2801        .(      CMP      r0,#1
        0x0000163a:    d0f8        ..      BEQ      0x162e ; Initial_pannel + 418
        0x0000163c:    4818        .H      LDR      r0,[pc,#96] ; [0x16a0] = 0x2000002c
        0x0000163e:    68c0        .h      LDR      r0,[r0,#0xc]
        0x00001640:    6880        .h      LDR      r0,[r0,#8]
        0x00001642:    0880        ..      LSRS     r0,r0,#2
        0x00001644:    0080        ..      LSLS     r0,r0,#2
        0x00001646:    4916        .I      LDR      r1,[pc,#88] ; [0x16a0] = 0x2000002c
        0x00001648:    68c9        .h      LDR      r1,[r1,#0xc]
        0x0000164a:    6088        .`      STR      r0,[r1,#8]
        0x0000164c:    4814        .H      LDR      r0,[pc,#80] ; [0x16a0] = 0x2000002c
        0x0000164e:    68c0        .h      LDR      r0,[r0,#0xc]
        0x00001650:    6880        .h      LDR      r0,[r0,#8]
        0x00001652:    0880        ..      LSRS     r0,r0,#2
        0x00001654:    0080        ..      LSLS     r0,r0,#2
        0x00001656:    1c40        @.      ADDS     r0,r0,#1
        0x00001658:    4911        .I      LDR      r1,[pc,#68] ; [0x16a0] = 0x2000002c
        0x0000165a:    68c9        .h      LDR      r1,[r1,#0xc]
        0x0000165c:    6088        .`      STR      r0,[r1,#8]
        0x0000165e:    20af        .       MOVS     r0,#0xaf
        0x00001660:    490f        .I      LDR      r1,[pc,#60] ; [0x16a0] = 0x2000002c
        0x00001662:    68c9        .h      LDR      r1,[r1,#0xc]
        0x00001664:    6208        .b      STR      r0,[r1,#0x20]
        0x00001666:    480e        .H      LDR      r0,[pc,#56] ; [0x16a0] = 0x2000002c
        0x00001668:    68c0        .h      LDR      r0,[r0,#0xc]
        0x0000166a:    6800        .h      LDR      r0,[r0,#0]
        0x0000166c:    0840        @.      LSRS     r0,r0,#1
        0x0000166e:    0040        @.      LSLS     r0,r0,#1
        0x00001670:    1c40        @.      ADDS     r0,r0,#1
        0x00001672:    490b        .I      LDR      r1,[pc,#44] ; [0x16a0] = 0x2000002c
        0x00001674:    68c9        .h      LDR      r1,[r1,#0xc]
        0x00001676:    6008        .`      STR      r0,[r1,#0]
        0x00001678:    bf00        ..      NOP      
        0x0000167a:    4809        .H      LDR      r0,[pc,#36] ; [0x16a0] = 0x2000002c
        0x0000167c:    68c0        .h      LDR      r0,[r0,#0xc]
        0x0000167e:    6800        .h      LDR      r0,[r0,#0]
        0x00001680:    07c0        ..      LSLS     r0,r0,#31
        0x00001682:    0fc0        ..      LSRS     r0,r0,#31
        0x00001684:    2801        .(      CMP      r0,#1
        0x00001686:    d0f8        ..      BEQ      0x167a ; Initial_pannel + 494
        0x00001688:    4805        .H      LDR      r0,[pc,#20] ; [0x16a0] = 0x2000002c
        0x0000168a:    68c0        .h      LDR      r0,[r0,#0xc]
        0x0000168c:    6880        .h      LDR      r0,[r0,#8]
        0x0000168e:    0880        ..      LSRS     r0,r0,#2
        0x00001690:    0080        ..      LSLS     r0,r0,#2
        0x00001692:    4903        .I      LDR      r1,[pc,#12] ; [0x16a0] = 0x2000002c
        0x00001694:    68c9        .h      LDR      r1,[r1,#0xc]
        0x00001696:    6088        .`      STR      r0,[r1,#8]
        0x00001698:    4770        pG      BX       lr
    $d
        0x0000169a:    0000        ..      DCW    0
        0x0000169c:    50000200    ...P    DCD    1342177792
        0x000016a0:    2000002c    ,..     DCD    536870956
    $t
    i.PWRWU_IRQHandler
    PWRWU_IRQHandler
        0x000016a4:    b510        ..      PUSH     {r4,lr}
        0x000016a6:    4807        .H      LDR      r0,[pc,#28] ; [0x16c4] = 0x50000200
        0x000016a8:    6800        .h      LDR      r0,[r0,#0]
        0x000016aa:    2140        @!      MOVS     r1,#0x40
        0x000016ac:    4388        .C      BICS     r0,r0,r1
        0x000016ae:    3040        @0      ADDS     r0,r0,#0x40
        0x000016b0:    4904        .I      LDR      r1,[pc,#16] ; [0x16c4] = 0x50000200
        0x000016b2:    6008        .`      STR      r0,[r1,#0]
        0x000016b4:    4804        .H      LDR      r0,[pc,#16] ; [0x16c8] = 0x20000630
        0x000016b6:    6800        .h      LDR      r0,[r0,#0]
        0x000016b8:    2800        .(      CMP      r0,#0
        0x000016ba:    d002        ..      BEQ      0x16c2 ; PWRWU_IRQHandler + 30
        0x000016bc:    4802        .H      LDR      r0,[pc,#8] ; [0x16c8] = 0x20000630
        0x000016be:    6800        .h      LDR      r0,[r0,#0]
        0x000016c0:    4780        .G      BLX      r0
        0x000016c2:    bd10        ..      POP      {r4,pc}
    $d
        0x000016c4:    50000200    ...P    DCD    1342177792
        0x000016c8:    20000630    0..     DCD    536872496
    $t
    i.SPI0_IRQHandler
    SPI0_IRQHandler
        0x000016cc:    b510        ..      PUSH     {r4,lr}
        0x000016ce:    4816        .H      LDR      r0,[pc,#88] ; [0x1728] = 0x40030000
        0x000016d0:    6800        .h      LDR      r0,[r0,#0]
        0x000016d2:    03c0        ..      LSLS     r0,r0,#15
        0x000016d4:    0fc0        ..      LSRS     r0,r0,#31
        0x000016d6:    2801        .(      CMP      r0,#1
        0x000016d8:    d10f        ..      BNE      0x16fa ; SPI0_IRQHandler + 46
        0x000016da:    4813        .H      LDR      r0,[pc,#76] ; [0x1728] = 0x40030000
        0x000016dc:    6800        .h      LDR      r0,[r0,#0]
        0x000016de:    2101        .!      MOVS     r1,#1
        0x000016e0:    0409        ..      LSLS     r1,r1,#16
        0x000016e2:    4388        .C      BICS     r0,r0,r1
        0x000016e4:    1840        @.      ADDS     r0,r0,r1
        0x000016e6:    4910        .I      LDR      r1,[pc,#64] ; [0x1728] = 0x40030000
        0x000016e8:    6008        .`      STR      r0,[r1,#0]
        0x000016ea:    4810        .H      LDR      r0,[pc,#64] ; [0x172c] = 0x20000670
        0x000016ec:    6840        @h      LDR      r0,[r0,#4]
        0x000016ee:    2800        .(      CMP      r0,#0
        0x000016f0:    d003        ..      BEQ      0x16fa ; SPI0_IRQHandler + 46
        0x000016f2:    4a0e        .J      LDR      r2,[pc,#56] ; [0x172c] = 0x20000670
        0x000016f4:    6890        .h      LDR      r0,[r2,#8]
        0x000016f6:    6851        Qh      LDR      r1,[r2,#4]
        0x000016f8:    4788        .G      BLX      r1
        0x000016fa:    480b        .H      LDR      r0,[pc,#44] ; [0x1728] = 0x40030000
        0x000016fc:    6bc0        .k      LDR      r0,[r0,#0x3c]
        0x000016fe:    0500        ..      LSLS     r0,r0,#20
        0x00001700:    0fc0        ..      LSRS     r0,r0,#31
        0x00001702:    2801        .(      CMP      r0,#1
        0x00001704:    d10f        ..      BNE      0x1726 ; SPI0_IRQHandler + 90
        0x00001706:    4808        .H      LDR      r0,[pc,#32] ; [0x1728] = 0x40030000
        0x00001708:    6bc0        .k      LDR      r0,[r0,#0x3c]
        0x0000170a:    2101        .!      MOVS     r1,#1
        0x0000170c:    02c9        ..      LSLS     r1,r1,#11
        0x0000170e:    4388        .C      BICS     r0,r0,r1
        0x00001710:    1840        @.      ADDS     r0,r0,r1
        0x00001712:    4905        .I      LDR      r1,[pc,#20] ; [0x1728] = 0x40030000
        0x00001714:    63c8        .c      STR      r0,[r1,#0x3c]
        0x00001716:    4805        .H      LDR      r0,[pc,#20] ; [0x172c] = 0x20000670
        0x00001718:    68c0        .h      LDR      r0,[r0,#0xc]
        0x0000171a:    2800        .(      CMP      r0,#0
        0x0000171c:    d003        ..      BEQ      0x1726 ; SPI0_IRQHandler + 90
        0x0000171e:    4a03        .J      LDR      r2,[pc,#12] ; [0x172c] = 0x20000670
        0x00001720:    6910        .i      LDR      r0,[r2,#0x10]
        0x00001722:    68d1        .h      LDR      r1,[r2,#0xc]
        0x00001724:    4788        .G      BLX      r1
        0x00001726:    bd10        ..      POP      {r4,pc}
    $d
        0x00001728:    40030000    ...@    DCD    1073938432
        0x0000172c:    20000670    p..     DCD    536872560
    $t
    i.SPI1_IRQHandler
    SPI1_IRQHandler
        0x00001730:    b510        ..      PUSH     {r4,lr}
        0x00001732:    4816        .H      LDR      r0,[pc,#88] ; [0x178c] = 0x40034000
        0x00001734:    6800        .h      LDR      r0,[r0,#0]
        0x00001736:    03c0        ..      LSLS     r0,r0,#15
        0x00001738:    0fc0        ..      LSRS     r0,r0,#31
        0x0000173a:    2801        .(      CMP      r0,#1
        0x0000173c:    d10f        ..      BNE      0x175e ; SPI1_IRQHandler + 46
        0x0000173e:    4813        .H      LDR      r0,[pc,#76] ; [0x178c] = 0x40034000
        0x00001740:    6800        .h      LDR      r0,[r0,#0]
        0x00001742:    2101        .!      MOVS     r1,#1
        0x00001744:    0409        ..      LSLS     r1,r1,#16
        0x00001746:    4388        .C      BICS     r0,r0,r1
        0x00001748:    1840        @.      ADDS     r0,r0,r1
        0x0000174a:    4910        .I      LDR      r1,[pc,#64] ; [0x178c] = 0x40034000
        0x0000174c:    6008        .`      STR      r0,[r1,#0]
        0x0000174e:    4810        .H      LDR      r0,[pc,#64] ; [0x1790] = 0x20000670
        0x00001750:    6980        .i      LDR      r0,[r0,#0x18]
        0x00001752:    2800        .(      CMP      r0,#0
        0x00001754:    d003        ..      BEQ      0x175e ; SPI1_IRQHandler + 46
        0x00001756:    4a0e        .J      LDR      r2,[pc,#56] ; [0x1790] = 0x20000670
        0x00001758:    69d0        .i      LDR      r0,[r2,#0x1c]
        0x0000175a:    6991        .i      LDR      r1,[r2,#0x18]
        0x0000175c:    4788        .G      BLX      r1
        0x0000175e:    480b        .H      LDR      r0,[pc,#44] ; [0x178c] = 0x40034000
        0x00001760:    6bc0        .k      LDR      r0,[r0,#0x3c]
        0x00001762:    0500        ..      LSLS     r0,r0,#20
        0x00001764:    0fc0        ..      LSRS     r0,r0,#31
        0x00001766:    2801        .(      CMP      r0,#1
        0x00001768:    d10f        ..      BNE      0x178a ; SPI1_IRQHandler + 90
        0x0000176a:    4808        .H      LDR      r0,[pc,#32] ; [0x178c] = 0x40034000
        0x0000176c:    6bc0        .k      LDR      r0,[r0,#0x3c]
        0x0000176e:    2101        .!      MOVS     r1,#1
        0x00001770:    02c9        ..      LSLS     r1,r1,#11
        0x00001772:    4388        .C      BICS     r0,r0,r1
        0x00001774:    1840        @.      ADDS     r0,r0,r1
        0x00001776:    4905        .I      LDR      r1,[pc,#20] ; [0x178c] = 0x40034000
        0x00001778:    63c8        .c      STR      r0,[r1,#0x3c]
        0x0000177a:    4805        .H      LDR      r0,[pc,#20] ; [0x1790] = 0x20000670
        0x0000177c:    6a00        .j      LDR      r0,[r0,#0x20]
        0x0000177e:    2800        .(      CMP      r0,#0
        0x00001780:    d003        ..      BEQ      0x178a ; SPI1_IRQHandler + 90
        0x00001782:    4a03        .J      LDR      r2,[pc,#12] ; [0x1790] = 0x20000670
        0x00001784:    6a50        Pj      LDR      r0,[r2,#0x24]
        0x00001786:    6a11        .j      LDR      r1,[r2,#0x20]
        0x00001788:    4788        .G      BLX      r1
        0x0000178a:    bd10        ..      POP      {r4,pc}
    $d
        0x0000178c:    40034000    .@.@    DCD    1073954816
        0x00001790:    20000670    p..     DCD    536872560
    $t
    i.SPI2_IRQHandler
    SPI2_IRQHandler
        0x00001794:    b510        ..      PUSH     {r4,lr}
        0x00001796:    4816        .H      LDR      r0,[pc,#88] ; [0x17f0] = 0x40130000
        0x00001798:    6800        .h      LDR      r0,[r0,#0]
        0x0000179a:    03c0        ..      LSLS     r0,r0,#15
        0x0000179c:    0fc0        ..      LSRS     r0,r0,#31
        0x0000179e:    2801        .(      CMP      r0,#1
        0x000017a0:    d10f        ..      BNE      0x17c2 ; SPI2_IRQHandler + 46
        0x000017a2:    4813        .H      LDR      r0,[pc,#76] ; [0x17f0] = 0x40130000
        0x000017a4:    6800        .h      LDR      r0,[r0,#0]
        0x000017a6:    2101        .!      MOVS     r1,#1
        0x000017a8:    0409        ..      LSLS     r1,r1,#16
        0x000017aa:    4388        .C      BICS     r0,r0,r1
        0x000017ac:    1840        @.      ADDS     r0,r0,r1
        0x000017ae:    4910        .I      LDR      r1,[pc,#64] ; [0x17f0] = 0x40130000
        0x000017b0:    6008        .`      STR      r0,[r1,#0]
        0x000017b2:    4810        .H      LDR      r0,[pc,#64] ; [0x17f4] = 0x20000670
        0x000017b4:    6ac0        .j      LDR      r0,[r0,#0x2c]
        0x000017b6:    2800        .(      CMP      r0,#0
        0x000017b8:    d003        ..      BEQ      0x17c2 ; SPI2_IRQHandler + 46
        0x000017ba:    4a0e        .J      LDR      r2,[pc,#56] ; [0x17f4] = 0x20000670
        0x000017bc:    6b10        .k      LDR      r0,[r2,#0x30]
        0x000017be:    6ad1        .j      LDR      r1,[r2,#0x2c]
        0x000017c0:    4788        .G      BLX      r1
        0x000017c2:    480b        .H      LDR      r0,[pc,#44] ; [0x17f0] = 0x40130000
        0x000017c4:    6bc0        .k      LDR      r0,[r0,#0x3c]
        0x000017c6:    0500        ..      LSLS     r0,r0,#20
        0x000017c8:    0fc0        ..      LSRS     r0,r0,#31
        0x000017ca:    2801        .(      CMP      r0,#1
        0x000017cc:    d10f        ..      BNE      0x17ee ; SPI2_IRQHandler + 90
        0x000017ce:    4808        .H      LDR      r0,[pc,#32] ; [0x17f0] = 0x40130000
        0x000017d0:    6bc0        .k      LDR      r0,[r0,#0x3c]
        0x000017d2:    2101        .!      MOVS     r1,#1
        0x000017d4:    02c9        ..      LSLS     r1,r1,#11
        0x000017d6:    4388        .C      BICS     r0,r0,r1
        0x000017d8:    1840        @.      ADDS     r0,r0,r1
        0x000017da:    4905        .I      LDR      r1,[pc,#20] ; [0x17f0] = 0x40130000
        0x000017dc:    63c8        .c      STR      r0,[r1,#0x3c]
        0x000017de:    4805        .H      LDR      r0,[pc,#20] ; [0x17f4] = 0x20000670
        0x000017e0:    6b40        @k      LDR      r0,[r0,#0x34]
        0x000017e2:    2800        .(      CMP      r0,#0
        0x000017e4:    d003        ..      BEQ      0x17ee ; SPI2_IRQHandler + 90
        0x000017e6:    4a03        .J      LDR      r2,[pc,#12] ; [0x17f4] = 0x20000670
        0x000017e8:    6b90        .k      LDR      r0,[r2,#0x38]
        0x000017ea:    6b51        Qk      LDR      r1,[r2,#0x34]
        0x000017ec:    4788        .G      BLX      r1
        0x000017ee:    bd10        ..      POP      {r4,pc}
    $d
        0x000017f0:    40130000    ...@    DCD    1074987008
        0x000017f4:    20000670    p..     DCD    536872560
    $t
    i.SPI3_IRQHandler
    SPI3_IRQHandler
        0x000017f8:    b510        ..      PUSH     {r4,lr}
        0x000017fa:    4816        .H      LDR      r0,[pc,#88] ; [0x1854] = 0x40134000
        0x000017fc:    6800        .h      LDR      r0,[r0,#0]
        0x000017fe:    03c0        ..      LSLS     r0,r0,#15
        0x00001800:    0fc0        ..      LSRS     r0,r0,#31
        0x00001802:    2801        .(      CMP      r0,#1
        0x00001804:    d10f        ..      BNE      0x1826 ; SPI3_IRQHandler + 46
        0x00001806:    4813        .H      LDR      r0,[pc,#76] ; [0x1854] = 0x40134000
        0x00001808:    6800        .h      LDR      r0,[r0,#0]
        0x0000180a:    2101        .!      MOVS     r1,#1
        0x0000180c:    0409        ..      LSLS     r1,r1,#16
        0x0000180e:    4388        .C      BICS     r0,r0,r1
        0x00001810:    1840        @.      ADDS     r0,r0,r1
        0x00001812:    4910        .I      LDR      r1,[pc,#64] ; [0x1854] = 0x40134000
        0x00001814:    6008        .`      STR      r0,[r1,#0]
        0x00001816:    4810        .H      LDR      r0,[pc,#64] ; [0x1858] = 0x20000670
        0x00001818:    6c00        .l      LDR      r0,[r0,#0x40]
        0x0000181a:    2800        .(      CMP      r0,#0
        0x0000181c:    d003        ..      BEQ      0x1826 ; SPI3_IRQHandler + 46
        0x0000181e:    4a0e        .J      LDR      r2,[pc,#56] ; [0x1858] = 0x20000670
        0x00001820:    6c50        Pl      LDR      r0,[r2,#0x44]
        0x00001822:    6c11        .l      LDR      r1,[r2,#0x40]
        0x00001824:    4788        .G      BLX      r1
        0x00001826:    480b        .H      LDR      r0,[pc,#44] ; [0x1854] = 0x40134000
        0x00001828:    6bc0        .k      LDR      r0,[r0,#0x3c]
        0x0000182a:    0500        ..      LSLS     r0,r0,#20
        0x0000182c:    0fc0        ..      LSRS     r0,r0,#31
        0x0000182e:    2801        .(      CMP      r0,#1
        0x00001830:    d10f        ..      BNE      0x1852 ; SPI3_IRQHandler + 90
        0x00001832:    4808        .H      LDR      r0,[pc,#32] ; [0x1854] = 0x40134000
        0x00001834:    6bc0        .k      LDR      r0,[r0,#0x3c]
        0x00001836:    2101        .!      MOVS     r1,#1
        0x00001838:    02c9        ..      LSLS     r1,r1,#11
        0x0000183a:    4388        .C      BICS     r0,r0,r1
        0x0000183c:    1840        @.      ADDS     r0,r0,r1
        0x0000183e:    4905        .I      LDR      r1,[pc,#20] ; [0x1854] = 0x40134000
        0x00001840:    63c8        .c      STR      r0,[r1,#0x3c]
        0x00001842:    4805        .H      LDR      r0,[pc,#20] ; [0x1858] = 0x20000670
        0x00001844:    6c80        .l      LDR      r0,[r0,#0x48]
        0x00001846:    2800        .(      CMP      r0,#0
        0x00001848:    d003        ..      BEQ      0x1852 ; SPI3_IRQHandler + 90
        0x0000184a:    4a03        .J      LDR      r2,[pc,#12] ; [0x1858] = 0x20000670
        0x0000184c:    6cd0        .l      LDR      r0,[r2,#0x4c]
        0x0000184e:    6c91        .l      LDR      r1,[r2,#0x48]
        0x00001850:    4788        .G      BLX      r1
        0x00001852:    bd10        ..      POP      {r4,pc}
    $d
        0x00001854:    40134000    .@.@    DCD    1075003392
        0x00001858:    20000670    p..     DCD    536872560
    $t
    i.Scankey
    Scankey
        0x0000185c:    b5f8        ..      PUSH     {r3-r7,lr}
        0x0000185e:    481f        .H      LDR      r0,[pc,#124] ; [0x18dc] = 0x20d4
        0x00001860:    6800        .h      LDR      r0,[r0,#0]
        0x00001862:    9000        ..      STR      r0,[sp,#0]
        0x00001864:    2400        .$      MOVS     r4,#0
        0x00001866:    e034        4.      B        0x18d2 ; Scankey + 118
        0x00001868:    4668        hF      MOV      r0,sp
        0x0000186a:    5d06        .]      LDRB     r6,[r0,r4]
        0x0000186c:    2500        .%      MOVS     r5,#0
        0x0000186e:    e00f        ..      B        0x1890 ; Scankey + 52
        0x00001870:    07f0        ..      LSLS     r0,r6,#31
        0x00001872:    0fc0        ..      LSRS     r0,r0,#31
        0x00001874:    2801        .(      CMP      r0,#1
        0x00001876:    d104        ..      BNE      0x1882 ; Scankey + 38
        0x00001878:    4629        )F      MOV      r1,r5
        0x0000187a:    2000        .       MOVS     r0,#0
        0x0000187c:    f7fffb0e    ....    BL       DrvGPIO_SetBit ; 0xe9c
        0x00001880:    e003        ..      B        0x188a ; Scankey + 46
        0x00001882:    4629        )F      MOV      r1,r5
        0x00001884:    2000        .       MOVS     r0,#0
        0x00001886:    f7fefef7    ....    BL       DrvGPIO_ClrBit ; 0x678
        0x0000188a:    1076        v.      ASRS     r6,r6,#1
        0x0000188c:    1c68        h.      ADDS     r0,r5,#1
        0x0000188e:    b2c5        ..      UXTB     r5,r0
        0x00001890:    2d06        .-      CMP      r5,#6
        0x00001892:    dbed        ..      BLT      0x1870 ; Scankey + 20
        0x00001894:    f000fa37    ..7.    BL       delay ; 0x1d06
        0x00001898:    2103        .!      MOVS     r1,#3
        0x0000189a:    2000        .       MOVS     r0,#0
        0x0000189c:    f7feff02    ....    BL       DrvGPIO_GetBit ; 0x6a4
        0x000018a0:    2800        .(      CMP      r0,#0
        0x000018a2:    d102        ..      BNE      0x18aa ; Scankey + 78
        0x000018a4:    1c60        `.      ADDS     r0,r4,#1
        0x000018a6:    b2c0        ..      UXTB     r0,r0
        0x000018a8:    bdf8        ..      POP      {r3-r7,pc}
        0x000018aa:    2104        .!      MOVS     r1,#4
        0x000018ac:    2000        .       MOVS     r0,#0
        0x000018ae:    f7fefef9    ....    BL       DrvGPIO_GetBit ; 0x6a4
        0x000018b2:    2800        .(      CMP      r0,#0
        0x000018b4:    d102        ..      BNE      0x18bc ; Scankey + 96
        0x000018b6:    1d20         .      ADDS     r0,r4,#4
        0x000018b8:    b2c0        ..      UXTB     r0,r0
        0x000018ba:    e7f5        ..      B        0x18a8 ; Scankey + 76
        0x000018bc:    2105        .!      MOVS     r1,#5
        0x000018be:    2000        .       MOVS     r0,#0
        0x000018c0:    f7fefef0    ....    BL       DrvGPIO_GetBit ; 0x6a4
        0x000018c4:    2800        .(      CMP      r0,#0
        0x000018c6:    d102        ..      BNE      0x18ce ; Scankey + 114
        0x000018c8:    1de0        ..      ADDS     r0,r4,#7
        0x000018ca:    b2c0        ..      UXTB     r0,r0
        0x000018cc:    e7ec        ..      B        0x18a8 ; Scankey + 76
        0x000018ce:    1c60        `.      ADDS     r0,r4,#1
        0x000018d0:    b2c4        ..      UXTB     r4,r0
        0x000018d2:    2c03        .,      CMP      r4,#3
        0x000018d4:    dbc8        ..      BLT      0x1868 ; Scankey + 12
        0x000018d6:    2000        .       MOVS     r0,#0
        0x000018d8:    e7e6        ..      B        0x18a8 ; Scankey + 76
    $d
        0x000018da:    0000        ..      DCW    0
        0x000018dc:    000020d4    . ..    DCD    8404
    $t
    i.SetPACA
    SetPACA
        0x000018e0:    4a3b        ;J      LDR      r2,[pc,#236] ; [0x19d0] = 0x2000002c
        0x000018e2:    68d2        .h      LDR      r2,[r2,#0xc]
        0x000018e4:    6892        .h      LDR      r2,[r2,#8]
        0x000018e6:    0892        ..      LSRS     r2,r2,#2
        0x000018e8:    0092        ..      LSLS     r2,r2,#2
        0x000018ea:    1c52        R.      ADDS     r2,r2,#1
        0x000018ec:    4b38        8K      LDR      r3,[pc,#224] ; [0x19d0] = 0x2000002c
        0x000018ee:    68db        .h      LDR      r3,[r3,#0xc]
        0x000018f0:    609a        .`      STR      r2,[r3,#8]
        0x000018f2:    22b0        ."      MOVS     r2,#0xb0
        0x000018f4:    4302        .C      ORRS     r2,r2,r0
        0x000018f6:    4b36        6K      LDR      r3,[pc,#216] ; [0x19d0] = 0x2000002c
        0x000018f8:    68db        .h      LDR      r3,[r3,#0xc]
        0x000018fa:    621a        .b      STR      r2,[r3,#0x20]
        0x000018fc:    4a34        4J      LDR      r2,[pc,#208] ; [0x19d0] = 0x2000002c
        0x000018fe:    68d2        .h      LDR      r2,[r2,#0xc]
        0x00001900:    6812        .h      LDR      r2,[r2,#0]
        0x00001902:    0852        R.      LSRS     r2,r2,#1
        0x00001904:    0052        R.      LSLS     r2,r2,#1
        0x00001906:    1c52        R.      ADDS     r2,r2,#1
        0x00001908:    4b31        1K      LDR      r3,[pc,#196] ; [0x19d0] = 0x2000002c
        0x0000190a:    68db        .h      LDR      r3,[r3,#0xc]
        0x0000190c:    601a        .`      STR      r2,[r3,#0]
        0x0000190e:    bf00        ..      NOP      
        0x00001910:    4a2f        /J      LDR      r2,[pc,#188] ; [0x19d0] = 0x2000002c
        0x00001912:    68d2        .h      LDR      r2,[r2,#0xc]
        0x00001914:    6812        .h      LDR      r2,[r2,#0]
        0x00001916:    07d2        ..      LSLS     r2,r2,#31
        0x00001918:    0fd2        ..      LSRS     r2,r2,#31
        0x0000191a:    2a01        .*      CMP      r2,#1
        0x0000191c:    d0f8        ..      BEQ      0x1910 ; SetPACA + 48
        0x0000191e:    4a2c        ,J      LDR      r2,[pc,#176] ; [0x19d0] = 0x2000002c
        0x00001920:    68d2        .h      LDR      r2,[r2,#0xc]
        0x00001922:    6892        .h      LDR      r2,[r2,#8]
        0x00001924:    0892        ..      LSRS     r2,r2,#2
        0x00001926:    0092        ..      LSLS     r2,r2,#2
        0x00001928:    4b29        )K      LDR      r3,[pc,#164] ; [0x19d0] = 0x2000002c
        0x0000192a:    68db        .h      LDR      r3,[r3,#0xc]
        0x0000192c:    609a        .`      STR      r2,[r3,#8]
        0x0000192e:    4a28        (J      LDR      r2,[pc,#160] ; [0x19d0] = 0x2000002c
        0x00001930:    68d2        .h      LDR      r2,[r2,#0xc]
        0x00001932:    6892        .h      LDR      r2,[r2,#8]
        0x00001934:    0892        ..      LSRS     r2,r2,#2
        0x00001936:    0092        ..      LSLS     r2,r2,#2
        0x00001938:    1c52        R.      ADDS     r2,r2,#1
        0x0000193a:    4b25        %K      LDR      r3,[pc,#148] ; [0x19d0] = 0x2000002c
        0x0000193c:    68db        .h      LDR      r3,[r3,#0xc]
        0x0000193e:    609a        .`      STR      r2,[r3,#8]
        0x00001940:    110a        ..      ASRS     r2,r1,#4
        0x00001942:    2310        .#      MOVS     r3,#0x10
        0x00001944:    431a        .C      ORRS     r2,r2,r3
        0x00001946:    4b22        "K      LDR      r3,[pc,#136] ; [0x19d0] = 0x2000002c
        0x00001948:    68db        .h      LDR      r3,[r3,#0xc]
        0x0000194a:    621a        .b      STR      r2,[r3,#0x20]
        0x0000194c:    4a20         J      LDR      r2,[pc,#128] ; [0x19d0] = 0x2000002c
        0x0000194e:    68d2        .h      LDR      r2,[r2,#0xc]
        0x00001950:    6812        .h      LDR      r2,[r2,#0]
        0x00001952:    0852        R.      LSRS     r2,r2,#1
        0x00001954:    0052        R.      LSLS     r2,r2,#1
        0x00001956:    1c52        R.      ADDS     r2,r2,#1
        0x00001958:    4b1d        .K      LDR      r3,[pc,#116] ; [0x19d0] = 0x2000002c
        0x0000195a:    68db        .h      LDR      r3,[r3,#0xc]
        0x0000195c:    601a        .`      STR      r2,[r3,#0]
        0x0000195e:    bf00        ..      NOP      
        0x00001960:    4a1b        .J      LDR      r2,[pc,#108] ; [0x19d0] = 0x2000002c
        0x00001962:    68d2        .h      LDR      r2,[r2,#0xc]
        0x00001964:    6812        .h      LDR      r2,[r2,#0]
        0x00001966:    07d2        ..      LSLS     r2,r2,#31
        0x00001968:    0fd2        ..      LSRS     r2,r2,#31
        0x0000196a:    2a01        .*      CMP      r2,#1
        0x0000196c:    d0f8        ..      BEQ      0x1960 ; SetPACA + 128
        0x0000196e:    4a18        .J      LDR      r2,[pc,#96] ; [0x19d0] = 0x2000002c
        0x00001970:    68d2        .h      LDR      r2,[r2,#0xc]
        0x00001972:    6892        .h      LDR      r2,[r2,#8]
        0x00001974:    0892        ..      LSRS     r2,r2,#2
        0x00001976:    0092        ..      LSLS     r2,r2,#2
        0x00001978:    4b15        .K      LDR      r3,[pc,#84] ; [0x19d0] = 0x2000002c
        0x0000197a:    68db        .h      LDR      r3,[r3,#0xc]
        0x0000197c:    609a        .`      STR      r2,[r3,#8]
        0x0000197e:    4a14        .J      LDR      r2,[pc,#80] ; [0x19d0] = 0x2000002c
        0x00001980:    68d2        .h      LDR      r2,[r2,#0xc]
        0x00001982:    6892        .h      LDR      r2,[r2,#8]
        0x00001984:    0892        ..      LSRS     r2,r2,#2
        0x00001986:    0092        ..      LSLS     r2,r2,#2
        0x00001988:    1c52        R.      ADDS     r2,r2,#1
        0x0000198a:    4b11        .K      LDR      r3,[pc,#68] ; [0x19d0] = 0x2000002c
        0x0000198c:    68db        .h      LDR      r3,[r3,#0xc]
        0x0000198e:    609a        .`      STR      r2,[r3,#8]
        0x00001990:    070a        ..      LSLS     r2,r1,#28
        0x00001992:    0f12        ..      LSRS     r2,r2,#28
        0x00001994:    4b0e        .K      LDR      r3,[pc,#56] ; [0x19d0] = 0x2000002c
        0x00001996:    68db        .h      LDR      r3,[r3,#0xc]
        0x00001998:    621a        .b      STR      r2,[r3,#0x20]
        0x0000199a:    4a0d        .J      LDR      r2,[pc,#52] ; [0x19d0] = 0x2000002c
        0x0000199c:    68d2        .h      LDR      r2,[r2,#0xc]
        0x0000199e:    6812        .h      LDR      r2,[r2,#0]
        0x000019a0:    0852        R.      LSRS     r2,r2,#1
        0x000019a2:    0052        R.      LSLS     r2,r2,#1
        0x000019a4:    1c52        R.      ADDS     r2,r2,#1
        0x000019a6:    4b0a        .K      LDR      r3,[pc,#40] ; [0x19d0] = 0x2000002c
        0x000019a8:    68db        .h      LDR      r3,[r3,#0xc]
        0x000019aa:    601a        .`      STR      r2,[r3,#0]
        0x000019ac:    bf00        ..      NOP      
        0x000019ae:    4a08        .J      LDR      r2,[pc,#32] ; [0x19d0] = 0x2000002c
        0x000019b0:    68d2        .h      LDR      r2,[r2,#0xc]
        0x000019b2:    6812        .h      LDR      r2,[r2,#0]
        0x000019b4:    07d2        ..      LSLS     r2,r2,#31
        0x000019b6:    0fd2        ..      LSRS     r2,r2,#31
        0x000019b8:    2a01        .*      CMP      r2,#1
        0x000019ba:    d0f8        ..      BEQ      0x19ae ; SetPACA + 206
        0x000019bc:    4a04        .J      LDR      r2,[pc,#16] ; [0x19d0] = 0x2000002c
        0x000019be:    68d2        .h      LDR      r2,[r2,#0xc]
        0x000019c0:    6892        .h      LDR      r2,[r2,#8]
        0x000019c2:    0892        ..      LSRS     r2,r2,#2
        0x000019c4:    0092        ..      LSLS     r2,r2,#2
        0x000019c6:    4b02        .K      LDR      r3,[pc,#8] ; [0x19d0] = 0x2000002c
        0x000019c8:    68db        .h      LDR      r3,[r3,#0xc]
        0x000019ca:    609a        .`      STR      r2,[r3,#8]
        0x000019cc:    4770        pG      BX       lr
    $d
        0x000019ce:    0000        ..      DCW    0
        0x000019d0:    2000002c    ,..     DCD    536870956
    $t
    i.Show_Word
    Show_Word
        0x000019d4:    b5fc        ..      PUSH     {r2-r7,lr}
        0x000019d6:    4605        .F      MOV      r5,r0
        0x000019d8:    460e        .F      MOV      r6,r1
        0x000019da:    4617        .F      MOV      r7,r2
        0x000019dc:    2400        .$      MOVS     r4,#0
        0x000019de:    2000        .       MOVS     r0,#0
        0x000019e0:    9001        ..      STR      r0,[sp,#4]
        0x000019e2:    4638        8F      MOV      r0,r7
        0x000019e4:    3820         8      SUBS     r0,r0,#0x20
        0x000019e6:    0100        ..      LSLS     r0,r0,#4
        0x000019e8:    9001        ..      STR      r0,[sp,#4]
        0x000019ea:    bf00        ..      NOP      
        0x000019ec:    e011        ..      B        0x1a12 ; Show_Word + 62
        0x000019ee:    00f2        ..      LSLS     r2,r6,#3
        0x000019f0:    2381        .#      MOVS     r3,#0x81
        0x000019f2:    1a9a        ..      SUBS     r2,r3,r2
        0x000019f4:    1b12        ..      SUBS     r2,r2,r4
        0x000019f6:    b2d1        ..      UXTB     r1,r2
        0x000019f8:    066a        j.      LSLS     r2,r5,#25
        0x000019fa:    0e10        ..      LSRS     r0,r2,#24
        0x000019fc:    f7ffff70    ..p.    BL       SetPACA ; 0x18e0
        0x00001a00:    9801        ..      LDR      r0,[sp,#4]
        0x00001a02:    1900        ..      ADDS     r0,r0,r4
        0x00001a04:    4910        .I      LDR      r1,[pc,#64] ; [0x1a48] = 0x2000003c
        0x00001a06:    5c08        .\      LDRB     r0,[r1,r0]
        0x00001a08:    9000        ..      STR      r0,[sp,#0]
        0x00001a0a:    9800        ..      LDR      r0,[sp,#0]
        0x00001a0c:    f000f8b0    ....    BL       WriteData ; 0x1b70
        0x00001a10:    1c64        d.      ADDS     r4,r4,#1
        0x00001a12:    2c08        .,      CMP      r4,#8
        0x00001a14:    dbeb        ..      BLT      0x19ee ; Show_Word + 26
        0x00001a16:    2400        .$      MOVS     r4,#0
        0x00001a18:    e013        ..      B        0x1a42 ; Show_Word + 110
        0x00001a1a:    00f2        ..      LSLS     r2,r6,#3
        0x00001a1c:    2381        .#      MOVS     r3,#0x81
        0x00001a1e:    1a9a        ..      SUBS     r2,r3,r2
        0x00001a20:    1b12        ..      SUBS     r2,r2,r4
        0x00001a22:    b2d1        ..      UXTB     r1,r2
        0x00001a24:    006a        j.      LSLS     r2,r5,#1
        0x00001a26:    1c52        R.      ADDS     r2,r2,#1
        0x00001a28:    b2d0        ..      UXTB     r0,r2
        0x00001a2a:    f7ffff59    ..Y.    BL       SetPACA ; 0x18e0
        0x00001a2e:    9801        ..      LDR      r0,[sp,#4]
        0x00001a30:    1900        ..      ADDS     r0,r0,r4
        0x00001a32:    3008        .0      ADDS     r0,r0,#8
        0x00001a34:    4904        .I      LDR      r1,[pc,#16] ; [0x1a48] = 0x2000003c
        0x00001a36:    5c08        .\      LDRB     r0,[r1,r0]
        0x00001a38:    9000        ..      STR      r0,[sp,#0]
        0x00001a3a:    9800        ..      LDR      r0,[sp,#0]
        0x00001a3c:    f000f898    ....    BL       WriteData ; 0x1b70
        0x00001a40:    1c64        d.      ADDS     r4,r4,#1
        0x00001a42:    2c08        .,      CMP      r4,#8
        0x00001a44:    dbe9        ..      BLT      0x1a1a ; Show_Word + 70
        0x00001a46:    bdfc        ..      POP      {r2-r7,pc}
    $d
        0x00001a48:    2000003c    <..     DCD    536870972
    $t
    i.SysTimerDelay
    SysTimerDelay
        0x00001a4c:    2116        .!      MOVS     r1,#0x16
        0x00001a4e:    4341        AC      MULS     r1,r0,r1
        0x00001a50:    4a06        .J      LDR      r2,[pc,#24] ; [0x1a6c] = 0xe000e000
        0x00001a52:    6151        Qa      STR      r1,[r2,#0x14]
        0x00001a54:    2100        .!      MOVS     r1,#0
        0x00001a56:    6191        .a      STR      r1,[r2,#0x18]
        0x00001a58:    2105        .!      MOVS     r1,#5
        0x00001a5a:    6111        .a      STR      r1,[r2,#0x10]
        0x00001a5c:    bf00        ..      NOP      
        0x00001a5e:    4903        .I      LDR      r1,[pc,#12] ; [0x1a6c] = 0xe000e000
        0x00001a60:    6909        .i      LDR      r1,[r1,#0x10]
        0x00001a62:    2201        ."      MOVS     r2,#1
        0x00001a64:    0412        ..      LSLS     r2,r2,#16
        0x00001a66:    4211        .B      TST      r1,r2
        0x00001a68:    d0f9        ..      BEQ      0x1a5e ; SysTimerDelay + 18
        0x00001a6a:    4770        pG      BX       lr
    $d
        0x00001a6c:    e000e000    ....    DCD    3758153728
    $t
    i.SystemCoreClockUpdate
    SystemCoreClockUpdate
        0x00001a70:    b570        p.      PUSH     {r4-r6,lr}
        0x00001a72:    4820         H      LDR      r0,[pc,#128] ; [0x1af4] = 0x50000200
        0x00001a74:    6900        .i      LDR      r0,[r0,#0x10]
        0x00001a76:    0746        F.      LSLS     r6,r0,#29
        0x00001a78:    0f76        v.      LSRS     r6,r6,#29
        0x00001a7a:    2e05        ..      CMP      r6,#5
        0x00001a7c:    d900        ..      BLS      0x1a80 ; SystemCoreClockUpdate + 16
        0x00001a7e:    2604        .&      MOVS     r6,#4
        0x00001a80:    2e02        ..      CMP      r6,#2
        0x00001a82:    d003        ..      BEQ      0x1a8c ; SystemCoreClockUpdate + 28
        0x00001a84:    00b0        ..      LSLS     r0,r6,#2
        0x00001a86:    491c        .I      LDR      r1,[pc,#112] ; [0x1af8] = 0x20000008
        0x00001a88:    580d        .X      LDR      r5,[r1,r0]
        0x00001a8a:    e01e        ..      B        0x1aca ; SystemCoreClockUpdate + 90
        0x00001a8c:    4819        .H      LDR      r0,[pc,#100] ; [0x1af4] = 0x50000200
        0x00001a8e:    6a00        .j      LDR      r0,[r0,#0x20]
        0x00001a90:    0400        ..      LSLS     r0,r0,#16
        0x00001a92:    0f84        ..      LSRS     r4,r0,#30
        0x00001a94:    2c01        .,      CMP      r4,#1
        0x00001a96:    d900        ..      BLS      0x1a9a ; SystemCoreClockUpdate + 42
        0x00001a98:    1e64        d.      SUBS     r4,r4,#1
        0x00001a9a:    4a16        .J      LDR      r2,[pc,#88] ; [0x1af4] = 0x50000200
        0x00001a9c:    6a12        .j      LDR      r2,[r2,#0x20]
        0x00001a9e:    0312        ..      LSLS     r2,r2,#12
        0x00001aa0:    0fd2        ..      LSRS     r2,r2,#31
        0x00001aa2:    d001        ..      BEQ      0x1aa8 ; SystemCoreClockUpdate + 56
        0x00001aa4:    4a15        .J      LDR      r2,[pc,#84] ; [0x1afc] = 0x1518000
        0x00001aa6:    e000        ..      B        0x1aaa ; SystemCoreClockUpdate + 58
        0x00001aa8:    4a15        .J      LDR      r2,[pc,#84] ; [0x1b00] = 0xb71b00
        0x00001aaa:    4b12        .K      LDR      r3,[pc,#72] ; [0x1af4] = 0x50000200
        0x00001aac:    6a1b        .j      LDR      r3,[r3,#0x20]
        0x00001aae:    05db        ..      LSLS     r3,r3,#23
        0x00001ab0:    0ddb        ..      LSRS     r3,r3,#23
        0x00001ab2:    1c9b        ..      ADDS     r3,r3,#2
        0x00001ab4:    4610        .F      MOV      r0,r2
        0x00001ab6:    4358        XC      MULS     r0,r3,r0
        0x00001ab8:    4a0e        .J      LDR      r2,[pc,#56] ; [0x1af4] = 0x50000200
        0x00001aba:    6a12        .j      LDR      r2,[r2,#0x20]
        0x00001abc:    0492        ..      LSLS     r2,r2,#18
        0x00001abe:    0ed2        ..      LSRS     r2,r2,#27
        0x00001ac0:    1c91        ..      ADDS     r1,r2,#2
        0x00001ac2:    f7fefc6f    ..o.    BL       __aeabi_uidiv ; 0x3a4
        0x00001ac6:    40e0        .@      LSRS     r0,r0,r4
        0x00001ac8:    4605        .F      MOV      r5,r0
        0x00001aca:    480a        .H      LDR      r0,[pc,#40] ; [0x1af4] = 0x50000200
        0x00001acc:    6980        .i      LDR      r0,[r0,#0x18]
        0x00001ace:    0700        ..      LSLS     r0,r0,#28
        0x00001ad0:    0f00        ..      LSRS     r0,r0,#28
        0x00001ad2:    1c41        A.      ADDS     r1,r0,#1
        0x00001ad4:    4628        (F      MOV      r0,r5
        0x00001ad6:    f7fefc65    ..e.    BL       __aeabi_uidiv ; 0x3a4
        0x00001ada:    490a        .I      LDR      r1,[pc,#40] ; [0x1b04] = 0x20000000
        0x00001adc:    6008        .`      STR      r0,[r1,#0]
        0x00001ade:    490a        .I      LDR      r1,[pc,#40] ; [0x1b08] = 0xf4240
        0x00001ae0:    4808        .H      LDR      r0,[pc,#32] ; [0x1b04] = 0x20000000
        0x00001ae2:    6800        .h      LDR      r0,[r0,#0]
        0x00001ae4:    104a        J.      ASRS     r2,r1,#1
        0x00001ae6:    1880        ..      ADDS     r0,r0,r2
        0x00001ae8:    f7fefc5c    ..\.    BL       __aeabi_uidiv ; 0x3a4
        0x00001aec:    4907        .I      LDR      r1,[pc,#28] ; [0x1b0c] = 0x20000004
        0x00001aee:    6008        .`      STR      r0,[r1,#0]
        0x00001af0:    bd70        p.      POP      {r4-r6,pc}
    $d
        0x00001af2:    0000        ..      DCW    0
        0x00001af4:    50000200    ...P    DCD    1342177792
        0x00001af8:    20000008    ...     DCD    536870920
        0x00001afc:    01518000    ..Q.    DCD    22118400
        0x00001b00:    00b71b00    ....    DCD    12000000
        0x00001b04:    20000000    ...     DCD    536870912
        0x00001b08:    000f4240    @B..    DCD    1000000
        0x00001b0c:    20000004    ...     DCD    536870916
    $t
    i.SystemInit
    SystemInit
        0x00001b10:    4770        pG      BX       lr
        0x00001b12:    0000        ..      MOVS     r0,r0
    i.UART02_IRQHandler
    UART02_IRQHandler
        0x00001b14:    b570        p.      PUSH     {r4-r6,lr}
        0x00001b16:    480a        .H      LDR      r0,[pc,#40] ; [0x1b40] = 0x40050000
        0x00001b18:    69c4        .i      LDR      r4,[r0,#0x1c]
        0x00001b1a:    480a        .H      LDR      r0,[pc,#40] ; [0x1b44] = 0x40154000
        0x00001b1c:    69c5        .i      LDR      r5,[r0,#0x1c]
        0x00001b1e:    480a        .H      LDR      r0,[pc,#40] ; [0x1b48] = 0x20000634
        0x00001b20:    6800        .h      LDR      r0,[r0,#0]
        0x00001b22:    2800        .(      CMP      r0,#0
        0x00001b24:    d003        ..      BEQ      0x1b2e ; UART02_IRQHandler + 26
        0x00001b26:    4620         F      MOV      r0,r4
        0x00001b28:    4907        .I      LDR      r1,[pc,#28] ; [0x1b48] = 0x20000634
        0x00001b2a:    6809        .h      LDR      r1,[r1,#0]
        0x00001b2c:    4788        .G      BLX      r1
        0x00001b2e:    4807        .H      LDR      r0,[pc,#28] ; [0x1b4c] = 0x2000063c
        0x00001b30:    6800        .h      LDR      r0,[r0,#0]
        0x00001b32:    2800        .(      CMP      r0,#0
        0x00001b34:    d003        ..      BEQ      0x1b3e ; UART02_IRQHandler + 42
        0x00001b36:    4628        (F      MOV      r0,r5
        0x00001b38:    4904        .I      LDR      r1,[pc,#16] ; [0x1b4c] = 0x2000063c
        0x00001b3a:    6809        .h      LDR      r1,[r1,#0]
        0x00001b3c:    4788        .G      BLX      r1
        0x00001b3e:    bd70        p.      POP      {r4-r6,pc}
    $d
        0x00001b40:    40050000    ...@    DCD    1074069504
        0x00001b44:    40154000    .@.@    DCD    1075134464
        0x00001b48:    20000634    4..     DCD    536872500
        0x00001b4c:    2000063c    <..     DCD    536872508
    $t
    i.UART1_IRQHandler
    UART1_IRQHandler
        0x00001b50:    b510        ..      PUSH     {r4,lr}
        0x00001b52:    4805        .H      LDR      r0,[pc,#20] ; [0x1b68] = 0x40150000
        0x00001b54:    69c4        .i      LDR      r4,[r0,#0x1c]
        0x00001b56:    4805        .H      LDR      r0,[pc,#20] ; [0x1b6c] = 0x20000638
        0x00001b58:    6800        .h      LDR      r0,[r0,#0]
        0x00001b5a:    2800        .(      CMP      r0,#0
        0x00001b5c:    d003        ..      BEQ      0x1b66 ; UART1_IRQHandler + 22
        0x00001b5e:    4620         F      MOV      r0,r4
        0x00001b60:    4902        .I      LDR      r1,[pc,#8] ; [0x1b6c] = 0x20000638
        0x00001b62:    6809        .h      LDR      r1,[r1,#0]
        0x00001b64:    4788        .G      BLX      r1
        0x00001b66:    bd10        ..      POP      {r4,pc}
    $d
        0x00001b68:    40150000    ...@    DCD    1075118080
        0x00001b6c:    20000638    8..     DCD    536872504
    $t
    i.WriteData
    WriteData
        0x00001b70:    4914        .I      LDR      r1,[pc,#80] ; [0x1bc4] = 0x2000002c
        0x00001b72:    68c9        .h      LDR      r1,[r1,#0xc]
        0x00001b74:    6889        .h      LDR      r1,[r1,#8]
        0x00001b76:    0889        ..      LSRS     r1,r1,#2
        0x00001b78:    0089        ..      LSLS     r1,r1,#2
        0x00001b7a:    1c49        I.      ADDS     r1,r1,#1
        0x00001b7c:    4a11        .J      LDR      r2,[pc,#68] ; [0x1bc4] = 0x2000002c
        0x00001b7e:    68d2        .h      LDR      r2,[r2,#0xc]
        0x00001b80:    6091        .`      STR      r1,[r2,#8]
        0x00001b82:    21ff        .!      MOVS     r1,#0xff
        0x00001b84:    3101        .1      ADDS     r1,#1
        0x00001b86:    4301        .C      ORRS     r1,r1,r0
        0x00001b88:    4a0e        .J      LDR      r2,[pc,#56] ; [0x1bc4] = 0x2000002c
        0x00001b8a:    68d2        .h      LDR      r2,[r2,#0xc]
        0x00001b8c:    6211        .b      STR      r1,[r2,#0x20]
        0x00001b8e:    490d        .I      LDR      r1,[pc,#52] ; [0x1bc4] = 0x2000002c
        0x00001b90:    68c9        .h      LDR      r1,[r1,#0xc]
        0x00001b92:    6809        .h      LDR      r1,[r1,#0]
        0x00001b94:    0849        I.      LSRS     r1,r1,#1
        0x00001b96:    0049        I.      LSLS     r1,r1,#1
        0x00001b98:    1c49        I.      ADDS     r1,r1,#1
        0x00001b9a:    4a0a        .J      LDR      r2,[pc,#40] ; [0x1bc4] = 0x2000002c
        0x00001b9c:    68d2        .h      LDR      r2,[r2,#0xc]
        0x00001b9e:    6011        .`      STR      r1,[r2,#0]
        0x00001ba0:    bf00        ..      NOP      
        0x00001ba2:    4908        .I      LDR      r1,[pc,#32] ; [0x1bc4] = 0x2000002c
        0x00001ba4:    68c9        .h      LDR      r1,[r1,#0xc]
        0x00001ba6:    6809        .h      LDR      r1,[r1,#0]
        0x00001ba8:    07c9        ..      LSLS     r1,r1,#31
        0x00001baa:    0fc9        ..      LSRS     r1,r1,#31
        0x00001bac:    2901        .)      CMP      r1,#1
        0x00001bae:    d0f8        ..      BEQ      0x1ba2 ; WriteData + 50
        0x00001bb0:    4904        .I      LDR      r1,[pc,#16] ; [0x1bc4] = 0x2000002c
        0x00001bb2:    68c9        .h      LDR      r1,[r1,#0xc]
        0x00001bb4:    6889        .h      LDR      r1,[r1,#8]
        0x00001bb6:    0889        ..      LSRS     r1,r1,#2
        0x00001bb8:    0089        ..      LSLS     r1,r1,#2
        0x00001bba:    4a02        .J      LDR      r2,[pc,#8] ; [0x1bc4] = 0x2000002c
        0x00001bbc:    68d2        .h      LDR      r2,[r2,#0xc]
        0x00001bbe:    6091        .`      STR      r1,[r2,#8]
        0x00001bc0:    4770        pG      BX       lr
    $d
        0x00001bc2:    0000        ..      DCW    0
        0x00001bc4:    2000002c    ,..     DCD    536870956
    $t
    i.Write_to_any8574
    Write_to_any8574
        0x00001bc8:    b5f8        ..      PUSH     {r3-r7,lr}
        0x00001bca:    4605        .F      MOV      r5,r0
        0x00001bcc:    460e        .F      MOV      r6,r1
        0x00001bce:    f7fffa6b    ..k.    BL       DrvSYS_GetHCLKFreq ; 0x10a8
        0x00001bd2:    492b        +I      LDR      r1,[pc,#172] ; [0x1c80] = 0x20000000
        0x00001bd4:    6008        .`      STR      r0,[r1,#0]
        0x00001bd6:    492b        +I      LDR      r1,[pc,#172] ; [0x1c84] = 0xc350
        0x00001bd8:    2001        .       MOVS     r0,#1
        0x00001bda:    f7fff9e7    ....    BL       DrvI2C_Open ; 0xfac
        0x00001bde:    2000        .       MOVS     r0,#0
        0x00001be0:    4603        .F      MOV      r3,r0
        0x00001be2:    4602        .F      MOV      r2,r0
        0x00001be4:    2101        .!      MOVS     r1,#1
        0x00001be6:    9000        ..      STR      r0,[sp,#0]
        0x00001be8:    4608        .F      MOV      r0,r1
        0x00001bea:    f7fff9b5    ....    BL       DrvI2C_Ctrl ; 0xf58
        0x00001bee:    bf00        ..      NOP      
        0x00001bf0:    4825        %H      LDR      r0,[pc,#148] ; [0x1c88] = 0x40120000
        0x00001bf2:    6800        .h      LDR      r0,[r0,#0]
        0x00001bf4:    0700        ..      LSLS     r0,r0,#28
        0x00001bf6:    0fc0        ..      LSRS     r0,r0,#31
        0x00001bf8:    d0fa        ..      BEQ      0x1bf0 ; Write_to_any8574 + 40
        0x00001bfa:    4823        #H      LDR      r0,[pc,#140] ; [0x1c88] = 0x40120000
        0x00001bfc:    6085        .`      STR      r5,[r0,#8]
        0x00001bfe:    2000        .       MOVS     r0,#0
        0x00001c00:    2301        .#      MOVS     r3,#1
        0x00001c02:    4602        .F      MOV      r2,r0
        0x00001c04:    4601        .F      MOV      r1,r0
        0x00001c06:    9000        ..      STR      r0,[sp,#0]
        0x00001c08:    4618        .F      MOV      r0,r3
        0x00001c0a:    f7fff9a5    ....    BL       DrvI2C_Ctrl ; 0xf58
        0x00001c0e:    bf00        ..      NOP      
        0x00001c10:    481d        .H      LDR      r0,[pc,#116] ; [0x1c88] = 0x40120000
        0x00001c12:    6800        .h      LDR      r0,[r0,#0]
        0x00001c14:    0700        ..      LSLS     r0,r0,#28
        0x00001c16:    0fc0        ..      LSRS     r0,r0,#31
        0x00001c18:    d0fa        ..      BEQ      0x1c10 ; Write_to_any8574 + 72
        0x00001c1a:    481b        .H      LDR      r0,[pc,#108] ; [0x1c88] = 0x40120000
        0x00001c1c:    6086        .`      STR      r6,[r0,#8]
        0x00001c1e:    2001        .       MOVS     r0,#1
        0x00001c20:    4603        .F      MOV      r3,r0
        0x00001c22:    2200        ."      MOVS     r2,#0
        0x00001c24:    4611        .F      MOV      r1,r2
        0x00001c26:    9000        ..      STR      r0,[sp,#0]
        0x00001c28:    f7fff996    ....    BL       DrvI2C_Ctrl ; 0xf58
        0x00001c2c:    bf00        ..      NOP      
        0x00001c2e:    4816        .H      LDR      r0,[pc,#88] ; [0x1c88] = 0x40120000
        0x00001c30:    6800        .h      LDR      r0,[r0,#0]
        0x00001c32:    0700        ..      LSLS     r0,r0,#28
        0x00001c34:    0fc0        ..      LSRS     r0,r0,#31
        0x00001c36:    d0fa        ..      BEQ      0x1c2e ; Write_to_any8574 + 102
        0x00001c38:    2000        .       MOVS     r0,#0
        0x00001c3a:    2301        .#      MOVS     r3,#1
        0x00001c3c:    461a        .F      MOV      r2,r3
        0x00001c3e:    4601        .F      MOV      r1,r0
        0x00001c40:    9000        ..      STR      r0,[sp,#0]
        0x00001c42:    4618        .F      MOV      r0,r3
        0x00001c44:    f7fff988    ....    BL       DrvI2C_Ctrl ; 0xf58
        0x00001c48:    bf00        ..      NOP      
        0x00001c4a:    480f        .H      LDR      r0,[pc,#60] ; [0x1c88] = 0x40120000
        0x00001c4c:    6800        .h      LDR      r0,[r0,#0]
        0x00001c4e:    06c0        ..      LSLS     r0,r0,#27
        0x00001c50:    0fc0        ..      LSRS     r0,r0,#31
        0x00001c52:    d1fa        ..      BNE      0x1c4a ; Write_to_any8574 + 130
        0x00001c54:    2400        .$      MOVS     r4,#0
        0x00001c56:    e000        ..      B        0x1c5a ; Write_to_any8574 + 146
        0x00001c58:    1c64        d.      ADDS     r4,r4,#1
        0x00001c5a:    2c3c        <,      CMP      r4,#0x3c
        0x00001c5c:    d3fc        ..      BCC      0x1c58 ; Write_to_any8574 + 144
        0x00001c5e:    2001        .       MOVS     r0,#1
        0x00001c60:    f7fff932    ..2.    BL       DrvI2C_Close ; 0xec8
        0x00001c64:    2400        .$      MOVS     r4,#0
        0x00001c66:    e000        ..      B        0x1c6a ; Write_to_any8574 + 162
        0x00001c68:    1c64        d.      ADDS     r4,r4,#1
        0x00001c6a:    4808        .H      LDR      r0,[pc,#32] ; [0x1c8c] = 0x1770
        0x00001c6c:    4284        .B      CMP      r4,r0
        0x00001c6e:    d3fb        ..      BCC      0x1c68 ; Write_to_any8574 + 160
        0x00001c70:    2400        .$      MOVS     r4,#0
        0x00001c72:    e000        ..      B        0x1c76 ; Write_to_any8574 + 174
        0x00001c74:    1c64        d.      ADDS     r4,r4,#1
        0x00001c76:    4805        .H      LDR      r0,[pc,#20] ; [0x1c8c] = 0x1770
        0x00001c78:    4284        .B      CMP      r4,r0
        0x00001c7a:    d3fb        ..      BCC      0x1c74 ; Write_to_any8574 + 172
        0x00001c7c:    bdf8        ..      POP      {r3-r7,pc}
    $d
        0x00001c7e:    0000        ..      DCW    0
        0x00001c80:    20000000    ...     DCD    536870912
        0x00001c84:    0000c350    P...    DCD    50000
        0x00001c88:    40120000    ...@    DCD    1074921472
        0x00001c8c:    00001770    p...    DCD    6000
    $t
    i.__ARM_common_switch8
    __ARM_common_switch8
        0x00001c90:    b430        0.      PUSH     {r4,r5}
        0x00001c92:    4674        tF      MOV      r4,lr
        0x00001c94:    1e64        d.      SUBS     r4,r4,#1
        0x00001c96:    7825        %x      LDRB     r5,[r4,#0]
        0x00001c98:    1c64        d.      ADDS     r4,r4,#1
        0x00001c9a:    42ab        .B      CMP      r3,r5
        0x00001c9c:    d304        ..      BCC      0x1ca8 ; __ARM_common_switch8 + 24
        0x00001c9e:    5d63        c]      LDRB     r3,[r4,r5]
        0x00001ca0:    005b        [.      LSLS     r3,r3,#1
        0x00001ca2:    18e3        ..      ADDS     r3,r4,r3
        0x00001ca4:    bc30        0.      POP      {r4,r5}
        0x00001ca6:    4718        .G      BX       r3
        0x00001ca8:    461d        .F      MOV      r5,r3
        0x00001caa:    e7f8        ..      B        0x1c9e ; __ARM_common_switch8 + 14
    i._is_digit
    _is_digit
        0x00001cac:    3830        08      SUBS     r0,r0,#0x30
        0x00001cae:    280a        .(      CMP      r0,#0xa
        0x00001cb0:    d201        ..      BCS      0x1cb6 ; _is_digit + 10
        0x00001cb2:    2001        .       MOVS     r0,#1
        0x00001cb4:    4770        pG      BX       lr
        0x00001cb6:    2000        .       MOVS     r0,#0
        0x00001cb8:    4770        pG      BX       lr
    i.close_seven_segment
    close_seven_segment
        0x00001cba:    b510        ..      PUSH     {r4,lr}
        0x00001cbc:    2104        .!      MOVS     r1,#4
        0x00001cbe:    2002        .       MOVS     r0,#2
        0x00001cc0:    f7fefcda    ....    BL       DrvGPIO_ClrBit ; 0x678
        0x00001cc4:    2105        .!      MOVS     r1,#5
        0x00001cc6:    2002        .       MOVS     r0,#2
        0x00001cc8:    f7fefcd6    ....    BL       DrvGPIO_ClrBit ; 0x678
        0x00001ccc:    2106        .!      MOVS     r1,#6
        0x00001cce:    2002        .       MOVS     r0,#2
        0x00001cd0:    f7fefcd2    ....    BL       DrvGPIO_ClrBit ; 0x678
        0x00001cd4:    2107        .!      MOVS     r1,#7
        0x00001cd6:    2002        .       MOVS     r0,#2
        0x00001cd8:    f7fefcce    ....    BL       DrvGPIO_ClrBit ; 0x678
        0x00001cdc:    bd10        ..      POP      {r4,pc}
    i.clr_all_pannal
    clr_all_pannal
        0x00001cde:    b510        ..      PUSH     {r4,lr}
        0x00001ce0:    2400        .$      MOVS     r4,#0
        0x00001ce2:    2100        .!      MOVS     r1,#0
        0x00001ce4:    4608        .F      MOV      r0,r1
        0x00001ce6:    f7fffdfb    ....    BL       SetPACA ; 0x18e0
        0x00001cea:    bf00        ..      NOP      
        0x00001cec:    e003        ..      B        0x1cf6 ; clr_all_pannal + 24
        0x00001cee:    2000        .       MOVS     r0,#0
        0x00001cf0:    f7ffff3e    ..>.    BL       WriteData ; 0x1b70
        0x00001cf4:    1c64        d.      ADDS     r4,r4,#1
        0x00001cf6:    2021        !       MOVS     r0,#0x21
        0x00001cf8:    0140        @.      LSLS     r0,r0,#5
        0x00001cfa:    4284        .B      CMP      r4,r0
        0x00001cfc:    dbf7        ..      BLT      0x1cee ; clr_all_pannal + 16
        0x00001cfe:    200f        .       MOVS     r0,#0xf
        0x00001d00:    f7ffff36    ..6.    BL       WriteData ; 0x1b70
        0x00001d04:    bd10        ..      POP      {r4,pc}
    i.delay
    delay
        0x00001d06:    2000        .       MOVS     r0,#0
        0x00001d08:    e000        ..      B        0x1d0c ; delay + 6
        0x00001d0a:    1c40        @.      ADDS     r0,r0,#1
        0x00001d0c:    217d        }!      MOVS     r1,#0x7d
        0x00001d0e:    00c9        ..      LSLS     r1,r1,#3
        0x00001d10:    4288        .B      CMP      r0,r1
        0x00001d12:    dbfa        ..      BLT      0x1d0a ; delay + 4
        0x00001d14:    4770        pG      BX       lr
        0x00001d16:    0000        ..      MOVS     r0,r0
    i.main
    main
        0x00001d18:    b086        ..      SUB      sp,sp,#0x18
        0x00001d1a:    2400        .$      MOVS     r4,#0
        0x00001d1c:    2700        .'      MOVS     r7,#0
        0x00001d1e:    2214        ."      MOVS     r2,#0x14
        0x00001d20:    49a2        .I      LDR      r1,[pc,#648] ; [0x1fac] = 0x20c0
        0x00001d22:    a801        ..      ADD      r0,sp,#4
        0x00001d24:    f7fefa28    ..(.    BL       __aeabi_memcpy4 ; 0x178
        0x00001d28:    2059        Y       MOVS     r0,#0x59
        0x00001d2a:    49a1        .I      LDR      r1,[pc,#644] ; [0x1fb0] = 0x50000100
        0x00001d2c:    6008        .`      STR      r0,[r1,#0]
        0x00001d2e:    2016        .       MOVS     r0,#0x16
        0x00001d30:    6008        .`      STR      r0,[r1,#0]
        0x00001d32:    2088        .       MOVS     r0,#0x88
        0x00001d34:    6008        .`      STR      r0,[r1,#0]
        0x00001d36:    2101        .!      MOVS     r1,#1
        0x00001d38:    2000        .       MOVS     r0,#0
        0x00001d3a:    f7fffa87    ....    BL       DrvSYS_SetOscCtrl ; 0x124c
        0x00001d3e:    489d        .H      LDR      r0,[pc,#628] ; [0x1fb4] = 0x1388
        0x00001d40:    f7fffe84    ....    BL       SysTimerDelay ; 0x1a4c
        0x00001d44:    2000        .       MOVS     r0,#0
        0x00001d46:    f7fffa21    ..!.    BL       DrvSYS_SelectHCLKSource ; 0x118c
        0x00001d4a:    2000        .       MOVS     r0,#0
        0x00001d4c:    4998        .I      LDR      r1,[pc,#608] ; [0x1fb0] = 0x50000100
        0x00001d4e:    6008        .`      STR      r0,[r1,#0]
        0x00001d50:    2100        .!      MOVS     r1,#0
        0x00001d52:    2003        .       MOVS     r0,#3
        0x00001d54:    f7fffa36    ..6.    BL       DrvSYS_SetClockDivider ; 0x11c4
        0x00001d58:    f7fffb98    ....    BL       Initial_pannel ; 0x148c
        0x00001d5c:    f7ffffbf    ....    BL       clr_all_pannal ; 0x1cde
        0x00001d60:    a195        ..      ADR      r1,{pc}+0x258 ; 0x1fb8
        0x00001d62:    2000        .       MOVS     r0,#0
        0x00001d64:    f000f94c    ..L.    BL       print_lcd ; 0x2000
        0x00001d68:    a197        ..      ADR      r1,{pc}+0x260 ; 0x1fc8
        0x00001d6a:    2001        .       MOVS     r0,#1
        0x00001d6c:    f000f948    ..H.    BL       print_lcd ; 0x2000
        0x00001d70:    a199        ..      ADR      r1,{pc}+0x268 ; 0x1fd8
        0x00001d72:    2002        .       MOVS     r0,#2
        0x00001d74:    f000f944    ..D.    BL       print_lcd ; 0x2000
        0x00001d78:    a19b        ..      ADR      r1,{pc}+0x270 ; 0x1fe8
        0x00001d7a:    2003        .       MOVS     r0,#3
        0x00001d7c:    f000f940    ..@.    BL       print_lcd ; 0x2000
        0x00001d80:    2600        .&      MOVS     r6,#0
        0x00001d82:    e006        ..      B        0x1d92 ; main + 122
        0x00001d84:    2203        ."      MOVS     r2,#3
        0x00001d86:    4631        1F      MOV      r1,r6
        0x00001d88:    2000        .       MOVS     r0,#0
        0x00001d8a:    f7fff84b    ..K.    BL       DrvGPIO_Open ; 0xe24
        0x00001d8e:    1c70        p.      ADDS     r0,r6,#1
        0x00001d90:    b2c6        ..      UXTB     r6,r0
        0x00001d92:    2e06        ..      CMP      r6,#6
        0x00001d94:    dbf6        ..      BLT      0x1d84 ; main + 108
        0x00001d96:    2003        .       MOVS     r0,#3
        0x00001d98:    f7fefc98    ....    BL       DrvGPIO_InitFunction ; 0x6cc
        0x00001d9c:    e105        ..      B        0x1faa ; main + 658
        0x00001d9e:    f7fffd5d    ..].    BL       Scankey ; 0x185c
        0x00001da2:    4605        .F      MOV      r5,r0
        0x00001da4:    2d01        .-      CMP      r5,#1
        0x00001da6:    d111        ..      BNE      0x1dcc ; main + 180
        0x00001da8:    249e        .$      MOVS     r4,#0x9e
        0x00001daa:    1120         .      ASRS     r0,r4,#4
        0x00001dac:    f7fffaf0    ....    BL       HEX2Disp ; 0x1390
        0x00001db0:    4601        .F      MOV      r1,r0
        0x00001db2:    9000        ..      STR      r0,[sp,#0]
        0x00001db4:    2072        r       MOVS     r0,#0x72
        0x00001db6:    f7ffff07    ....    BL       Write_to_any8574 ; 0x1bc8
        0x00001dba:    0720         .      LSLS     r0,r4,#28
        0x00001dbc:    0f00        ..      LSRS     r0,r0,#28
        0x00001dbe:    f7fffae7    ....    BL       HEX2Disp ; 0x1390
        0x00001dc2:    4601        .F      MOV      r1,r0
        0x00001dc4:    9000        ..      STR      r0,[sp,#0]
        0x00001dc6:    2070        p       MOVS     r0,#0x70
        0x00001dc8:    f7fffefe    ....    BL       Write_to_any8574 ; 0x1bc8
        0x00001dcc:    2d02        .-      CMP      r5,#2
        0x00001dce:    d115        ..      BNE      0x1dfc ; main + 228
        0x00001dd0:    0720         .      LSLS     r0,r4,#28
        0x00001dd2:    0e04        ..      LSRS     r4,r0,#24
        0x00001dd4:    1120         .      ASRS     r0,r4,#4
        0x00001dd6:    f7fffadb    ....    BL       HEX2Disp ; 0x1390
        0x00001dda:    4601        .F      MOV      r1,r0
        0x00001ddc:    9000        ..      STR      r0,[sp,#0]
        0x00001dde:    2072        r       MOVS     r0,#0x72
        0x00001de0:    f7fffef2    ....    BL       Write_to_any8574 ; 0x1bc8
        0x00001de4:    0720         .      LSLS     r0,r4,#28
        0x00001de6:    0f00        ..      LSRS     r0,r0,#28
        0x00001de8:    f7fffad2    ....    BL       HEX2Disp ; 0x1390
        0x00001dec:    4601        .F      MOV      r1,r0
        0x00001dee:    9000        ..      STR      r0,[sp,#0]
        0x00001df0:    2070        p       MOVS     r0,#0x70
        0x00001df2:    f7fffee9    ....    BL       Write_to_any8574 ; 0x1bc8
        0x00001df6:    4880        .H      LDR      r0,[pc,#512] ; [0x1ff8] = 0x493e0
        0x00001df8:    f7fff940    ..@.    BL       DrvSYS_Delay ; 0x107c
        0x00001dfc:    2d03        .-      CMP      r5,#3
        0x00001dfe:    d113        ..      BNE      0x1e28 ; main + 272
        0x00001e00:    1124        $.      ASRS     r4,r4,#4
        0x00001e02:    1120         .      ASRS     r0,r4,#4
        0x00001e04:    f7fffac4    ....    BL       HEX2Disp ; 0x1390
        0x00001e08:    4601        .F      MOV      r1,r0
        0x00001e0a:    9000        ..      STR      r0,[sp,#0]
        0x00001e0c:    2072        r       MOVS     r0,#0x72
        0x00001e0e:    f7fffedb    ....    BL       Write_to_any8574 ; 0x1bc8
        0x00001e12:    4620         F      MOV      r0,r4
        0x00001e14:    f7fffabc    ....    BL       HEX2Disp ; 0x1390
        0x00001e18:    4601        .F      MOV      r1,r0
        0x00001e1a:    9000        ..      STR      r0,[sp,#0]
        0x00001e1c:    2070        p       MOVS     r0,#0x70
        0x00001e1e:    f7fffed3    ....    BL       Write_to_any8574 ; 0x1bc8
        0x00001e22:    4875        uH      LDR      r0,[pc,#468] ; [0x1ff8] = 0x493e0
        0x00001e24:    f7fff92a    ..*.    BL       DrvSYS_Delay ; 0x107c
        0x00001e28:    2d04        .-      CMP      r5,#4
        0x00001e2a:    d117        ..      BNE      0x1e5c ; main + 324
        0x00001e2c:    1124        $.      ASRS     r4,r4,#4
        0x00001e2e:    0124        $.      LSLS     r4,r4,#4
        0x00001e30:    2004        .       MOVS     r0,#4
        0x00001e32:    4304        .C      ORRS     r4,r4,r0
        0x00001e34:    1120         .      ASRS     r0,r4,#4
        0x00001e36:    f7fffaab    ....    BL       HEX2Disp ; 0x1390
        0x00001e3a:    4601        .F      MOV      r1,r0
        0x00001e3c:    9000        ..      STR      r0,[sp,#0]
        0x00001e3e:    2072        r       MOVS     r0,#0x72
        0x00001e40:    f7fffec2    ....    BL       Write_to_any8574 ; 0x1bc8
        0x00001e44:    0720         .      LSLS     r0,r4,#28
        0x00001e46:    0f00        ..      LSRS     r0,r0,#28
        0x00001e48:    f7fffaa2    ....    BL       HEX2Disp ; 0x1390
        0x00001e4c:    4601        .F      MOV      r1,r0
        0x00001e4e:    9000        ..      STR      r0,[sp,#0]
        0x00001e50:    2070        p       MOVS     r0,#0x70
        0x00001e52:    f7fffeb9    ....    BL       Write_to_any8574 ; 0x1bc8
        0x00001e56:    4868        hH      LDR      r0,[pc,#416] ; [0x1ff8] = 0x493e0
        0x00001e58:    f7fff910    ....    BL       DrvSYS_Delay ; 0x107c
        0x00001e5c:    2d05        .-      CMP      r5,#5
        0x00001e5e:    d118        ..      BNE      0x1e92 ; main + 378
        0x00001e60:    0720         .      LSLS     r0,r4,#28
        0x00001e62:    0e04        ..      LSRS     r4,r0,#24
        0x00001e64:    1124        $.      ASRS     r4,r4,#4
        0x00001e66:    2050        P       MOVS     r0,#0x50
        0x00001e68:    4304        .C      ORRS     r4,r4,r0
        0x00001e6a:    1120         .      ASRS     r0,r4,#4
        0x00001e6c:    f7fffa90    ....    BL       HEX2Disp ; 0x1390
        0x00001e70:    4601        .F      MOV      r1,r0
        0x00001e72:    9000        ..      STR      r0,[sp,#0]
        0x00001e74:    2072        r       MOVS     r0,#0x72
        0x00001e76:    f7fffea7    ....    BL       Write_to_any8574 ; 0x1bc8
        0x00001e7a:    0720         .      LSLS     r0,r4,#28
        0x00001e7c:    0f00        ..      LSRS     r0,r0,#28
        0x00001e7e:    f7fffa87    ....    BL       HEX2Disp ; 0x1390
        0x00001e82:    4601        .F      MOV      r1,r0
        0x00001e84:    9000        ..      STR      r0,[sp,#0]
        0x00001e86:    2070        p       MOVS     r0,#0x70
        0x00001e88:    f7fffe9e    ....    BL       Write_to_any8574 ; 0x1bc8
        0x00001e8c:    485a        ZH      LDR      r0,[pc,#360] ; [0x1ff8] = 0x493e0
        0x00001e8e:    f7fff8f5    ....    BL       DrvSYS_Delay ; 0x107c
        0x00001e92:    2d06        .-      CMP      r5,#6
        0x00001e94:    d116        ..      BNE      0x1ec4 ; main + 428
        0x00001e96:    1124        $.      ASRS     r4,r4,#4
        0x00001e98:    0124        $.      LSLS     r4,r4,#4
        0x00001e9a:    2466        f$      MOVS     r4,#0x66
        0x00001e9c:    1120         .      ASRS     r0,r4,#4
        0x00001e9e:    f7fffa77    ..w.    BL       HEX2Disp ; 0x1390
        0x00001ea2:    4601        .F      MOV      r1,r0
        0x00001ea4:    9000        ..      STR      r0,[sp,#0]
        0x00001ea6:    2072        r       MOVS     r0,#0x72
        0x00001ea8:    f7fffe8e    ....    BL       Write_to_any8574 ; 0x1bc8
        0x00001eac:    0720         .      LSLS     r0,r4,#28
        0x00001eae:    0f00        ..      LSRS     r0,r0,#28
        0x00001eb0:    f7fffa6e    ..n.    BL       HEX2Disp ; 0x1390
        0x00001eb4:    4601        .F      MOV      r1,r0
        0x00001eb6:    9000        ..      STR      r0,[sp,#0]
        0x00001eb8:    2070        p       MOVS     r0,#0x70
        0x00001eba:    f7fffe85    ....    BL       Write_to_any8574 ; 0x1bc8
        0x00001ebe:    484e        NH      LDR      r0,[pc,#312] ; [0x1ff8] = 0x493e0
        0x00001ec0:    f7fff8dc    ....    BL       DrvSYS_Delay ; 0x107c
        0x00001ec4:    2d07        .-      CMP      r5,#7
        0x00001ec6:    d125        %.      BNE      0x1f14 ; main + 508
        0x00001ec8:    4627        'F      MOV      r7,r4
        0x00001eca:    0738        8.      LSLS     r0,r7,#28
        0x00001ecc:    0e07        ..      LSRS     r7,r0,#24
        0x00001ece:    1124        $.      ASRS     r4,r4,#4
        0x00001ed0:    4620         F      MOV      r0,r4
        0x00001ed2:    4338        8C      ORRS     r0,r0,r7
        0x00001ed4:    4604        .F      MOV      r4,r0
        0x00001ed6:    4622        "F      MOV      r2,r4
        0x00001ed8:    a148        H.      ADR      r1,{pc}+0x124 ; 0x1ffc
        0x00001eda:    a803        ..      ADD      r0,sp,#0xc
        0x00001edc:    f7fef99a    ....    BL       __2sprintf ; 0x214
        0x00001ee0:    f7fffefd    ....    BL       clr_all_pannal ; 0x1cde
        0x00001ee4:    a901        ..      ADD      r1,sp,#4
        0x00001ee6:    2000        .       MOVS     r0,#0
        0x00001ee8:    f000f88a    ....    BL       print_lcd ; 0x2000
        0x00001eec:    1120         .      ASRS     r0,r4,#4
        0x00001eee:    f7fffa4f    ..O.    BL       HEX2Disp ; 0x1390
        0x00001ef2:    4601        .F      MOV      r1,r0
        0x00001ef4:    9000        ..      STR      r0,[sp,#0]
        0x00001ef6:    2072        r       MOVS     r0,#0x72
        0x00001ef8:    f7fffe66    ..f.    BL       Write_to_any8574 ; 0x1bc8
        0x00001efc:    0720         .      LSLS     r0,r4,#28
        0x00001efe:    0f00        ..      LSRS     r0,r0,#28
        0x00001f00:    f7fffa46    ..F.    BL       HEX2Disp ; 0x1390
        0x00001f04:    4601        .F      MOV      r1,r0
        0x00001f06:    9000        ..      STR      r0,[sp,#0]
        0x00001f08:    2070        p       MOVS     r0,#0x70
        0x00001f0a:    f7fffe5d    ..].    BL       Write_to_any8574 ; 0x1bc8
        0x00001f0e:    483a        :H      LDR      r0,[pc,#232] ; [0x1ff8] = 0x493e0
        0x00001f10:    f7fff8b4    ....    BL       DrvSYS_Delay ; 0x107c
        0x00001f14:    2d08        .-      CMP      r5,#8
        0x00001f16:    d121        !.      BNE      0x1f5c ; main + 580
        0x00001f18:    4620         F      MOV      r0,r4
        0x00001f1a:    3010        .0      ADDS     r0,r0,#0x10
        0x00001f1c:    b2c4        ..      UXTB     r4,r0
        0x00001f1e:    f7fffede    ....    BL       clr_all_pannal ; 0x1cde
        0x00001f22:    4622        "F      MOV      r2,r4
        0x00001f24:    a135        5.      ADR      r1,{pc}+0xd8 ; 0x1ffc
        0x00001f26:    a803        ..      ADD      r0,sp,#0xc
        0x00001f28:    f7fef974    ..t.    BL       __2sprintf ; 0x214
        0x00001f2c:    a901        ..      ADD      r1,sp,#4
        0x00001f2e:    2000        .       MOVS     r0,#0
        0x00001f30:    f000f866    ..f.    BL       print_lcd ; 0x2000
        0x00001f34:    1120         .      ASRS     r0,r4,#4
        0x00001f36:    f7fffa2b    ..+.    BL       HEX2Disp ; 0x1390
        0x00001f3a:    4601        .F      MOV      r1,r0
        0x00001f3c:    9000        ..      STR      r0,[sp,#0]
        0x00001f3e:    2072        r       MOVS     r0,#0x72
        0x00001f40:    f7fffe42    ..B.    BL       Write_to_any8574 ; 0x1bc8
        0x00001f44:    0720         .      LSLS     r0,r4,#28
        0x00001f46:    0f00        ..      LSRS     r0,r0,#28
        0x00001f48:    f7fffa22    ..".    BL       HEX2Disp ; 0x1390
        0x00001f4c:    4601        .F      MOV      r1,r0
        0x00001f4e:    9000        ..      STR      r0,[sp,#0]
        0x00001f50:    2070        p       MOVS     r0,#0x70
        0x00001f52:    f7fffe39    ..9.    BL       Write_to_any8574 ; 0x1bc8
        0x00001f56:    4828        (H      LDR      r0,[pc,#160] ; [0x1ff8] = 0x493e0
        0x00001f58:    f7fff890    ....    BL       DrvSYS_Delay ; 0x107c
        0x00001f5c:    2d09        .-      CMP      r5,#9
        0x00001f5e:    d121        !.      BNE      0x1fa4 ; main + 652
        0x00001f60:    4620         F      MOV      r0,r4
        0x00001f62:    3810        .8      SUBS     r0,r0,#0x10
        0x00001f64:    b2c4        ..      UXTB     r4,r0
        0x00001f66:    f7fffeba    ....    BL       clr_all_pannal ; 0x1cde
        0x00001f6a:    4622        "F      MOV      r2,r4
        0x00001f6c:    a123        #.      ADR      r1,{pc}+0x90 ; 0x1ffc
        0x00001f6e:    a803        ..      ADD      r0,sp,#0xc
        0x00001f70:    f7fef950    ..P.    BL       __2sprintf ; 0x214
        0x00001f74:    a901        ..      ADD      r1,sp,#4
        0x00001f76:    2000        .       MOVS     r0,#0
        0x00001f78:    f000f842    ..B.    BL       print_lcd ; 0x2000
        0x00001f7c:    1120         .      ASRS     r0,r4,#4
        0x00001f7e:    f7fffa07    ....    BL       HEX2Disp ; 0x1390
        0x00001f82:    4601        .F      MOV      r1,r0
        0x00001f84:    9000        ..      STR      r0,[sp,#0]
        0x00001f86:    2072        r       MOVS     r0,#0x72
        0x00001f88:    f7fffe1e    ....    BL       Write_to_any8574 ; 0x1bc8
        0x00001f8c:    0720         .      LSLS     r0,r4,#28
        0x00001f8e:    0f00        ..      LSRS     r0,r0,#28
        0x00001f90:    f7fff9fe    ....    BL       HEX2Disp ; 0x1390
        0x00001f94:    4601        .F      MOV      r1,r0
        0x00001f96:    9000        ..      STR      r0,[sp,#0]
        0x00001f98:    2070        p       MOVS     r0,#0x70
        0x00001f9a:    f7fffe15    ....    BL       Write_to_any8574 ; 0x1bc8
        0x00001f9e:    4816        .H      LDR      r0,[pc,#88] ; [0x1ff8] = 0x493e0
        0x00001fa0:    f7fff86c    ..l.    BL       DrvSYS_Delay ; 0x107c
        0x00001fa4:    4620         F      MOV      r0,r4
        0x00001fa6:    f000f83f    ..?.    BL       seg_display_Hex ; 0x2028
        0x00001faa:    e6f8        ..      B        0x1d9e ; main + 134
    $d
        0x00001fac:    000020c0    . ..    DCD    8384
        0x00001fb0:    50000100    ...P    DCD    1342177536
        0x00001fb4:    00001388    ....    DCD    5000
        0x00001fb8:    20433249    I2C     DCD    541274697
        0x00001fbc:    68746977    with    DCD    1752459639
        0x00001fc0:    20202020            DCD    538976288
        0x00001fc4:    00202020       .    DCD    2105376
        0x00001fc8:    20202020            DCD    538976288
        0x00001fcc:    32202020       2    DCD    840966176
        0x00001fd0:    36434c34    4LC6    DCD    910380084
        0x00001fd4:    00202035    5  .    DCD    2105397
        0x00001fd8:    20202020            DCD    538976288
        0x00001fdc:    50202020       P    DCD    1344282656
        0x00001fe0:    35384643    CF85    DCD    892880451
        0x00001fe4:    00203437    74 .    DCD    2110519
        0x00001fe8:    73657270    pres    DCD    1936028272
        0x00001fec:    656b2073    s ke    DCD    1701519475
        0x00001ff0:    6b2d3179    y1-k    DCD    1798123897
        0x00001ff4:    00387965    ey8.    DCD    3701093
        0x00001ff8:    000493e0    ....    DCD    300000
        0x00001ffc:    00005825    %X..    DCD    22565
    $t
    i.print_lcd
    print_lcd
        0x00002000:    b570        p.      PUSH     {r4-r6,lr}
        0x00002002:    4606        .F      MOV      r6,r0
        0x00002004:    460c        .F      MOV      r4,r1
        0x00002006:    2500        .%      MOVS     r5,#0
        0x00002008:    bf00        ..      NOP      
        0x0000200a:    7822        "x      LDRB     r2,[r4,#0]
        0x0000200c:    1c64        d.      ADDS     r4,r4,#1
        0x0000200e:    b2e9        ..      UXTB     r1,r5
        0x00002010:    4630        0F      MOV      r0,r6
        0x00002012:    f7fffcdf    ....    BL       Show_Word ; 0x19d4
        0x00002016:    1c6d        m.      ADDS     r5,r5,#1
        0x00002018:    2d0f        .-      CMP      r5,#0xf
        0x0000201a:    dd00        ..      BLE      0x201e ; print_lcd + 30
        0x0000201c:    e002        ..      B        0x2024 ; print_lcd + 36
        0x0000201e:    7820         x      LDRB     r0,[r4,#0]
        0x00002020:    2800        .(      CMP      r0,#0
        0x00002022:    d1f2        ..      BNE      0x200a ; print_lcd + 10
        0x00002024:    bf00        ..      NOP      
        0x00002026:    bd70        p.      POP      {r4-r6,pc}
    i.seg_display_Hex
    seg_display_Hex
        0x00002028:    b570        p.      PUSH     {r4-r6,lr}
        0x0000202a:    4604        .F      MOV      r4,r0
        0x0000202c:    0228        (.      LSLS     r0,r5,#8
        0x0000202e:    1a20         .      SUBS     r0,r4,r0
        0x00002030:    b204        ..      SXTH     r4,r0
        0x00002032:    4620         F      MOV      r0,r4
        0x00002034:    17e1        ..      ASRS     r1,r4,#31
        0x00002036:    0f09        ..      LSRS     r1,r1,#28
        0x00002038:    1809        ..      ADDS     r1,r1,r0
        0x0000203a:    1109        ..      ASRS     r1,r1,#4
        0x0000203c:    b24d        M.      SXTB     r5,r1
        0x0000203e:    f7fffe3c    ..<.    BL       close_seven_segment ; 0x1cba
        0x00002042:    b2e9        ..      UXTB     r1,r5
        0x00002044:    2002        .       MOVS     r0,#2
        0x00002046:    f000f813    ....    BL       show_seven_segment_Hex ; 0x2070
        0x0000204a:    207d        }       MOVS     r0,#0x7d
        0x0000204c:    0140        @.      LSLS     r0,r0,#5
        0x0000204e:    f7fff815    ....    BL       DrvSYS_Delay ; 0x107c
        0x00002052:    0128        (.      LSLS     r0,r5,#4
        0x00002054:    1a20         .      SUBS     r0,r4,r0
        0x00002056:    b204        ..      SXTH     r4,r0
        0x00002058:    b265        e.      SXTB     r5,r4
        0x0000205a:    f7fffe2e    ....    BL       close_seven_segment ; 0x1cba
        0x0000205e:    b2e9        ..      UXTB     r1,r5
        0x00002060:    2001        .       MOVS     r0,#1
        0x00002062:    f000f805    ....    BL       show_seven_segment_Hex ; 0x2070
        0x00002066:    207d        }       MOVS     r0,#0x7d
        0x00002068:    0140        @.      LSLS     r0,r0,#5
        0x0000206a:    f7fff807    ....    BL       DrvSYS_Delay ; 0x107c
        0x0000206e:    bd70        p.      POP      {r4-r6,pc}
    i.show_seven_segment_Hex
    show_seven_segment_Hex
        0x00002070:    b5f8        ..      PUSH     {r3-r7,lr}
        0x00002072:    4605        .F      MOV      r5,r0
        0x00002074:    460f        .F      MOV      r7,r1
        0x00002076:    480d        .H      LDR      r0,[pc,#52] ; [0x20ac] = 0x2000001c
        0x00002078:    5dc6        .]      LDRB     r6,[r0,r7]
        0x0000207a:    2400        .$      MOVS     r4,#0
        0x0000207c:    e00f        ..      B        0x209e ; show_seven_segment_Hex + 46
        0x0000207e:    07f0        ..      LSLS     r0,r6,#31
        0x00002080:    0fc0        ..      LSRS     r0,r0,#31
        0x00002082:    2801        .(      CMP      r0,#1
        0x00002084:    d104        ..      BNE      0x2090 ; show_seven_segment_Hex + 32
        0x00002086:    4621        !F      MOV      r1,r4
        0x00002088:    2004        .       MOVS     r0,#4
        0x0000208a:    f7feff07    ....    BL       DrvGPIO_SetBit ; 0xe9c
        0x0000208e:    e003        ..      B        0x2098 ; show_seven_segment_Hex + 40
        0x00002090:    4621        !F      MOV      r1,r4
        0x00002092:    2004        .       MOVS     r0,#4
        0x00002094:    f7fefaf0    ....    BL       DrvGPIO_ClrBit ; 0x678
        0x00002098:    1076        v.      ASRS     r6,r6,#1
        0x0000209a:    1c60        `.      ADDS     r0,r4,#1
        0x0000209c:    b2c4        ..      UXTB     r4,r0
        0x0000209e:    2c08        .,      CMP      r4,#8
        0x000020a0:    dbed        ..      BLT      0x207e ; show_seven_segment_Hex + 14
        0x000020a2:    1d29        ).      ADDS     r1,r5,#4
        0x000020a4:    2002        .       MOVS     r0,#2
        0x000020a6:    f7fefef9    ....    BL       DrvGPIO_SetBit ; 0xe9c
        0x000020aa:    bdf8        ..      POP      {r3-r7,pc}
    $d
        0x000020ac:    2000001c    ...     DCD    536870940
    $d.realdata
    .constdata
    lookUp
        0x000020b0:    b0a4f9c0    ....    DCD    2963601856
        0x000020b4:    f8829299    ....    DCD    4169306777
        0x000020b8:    83889080    ....    DCD    2206765184
        0x000020bc:    8e86a1c6    ....    DCD    2391187910
        0x000020c0:    69676944    Digi    DCD    1768384836
        0x000020c4:    3a313274    t21:    DCD    976302708
        0x000020c8:    00005958    XY..    DCD    22872
        0x000020cc:    00000000    ....    DCD    0
        0x000020d0:    00000000    ....    DCD    0
    .constdata
        0x000020d4:    003e3d3b    ;=>.    DCD    4078907
    .constdata
        0x000020d8:    00000001    ....    DCD    1
        0x000020dc:    00000002    ....    DCD    2
        0x000020e0:    00000002    ....    DCD    2
        0x000020e4:    00000004    ....    DCD    4
    .constdata
    uc_hextab
        0x000020e8:    33323130    0123    DCD    858927408
        0x000020ec:    37363534    4567    DCD    926299444
        0x000020f0:    42413938    89AB    DCD    1111570744
        0x000020f4:    46454443    CDEF    DCD    1178944579
        0x000020f8:    00583040    @0X.    DCD    5779520
    lc_hextab
        0x000020fc:    33323130    0123    DCD    858927408
        0x00002100:    37363534    4567    DCD    926299444
        0x00002104:    62613938    89ab    DCD    1650538808
        0x00002108:    66656463    cdef    DCD    1717920867
        0x0000210c:    00783040    @0x.    DCD    7876672
    Region$$Table$$Base
        0x00002110:    00002130    0!..    DCD    8496
        0x00002114:    20000000    ...     DCD    536870912
        0x00002118:    00000650    P...    DCD    1616
        0x0000211c:    00000104    ....    DCD    260
        0x00002120:    00002780    .'..    DCD    10112
        0x00002124:    20000650    P..     DCD    536872528
        0x00002128:    000004d0    ....    DCD    1232
        0x0000212c:    00000120     ...    DCD    288
    Region$$Table$$Limit

** Section #2 'ER_RW' (SHT_PROGBITS) [SHF_ALLOC + SHF_WRITE]
    Size   : 1616 bytes (alignment 4)
    Address: 0x20000000


** Section #3 'ER_ZI' (SHT_NOBITS) [SHF_ALLOC + SHF_WRITE]
    Size   : 1232 bytes (alignment 8)
    Address: 0x20000650


** Section #4 '.debug_abbrev' (SHT_PROGBITS)
    Size   : 1476 bytes


** Section #5 '.debug_frame' (SHT_PROGBITS)
    Size   : 1948 bytes


** Section #6 '.debug_info' (SHT_PROGBITS)
    Size   : 123604 bytes


** Section #7 '.debug_line' (SHT_PROGBITS)
    Size   : 10108 bytes


** Section #8 '.debug_loc' (SHT_PROGBITS)
    Size   : 3012 bytes


** Section #9 '.debug_macinfo' (SHT_PROGBITS)
    Size   : 144164 bytes


** Section #10 '.debug_pubnames' (SHT_PROGBITS)
    Size   : 1869 bytes


** Section #11 '.symtab' (SHT_SYMTAB)
    Size   : 8032 bytes (alignment 4)
    String table #12 '.strtab'
    Last local symbol no. 342


** Section #12 '.strtab' (SHT_STRTAB)
    Size   : 6500 bytes


** Section #13 '.note' (SHT_NOTE)
    Size   : 28 bytes (alignment 4)


** Section #14 '.comment' (SHT_PROGBITS)
    Size   : 7432 bytes


** Section #15 '.shstrtab' (SHT_STRTAB)
    Size   : 156 bytes


