
========================================================================

** ELF Header Information

    File Name: .\obj\Smpl_Start_Kit.axf

    Machine class: ELFCLASS32 (32-bit)
    Data encoding: ELFDATA2LSB (Little endian)
    Header version: EV_CURRENT (Current version)
    Operating System ABI: none
    ABI Version: 0
    File Type: ET_EXEC (Executable) (2)
    Machine: EM_ARM (ARM)

    Image Entry point: 0x000001b9
    Flags: EF_ARM_HASENTRY (0x05000002)

    ARM ELF revision: 5 (ABI version 2)

    Built with
    ARM C/C++ Compiler, 4.1 [Build 894]
    ARM Assembler, 4.1 [Build 894]
    ARM Linker, 4.1 [Build 894] 

    Header size: 52 bytes (0x34)
    Program header entry size: 32 bytes (0x20)
    Section header entry size: 40 bytes (0x28)

    Program header entries: 1
    Section header entries: 16

    Program header offset: 334104 (0x00051918)
    Section header offset: 334136 (0x00051938)

    Section header string table index: 15

========================================================================

** Program header #0 (PT_LOAD) [PF_X + PF_W + PF_R + PF_ARM_ENTRY]
    Size : 13080 bytes (11844 bytes in file)
    Virtual address: 0x00000000 (Alignment 8)


========================================================================

** Section #1 'ER_RO' (SHT_PROGBITS) [SHF_ALLOC + SHF_EXECINSTR]
    Size   : 10224 bytes (alignment 4)
    Address: 0x00000000

    $d.realdata
    RESET
    __Vectors
        0x00000000:    20000b28    (..     DCD    536873768
        0x00000004:    000001b9    ....    DCD    441
        0x00000008:    000001d9    ....    DCD    473
        0x0000000c:    000001db    ....    DCD    475
        0x00000010:    00000000    ....    DCD    0
        0x00000014:    00000000    ....    DCD    0
        0x00000018:    00000000    ....    DCD    0
        0x0000001c:    00000000    ....    DCD    0
        0x00000020:    00000000    ....    DCD    0
        0x00000024:    00000000    ....    DCD    0
        0x00000028:    00000000    ....    DCD    0
        0x0000002c:    000001dd    ....    DCD    477
        0x00000030:    00000000    ....    DCD    0
        0x00000034:    00000000    ....    DCD    0
        0x00000038:    000001df    ....    DCD    479
        0x0000003c:    000001e1    ....    DCD    481
        0x00000040:    000006ed    ....    DCD    1773
        0x00000044:    000001e3    ....    DCD    483
        0x00000048:    00001401    ....    DCD    5121
        0x0000004c:    00001425    %...    DCD    5157
        0x00000050:    00001449    I...    DCD    5193
        0x00000054:    00001485    ....    DCD    5253
        0x00000058:    000001e3    ....    DCD    483
        0x0000005c:    000001e3    ....    DCD    483
        0x00000060:    000001e3    ....    DCD    483
        0x00000064:    000001e3    ....    DCD    483
        0x00000068:    000001e3    ....    DCD    483
        0x0000006c:    000021a9    .!..    DCD    8617
        0x00000070:    0000231d    .#..    DCD    8989
        0x00000074:    00002359    Y#..    DCD    9049
        0x00000078:    00001e09    ....    DCD    7689
        0x0000007c:    00001e6d    m...    DCD    7789
        0x00000080:    00001ed1    ....    DCD    7889
        0x00000084:    00001f35    5...    DCD    7989
        0x00000088:    000014d1    ....    DCD    5329
        0x0000008c:    00001549    I...    DCD    5449
        0x00000090:    000001e3    ....    DCD    483
        0x00000094:    000001e3    ....    DCD    483
        0x00000098:    000001e3    ....    DCD    483
        0x0000009c:    000001e3    ....    DCD    483
        0x000000a0:    000001e3    ....    DCD    483
        0x000000a4:    000001e3    ....    DCD    483
        0x000000a8:    000001e3    ....    DCD    483
        0x000000ac:    000001e3    ....    DCD    483
        0x000000b0:    00001cdd    ....    DCD    7389
        0x000000b4:    000001e3    ....    DCD    483
        0x000000b8:    000001e3    ....    DCD    483
        0x000000bc:    000001e3    ....    DCD    483
    $t
    !!!main
    __main
        0x000000c0:    f000f802    ....    BL       __scatterload ; 0xc8
        0x000000c4:    f000f84d    ..M.    BL       __rt_entry ; 0x162
    !!!scatter
    __scatterload
    __scatterload_rt2
    __scatterload_rt2_thumb_only
        0x000000c8:    a00c        ..      ADR      r0,{pc}+0x34 ; 0xfc
        0x000000ca:    c830        0.      LDM      r0!,{r4,r5}
        0x000000cc:    3808        .8      SUBS     r0,r0,#8
        0x000000ce:    1824        $.      ADDS     r4,r4,r0
        0x000000d0:    182d        -.      ADDS     r5,r5,r0
        0x000000d2:    46a2        .F      MOV      r10,r4
        0x000000d4:    1e67        g.      SUBS     r7,r4,#1
        0x000000d6:    46ab        .F      MOV      r11,r5
    __scatterload_null
        0x000000d8:    4654        TF      MOV      r4,r10
        0x000000da:    465d        ]F      MOV      r5,r11
        0x000000dc:    42ac        .B      CMP      r4,r5
        0x000000de:    d101        ..      BNE      0xe4 ; __scatterload_null + 12
        0x000000e0:    f000f83f    ..?.    BL       __rt_entry ; 0x162
        0x000000e4:    467e        ~F      MOV      r6,pc
        0x000000e6:    3e0f        .>      SUBS     r6,r6,#0xf
        0x000000e8:    cc0f        ..      LDM      r4!,{r0-r3}
        0x000000ea:    46b6        .F      MOV      lr,r6
        0x000000ec:    2601        .&      MOVS     r6,#1
        0x000000ee:    4233        3B      TST      r3,r6
        0x000000f0:    d000        ..      BEQ      0xf4 ; __scatterload_null + 28
        0x000000f2:    1afb        ..      SUBS     r3,r7,r3
        0x000000f4:    46a2        .F      MOV      r10,r4
        0x000000f6:    46ab        .F      MOV      r11,r5
        0x000000f8:    4333        3C      ORRS     r3,r3,r6
        0x000000fa:    4718        .G      BX       r3
    $d
        0x000000fc:    000026d4    .&..    DCD    9940
        0x00000100:    000026f4    .&..    DCD    9972
    $t
    !!handler_copy
    __scatterload_copy
        0x00000104:    3a10        .:      SUBS     r2,r2,#0x10
        0x00000106:    d302        ..      BCC      0x10e ; __scatterload_copy + 10
        0x00000108:    c878        x.      LDM      r0!,{r3-r6}
        0x0000010a:    c178        x.      STM      r1!,{r3-r6}
        0x0000010c:    d8fa        ..      BHI      __scatterload_copy ; 0x104
        0x0000010e:    0752        R.      LSLS     r2,r2,#29
        0x00000110:    d301        ..      BCC      0x116 ; __scatterload_copy + 18
        0x00000112:    c830        0.      LDM      r0!,{r4,r5}
        0x00000114:    c130        0.      STM      r1!,{r4,r5}
        0x00000116:    d501        ..      BPL      0x11c ; __scatterload_copy + 24
        0x00000118:    6804        .h      LDR      r4,[r0,#0]
        0x0000011a:    600c        .`      STR      r4,[r1,#0]
        0x0000011c:    4770        pG      BX       lr
        0x0000011e:    0000        ..      MOVS     r0,r0
    !!handler_zi
    __scatterload_zeroinit
        0x00000120:    2300        .#      MOVS     r3,#0
        0x00000122:    2400        .$      MOVS     r4,#0
        0x00000124:    2500        .%      MOVS     r5,#0
        0x00000126:    2600        .&      MOVS     r6,#0
        0x00000128:    3a10        .:      SUBS     r2,r2,#0x10
        0x0000012a:    d301        ..      BCC      0x130 ; __scatterload_zeroinit + 16
        0x0000012c:    c178        x.      STM      r1!,{r3-r6}
        0x0000012e:    d8fb        ..      BHI      0x128 ; __scatterload_zeroinit + 8
        0x00000130:    0752        R.      LSLS     r2,r2,#29
        0x00000132:    d300        ..      BCC      0x136 ; __scatterload_zeroinit + 22
        0x00000134:    c130        0.      STM      r1!,{r4,r5}
        0x00000136:    d500        ..      BPL      0x13a ; __scatterload_zeroinit + 26
        0x00000138:    600b        .`      STR      r3,[r1,#0]
        0x0000013a:    4770        pG      BX       lr
    .ARM.Collect$$_printf_percent$$00000000
    _printf_percent
        0x0000013c:    b510        ..      PUSH     {r4,lr}
    .ARM.Collect$$_printf_percent$$00000009
    _printf_d
        0x0000013e:    2964        d)      CMP      r1,#0x64
        0x00000140:    d102        ..      BNE      _printf_x ; 0x148
        0x00000142:    f000f87f    ....    BL       _printf_int_dec ; 0x244
        0x00000146:    bd10        ..      POP      {r4,pc}
    .ARM.Collect$$_printf_percent$$0000000C
    _printf_x
        0x00000148:    2978        x)      CMP      r1,#0x78
        0x0000014a:    d102        ..      BNE      _printf_percent_end ; 0x152
        0x0000014c:    f000f8b0    ....    BL       _printf_int_hex ; 0x2b0
        0x00000150:    bd10        ..      POP      {r4,pc}
    .ARM.Collect$$_printf_percent$$00000017
    _printf_percent_end
        0x00000152:    2000        .       MOVS     r0,#0
        0x00000154:    bd10        ..      POP      {r4,pc}
    .ARM.Collect$$libinit$$00000000
    __rt_lib_init
        0x00000156:    b51f        ..      PUSH     {r0-r4,lr}
        0x00000158:    46c0        .F      MOV      r8,r8
        0x0000015a:    46c0        .F      MOV      r8,r8
    .ARM.Collect$$libinit$$00000006
    .ARM.Collect$$libinit$$00000008
    .ARM.Collect$$libinit$$0000000A
    .ARM.Collect$$libinit$$0000000D
    .ARM.Collect$$libinit$$0000000F
    .ARM.Collect$$libinit$$00000011
    .ARM.Collect$$libinit$$00000013
    .ARM.Collect$$libinit$$00000015
    .ARM.Collect$$libinit$$00000017
    .ARM.Collect$$libinit$$00000019
    .ARM.Collect$$libinit$$0000001B
    .ARM.Collect$$libinit$$0000001D
    .ARM.Collect$$libinit$$0000001F
    .ARM.Collect$$libinit$$00000021
    .ARM.Collect$$libinit$$00000028
    .ARM.Collect$$libinit$$0000002A
    .ARM.Collect$$libinit$$0000002C
    .ARM.Collect$$libinit$$0000002E
    .ARM.Collect$$libinit$$0000002F
    __rt_lib_init_alloca_1
    __rt_lib_init_argv_1
    __rt_lib_init_atexit_1
    __rt_lib_init_clock_1
    __rt_lib_init_cpp_1
    __rt_lib_init_exceptions_1
    __rt_lib_init_fp_trap_1
    __rt_lib_init_getenv_1
    __rt_lib_init_heap_1
    __rt_lib_init_lc_collate_1
    __rt_lib_init_lc_ctype_1
    __rt_lib_init_lc_monetary_1
    __rt_lib_init_lc_numeric_1
    __rt_lib_init_lc_time_1
    __rt_lib_init_rand_1
    __rt_lib_init_return
    __rt_lib_init_signal_1
    __rt_lib_init_stdio_1
    __rt_lib_init_user_alloc_1
        0x0000015c:    bd1f        ..      POP      {r0-r4,pc}
    .ARM.Collect$$libshutdown$$00000000
    __rt_lib_shutdown
        0x0000015e:    b510        ..      PUSH     {r4,lr}
    .ARM.Collect$$libshutdown$$00000003
    .ARM.Collect$$libshutdown$$00000006
    .ARM.Collect$$libshutdown$$00000009
    .ARM.Collect$$libshutdown$$0000000B
    .ARM.Collect$$libshutdown$$0000000E
    .ARM.Collect$$libshutdown$$0000000F
    __rt_lib_shutdown_fp_trap_1
    __rt_lib_shutdown_heap_1
    __rt_lib_shutdown_return
    __rt_lib_shutdown_signal_1
    __rt_lib_shutdown_stdio_1
    __rt_lib_shutdown_user_alloc_1
        0x00000160:    bd10        ..      POP      {r4,pc}
    .ARM.Collect$$rtentry$$00000000
    .ARM.Collect$$rtentry$$00000002
    .ARM.Collect$$rtentry$$00000004
    __rt_entry
    __rt_entry_presh_1
    __rt_entry_sh
        0x00000162:    f000fa92    ....    BL       __user_setup_stackheap ; 0x68a
        0x00000166:    4611        .F      MOV      r1,r2
    .ARM.Collect$$rtentry$$00000009
    .ARM.Collect$$rtentry$$0000000A
    __rt_entry_li
    __rt_entry_postsh_1
        0x00000168:    f7fffff5    ....    BL       __rt_lib_init ; 0x156
    .ARM.Collect$$rtentry$$0000000C
    .ARM.Collect$$rtentry$$0000000D
    __rt_entry_main
    __rt_entry_postli_1
        0x0000016c:    f002f9d2    ....    BL       main ; 0x2514
        0x00000170:    f000faaa    ....    BL       exit ; 0x6c8
    .ARM.Collect$$rtexit$$00000000
    __rt_exit
        0x00000174:    b403        ..      PUSH     {r0,r1}
    .ARM.Collect$$rtexit$$00000002
    .ARM.Collect$$rtexit$$00000003
    __rt_exit_ls
    __rt_exit_prels_1
        0x00000176:    f7fffff2    ....    BL       __rt_lib_shutdown ; 0x15e
    .ARM.Collect$$rtexit$$00000004
    __rt_exit_exit
        0x0000017a:    bc03        ..      POP      {r0,r1}
        0x0000017c:    f000faae    ....    BL       _sys_exit ; 0x6dc
    .emb_text
    __aeabi_memcpy4
    __aeabi_memcpy8
        0x00000180:    b570        p.      PUSH     {r4-r6,lr}
        0x00000182:    4605        .F      MOV      r5,r0
        0x00000184:    460c        .F      MOV      r4,r1
        0x00000186:    4616        .F      MOV      r6,r2
        0x00000188:    e002        ..      B        0x190 ; __aeabi_memcpy4 + 16
        0x0000018a:    cc0f        ..      LDM      r4!,{r0-r3}
        0x0000018c:    c50f        ..      STM      r5!,{r0-r3}
        0x0000018e:    3e10        .>      SUBS     r6,r6,#0x10
        0x00000190:    2e10        ..      CMP      r6,#0x10
        0x00000192:    d2fa        ..      BCS      0x18a ; __aeabi_memcpy4 + 10
        0x00000194:    2e08        ..      CMP      r6,#8
        0x00000196:    d302        ..      BCC      0x19e ; __aeabi_memcpy4 + 30
        0x00000198:    cc03        ..      LDM      r4!,{r0,r1}
        0x0000019a:    c503        ..      STM      r5!,{r0,r1}
        0x0000019c:    3e08        .>      SUBS     r6,r6,#8
        0x0000019e:    2e04        ..      CMP      r6,#4
        0x000001a0:    d307        ..      BCC      0x1b2 ; __aeabi_memcpy4 + 50
        0x000001a2:    cc01        ..      LDM      r4!,{r0}
        0x000001a4:    c501        ..      STM      r5!,{r0}
        0x000001a6:    1f36        6.      SUBS     r6,r6,#4
        0x000001a8:    e003        ..      B        0x1b2 ; __aeabi_memcpy4 + 50
        0x000001aa:    7821        !x      LDRB     r1,[r4,#0]
        0x000001ac:    7029        )p      STRB     r1,[r5,#0]
        0x000001ae:    1c64        d.      ADDS     r4,r4,#1
        0x000001b0:    1c6d        m.      ADDS     r5,r5,#1
        0x000001b2:    1e76        v.      SUBS     r6,r6,#1
        0x000001b4:    d2f9        ..      BCS      0x1aa ; __aeabi_memcpy4 + 42
        0x000001b6:    bd70        p.      POP      {r4-r6,pc}
    .text
    Reset_Handler
        0x000001b8:    480d        .H      LDR      r0,[pc,#52] ; [0x1f0] = 0x50000100
        0x000001ba:    490e        .I      LDR      r1,[pc,#56] ; [0x1f4] = 0x59
        0x000001bc:    6001        .`      STR      r1,[r0,#0]
        0x000001be:    490e        .I      LDR      r1,[pc,#56] ; [0x1f8] = 0x16
        0x000001c0:    6001        .`      STR      r1,[r0,#0]
        0x000001c2:    490e        .I      LDR      r1,[pc,#56] ; [0x1fc] = 0x88
        0x000001c4:    6001        .`      STR      r1,[r0,#0]
        0x000001c6:    4a0e        .J      LDR      r2,[pc,#56] ; [0x200] = 0x50000024
        0x000001c8:    490e        .I      LDR      r1,[pc,#56] ; [0x204] = 0x5aa5
        0x000001ca:    6011        .`      STR      r1,[r2,#0]
        0x000001cc:    2100        .!      MOVS     r1,#0
        0x000001ce:    6001        .`      STR      r1,[r0,#0]
        0x000001d0:    480d        .H      LDR      r0,[pc,#52] ; [0x208] = 0x21a5
        0x000001d2:    4780        .G      BLX      r0
        0x000001d4:    480d        .H      LDR      r0,[pc,#52] ; [0x20c] = 0xc1
        0x000001d6:    4700        .G      BX       r0
    NMI_Handler
        0x000001d8:    e7fe        ..      B        NMI_Handler ; 0x1d8
    HardFault_Handler
        0x000001da:    e7fe        ..      B        HardFault_Handler ; 0x1da
    SVC_Handler
        0x000001dc:    e7fe        ..      B        SVC_Handler ; 0x1dc
    PendSV_Handler
        0x000001de:    e7fe        ..      B        PendSV_Handler ; 0x1de
    SysTick_Handler
        0x000001e0:    e7fe        ..      B        SysTick_Handler ; 0x1e0
    Default_Handler
    ACMP_IRQHandler
    ADC_IRQHandler
    CAN0_IRQHandler
    I2S_IRQHandler
    PDMA_IRQHandler
    PS2_IRQHandler
    PWMA_IRQHandler
    PWMB_IRQHandler
    RTC_IRQHandler
    TMR0_IRQHandler
    TMR1_IRQHandler
    TMR2_IRQHandler
    USBD_IRQHandler
    WDT_IRQHandler
        0x000001e2:    e7fe        ..      B        Default_Handler ; 0x1e2
    __user_initial_stackheap
        0x000001e4:    480a        .H      LDR      r0,[pc,#40] ; [0x210] = 0x20000728
        0x000001e6:    490b        .I      LDR      r1,[pc,#44] ; [0x214] = 0x20000b28
        0x000001e8:    4a09        .J      LDR      r2,[pc,#36] ; [0x210] = 0x20000728
        0x000001ea:    4b0b        .K      LDR      r3,[pc,#44] ; [0x218] = 0x20000728
        0x000001ec:    4770        pG      BX       lr
    $d
        0x000001ee:    0000        ..      DCW    0
        0x000001f0:    50000100    ...P    DCD    1342177536
        0x000001f4:    00000059    Y...    DCD    89
        0x000001f8:    00000016    ....    DCD    22
        0x000001fc:    00000088    ....    DCD    136
        0x00000200:    50000024    $..P    DCD    1342177316
        0x00000204:    00005aa5    .Z..    DCD    23205
        0x00000208:    000021a5    .!..    DCD    8613
        0x0000020c:    000000c1    ....    DCD    193
        0x00000210:    20000728    (..     DCD    536872744
        0x00000214:    20000b28    (..     DCD    536873768
        0x00000218:    20000728    (..     DCD    536872744
    $t
    .text
    __2sprintf
        0x0000021c:    b40f        ..      PUSH     {r0-r3}
        0x0000021e:    b51c        ..      PUSH     {r2-r4,lr}
        0x00000220:    4b07        .K      LDR      r3,[pc,#28] ; [0x240] = 0x431
        0x00000222:    aa06        ..      ADD      r2,sp,#0x18
        0x00000224:    447b        {D      ADD      r3,r3,pc
        0x00000226:    4669        iF      MOV      r1,sp
        0x00000228:    9000        ..      STR      r0,[sp,#0]
        0x0000022a:    9805        ..      LDR      r0,[sp,#0x14]
        0x0000022c:    f000fa01    ....    BL       _printf_char_common ; 0x632
        0x00000230:    2000        .       MOVS     r0,#0
        0x00000232:    4669        iF      MOV      r1,sp
        0x00000234:    f000fa10    ....    BL       _sputc ; 0x658
        0x00000238:    bc1c        ..      POP      {r2-r4}
        0x0000023a:    bc08        ..      POP      {r3}
        0x0000023c:    b004        ..      ADD      sp,sp,#0x10
        0x0000023e:    4718        .G      BX       r3
    $d
        0x00000240:    00000431    1...    DCD    1073
    $t
    .text
    _printf_int_dec
        0x00000244:    b5f7        ..      PUSH     {r0-r2,r4-r7,lr}
        0x00000246:    2600        .&      MOVS     r6,#0
        0x00000248:    2975        u)      CMP      r1,#0x75
        0x0000024a:    6810        .h      LDR      r0,[r2,#0]
        0x0000024c:    9900        ..      LDR      r1,[sp,#0]
        0x0000024e:    a514        ..      ADR      r5,{pc}+0x52 ; 0x2a0
        0x00000250:    d011        ..      BEQ      0x276 ; _printf_int_dec + 50
        0x00000252:    46c0        .F      MOV      r8,r8
        0x00000254:    46c0        .F      MOV      r8,r8
        0x00000256:    2800        .(      CMP      r0,#0
        0x00000258:    da02        ..      BGE      0x260 ; _printf_int_dec + 28
        0x0000025a:    4240        @B      RSBS     r0,r0,#0
        0x0000025c:    a511        ..      ADR      r5,{pc}+0x48 ; 0x2a4
        0x0000025e:    e008        ..      B        0x272 ; _printf_int_dec + 46
        0x00000260:    9900        ..      LDR      r1,[sp,#0]
        0x00000262:    6809        .h      LDR      r1,[r1,#0]
        0x00000264:    078a        ..      LSLS     r2,r1,#30
        0x00000266:    d501        ..      BPL      0x26c ; _printf_int_dec + 40
        0x00000268:    a50f        ..      ADR      r5,{pc}+0x40 ; 0x2a8
        0x0000026a:    e002        ..      B        0x272 ; _printf_int_dec + 46
        0x0000026c:    0749        I.      LSLS     r1,r1,#29
        0x0000026e:    d504        ..      BPL      0x27a ; _printf_int_dec + 54
        0x00000270:    a50e        ..      ADR      r5,{pc}+0x3c ; 0x2ac
        0x00000272:    2601        .&      MOVS     r6,#1
        0x00000274:    e001        ..      B        0x27a ; _printf_int_dec + 54
        0x00000276:    46c0        .F      MOV      r8,r8
        0x00000278:    46c0        .F      MOV      r8,r8
        0x0000027a:    9f00        ..      LDR      r7,[sp,#0]
        0x0000027c:    2400        .$      MOVS     r4,#0
        0x0000027e:    3724        $7      ADDS     r7,r7,#0x24
        0x00000280:    e004        ..      B        0x28c ; _printf_int_dec + 72
        0x00000282:    f000f9ee    ....    BL       __rt_udiv10 ; 0x662
        0x00000286:    3130        01      ADDS     r1,r1,#0x30
        0x00000288:    5539        9U      STRB     r1,[r7,r4]
        0x0000028a:    1c64        d.      ADDS     r4,r4,#1
        0x0000028c:    2800        .(      CMP      r0,#0
        0x0000028e:    d1f8        ..      BNE      0x282 ; _printf_int_dec + 62
        0x00000290:    4633        3F      MOV      r3,r6
        0x00000292:    462a        *F      MOV      r2,r5
        0x00000294:    4621        !F      MOV      r1,r4
        0x00000296:    9800        ..      LDR      r0,[sp,#0]
        0x00000298:    f000f96e    ..n.    BL       _printf_int_common ; 0x578
        0x0000029c:    bdfe        ..      POP      {r1-r7,pc}
    $d
        0x0000029e:    0000        ..      DCW    0
        0x000002a0:    00000000    ....    DCD    0
        0x000002a4:    0000002d    -...    DCD    45
        0x000002a8:    0000002b    +...    DCD    43
        0x000002ac:    00000020     ...    DCD    32
    $t
    .text
    _printf_int_hex
    _printf_longlong_hex
        0x000002b0:    b570        p.      PUSH     {r4-r6,lr}
        0x000002b2:    4604        .F      MOV      r4,r0
        0x000002b4:    460d        .F      MOV      r5,r1
        0x000002b6:    4621        !F      MOV      r1,r4
        0x000002b8:    6810        .h      LDR      r0,[r2,#0]
        0x000002ba:    46c0        .F      MOV      r8,r8
        0x000002bc:    46c0        .F      MOV      r8,r8
        0x000002be:    6821        !h      LDR      r1,[r4,#0]
        0x000002c0:    0509        ..      LSLS     r1,r1,#20
        0x000002c2:    d502        ..      BPL      0x2ca ; _printf_int_hex + 26
        0x000002c4:    4a0f        .J      LDR      r2,[pc,#60] ; [0x304] = 0x24de
        0x000002c6:    447a        zD      ADD      r2,r2,pc
        0x000002c8:    e002        ..      B        0x2d0 ; _printf_int_hex + 32
        0x000002ca:    4a0e        .J      LDR      r2,[pc,#56] ; [0x304] = 0x24de
        0x000002cc:    447a        zD      ADD      r2,r2,pc
        0x000002ce:    320e        .2      ADDS     r2,r2,#0xe
        0x000002d0:    4623        #F      MOV      r3,r4
        0x000002d2:    2100        .!      MOVS     r1,#0
        0x000002d4:    3324        $3      ADDS     r3,r3,#0x24
        0x000002d6:    e005        ..      B        0x2e4 ; _printf_int_hex + 52
        0x000002d8:    0706        ..      LSLS     r6,r0,#28
        0x000002da:    0f36        6.      LSRS     r6,r6,#28
        0x000002dc:    5d96        .]      LDRB     r6,[r2,r6]
        0x000002de:    545e        ^T      STRB     r6,[r3,r1]
        0x000002e0:    1c49        I.      ADDS     r1,r1,#1
        0x000002e2:    0900        ..      LSRS     r0,r0,#4
        0x000002e4:    2800        .(      CMP      r0,#0
        0x000002e6:    d1f7        ..      BNE      0x2d8 ; _printf_int_hex + 40
        0x000002e8:    6820         h      LDR      r0,[r4,#0]
        0x000002ea:    2300        .#      MOVS     r3,#0
        0x000002ec:    0700        ..      LSLS     r0,r0,#28
        0x000002ee:    d505        ..      BPL      0x2fc ; _printf_int_hex + 76
        0x000002f0:    2d70        p-      CMP      r5,#0x70
        0x000002f2:    d003        ..      BEQ      0x2fc ; _printf_int_hex + 76
        0x000002f4:    2900        .)      CMP      r1,#0
        0x000002f6:    d001        ..      BEQ      0x2fc ; _printf_int_hex + 76
        0x000002f8:    3211        .2      ADDS     r2,r2,#0x11
        0x000002fa:    2302        .#      MOVS     r3,#2
        0x000002fc:    4620         F      MOV      r0,r4
        0x000002fe:    f000f93b    ..;.    BL       _printf_int_common ; 0x578
        0x00000302:    bd70        p.      POP      {r4-r6,pc}
    $d
        0x00000304:    000024de    .$..    DCD    9438
    $t
    .text
    __printf
        0x00000308:    b5f3        ..      PUSH     {r0,r1,r4-r7,lr}
        0x0000030a:    4604        .F      MOV      r4,r0
        0x0000030c:    2000        .       MOVS     r0,#0
        0x0000030e:    b081        ..      SUB      sp,sp,#4
        0x00000310:    e07e        ~.      B        0x410 ; __printf + 264
        0x00000312:    68e1        .h      LDR      r1,[r4,#0xc]
        0x00000314:    4620         F      MOV      r0,r4
        0x00000316:    4788        .G      BLX      r1
        0x00000318:    2800        .(      CMP      r0,#0
        0x0000031a:    d07b        {.      BEQ      0x414 ; __printf + 268
        0x0000031c:    2825        %(      CMP      r0,#0x25
        0x0000031e:    d002        ..      BEQ      0x326 ; __printf + 30
        0x00000320:    6862        bh      LDR      r2,[r4,#4]
        0x00000322:    68a1        .h      LDR      r1,[r4,#8]
        0x00000324:    e071        q.      B        0x40a ; __printf + 258
        0x00000326:    68e1        .h      LDR      r1,[r4,#0xc]
        0x00000328:    4620         F      MOV      r0,r4
        0x0000032a:    2500        .%      MOVS     r5,#0
        0x0000032c:    4788        .G      BLX      r1
        0x0000032e:    4606        .F      MOV      r6,r0
        0x00000330:    2000        .       MOVS     r0,#0
        0x00000332:    61e0        .a      STR      r0,[r4,#0x1c]
        0x00000334:    4607        .F      MOV      r7,r0
        0x00000336:    61a0        .a      STR      r0,[r4,#0x18]
        0x00000338:    2e2a        *.      CMP      r6,#0x2a
        0x0000033a:    d00a        ..      BEQ      0x352 ; __printf + 74
        0x0000033c:    4630        0F      MOV      r0,r6
        0x0000033e:    f002f8a5    ....    BL       _is_digit ; 0x248c
        0x00000342:    2800        .(      CMP      r0,#0
        0x00000344:    d027        '.      BEQ      0x396 ; __printf + 142
        0x00000346:    3e30        0>      SUBS     r6,r6,#0x30
        0x00000348:    00b8        ..      LSLS     r0,r7,#2
        0x0000034a:    1900        ..      ADDS     r0,r0,r4
        0x0000034c:    9000        ..      STR      r0,[sp,#0]
        0x0000034e:    6186        .a      STR      r6,[r0,#0x18]
        0x00000350:    e019        ..      B        0x386 ; __printf + 126
        0x00000352:    9802        ..      LDR      r0,[sp,#8]
        0x00000354:    00ba        ..      LSLS     r2,r7,#2
        0x00000356:    1912        ..      ADDS     r2,r2,r4
        0x00000358:    c802        ..      LDM      r0!,{r1}
        0x0000035a:    6191        .a      STR      r1,[r2,#0x18]
        0x0000035c:    9002        ..      STR      r0,[sp,#8]
        0x0000035e:    4620         F      MOV      r0,r4
        0x00000360:    68e1        .h      LDR      r1,[r4,#0xc]
        0x00000362:    4788        .G      BLX      r1
        0x00000364:    2f01        ./      CMP      r7,#1
        0x00000366:    4606        .F      MOV      r6,r0
        0x00000368:    d117        ..      BNE      0x39a ; __printf + 146
        0x0000036a:    69e0        .i      LDR      r0,[r4,#0x1c]
        0x0000036c:    2800        .(      CMP      r0,#0
        0x0000036e:    da1f        ..      BGE      0x3b0 ; __printf + 168
        0x00000370:    2020                MOVS     r0,#0x20
        0x00000372:    4385        .C      BICS     r5,r5,r0
        0x00000374:    e01c        ..      B        0x3b0 ; __printf + 168
        0x00000376:    9800        ..      LDR      r0,[sp,#0]
        0x00000378:    210a        .!      MOVS     r1,#0xa
        0x0000037a:    6980        .i      LDR      r0,[r0,#0x18]
        0x0000037c:    4348        HC      MULS     r0,r1,r0
        0x0000037e:    9900        ..      LDR      r1,[sp,#0]
        0x00000380:    1980        ..      ADDS     r0,r0,r6
        0x00000382:    3830        08      SUBS     r0,r0,#0x30
        0x00000384:    6188        .a      STR      r0,[r1,#0x18]
        0x00000386:    4620         F      MOV      r0,r4
        0x00000388:    68e1        .h      LDR      r1,[r4,#0xc]
        0x0000038a:    4788        .G      BLX      r1
        0x0000038c:    4606        .F      MOV      r6,r0
        0x0000038e:    f002f87d    ..}.    BL       _is_digit ; 0x248c
        0x00000392:    2800        .(      CMP      r0,#0
        0x00000394:    d1ef        ..      BNE      0x376 ; __printf + 110
        0x00000396:    2f01        ./      CMP      r7,#1
        0x00000398:    d00a        ..      BEQ      0x3b0 ; __printf + 168
        0x0000039a:    2e2e        ..      CMP      r6,#0x2e
        0x0000039c:    d108        ..      BNE      0x3b0 ; __printf + 168
        0x0000039e:    4620         F      MOV      r0,r4
        0x000003a0:    68e1        .h      LDR      r1,[r4,#0xc]
        0x000003a2:    4788        .G      BLX      r1
        0x000003a4:    4606        .F      MOV      r6,r0
        0x000003a6:    2020                MOVS     r0,#0x20
        0x000003a8:    4305        .C      ORRS     r5,r5,r0
        0x000003aa:    1c7f        ..      ADDS     r7,r7,#1
        0x000003ac:    2f02        ./      CMP      r7,#2
        0x000003ae:    dbc3        ..      BLT      0x338 ; __printf + 48
        0x000003b0:    69a0        .i      LDR      r0,[r4,#0x18]
        0x000003b2:    2800        .(      CMP      r0,#0
        0x000003b4:    da03        ..      BGE      0x3be ; __printf + 182
        0x000003b6:    4240        @B      RSBS     r0,r0,#0
        0x000003b8:    61a0        .a      STR      r0,[r4,#0x18]
        0x000003ba:    2001        .       MOVS     r0,#1
        0x000003bc:    4305        .C      ORRS     r5,r5,r0
        0x000003be:    07e8        ..      LSLS     r0,r5,#31
        0x000003c0:    d001        ..      BEQ      0x3c6 ; __printf + 190
        0x000003c2:    2010        .       MOVS     r0,#0x10
        0x000003c4:    4385        .C      BICS     r5,r5,r0
        0x000003c6:    2e00        ..      CMP      r6,#0
        0x000003c8:    d024        $.      BEQ      0x414 ; __printf + 268
        0x000003ca:    4630        0F      MOV      r0,r6
        0x000003cc:    3841        A8      SUBS     r0,r0,#0x41
        0x000003ce:    2819        .(      CMP      r0,#0x19
        0x000003d0:    d803        ..      BHI      0x3da ; __printf + 210
        0x000003d2:    2001        .       MOVS     r0,#1
        0x000003d4:    02c0        ..      LSLS     r0,r0,#11
        0x000003d6:    4305        .C      ORRS     r5,r5,r0
        0x000003d8:    3620         6      ADDS     r6,r6,#0x20
        0x000003da:    4620         F      MOV      r0,r4
        0x000003dc:    6025        %`      STR      r5,[r4,#0]
        0x000003de:    4631        1F      MOV      r1,r6
        0x000003e0:    9a02        ..      LDR      r2,[sp,#8]
        0x000003e2:    4615        .F      MOV      r5,r2
        0x000003e4:    f7fffeaa    ....    BL       _printf_percent ; 0x13c
        0x000003e8:    2800        .(      CMP      r0,#0
        0x000003ea:    d00b        ..      BEQ      0x404 ; __printf + 252
        0x000003ec:    2801        .(      CMP      r0,#1
        0x000003ee:    d006        ..      BEQ      0x3fe ; __printf + 246
        0x000003f0:    1ded        ..      ADDS     r5,r5,#7
        0x000003f2:    08e8        ..      LSRS     r0,r5,#3
        0x000003f4:    00c0        ..      LSLS     r0,r0,#3
        0x000003f6:    3008        .0      ADDS     r0,r0,#8
        0x000003f8:    9002        ..      STR      r0,[sp,#8]
        0x000003fa:    e78a        ..      B        0x312 ; __printf + 10
        0x000003fc:    e00a        ..      B        0x414 ; __printf + 268
        0x000003fe:    1d2d        -.      ADDS     r5,r5,#4
        0x00000400:    9502        ..      STR      r5,[sp,#8]
        0x00000402:    e786        ..      B        0x312 ; __printf + 10
        0x00000404:    6862        bh      LDR      r2,[r4,#4]
        0x00000406:    4630        0F      MOV      r0,r6
        0x00000408:    68a1        .h      LDR      r1,[r4,#8]
        0x0000040a:    4790        .G      BLX      r2
        0x0000040c:    6a20         j      LDR      r0,[r4,#0x20]
        0x0000040e:    1c40        @.      ADDS     r0,r0,#1
        0x00000410:    6220         b      STR      r0,[r4,#0x20]
        0x00000412:    e77e        ~.      B        0x312 ; __printf + 10
        0x00000414:    6a20         j      LDR      r0,[r4,#0x20]
        0x00000416:    bdfe        ..      POP      {r1-r7,pc}
    .text
    __aeabi_uidiv
    __aeabi_uidivmod
        0x00000418:    2200        ."      MOVS     r2,#0
        0x0000041a:    0903        ..      LSRS     r3,r0,#4
        0x0000041c:    428b        .B      CMP      r3,r1
        0x0000041e:    d32c        ,.      BCC      0x47a ; __aeabi_idiv + 78
        0x00000420:    0a03        ..      LSRS     r3,r0,#8
        0x00000422:    428b        .B      CMP      r3,r1
        0x00000424:    d311        ..      BCC      0x44a ; __aeabi_idiv + 30
        0x00000426:    2300        .#      MOVS     r3,#0
        0x00000428:    469c        .F      MOV      r12,r3
        0x0000042a:    e04e        N.      B        0x4ca ; __aeabi_idiv + 158
    __aeabi_idiv
    __aeabi_idivmod
        0x0000042c:    4603        .F      MOV      r3,r0
        0x0000042e:    430b        .C      ORRS     r3,r3,r1
        0x00000430:    d43c        <.      BMI      0x4ac ; __aeabi_idiv + 128
        0x00000432:    2200        ."      MOVS     r2,#0
        0x00000434:    0843        C.      LSRS     r3,r0,#1
        0x00000436:    428b        .B      CMP      r3,r1
        0x00000438:    d331        1.      BCC      0x49e ; __aeabi_idiv + 114
        0x0000043a:    0903        ..      LSRS     r3,r0,#4
        0x0000043c:    428b        .B      CMP      r3,r1
        0x0000043e:    d31c        ..      BCC      0x47a ; __aeabi_idiv + 78
        0x00000440:    0a03        ..      LSRS     r3,r0,#8
        0x00000442:    428b        .B      CMP      r3,r1
        0x00000444:    d301        ..      BCC      0x44a ; __aeabi_idiv + 30
        0x00000446:    4694        .F      MOV      r12,r2
        0x00000448:    e03f        ?.      B        0x4ca ; __aeabi_idiv + 158
        0x0000044a:    09c3        ..      LSRS     r3,r0,#7
        0x0000044c:    428b        .B      CMP      r3,r1
        0x0000044e:    d301        ..      BCC      0x454 ; __aeabi_idiv + 40
        0x00000450:    01cb        ..      LSLS     r3,r1,#7
        0x00000452:    1ac0        ..      SUBS     r0,r0,r3
        0x00000454:    4152        RA      ADCS     r2,r2,r2
        0x00000456:    0983        ..      LSRS     r3,r0,#6
        0x00000458:    428b        .B      CMP      r3,r1
        0x0000045a:    d301        ..      BCC      0x460 ; __aeabi_idiv + 52
        0x0000045c:    018b        ..      LSLS     r3,r1,#6
        0x0000045e:    1ac0        ..      SUBS     r0,r0,r3
        0x00000460:    4152        RA      ADCS     r2,r2,r2
        0x00000462:    0943        C.      LSRS     r3,r0,#5
        0x00000464:    428b        .B      CMP      r3,r1
        0x00000466:    d301        ..      BCC      0x46c ; __aeabi_idiv + 64
        0x00000468:    014b        K.      LSLS     r3,r1,#5
        0x0000046a:    1ac0        ..      SUBS     r0,r0,r3
        0x0000046c:    4152        RA      ADCS     r2,r2,r2
        0x0000046e:    0903        ..      LSRS     r3,r0,#4
        0x00000470:    428b        .B      CMP      r3,r1
        0x00000472:    d301        ..      BCC      0x478 ; __aeabi_idiv + 76
        0x00000474:    010b        ..      LSLS     r3,r1,#4
        0x00000476:    1ac0        ..      SUBS     r0,r0,r3
        0x00000478:    4152        RA      ADCS     r2,r2,r2
        0x0000047a:    08c3        ..      LSRS     r3,r0,#3
        0x0000047c:    428b        .B      CMP      r3,r1
        0x0000047e:    d301        ..      BCC      0x484 ; __aeabi_idiv + 88
        0x00000480:    00cb        ..      LSLS     r3,r1,#3
        0x00000482:    1ac0        ..      SUBS     r0,r0,r3
        0x00000484:    4152        RA      ADCS     r2,r2,r2
        0x00000486:    0883        ..      LSRS     r3,r0,#2
        0x00000488:    428b        .B      CMP      r3,r1
        0x0000048a:    d301        ..      BCC      0x490 ; __aeabi_idiv + 100
        0x0000048c:    008b        ..      LSLS     r3,r1,#2
        0x0000048e:    1ac0        ..      SUBS     r0,r0,r3
        0x00000490:    4152        RA      ADCS     r2,r2,r2
        0x00000492:    0843        C.      LSRS     r3,r0,#1
        0x00000494:    428b        .B      CMP      r3,r1
        0x00000496:    d301        ..      BCC      0x49c ; __aeabi_idiv + 112
        0x00000498:    004b        K.      LSLS     r3,r1,#1
        0x0000049a:    1ac0        ..      SUBS     r0,r0,r3
        0x0000049c:    4152        RA      ADCS     r2,r2,r2
        0x0000049e:    1a41        A.      SUBS     r1,r0,r1
        0x000004a0:    d200        ..      BCS      0x4a4 ; __aeabi_idiv + 120
        0x000004a2:    4601        .F      MOV      r1,r0
        0x000004a4:    4152        RA      ADCS     r2,r2,r2
        0x000004a6:    4610        .F      MOV      r0,r2
        0x000004a8:    4770        pG      BX       lr
        0x000004aa:    e05d        ].      B        0x568 ; __aeabi_idiv + 316
        0x000004ac:    0fca        ..      LSRS     r2,r1,#31
        0x000004ae:    d000        ..      BEQ      0x4b2 ; __aeabi_idiv + 134
        0x000004b0:    4249        IB      RSBS     r1,r1,#0
        0x000004b2:    1003        ..      ASRS     r3,r0,#32
        0x000004b4:    d300        ..      BCC      0x4b8 ; __aeabi_idiv + 140
        0x000004b6:    4240        @B      RSBS     r0,r0,#0
        0x000004b8:    4053        S@      EORS     r3,r3,r2
        0x000004ba:    2200        ."      MOVS     r2,#0
        0x000004bc:    469c        .F      MOV      r12,r3
        0x000004be:    0903        ..      LSRS     r3,r0,#4
        0x000004c0:    428b        .B      CMP      r3,r1
        0x000004c2:    d32d        -.      BCC      0x520 ; __aeabi_idiv + 244
        0x000004c4:    0a03        ..      LSRS     r3,r0,#8
        0x000004c6:    428b        .B      CMP      r3,r1
        0x000004c8:    d312        ..      BCC      0x4f0 ; __aeabi_idiv + 196
        0x000004ca:    22fc        ."      MOVS     r2,#0xfc
        0x000004cc:    0189        ..      LSLS     r1,r1,#6
        0x000004ce:    ba12        ..      REV      r2,r2
        0x000004d0:    0a03        ..      LSRS     r3,r0,#8
        0x000004d2:    428b        .B      CMP      r3,r1
        0x000004d4:    d30c        ..      BCC      0x4f0 ; __aeabi_idiv + 196
        0x000004d6:    0189        ..      LSLS     r1,r1,#6
        0x000004d8:    1192        ..      ASRS     r2,r2,#6
        0x000004da:    428b        .B      CMP      r3,r1
        0x000004dc:    d308        ..      BCC      0x4f0 ; __aeabi_idiv + 196
        0x000004de:    0189        ..      LSLS     r1,r1,#6
        0x000004e0:    1192        ..      ASRS     r2,r2,#6
        0x000004e2:    428b        .B      CMP      r3,r1
        0x000004e4:    d304        ..      BCC      0x4f0 ; __aeabi_idiv + 196
        0x000004e6:    0189        ..      LSLS     r1,r1,#6
        0x000004e8:    d03a        :.      BEQ      0x560 ; __aeabi_idiv + 308
        0x000004ea:    1192        ..      ASRS     r2,r2,#6
        0x000004ec:    e000        ..      B        0x4f0 ; __aeabi_idiv + 196
        0x000004ee:    0989        ..      LSRS     r1,r1,#6
        0x000004f0:    09c3        ..      LSRS     r3,r0,#7
        0x000004f2:    428b        .B      CMP      r3,r1
        0x000004f4:    d301        ..      BCC      0x4fa ; __aeabi_idiv + 206
        0x000004f6:    01cb        ..      LSLS     r3,r1,#7
        0x000004f8:    1ac0        ..      SUBS     r0,r0,r3
        0x000004fa:    4152        RA      ADCS     r2,r2,r2
        0x000004fc:    0983        ..      LSRS     r3,r0,#6
        0x000004fe:    428b        .B      CMP      r3,r1
        0x00000500:    d301        ..      BCC      0x506 ; __aeabi_idiv + 218
        0x00000502:    018b        ..      LSLS     r3,r1,#6
        0x00000504:    1ac0        ..      SUBS     r0,r0,r3
        0x00000506:    4152        RA      ADCS     r2,r2,r2
        0x00000508:    0943        C.      LSRS     r3,r0,#5
        0x0000050a:    428b        .B      CMP      r3,r1
        0x0000050c:    d301        ..      BCC      0x512 ; __aeabi_idiv + 230
        0x0000050e:    014b        K.      LSLS     r3,r1,#5
        0x00000510:    1ac0        ..      SUBS     r0,r0,r3
        0x00000512:    4152        RA      ADCS     r2,r2,r2
        0x00000514:    0903        ..      LSRS     r3,r0,#4
        0x00000516:    428b        .B      CMP      r3,r1
        0x00000518:    d301        ..      BCC      0x51e ; __aeabi_idiv + 242
        0x0000051a:    010b        ..      LSLS     r3,r1,#4
        0x0000051c:    1ac0        ..      SUBS     r0,r0,r3
        0x0000051e:    4152        RA      ADCS     r2,r2,r2
        0x00000520:    08c3        ..      LSRS     r3,r0,#3
        0x00000522:    428b        .B      CMP      r3,r1
        0x00000524:    d301        ..      BCC      0x52a ; __aeabi_idiv + 254
        0x00000526:    00cb        ..      LSLS     r3,r1,#3
        0x00000528:    1ac0        ..      SUBS     r0,r0,r3
        0x0000052a:    4152        RA      ADCS     r2,r2,r2
        0x0000052c:    0883        ..      LSRS     r3,r0,#2
        0x0000052e:    428b        .B      CMP      r3,r1
        0x00000530:    d301        ..      BCC      0x536 ; __aeabi_idiv + 266
        0x00000532:    008b        ..      LSLS     r3,r1,#2
        0x00000534:    1ac0        ..      SUBS     r0,r0,r3
        0x00000536:    4152        RA      ADCS     r2,r2,r2
        0x00000538:    d2d9        ..      BCS      0x4ee ; __aeabi_idiv + 194
        0x0000053a:    0843        C.      LSRS     r3,r0,#1
        0x0000053c:    428b        .B      CMP      r3,r1
        0x0000053e:    d301        ..      BCC      0x544 ; __aeabi_idiv + 280
        0x00000540:    004b        K.      LSLS     r3,r1,#1
        0x00000542:    1ac0        ..      SUBS     r0,r0,r3
        0x00000544:    4152        RA      ADCS     r2,r2,r2
        0x00000546:    1a41        A.      SUBS     r1,r0,r1
        0x00000548:    d200        ..      BCS      0x54c ; __aeabi_idiv + 288
        0x0000054a:    4601        .F      MOV      r1,r0
        0x0000054c:    4663        cF      MOV      r3,r12
        0x0000054e:    4152        RA      ADCS     r2,r2,r2
        0x00000550:    105b        [.      ASRS     r3,r3,#1
        0x00000552:    4610        .F      MOV      r0,r2
        0x00000554:    d301        ..      BCC      0x55a ; __aeabi_idiv + 302
        0x00000556:    4240        @B      RSBS     r0,r0,#0
        0x00000558:    2b00        .+      CMP      r3,#0
        0x0000055a:    d500        ..      BPL      0x55e ; __aeabi_idiv + 306
        0x0000055c:    4249        IB      RSBS     r1,r1,#0
        0x0000055e:    4770        pG      BX       lr
        0x00000560:    4663        cF      MOV      r3,r12
        0x00000562:    105b        [.      ASRS     r3,r3,#1
        0x00000564:    d300        ..      BCC      0x568 ; __aeabi_idiv + 316
        0x00000566:    4240        @B      RSBS     r0,r0,#0
        0x00000568:    b501        ..      PUSH     {r0,lr}
        0x0000056a:    2000        .       MOVS     r0,#0
        0x0000056c:    46c0        .F      MOV      r8,r8
        0x0000056e:    46c0        .F      MOV      r8,r8
        0x00000570:    bd02        ..      POP      {r1,pc}
    .text
    __use_two_region_memory
        0x00000572:    4770        pG      BX       lr
    __rt_heap_escrow$2region
        0x00000574:    4770        pG      BX       lr
    __rt_heap_expand$2region
        0x00000576:    4770        pG      BX       lr
    .text
    _printf_int_common
        0x00000578:    b5ff        ..      PUSH     {r0-r7,lr}
        0x0000057a:    4604        .F      MOV      r4,r0
        0x0000057c:    460d        .F      MOV      r5,r1
        0x0000057e:    b081        ..      SUB      sp,sp,#4
        0x00000580:    3024        $0      ADDS     r0,r0,#0x24
        0x00000582:    9000        ..      STR      r0,[sp,#0]
        0x00000584:    6821        !h      LDR      r1,[r4,#0]
        0x00000586:    0688        ..      LSLS     r0,r1,#26
        0x00000588:    d504        ..      BPL      0x594 ; _printf_int_common + 28
        0x0000058a:    2210        ."      MOVS     r2,#0x10
        0x0000058c:    69e0        .i      LDR      r0,[r4,#0x1c]
        0x0000058e:    4391        .C      BICS     r1,r1,r2
        0x00000590:    6021        !`      STR      r1,[r4,#0]
        0x00000592:    e000        ..      B        0x596 ; _printf_int_common + 30
        0x00000594:    2001        .       MOVS     r0,#1
        0x00000596:    42a8        .B      CMP      r0,r5
        0x00000598:    dd01        ..      BLE      0x59e ; _printf_int_common + 38
        0x0000059a:    1b47        G.      SUBS     r7,r0,r5
        0x0000059c:    e000        ..      B        0x5a0 ; _printf_int_common + 40
        0x0000059e:    2700        .'      MOVS     r7,#0
        0x000005a0:    9804        ..      LDR      r0,[sp,#0x10]
        0x000005a2:    69a1        .i      LDR      r1,[r4,#0x18]
        0x000005a4:    197a        z.      ADDS     r2,r7,r5
        0x000005a6:    1810        ..      ADDS     r0,r2,r0
        0x000005a8:    1a08        ..      SUBS     r0,r1,r0
        0x000005aa:    61a0        .a      STR      r0,[r4,#0x18]
        0x000005ac:    6820         h      LDR      r0,[r4,#0]
        0x000005ae:    06c0        ..      LSLS     r0,r0,#27
        0x000005b0:    d402        ..      BMI      0x5b8 ; _printf_int_common + 64
        0x000005b2:    4620         F      MOV      r0,r4
        0x000005b4:    46c0        .F      MOV      r8,r8
        0x000005b6:    46c0        .F      MOV      r8,r8
        0x000005b8:    2600        .&      MOVS     r6,#0
        0x000005ba:    e008        ..      B        0x5ce ; _printf_int_common + 86
        0x000005bc:    9803        ..      LDR      r0,[sp,#0xc]
        0x000005be:    6862        bh      LDR      r2,[r4,#4]
        0x000005c0:    68a1        .h      LDR      r1,[r4,#8]
        0x000005c2:    5d80        .]      LDRB     r0,[r0,r6]
        0x000005c4:    4790        .G      BLX      r2
        0x000005c6:    6a20         j      LDR      r0,[r4,#0x20]
        0x000005c8:    1c40        @.      ADDS     r0,r0,#1
        0x000005ca:    1c76        v.      ADDS     r6,r6,#1
        0x000005cc:    6220         b      STR      r0,[r4,#0x20]
        0x000005ce:    9804        ..      LDR      r0,[sp,#0x10]
        0x000005d0:    4286        .B      CMP      r6,r0
        0x000005d2:    dbf3        ..      BLT      0x5bc ; _printf_int_common + 68
        0x000005d4:    6820         h      LDR      r0,[r4,#0]
        0x000005d6:    06c0        ..      LSLS     r0,r0,#27
        0x000005d8:    d50a        ..      BPL      0x5f0 ; _printf_int_common + 120
        0x000005da:    4620         F      MOV      r0,r4
        0x000005dc:    46c0        .F      MOV      r8,r8
        0x000005de:    46c0        .F      MOV      r8,r8
        0x000005e0:    e006        ..      B        0x5f0 ; _printf_int_common + 120
        0x000005e2:    6862        bh      LDR      r2,[r4,#4]
        0x000005e4:    68a1        .h      LDR      r1,[r4,#8]
        0x000005e6:    2030        0       MOVS     r0,#0x30
        0x000005e8:    4790        .G      BLX      r2
        0x000005ea:    6a20         j      LDR      r0,[r4,#0x20]
        0x000005ec:    1c40        @.      ADDS     r0,r0,#1
        0x000005ee:    6220         b      STR      r0,[r4,#0x20]
        0x000005f0:    4638        8F      MOV      r0,r7
        0x000005f2:    1e7f        ..      SUBS     r7,r7,#1
        0x000005f4:    2800        .(      CMP      r0,#0
        0x000005f6:    dcf4        ..      BGT      0x5e2 ; _printf_int_common + 106
        0x000005f8:    e007        ..      B        0x60a ; _printf_int_common + 146
        0x000005fa:    9800        ..      LDR      r0,[sp,#0]
        0x000005fc:    6862        bh      LDR      r2,[r4,#4]
        0x000005fe:    68a1        .h      LDR      r1,[r4,#8]
        0x00000600:    5d40        @]      LDRB     r0,[r0,r5]
        0x00000602:    4790        .G      BLX      r2
        0x00000604:    6a20         j      LDR      r0,[r4,#0x20]
        0x00000606:    1c40        @.      ADDS     r0,r0,#1
        0x00000608:    6220         b      STR      r0,[r4,#0x20]
        0x0000060a:    4628        (F      MOV      r0,r5
        0x0000060c:    1e6d        m.      SUBS     r5,r5,#1
        0x0000060e:    2800        .(      CMP      r0,#0
        0x00000610:    dcf3        ..      BGT      0x5fa ; _printf_int_common + 130
        0x00000612:    4620         F      MOV      r0,r4
        0x00000614:    46c0        .F      MOV      r8,r8
        0x00000616:    46c0        .F      MOV      r8,r8
        0x00000618:    6820         h      LDR      r0,[r4,#0]
        0x0000061a:    0600        ..      LSLS     r0,r0,#24
        0x0000061c:    d502        ..      BPL      0x624 ; _printf_int_common + 172
        0x0000061e:    2002        .       MOVS     r0,#2
        0x00000620:    b005        ..      ADD      sp,sp,#0x14
        0x00000622:    bdf0        ..      POP      {r4-r7,pc}
        0x00000624:    2001        .       MOVS     r0,#1
        0x00000626:    e7fb        ..      B        0x620 ; _printf_int_common + 168
    .text
    _printf_input_char
        0x00000628:    6901        .i      LDR      r1,[r0,#0x10]
        0x0000062a:    1c4a        J.      ADDS     r2,r1,#1
        0x0000062c:    6102        .a      STR      r2,[r0,#0x10]
        0x0000062e:    7808        .x      LDRB     r0,[r1,#0]
        0x00000630:    4770        pG      BX       lr
    _printf_char_common
        0x00000632:    b500        ..      PUSH     {lr}
        0x00000634:    b08f        ..      SUB      sp,sp,#0x3c
        0x00000636:    9102        ..      STR      r1,[sp,#8]
        0x00000638:    2100        .!      MOVS     r1,#0
        0x0000063a:    9105        ..      STR      r1,[sp,#0x14]
        0x0000063c:    4905        .I      LDR      r1,[pc,#20] ; [0x654] = 0xffffffe5
        0x0000063e:    9301        ..      STR      r3,[sp,#4]
        0x00000640:    4479        yD      ADD      r1,r1,pc
        0x00000642:    9103        ..      STR      r1,[sp,#0xc]
        0x00000644:    4611        .F      MOV      r1,r2
        0x00000646:    9004        ..      STR      r0,[sp,#0x10]
        0x00000648:    4668        hF      MOV      r0,sp
        0x0000064a:    f7fffe5d    ..].    BL       __printf ; 0x308
        0x0000064e:    b00f        ..      ADD      sp,sp,#0x3c
        0x00000650:    bd00        ..      POP      {pc}
    $d
        0x00000652:    0000        ..      DCW    0
        0x00000654:    ffffffe5    ....    DCD    4294967269
    $t
    .text
    _sputc
        0x00000658:    680a        .h      LDR      r2,[r1,#0]
        0x0000065a:    7010        .p      STRB     r0,[r2,#0]
        0x0000065c:    1c52        R.      ADDS     r2,r2,#1
        0x0000065e:    600a        .`      STR      r2,[r1,#0]
        0x00000660:    4770        pG      BX       lr
    .text
    __rt_udiv10
        0x00000662:    4601        .F      MOV      r1,r0
        0x00000664:    0880        ..      LSRS     r0,r0,#2
        0x00000666:    1a08        ..      SUBS     r0,r1,r0
        0x00000668:    0902        ..      LSRS     r2,r0,#4
        0x0000066a:    1810        ..      ADDS     r0,r2,r0
        0x0000066c:    0a02        ..      LSRS     r2,r0,#8
        0x0000066e:    1810        ..      ADDS     r0,r2,r0
        0x00000670:    0c02        ..      LSRS     r2,r0,#16
        0x00000672:    1810        ..      ADDS     r0,r2,r0
        0x00000674:    08c0        ..      LSRS     r0,r0,#3
        0x00000676:    0082        ..      LSLS     r2,r0,#2
        0x00000678:    1812        ..      ADDS     r2,r2,r0
        0x0000067a:    0052        R.      LSLS     r2,r2,#1
        0x0000067c:    1a89        ..      SUBS     r1,r1,r2
        0x0000067e:    e001        ..      B        0x684 ; __rt_udiv10 + 34
        0x00000680:    390a        .9      SUBS     r1,r1,#0xa
        0x00000682:    1c40        @.      ADDS     r0,r0,#1
        0x00000684:    290a        .)      CMP      r1,#0xa
        0x00000686:    d2fb        ..      BCS      0x680 ; __rt_udiv10 + 30
        0x00000688:    4770        pG      BX       lr
    .text
    __user_setup_stackheap
        0x0000068a:    4675        uF      MOV      r5,lr
        0x0000068c:    f000f822    ..".    BL       __user_libspace ; 0x6d4
        0x00000690:    46ae        .F      MOV      lr,r5
        0x00000692:    0005        ..      MOVS     r5,r0
        0x00000694:    4669        iF      MOV      r1,sp
        0x00000696:    4653        SF      MOV      r3,r10
        0x00000698:    08c0        ..      LSRS     r0,r0,#3
        0x0000069a:    00c0        ..      LSLS     r0,r0,#3
        0x0000069c:    4685        .F      MOV      sp,r0
        0x0000069e:    b018        ..      ADD      sp,sp,#0x60
        0x000006a0:    b520         .      PUSH     {r5,lr}
        0x000006a2:    f7fffd9f    ....    BL       __user_initial_stackheap ; 0x1e4
        0x000006a6:    bc60        `.      POP      {r5,r6}
        0x000006a8:    2700        .'      MOVS     r7,#0
        0x000006aa:    0849        I.      LSRS     r1,r1,#1
        0x000006ac:    46b6        .F      MOV      lr,r6
        0x000006ae:    2600        .&      MOVS     r6,#0
        0x000006b0:    c5c0        ..      STM      r5!,{r6,r7}
        0x000006b2:    c5c0        ..      STM      r5!,{r6,r7}
        0x000006b4:    c5c0        ..      STM      r5!,{r6,r7}
        0x000006b6:    c5c0        ..      STM      r5!,{r6,r7}
        0x000006b8:    c5c0        ..      STM      r5!,{r6,r7}
        0x000006ba:    c5c0        ..      STM      r5!,{r6,r7}
        0x000006bc:    c5c0        ..      STM      r5!,{r6,r7}
        0x000006be:    c5c0        ..      STM      r5!,{r6,r7}
        0x000006c0:    3d40        @=      SUBS     r5,r5,#0x40
        0x000006c2:    0049        I.      LSLS     r1,r1,#1
        0x000006c4:    468d        .F      MOV      sp,r1
        0x000006c6:    4770        pG      BX       lr
    .text
    exit
        0x000006c8:    4604        .F      MOV      r4,r0
        0x000006ca:    46c0        .F      MOV      r8,r8
        0x000006cc:    46c0        .F      MOV      r8,r8
        0x000006ce:    4620         F      MOV      r0,r4
        0x000006d0:    f7fffd50    ..P.    BL       __rt_exit ; 0x174
    .text
    __user_libspace
    __user_perproc_libspace
    __user_perthread_libspace
        0x000006d4:    4800        .H      LDR      r0,[pc,#0] ; [0x6d8] = 0x200006c4
        0x000006d6:    4770        pG      BX       lr
    $d
        0x000006d8:    200006c4    ...     DCD    536872644
    $t
    .text
    _sys_exit
        0x000006dc:    4901        .I      LDR      r1,[pc,#4] ; [0x6e4] = 0x20026
        0x000006de:    2018        .       MOVS     r0,#0x18
        0x000006e0:    beab        ..      BKPT     #0xab
        0x000006e2:    e7fe        ..      B        0x6e2 ; _sys_exit + 6
    $d
        0x000006e4:    00020026    &...    DCD    131110
    $t
    .text
    __I$use$semihosting
    __use_no_semihosting_swi
        0x000006e8:    4770        pG      BX       lr
    .text
    __semihosting_library_function
        0x000006ea:    0000        ..      MOVS     r0,r0
    i.BOD_IRQHandler
    BOD_IRQHandler
        0x000006ec:    b510        ..      PUSH     {r4,lr}
        0x000006ee:    2005        .       MOVS     r0,#5
        0x000006f0:    0700        ..      LSLS     r0,r0,#28
        0x000006f2:    6980        .i      LDR      r0,[r0,#0x18]
        0x000006f4:    2110        .!      MOVS     r1,#0x10
        0x000006f6:    4388        .C      BICS     r0,r0,r1
        0x000006f8:    3010        .0      ADDS     r0,r0,#0x10
        0x000006fa:    2105        .!      MOVS     r1,#5
        0x000006fc:    0709        ..      LSLS     r1,r1,#28
        0x000006fe:    6188        .a      STR      r0,[r1,#0x18]
        0x00000700:    4803        .H      LDR      r0,[pc,#12] ; [0x710] = 0x20000630
        0x00000702:    6800        .h      LDR      r0,[r0,#0]
        0x00000704:    2800        .(      CMP      r0,#0
        0x00000706:    d002        ..      BEQ      0x70e ; BOD_IRQHandler + 34
        0x00000708:    4801        .H      LDR      r0,[pc,#4] ; [0x710] = 0x20000630
        0x0000070a:    6800        .h      LDR      r0,[r0,#0]
        0x0000070c:    4780        .G      BLX      r0
        0x0000070e:    bd10        ..      POP      {r4,pc}
    $d
        0x00000710:    20000630    0..     DCD    536872496
    $t
    i.DrvGPIO_ClrBit
    DrvGPIO_ClrBit
        0x00000714:    b510        ..      PUSH     {r4,lr}
        0x00000716:    4603        .F      MOV      r3,r0
        0x00000718:    2900        .)      CMP      r1,#0
        0x0000071a:    db01        ..      BLT      0x720 ; DrvGPIO_ClrBit + 12
        0x0000071c:    2910        .)      CMP      r1,#0x10
        0x0000071e:    dd01        ..      BLE      0x724 ; DrvGPIO_ClrBit + 16
        0x00000720:    4805        .H      LDR      r0,[pc,#20] ; [0x738] = 0xffff8901
        0x00000722:    bd10        ..      POP      {r4,pc}
        0x00000724:    0198        ..      LSLS     r0,r3,#6
        0x00000726:    4c05        .L      LDR      r4,[pc,#20] ; [0x73c] = 0x50004000
        0x00000728:    1902        ..      ADDS     r2,r0,r4
        0x0000072a:    6890        .h      LDR      r0,[r2,#8]
        0x0000072c:    2401        .$      MOVS     r4,#1
        0x0000072e:    408c        .@      LSLS     r4,r4,r1
        0x00000730:    43a0        .C      BICS     r0,r0,r4
        0x00000732:    6090        .`      STR      r0,[r2,#8]
        0x00000734:    2000        .       MOVS     r0,#0
        0x00000736:    e7f4        ..      B        0x722 ; DrvGPIO_ClrBit + 14
    $d
        0x00000738:    ffff8901    ....    DCD    4294936833
        0x0000073c:    50004000    .@.P    DCD    1342193664
    $t
    i.DrvGPIO_InitFunction
    DrvGPIO_InitFunction
        0x00000740:    b510        ..      PUSH     {r4,lr}
        0x00000742:    4601        .F      MOV      r1,r0
        0x00000744:    000b        ..      MOVS     r3,r1
        0x00000746:    f001fe93    ....    BL       __ARM_common_switch8 ; 0x2470
    $d
        0x0000074a:    203e        >       DCW    8254
        0x0000074c:    5c4b412a    *AK\    DCD    1548435754
        0x00000750:    947e7d74    t}~.    DCD    2491317620
        0x00000754:    eff1b4a4    ....    DCD    4025595044
        0x00000758:    ebecedee    ....    DCD    3958173166
        0x0000075c:    e7e8e9ea    ....    DCD    3890801130
        0x00000760:    e3e4e5e6    ....    DCD    3823429094
        0x00000764:    dfe0e1e2    ....    DCD    3756057058
        0x00000768:    dbdcddde    ....    DCD    3688685022
        0x0000076c:    d7d8d9da    ....    DCD    3621312986
        0x00000770:    d3d4d5d6    ....    DCD    3553940950
        0x00000774:    cfd0d1d2    ....    DCD    3486568914
        0x00000778:    cbcccdce    ....    DCD    3419196878
        0x0000077c:    c7c8c9ca    ....    DCD    3351824842
        0x00000780:    c3c4c5c6    ....    DCD    3284452806
        0x00000784:    bfc0c1c2    ....    DCD    3217080770
        0x00000788:    bdbe        ..      DCW    48574
    $t
        0x0000078a:    2000        .       MOVS     r0,#0
        0x0000078c:    2305        .#      MOVS     r3,#5
        0x0000078e:    071b        ..      LSLS     r3,r3,#28
        0x00000790:    6318        .c      STR      r0,[r3,#0x30]
        0x00000792:    6358        Xc      STR      r0,[r3,#0x34]
        0x00000794:    6398        .c      STR      r0,[r3,#0x38]
        0x00000796:    63d8        .c      STR      r0,[r3,#0x3c]
        0x00000798:    4bfa        .K      LDR      r3,[pc,#1000] ; [0xb84] = 0x50000040
        0x0000079a:    6018        .`      STR      r0,[r3,#0]
        0x0000079c:    e371        q.      B        0xe82 ; DrvGPIO_InitFunction + 1858
        0x0000079e:    2005        .       MOVS     r0,#5
        0x000007a0:    0700        ..      LSLS     r0,r0,#28
        0x000007a2:    6b40        @k      LDR      r0,[r0,#0x34]
        0x000007a4:    2301        .#      MOVS     r3,#1
        0x000007a6:    031b        ..      LSLS     r3,r3,#12
        0x000007a8:    4318        .C      ORRS     r0,r0,r3
        0x000007aa:    2305        .#      MOVS     r3,#5
        0x000007ac:    071b        ..      LSLS     r3,r3,#28
        0x000007ae:    6358        Xc      STR      r0,[r3,#0x34]
        0x000007b0:    48f4        .H      LDR      r0,[pc,#976] ; [0xb84] = 0x50000040
        0x000007b2:    6900        .i      LDR      r0,[r0,#0x10]
        0x000007b4:    2301        .#      MOVS     r3,#1
        0x000007b6:    029b        ..      LSLS     r3,r3,#10
        0x000007b8:    4318        .C      ORRS     r0,r0,r3
        0x000007ba:    4bf2        .K      LDR      r3,[pc,#968] ; [0xb84] = 0x50000040
        0x000007bc:    6118        .a      STR      r0,[r3,#0x10]
        0x000007be:    4618        .F      MOV      r0,r3
        0x000007c0:    6900        .i      LDR      r0,[r0,#0x10]
        0x000007c2:    015b        [.      LSLS     r3,r3,#5
        0x000007c4:    4398        .C      BICS     r0,r0,r3
        0x000007c6:    4bef        .K      LDR      r3,[pc,#956] ; [0xb84] = 0x50000040
        0x000007c8:    6118        .a      STR      r0,[r3,#0x10]
        0x000007ca:    e35a        Z.      B        0xe82 ; DrvGPIO_InitFunction + 1858
        0x000007cc:    2005        .       MOVS     r0,#5
        0x000007ce:    0700        ..      LSLS     r0,r0,#28
        0x000007d0:    6b00        .k      LDR      r0,[r0,#0x30]
        0x000007d2:    2303        .#      MOVS     r3,#3
        0x000007d4:    021b        ..      LSLS     r3,r3,#8
        0x000007d6:    4318        .C      ORRS     r0,r0,r3
        0x000007d8:    2305        .#      MOVS     r3,#5
        0x000007da:    071b        ..      LSLS     r3,r3,#28
        0x000007dc:    6318        .c      STR      r0,[r3,#0x30]
        0x000007de:    e350        P.      B        0xe82 ; DrvGPIO_InitFunction + 1858
        0x000007e0:    2005        .       MOVS     r0,#5
        0x000007e2:    0700        ..      LSLS     r0,r0,#28
        0x000007e4:    6b00        .k      LDR      r0,[r0,#0x30]
        0x000007e6:    2303        .#      MOVS     r3,#3
        0x000007e8:    029b        ..      LSLS     r3,r3,#10
        0x000007ea:    4318        .C      ORRS     r0,r0,r3
        0x000007ec:    2305        .#      MOVS     r3,#5
        0x000007ee:    071b        ..      LSLS     r3,r3,#28
        0x000007f0:    6318        .c      STR      r0,[r3,#0x30]
        0x000007f2:    48e4        .H      LDR      r0,[pc,#912] ; [0xb84] = 0x50000040
        0x000007f4:    6900        .i      LDR      r0,[r0,#0x10]
        0x000007f6:    2301        .#      MOVS     r3,#1
        0x000007f8:    02db        ..      LSLS     r3,r3,#11
        0x000007fa:    4398        .C      BICS     r0,r0,r3
        0x000007fc:    4be1        .K      LDR      r3,[pc,#900] ; [0xb84] = 0x50000040
        0x000007fe:    6118        .a      STR      r0,[r3,#0x10]
        0x00000800:    e33f        ?.      B        0xe82 ; DrvGPIO_InitFunction + 1858
        0x00000802:    2005        .       MOVS     r0,#5
        0x00000804:    0700        ..      LSLS     r0,r0,#28
        0x00000806:    6b80        .k      LDR      r0,[r0,#0x38]
        0x00000808:    230f        .#      MOVS     r3,#0xf
        0x0000080a:    4318        .C      ORRS     r0,r0,r3
        0x0000080c:    2305        .#      MOVS     r3,#5
        0x0000080e:    071b        ..      LSLS     r3,r3,#28
        0x00000810:    6398        .c      STR      r0,[r3,#0x38]
        0x00000812:    4618        .F      MOV      r0,r3
        0x00000814:    6b00        .k      LDR      r0,[r0,#0x30]
        0x00000816:    2301        .#      MOVS     r3,#1
        0x00000818:    03db        ..      LSLS     r3,r3,#15
        0x0000081a:    4318        .C      ORRS     r0,r0,r3
        0x0000081c:    2305        .#      MOVS     r3,#5
        0x0000081e:    071b        ..      LSLS     r3,r3,#28
        0x00000820:    6318        .c      STR      r0,[r3,#0x30]
        0x00000822:    48d8        .H      LDR      r0,[pc,#864] ; [0xb84] = 0x50000040
        0x00000824:    6900        .i      LDR      r0,[r0,#0x10]
        0x00000826:    231f        .#      MOVS     r3,#0x1f
        0x00000828:    015b        [.      LSLS     r3,r3,#5
        0x0000082a:    4318        .C      ORRS     r0,r0,r3
        0x0000082c:    4bd5        .K      LDR      r3,[pc,#852] ; [0xb84] = 0x50000040
        0x0000082e:    6118        .a      STR      r0,[r3,#0x10]
        0x00000830:    e327        '.      B        0xe82 ; DrvGPIO_InitFunction + 1858
        0x00000832:    2005        .       MOVS     r0,#5
        0x00000834:    0700        ..      LSLS     r0,r0,#28
        0x00000836:    6bc0        .k      LDR      r0,[r0,#0x3c]
        0x00000838:    23c0        .#      MOVS     r3,#0xc0
        0x0000083a:    4318        .C      ORRS     r0,r0,r3
        0x0000083c:    2305        .#      MOVS     r3,#5
        0x0000083e:    071b        ..      LSLS     r3,r3,#28
        0x00000840:    63d8        .c      STR      r0,[r3,#0x3c]
        0x00000842:    e31e        ..      B        0xe82 ; DrvGPIO_InitFunction + 1858
        0x00000844:    bf00        ..      NOP      
        0x00000846:    2906        .)      CMP      r1,#6
        0x00000848:    d101        ..      BNE      0x84e ; DrvGPIO_InitFunction + 270
        0x0000084a:    2206        ."      MOVS     r2,#6
        0x0000084c:    e000        ..      B        0x850 ; DrvGPIO_InitFunction + 272
        0x0000084e:    220e        ."      MOVS     r2,#0xe
        0x00000850:    2005        .       MOVS     r0,#5
        0x00000852:    0700        ..      LSLS     r0,r0,#28
        0x00000854:    6b80        .k      LDR      r0,[r0,#0x38]
        0x00000856:    2303        .#      MOVS     r3,#3
        0x00000858:    4093        .@      LSLS     r3,r3,r2
        0x0000085a:    4318        .C      ORRS     r0,r0,r3
        0x0000085c:    2305        .#      MOVS     r3,#5
        0x0000085e:    071b        ..      LSLS     r3,r3,#28
        0x00000860:    6398        .c      STR      r0,[r3,#0x38]
        0x00000862:    48c8        .H      LDR      r0,[pc,#800] ; [0xb84] = 0x50000040
        0x00000864:    6900        .i      LDR      r0,[r0,#0x10]
        0x00000866:    2301        .#      MOVS     r3,#1
        0x00000868:    02db        ..      LSLS     r3,r3,#11
        0x0000086a:    4398        .C      BICS     r0,r0,r3
        0x0000086c:    4bc5        .K      LDR      r3,[pc,#788] ; [0xb84] = 0x50000040
        0x0000086e:    6118        .a      STR      r0,[r3,#0x10]
        0x00000870:    e307        ..      B        0xe82 ; DrvGPIO_InitFunction + 1858
        0x00000872:    2005        .       MOVS     r0,#5
        0x00000874:    0700        ..      LSLS     r0,r0,#28
        0x00000876:    6b80        .k      LDR      r0,[r0,#0x38]
        0x00000878:    230f        .#      MOVS     r3,#0xf
        0x0000087a:    4318        .C      ORRS     r0,r0,r3
        0x0000087c:    2305        .#      MOVS     r3,#5
        0x0000087e:    071b        ..      LSLS     r3,r3,#28
        0x00000880:    6398        .c      STR      r0,[r3,#0x38]
        0x00000882:    48c0        .H      LDR      r0,[pc,#768] ; [0xb84] = 0x50000040
        0x00000884:    6900        .i      LDR      r0,[r0,#0x10]
        0x00000886:    23ff        .#      MOVS     r3,#0xff
        0x00000888:    33e1        .3      ADDS     r3,r3,#0xe1
        0x0000088a:    4398        .C      BICS     r0,r0,r3
        0x0000088c:    4bbd        .K      LDR      r3,[pc,#756] ; [0xb84] = 0x50000040
        0x0000088e:    6118        .a      STR      r0,[r3,#0x10]
        0x00000890:    e2f7        ..      B        0xe82 ; DrvGPIO_InitFunction + 1858
        0x00000892:    2005        .       MOVS     r0,#5
        0x00000894:    0700        ..      LSLS     r0,r0,#28
        0x00000896:    6b40        @k      LDR      r0,[r0,#0x34]
        0x00000898:    2301        .#      MOVS     r3,#1
        0x0000089a:    029b        ..      LSLS     r3,r3,#10
        0x0000089c:    4318        .C      ORRS     r0,r0,r3
        0x0000089e:    2305        .#      MOVS     r3,#5
        0x000008a0:    071b        ..      LSLS     r3,r3,#28
        0x000008a2:    6358        Xc      STR      r0,[r3,#0x34]
        0x000008a4:    48b7        .H      LDR      r0,[pc,#732] ; [0xb84] = 0x50000040
        0x000008a6:    6900        .i      LDR      r0,[r0,#0x10]
        0x000008a8:    2301        .#      MOVS     r3,#1
        0x000008aa:    4318        .C      ORRS     r0,r0,r3
        0x000008ac:    4bb5        .K      LDR      r3,[pc,#724] ; [0xb84] = 0x50000040
        0x000008ae:    6118        .a      STR      r0,[r3,#0x10]
        0x000008b0:    e2e7        ..      B        0xe82 ; DrvGPIO_InitFunction + 1858
        0x000008b2:    2005        .       MOVS     r0,#5
        0x000008b4:    0700        ..      LSLS     r0,r0,#28
        0x000008b6:    6b80        .k      LDR      r0,[r0,#0x38]
        0x000008b8:    2330        0#      MOVS     r3,#0x30
        0x000008ba:    4318        .C      ORRS     r0,r0,r3
        0x000008bc:    2305        .#      MOVS     r3,#5
        0x000008be:    071b        ..      LSLS     r3,r3,#28
        0x000008c0:    6398        .c      STR      r0,[r3,#0x38]
        0x000008c2:    e2de        ..      B        0xe82 ; DrvGPIO_InitFunction + 1858
        0x000008c4:    e2db        ..      B        0xe7e ; DrvGPIO_InitFunction + 1854
        0x000008c6:    e264        d.      B        0xd92 ; DrvGPIO_InitFunction + 1618
        0x000008c8:    e282        ..      B        0xdd0 ; DrvGPIO_InitFunction + 1680
        0x000008ca:    e248        H.      B        0xd5e ; DrvGPIO_InitFunction + 1566
        0x000008cc:    e246        F.      B        0xd5c ; DrvGPIO_InitFunction + 1564
        0x000008ce:    e213        ..      B        0xcf8 ; DrvGPIO_InitFunction + 1464
        0x000008d0:    e211        ..      B        0xcf6 ; DrvGPIO_InitFunction + 1462
        0x000008d2:    e1d9        ..      B        0xc88 ; DrvGPIO_InitFunction + 1352
        0x000008d4:    e1d7        ..      B        0xc86 ; DrvGPIO_InitFunction + 1350
        0x000008d6:    e1b7        ..      B        0xc48 ; DrvGPIO_InitFunction + 1288
        0x000008d8:    e1b5        ..      B        0xc46 ; DrvGPIO_InitFunction + 1286
        0x000008da:    e241        A.      B        0xd60 ; DrvGPIO_InitFunction + 1568
        0x000008dc:    e20d        ..      B        0xcfa ; DrvGPIO_InitFunction + 1466
        0x000008de:    e1d4        ..      B        0xc8a ; DrvGPIO_InitFunction + 1354
        0x000008e0:    e1b3        ..      B        0xc4a ; DrvGPIO_InitFunction + 1290
        0x000008e2:    e1a6        ..      B        0xc32 ; DrvGPIO_InitFunction + 1266
        0x000008e4:    e165        e.      B        0xbb2 ; DrvGPIO_InitFunction + 1138
        0x000008e6:    e163        c.      B        0xbb0 ; DrvGPIO_InitFunction + 1136
        0x000008e8:    e161        a.      B        0xbae ; DrvGPIO_InitFunction + 1134
        0x000008ea:    e15f        _.      B        0xbac ; DrvGPIO_InitFunction + 1132
        0x000008ec:    e15d        ].      B        0xbaa ; DrvGPIO_InitFunction + 1130
        0x000008ee:    e15b        [.      B        0xba8 ; DrvGPIO_InitFunction + 1128
        0x000008f0:    e14a        J.      B        0xb88 ; DrvGPIO_InitFunction + 1096
        0x000008f2:    e137        7.      B        0xb64 ; DrvGPIO_InitFunction + 1060
        0x000008f4:    e129        ).      B        0xb4a ; DrvGPIO_InitFunction + 1034
        0x000008f6:    e117        ..      B        0xb28 ; DrvGPIO_InitFunction + 1000
        0x000008f8:    e106        ..      B        0xb08 ; DrvGPIO_InitFunction + 968
        0x000008fa:    e0f5        ..      B        0xae8 ; DrvGPIO_InitFunction + 936
        0x000008fc:    e0e4        ..      B        0xac8 ; DrvGPIO_InitFunction + 904
        0x000008fe:    e0d9        ..      B        0xab4 ; DrvGPIO_InitFunction + 884
        0x00000900:    e0cc        ..      B        0xa9c ; DrvGPIO_InitFunction + 860
        0x00000902:    e0c4        ..      B        0xa8e ; DrvGPIO_InitFunction + 846
        0x00000904:    e0a3        ..      B        0xa4e ; DrvGPIO_InitFunction + 782
        0x00000906:    e0ae        ..      B        0xa66 ; DrvGPIO_InitFunction + 806
        0x00000908:    e0ac        ..      B        0xa64 ; DrvGPIO_InitFunction + 804
        0x0000090a:    e0aa        ..      B        0xa62 ; DrvGPIO_InitFunction + 802
        0x0000090c:    e0a8        ..      B        0xa60 ; DrvGPIO_InitFunction + 800
        0x0000090e:    e0a6        ..      B        0xa5e ; DrvGPIO_InitFunction + 798
        0x00000910:    e0a4        ..      B        0xa5c ; DrvGPIO_InitFunction + 796
        0x00000912:    e0b0        ..      B        0xa76 ; DrvGPIO_InitFunction + 822
        0x00000914:    e092        ..      B        0xa3c ; DrvGPIO_InitFunction + 764
        0x00000916:    e088        ..      B        0xa2a ; DrvGPIO_InitFunction + 746
        0x00000918:    e07e        ~.      B        0xa18 ; DrvGPIO_InitFunction + 728
        0x0000091a:    e073        s.      B        0xa04 ; DrvGPIO_InitFunction + 708
        0x0000091c:    e062        b.      B        0x9e4 ; DrvGPIO_InitFunction + 676
        0x0000091e:    e057        W.      B        0x9d0 ; DrvGPIO_InitFunction + 656
        0x00000920:    e04d        M.      B        0x9be ; DrvGPIO_InitFunction + 638
        0x00000922:    e037        7.      B        0x994 ; DrvGPIO_InitFunction + 596
        0x00000924:    e02d        -.      B        0x982 ; DrvGPIO_InitFunction + 578
        0x00000926:    e022        ".      B        0x96e ; DrvGPIO_InitFunction + 558
        0x00000928:    e011        ..      B        0x94e ; DrvGPIO_InitFunction + 526
        0x0000092a:    e7ff        ..      B        0x92c ; DrvGPIO_InitFunction + 492
        0x0000092c:    2005        .       MOVS     r0,#5
        0x0000092e:    0700        ..      LSLS     r0,r0,#28
        0x00000930:    6b80        .k      LDR      r0,[r0,#0x38]
        0x00000932:    230f        .#      MOVS     r3,#0xf
        0x00000934:    021b        ..      LSLS     r3,r3,#8
        0x00000936:    4318        .C      ORRS     r0,r0,r3
        0x00000938:    2305        .#      MOVS     r3,#5
        0x0000093a:    071b        ..      LSLS     r3,r3,#28
        0x0000093c:    6398        .c      STR      r0,[r3,#0x38]
        0x0000093e:    4891        .H      LDR      r0,[pc,#580] ; [0xb84] = 0x50000040
        0x00000940:    6900        .i      LDR      r0,[r0,#0x10]
        0x00000942:    2301        .#      MOVS     r3,#1
        0x00000944:    02db        ..      LSLS     r3,r3,#11
        0x00000946:    4398        .C      BICS     r0,r0,r3
        0x00000948:    4b8e        .K      LDR      r3,[pc,#568] ; [0xb84] = 0x50000040
        0x0000094a:    6118        .a      STR      r0,[r3,#0x10]
        0x0000094c:    e299        ..      B        0xe82 ; DrvGPIO_InitFunction + 1858
        0x0000094e:    2005        .       MOVS     r0,#5
        0x00000950:    0700        ..      LSLS     r0,r0,#28
        0x00000952:    6b40        @k      LDR      r0,[r0,#0x34]
        0x00000954:    2301        .#      MOVS     r3,#1
        0x00000956:    025b        [.      LSLS     r3,r3,#9
        0x00000958:    4318        .C      ORRS     r0,r0,r3
        0x0000095a:    2305        .#      MOVS     r3,#5
        0x0000095c:    071b        ..      LSLS     r3,r3,#28
        0x0000095e:    6358        Xc      STR      r0,[r3,#0x34]
        0x00000960:    4888        .H      LDR      r0,[pc,#544] ; [0xb84] = 0x50000040
        0x00000962:    6900        .i      LDR      r0,[r0,#0x10]
        0x00000964:    2302        .#      MOVS     r3,#2
        0x00000966:    4318        .C      ORRS     r0,r0,r3
        0x00000968:    4b86        .K      LDR      r3,[pc,#536] ; [0xb84] = 0x50000040
        0x0000096a:    6118        .a      STR      r0,[r3,#0x10]
        0x0000096c:    e289        ..      B        0xe82 ; DrvGPIO_InitFunction + 1858
        0x0000096e:    2005        .       MOVS     r0,#5
        0x00000970:    0700        ..      LSLS     r0,r0,#28
        0x00000972:    6b80        .k      LDR      r0,[r0,#0x38]
        0x00000974:    2303        .#      MOVS     r3,#3
        0x00000976:    031b        ..      LSLS     r3,r3,#12
        0x00000978:    4318        .C      ORRS     r0,r0,r3
        0x0000097a:    2305        .#      MOVS     r3,#5
        0x0000097c:    071b        ..      LSLS     r3,r3,#28
        0x0000097e:    6398        .c      STR      r0,[r3,#0x38]
        0x00000980:    e27f        ..      B        0xe82 ; DrvGPIO_InitFunction + 1858
        0x00000982:    2005        .       MOVS     r0,#5
        0x00000984:    0700        ..      LSLS     r0,r0,#28
        0x00000986:    6bc0        .k      LDR      r0,[r0,#0x3c]
        0x00000988:    230f        .#      MOVS     r3,#0xf
        0x0000098a:    4318        .C      ORRS     r0,r0,r3
        0x0000098c:    2305        .#      MOVS     r3,#5
        0x0000098e:    071b        ..      LSLS     r3,r3,#28
        0x00000990:    63d8        .c      STR      r0,[r3,#0x3c]
        0x00000992:    e276        v.      B        0xe82 ; DrvGPIO_InitFunction + 1858
        0x00000994:    2005        .       MOVS     r0,#5
        0x00000996:    0700        ..      LSLS     r0,r0,#28
        0x00000998:    6b00        .k      LDR      r0,[r0,#0x30]
        0x0000099a:    2380        .#      MOVS     r3,#0x80
        0x0000099c:    4318        .C      ORRS     r0,r0,r3
        0x0000099e:    2305        .#      MOVS     r3,#5
        0x000009a0:    071b        ..      LSLS     r3,r3,#28
        0x000009a2:    6318        .c      STR      r0,[r3,#0x30]
        0x000009a4:    4877        wH      LDR      r0,[pc,#476] ; [0xb84] = 0x50000040
        0x000009a6:    6900        .i      LDR      r0,[r0,#0x10]
        0x000009a8:    2304        .#      MOVS     r3,#4
        0x000009aa:    4318        .C      ORRS     r0,r0,r3
        0x000009ac:    4b75        uK      LDR      r3,[pc,#468] ; [0xb84] = 0x50000040
        0x000009ae:    6118        .a      STR      r0,[r3,#0x10]
        0x000009b0:    4618        .F      MOV      r0,r3
        0x000009b2:    6900        .i      LDR      r0,[r0,#0x10]
        0x000009b4:    015b        [.      LSLS     r3,r3,#5
        0x000009b6:    4398        .C      BICS     r0,r0,r3
        0x000009b8:    4b72        rK      LDR      r3,[pc,#456] ; [0xb84] = 0x50000040
        0x000009ba:    6118        .a      STR      r0,[r3,#0x10]
        0x000009bc:    e261        a.      B        0xe82 ; DrvGPIO_InitFunction + 1858
        0x000009be:    2005        .       MOVS     r0,#5
        0x000009c0:    0700        ..      LSLS     r0,r0,#28
        0x000009c2:    6bc0        .k      LDR      r0,[r0,#0x3c]
        0x000009c4:    2330        0#      MOVS     r3,#0x30
        0x000009c6:    4318        .C      ORRS     r0,r0,r3
        0x000009c8:    2305        .#      MOVS     r3,#5
        0x000009ca:    071b        ..      LSLS     r3,r3,#28
        0x000009cc:    63d8        .c      STR      r0,[r3,#0x3c]
        0x000009ce:    e258        X.      B        0xe82 ; DrvGPIO_InitFunction + 1858
        0x000009d0:    2005        .       MOVS     r0,#5
        0x000009d2:    0700        ..      LSLS     r0,r0,#28
        0x000009d4:    6bc0        .k      LDR      r0,[r0,#0x3c]
        0x000009d6:    230f        .#      MOVS     r3,#0xf
        0x000009d8:    021b        ..      LSLS     r3,r3,#8
        0x000009da:    4318        .C      ORRS     r0,r0,r3
        0x000009dc:    2305        .#      MOVS     r3,#5
        0x000009de:    071b        ..      LSLS     r3,r3,#28
        0x000009e0:    63d8        .c      STR      r0,[r3,#0x3c]
        0x000009e2:    e24e        N.      B        0xe82 ; DrvGPIO_InitFunction + 1858
        0x000009e4:    2005        .       MOVS     r0,#5
        0x000009e6:    0700        ..      LSLS     r0,r0,#28
        0x000009e8:    6b40        @k      LDR      r0,[r0,#0x34]
        0x000009ea:    2301        .#      MOVS     r3,#1
        0x000009ec:    039b        ..      LSLS     r3,r3,#14
        0x000009ee:    4318        .C      ORRS     r0,r0,r3
        0x000009f0:    2305        .#      MOVS     r3,#5
        0x000009f2:    071b        ..      LSLS     r3,r3,#28
        0x000009f4:    6358        Xc      STR      r0,[r3,#0x34]
        0x000009f6:    4863        cH      LDR      r0,[pc,#396] ; [0xb84] = 0x50000040
        0x000009f8:    6900        .i      LDR      r0,[r0,#0x10]
        0x000009fa:    2308        .#      MOVS     r3,#8
        0x000009fc:    4318        .C      ORRS     r0,r0,r3
        0x000009fe:    4b61        aK      LDR      r3,[pc,#388] ; [0xb84] = 0x50000040
        0x00000a00:    6118        .a      STR      r0,[r3,#0x10]
        0x00000a02:    e23e        >.      B        0xe82 ; DrvGPIO_InitFunction + 1858
        0x00000a04:    2005        .       MOVS     r0,#5
        0x00000a06:    0700        ..      LSLS     r0,r0,#28
        0x00000a08:    6bc0        .k      LDR      r0,[r0,#0x3c]
        0x00000a0a:    2303        .#      MOVS     r3,#3
        0x00000a0c:    031b        ..      LSLS     r3,r3,#12
        0x00000a0e:    4318        .C      ORRS     r0,r0,r3
        0x00000a10:    2305        .#      MOVS     r3,#5
        0x00000a12:    071b        ..      LSLS     r3,r3,#28
        0x00000a14:    63d8        .c      STR      r0,[r3,#0x3c]
        0x00000a16:    e234        4.      B        0xe82 ; DrvGPIO_InitFunction + 1858
        0x00000a18:    2005        .       MOVS     r0,#5
        0x00000a1a:    0700        ..      LSLS     r0,r0,#28
        0x00000a1c:    6b80        .k      LDR      r0,[r0,#0x38]
        0x00000a1e:    230f        .#      MOVS     r3,#0xf
        0x00000a20:    4318        .C      ORRS     r0,r0,r3
        0x00000a22:    2305        .#      MOVS     r3,#5
        0x00000a24:    071b        ..      LSLS     r3,r3,#28
        0x00000a26:    6398        .c      STR      r0,[r3,#0x38]
        0x00000a28:    e22b        +.      B        0xe82 ; DrvGPIO_InitFunction + 1858
        0x00000a2a:    2005        .       MOVS     r0,#5
        0x00000a2c:    0700        ..      LSLS     r0,r0,#28
        0x00000a2e:    6bc0        .k      LDR      r0,[r0,#0x3c]
        0x00000a30:    2302        .#      MOVS     r3,#2
        0x00000a32:    4318        .C      ORRS     r0,r0,r3
        0x00000a34:    2305        .#      MOVS     r3,#5
        0x00000a36:    071b        ..      LSLS     r3,r3,#28
        0x00000a38:    63d8        .c      STR      r0,[r3,#0x3c]
        0x00000a3a:    e222        ".      B        0xe82 ; DrvGPIO_InitFunction + 1858
        0x00000a3c:    2005        .       MOVS     r0,#5
        0x00000a3e:    0700        ..      LSLS     r0,r0,#28
        0x00000a40:    6bc0        .k      LDR      r0,[r0,#0x3c]
        0x00000a42:    2304        .#      MOVS     r3,#4
        0x00000a44:    4318        .C      ORRS     r0,r0,r3
        0x00000a46:    2305        .#      MOVS     r3,#5
        0x00000a48:    071b        ..      LSLS     r3,r3,#28
        0x00000a4a:    63d8        .c      STR      r0,[r3,#0x3c]
        0x00000a4c:    e219        ..      B        0xe82 ; DrvGPIO_InitFunction + 1858
        0x00000a4e:    484d        MH      LDR      r0,[pc,#308] ; [0xb84] = 0x50000040
        0x00000a50:    6900        .i      LDR      r0,[r0,#0x10]
        0x00000a52:    2304        .#      MOVS     r3,#4
        0x00000a54:    4398        .C      BICS     r0,r0,r3
        0x00000a56:    4b4b        KK      LDR      r3,[pc,#300] ; [0xb84] = 0x50000040
        0x00000a58:    6118        .a      STR      r0,[r3,#0x10]
        0x00000a5a:    bf00        ..      NOP      
        0x00000a5c:    bf00        ..      NOP      
        0x00000a5e:    bf00        ..      NOP      
        0x00000a60:    bf00        ..      NOP      
        0x00000a62:    bf00        ..      NOP      
        0x00000a64:    bf00        ..      NOP      
        0x00000a66:    4847        GH      LDR      r0,[pc,#284] ; [0xb84] = 0x50000040
        0x00000a68:    6900        .i      LDR      r0,[r0,#0x10]
        0x00000a6a:    2301        .#      MOVS     r3,#1
        0x00000a6c:    02db        ..      LSLS     r3,r3,#11
        0x00000a6e:    4398        .C      BICS     r0,r0,r3
        0x00000a70:    4b44        DK      LDR      r3,[pc,#272] ; [0xb84] = 0x50000040
        0x00000a72:    6118        .a      STR      r0,[r3,#0x10]
        0x00000a74:    bf00        ..      NOP      
        0x00000a76:    2005        .       MOVS     r0,#5
        0x00000a78:    0700        ..      LSLS     r0,r0,#28
        0x00000a7a:    6b00        .k      LDR      r0,[r0,#0x30]
        0x00000a7c:    460b        .F      MOV      r3,r1
        0x00000a7e:    3b17        .;      SUBS     r3,r3,#0x17
        0x00000a80:    2401        .$      MOVS     r4,#1
        0x00000a82:    409c        .@      LSLS     r4,r4,r3
        0x00000a84:    4320         C      ORRS     r0,r0,r4
        0x00000a86:    2305        .#      MOVS     r3,#5
        0x00000a88:    071b        ..      LSLS     r3,r3,#28
        0x00000a8a:    6318        .c      STR      r0,[r3,#0x30]
        0x00000a8c:    e1f9        ..      B        0xe82 ; DrvGPIO_InitFunction + 1858
        0x00000a8e:    483d        =H      LDR      r0,[pc,#244] ; [0xb84] = 0x50000040
        0x00000a90:    6900        .i      LDR      r0,[r0,#0x10]
        0x00000a92:    2308        .#      MOVS     r3,#8
        0x00000a94:    4398        .C      BICS     r0,r0,r3
        0x00000a96:    4b3b        ;K      LDR      r3,[pc,#236] ; [0xb84] = 0x50000040
        0x00000a98:    6118        .a      STR      r0,[r3,#0x10]
        0x00000a9a:    bf00        ..      NOP      
        0x00000a9c:    2005        .       MOVS     r0,#5
        0x00000a9e:    0700        ..      LSLS     r0,r0,#28
        0x00000aa0:    6b43        Ck      LDR      r3,[r0,#0x34]
        0x00000aa2:    4608        .F      MOV      r0,r1
        0x00000aa4:    3811        .8      SUBS     r0,r0,#0x11
        0x00000aa6:    2401        .$      MOVS     r4,#1
        0x00000aa8:    4084        .@      LSLS     r4,r4,r0
        0x00000aaa:    4323        #C      ORRS     r3,r3,r4
        0x00000aac:    2005        .       MOVS     r0,#5
        0x00000aae:    0700        ..      LSLS     r0,r0,#28
        0x00000ab0:    6343        Cc      STR      r3,[r0,#0x34]
        0x00000ab2:    e1e6        ..      B        0xe82 ; DrvGPIO_InitFunction + 1858
        0x00000ab4:    2005        .       MOVS     r0,#5
        0x00000ab6:    0700        ..      LSLS     r0,r0,#28
        0x00000ab8:    6b40        @k      LDR      r0,[r0,#0x34]
        0x00000aba:    23ff        .#      MOVS     r3,#0xff
        0x00000abc:    3301        .3      ADDS     r3,#1
        0x00000abe:    4318        .C      ORRS     r0,r0,r3
        0x00000ac0:    2305        .#      MOVS     r3,#5
        0x00000ac2:    071b        ..      LSLS     r3,r3,#28
        0x00000ac4:    6358        Xc      STR      r0,[r3,#0x34]
        0x00000ac6:    e1dc        ..      B        0xe82 ; DrvGPIO_InitFunction + 1858
        0x00000ac8:    2005        .       MOVS     r0,#5
        0x00000aca:    0700        ..      LSLS     r0,r0,#28
        0x00000acc:    6b40        @k      LDR      r0,[r0,#0x34]
        0x00000ace:    2301        .#      MOVS     r3,#1
        0x00000ad0:    025b        [.      LSLS     r3,r3,#9
        0x00000ad2:    4318        .C      ORRS     r0,r0,r3
        0x00000ad4:    2305        .#      MOVS     r3,#5
        0x00000ad6:    071b        ..      LSLS     r3,r3,#28
        0x00000ad8:    6358        Xc      STR      r0,[r3,#0x34]
        0x00000ada:    482a        *H      LDR      r0,[pc,#168] ; [0xb84] = 0x50000040
        0x00000adc:    6900        .i      LDR      r0,[r0,#0x10]
        0x00000ade:    2302        .#      MOVS     r3,#2
        0x00000ae0:    4398        .C      BICS     r0,r0,r3
        0x00000ae2:    4b28        (K      LDR      r3,[pc,#160] ; [0xb84] = 0x50000040
        0x00000ae4:    6118        .a      STR      r0,[r3,#0x10]
        0x00000ae6:    e1cc        ..      B        0xe82 ; DrvGPIO_InitFunction + 1858
        0x00000ae8:    2005        .       MOVS     r0,#5
        0x00000aea:    0700        ..      LSLS     r0,r0,#28
        0x00000aec:    6b40        @k      LDR      r0,[r0,#0x34]
        0x00000aee:    2301        .#      MOVS     r3,#1
        0x00000af0:    029b        ..      LSLS     r3,r3,#10
        0x00000af2:    4318        .C      ORRS     r0,r0,r3
        0x00000af4:    2305        .#      MOVS     r3,#5
        0x00000af6:    071b        ..      LSLS     r3,r3,#28
        0x00000af8:    6358        Xc      STR      r0,[r3,#0x34]
        0x00000afa:    4822        "H      LDR      r0,[pc,#136] ; [0xb84] = 0x50000040
        0x00000afc:    6900        .i      LDR      r0,[r0,#0x10]
        0x00000afe:    0840        @.      LSRS     r0,r0,#1
        0x00000b00:    0040        @.      LSLS     r0,r0,#1
        0x00000b02:    4b20         K      LDR      r3,[pc,#128] ; [0xb84] = 0x50000040
        0x00000b04:    6118        .a      STR      r0,[r3,#0x10]
        0x00000b06:    e1bc        ..      B        0xe82 ; DrvGPIO_InitFunction + 1858
        0x00000b08:    2005        .       MOVS     r0,#5
        0x00000b0a:    0700        ..      LSLS     r0,r0,#28
        0x00000b0c:    6b40        @k      LDR      r0,[r0,#0x34]
        0x00000b0e:    2301        .#      MOVS     r3,#1
        0x00000b10:    02db        ..      LSLS     r3,r3,#11
        0x00000b12:    4318        .C      ORRS     r0,r0,r3
        0x00000b14:    2305        .#      MOVS     r3,#5
        0x00000b16:    071b        ..      LSLS     r3,r3,#28
        0x00000b18:    6358        Xc      STR      r0,[r3,#0x34]
        0x00000b1a:    481a        .H      LDR      r0,[pc,#104] ; [0xb84] = 0x50000040
        0x00000b1c:    6900        .i      LDR      r0,[r0,#0x10]
        0x00000b1e:    2310        .#      MOVS     r3,#0x10
        0x00000b20:    4398        .C      BICS     r0,r0,r3
        0x00000b22:    4b18        .K      LDR      r3,[pc,#96] ; [0xb84] = 0x50000040
        0x00000b24:    6118        .a      STR      r0,[r3,#0x10]
        0x00000b26:    e1ac        ..      B        0xe82 ; DrvGPIO_InitFunction + 1858
        0x00000b28:    2005        .       MOVS     r0,#5
        0x00000b2a:    0700        ..      LSLS     r0,r0,#28
        0x00000b2c:    6b40        @k      LDR      r0,[r0,#0x34]
        0x00000b2e:    2301        .#      MOVS     r3,#1
        0x00000b30:    03db        ..      LSLS     r3,r3,#15
        0x00000b32:    4318        .C      ORRS     r0,r0,r3
        0x00000b34:    2305        .#      MOVS     r3,#5
        0x00000b36:    071b        ..      LSLS     r3,r3,#28
        0x00000b38:    6358        Xc      STR      r0,[r3,#0x34]
        0x00000b3a:    4812        .H      LDR      r0,[pc,#72] ; [0xb84] = 0x50000040
        0x00000b3c:    6900        .i      LDR      r0,[r0,#0x10]
        0x00000b3e:    2301        .#      MOVS     r3,#1
        0x00000b40:    061b        ..      LSLS     r3,r3,#24
        0x00000b42:    4318        .C      ORRS     r0,r0,r3
        0x00000b44:    4b0f        .K      LDR      r3,[pc,#60] ; [0xb84] = 0x50000040
        0x00000b46:    6118        .a      STR      r0,[r3,#0x10]
        0x00000b48:    e19b        ..      B        0xe82 ; DrvGPIO_InitFunction + 1858
        0x00000b4a:    480e        .H      LDR      r0,[pc,#56] ; [0xb84] = 0x50000040
        0x00000b4c:    6800        .h      LDR      r0,[r0,#0]
        0x00000b4e:    2320         #      MOVS     r3,#0x20
        0x00000b50:    4318        .C      ORRS     r0,r0,r3
        0x00000b52:    4b0c        .K      LDR      r3,[pc,#48] ; [0xb84] = 0x50000040
        0x00000b54:    6018        .`      STR      r0,[r3,#0]
        0x00000b56:    4618        .F      MOV      r0,r3
        0x00000b58:    6900        .i      LDR      r0,[r0,#0x10]
        0x00000b5a:    04db        ..      LSLS     r3,r3,#19
        0x00000b5c:    4318        .C      ORRS     r0,r0,r3
        0x00000b5e:    4b09        .K      LDR      r3,[pc,#36] ; [0xb84] = 0x50000040
        0x00000b60:    6118        .a      STR      r0,[r3,#0x10]
        0x00000b62:    e18e        ..      B        0xe82 ; DrvGPIO_InitFunction + 1858
        0x00000b64:    2005        .       MOVS     r0,#5
        0x00000b66:    0700        ..      LSLS     r0,r0,#28
        0x00000b68:    6b40        @k      LDR      r0,[r0,#0x34]
        0x00000b6a:    2304        .#      MOVS     r3,#4
        0x00000b6c:    4318        .C      ORRS     r0,r0,r3
        0x00000b6e:    2305        .#      MOVS     r3,#5
        0x00000b70:    071b        ..      LSLS     r3,r3,#28
        0x00000b72:    6358        Xc      STR      r0,[r3,#0x34]
        0x00000b74:    4803        .H      LDR      r0,[pc,#12] ; [0xb84] = 0x50000040
        0x00000b76:    6900        .i      LDR      r0,[r0,#0x10]
        0x00000b78:    2301        .#      MOVS     r3,#1
        0x00000b7a:    069b        ..      LSLS     r3,r3,#26
        0x00000b7c:    4318        .C      ORRS     r0,r0,r3
        0x00000b7e:    4b01        .K      LDR      r3,[pc,#4] ; [0xb84] = 0x50000040
        0x00000b80:    6118        .a      STR      r0,[r3,#0x10]
        0x00000b82:    e17e        ~.      B        0xe82 ; DrvGPIO_InitFunction + 1858
    $d
        0x00000b84:    50000040    @..P    DCD    1342177344
    $t
        0x00000b88:    2005        .       MOVS     r0,#5
        0x00000b8a:    0700        ..      LSLS     r0,r0,#28
        0x00000b8c:    6b40        @k      LDR      r0,[r0,#0x34]
        0x00000b8e:    2308        .#      MOVS     r3,#8
        0x00000b90:    4318        .C      ORRS     r0,r0,r3
        0x00000b92:    2305        .#      MOVS     r3,#5
        0x00000b94:    071b        ..      LSLS     r3,r3,#28
        0x00000b96:    6358        Xc      STR      r0,[r3,#0x34]
        0x00000b98:    48bb        .H      LDR      r0,[pc,#748] ; [0xe88] = 0x50000040
        0x00000b9a:    6900        .i      LDR      r0,[r0,#0x10]
        0x00000b9c:    2301        .#      MOVS     r3,#1
        0x00000b9e:    06db        ..      LSLS     r3,r3,#27
        0x00000ba0:    4318        .C      ORRS     r0,r0,r3
        0x00000ba2:    4bb9        .K      LDR      r3,[pc,#740] ; [0xe88] = 0x50000040
        0x00000ba4:    6118        .a      STR      r0,[r3,#0x10]
        0x00000ba6:    e16c        l.      B        0xe82 ; DrvGPIO_InitFunction + 1858
        0x00000ba8:    bf00        ..      NOP      
        0x00000baa:    bf00        ..      NOP      
        0x00000bac:    bf00        ..      NOP      
        0x00000bae:    bf00        ..      NOP      
        0x00000bb0:    bf00        ..      NOP      
        0x00000bb2:    2929        ))      CMP      r1,#0x29
        0x00000bb4:    db03        ..      BLT      0xbbe ; DrvGPIO_InitFunction + 1150
        0x00000bb6:    292b        +)      CMP      r1,#0x2b
        0x00000bb8:    dc01        ..      BGT      0xbbe ; DrvGPIO_InitFunction + 1150
        0x00000bba:    2200        ."      MOVS     r2,#0
        0x00000bbc:    e000        ..      B        0xbc0 ; DrvGPIO_InitFunction + 1152
        0x00000bbe:    2204        ."      MOVS     r2,#4
        0x00000bc0:    2929        ))      CMP      r1,#0x29
        0x00000bc2:    d001        ..      BEQ      0xbc8 ; DrvGPIO_InitFunction + 1160
        0x00000bc4:    292c        ,)      CMP      r1,#0x2c
        0x00000bc6:    d110        ..      BNE      0xbea ; DrvGPIO_InitFunction + 1194
        0x00000bc8:    2005        .       MOVS     r0,#5
        0x00000bca:    0700        ..      LSLS     r0,r0,#28
        0x00000bcc:    6b40        @k      LDR      r0,[r0,#0x34]
        0x00000bce:    230f        .#      MOVS     r3,#0xf
        0x00000bd0:    4093        .@      LSLS     r3,r3,r2
        0x00000bd2:    4318        .C      ORRS     r0,r0,r3
        0x00000bd4:    2305        .#      MOVS     r3,#5
        0x00000bd6:    071b        ..      LSLS     r3,r3,#28
        0x00000bd8:    6358        Xc      STR      r0,[r3,#0x34]
        0x00000bda:    48ab        .H      LDR      r0,[pc,#684] ; [0xe88] = 0x50000040
        0x00000bdc:    6900        .i      LDR      r0,[r0,#0x10]
        0x00000bde:    2301        .#      MOVS     r3,#1
        0x00000be0:    02db        ..      LSLS     r3,r3,#11
        0x00000be2:    4398        .C      BICS     r0,r0,r3
        0x00000be4:    4ba8        .K      LDR      r3,[pc,#672] ; [0xe88] = 0x50000040
        0x00000be6:    6118        .a      STR      r0,[r3,#0x10]
        0x00000be8:    e022        ".      B        0xc30 ; DrvGPIO_InitFunction + 1264
        0x00000bea:    292a        *)      CMP      r1,#0x2a
        0x00000bec:    d001        ..      BEQ      0xbf2 ; DrvGPIO_InitFunction + 1202
        0x00000bee:    292d        -)      CMP      r1,#0x2d
        0x00000bf0:    d109        ..      BNE      0xc06 ; DrvGPIO_InitFunction + 1222
        0x00000bf2:    2005        .       MOVS     r0,#5
        0x00000bf4:    0700        ..      LSLS     r0,r0,#28
        0x00000bf6:    6b40        @k      LDR      r0,[r0,#0x34]
        0x00000bf8:    2303        .#      MOVS     r3,#3
        0x00000bfa:    4093        .@      LSLS     r3,r3,r2
        0x00000bfc:    4318        .C      ORRS     r0,r0,r3
        0x00000bfe:    2305        .#      MOVS     r3,#5
        0x00000c00:    071b        ..      LSLS     r3,r3,#28
        0x00000c02:    6358        Xc      STR      r0,[r3,#0x34]
        0x00000c04:    e014        ..      B        0xc30 ; DrvGPIO_InitFunction + 1264
        0x00000c06:    292b        +)      CMP      r1,#0x2b
        0x00000c08:    d001        ..      BEQ      0xc0e ; DrvGPIO_InitFunction + 1230
        0x00000c0a:    292e        .)      CMP      r1,#0x2e
        0x00000c0c:    d110        ..      BNE      0xc30 ; DrvGPIO_InitFunction + 1264
        0x00000c0e:    2005        .       MOVS     r0,#5
        0x00000c10:    0700        ..      LSLS     r0,r0,#28
        0x00000c12:    6b40        @k      LDR      r0,[r0,#0x34]
        0x00000c14:    1c93        ..      ADDS     r3,r2,#2
        0x00000c16:    2403        .$      MOVS     r4,#3
        0x00000c18:    409c        .@      LSLS     r4,r4,r3
        0x00000c1a:    4320         C      ORRS     r0,r0,r4
        0x00000c1c:    2305        .#      MOVS     r3,#5
        0x00000c1e:    071b        ..      LSLS     r3,r3,#28
        0x00000c20:    6358        Xc      STR      r0,[r3,#0x34]
        0x00000c22:    4899        .H      LDR      r0,[pc,#612] ; [0xe88] = 0x50000040
        0x00000c24:    6900        .i      LDR      r0,[r0,#0x10]
        0x00000c26:    2301        .#      MOVS     r3,#1
        0x00000c28:    02db        ..      LSLS     r3,r3,#11
        0x00000c2a:    4398        .C      BICS     r0,r0,r3
        0x00000c2c:    4b96        .K      LDR      r3,[pc,#600] ; [0xe88] = 0x50000040
        0x00000c2e:    6118        .a      STR      r0,[r3,#0x10]
        0x00000c30:    e127        '.      B        0xe82 ; DrvGPIO_InitFunction + 1858
        0x00000c32:    2005        .       MOVS     r0,#5
        0x00000c34:    0700        ..      LSLS     r0,r0,#28
        0x00000c36:    6bc0        .k      LDR      r0,[r0,#0x3c]
        0x00000c38:    2303        .#      MOVS     r3,#3
        0x00000c3a:    039b        ..      LSLS     r3,r3,#14
        0x00000c3c:    4318        .C      ORRS     r0,r0,r3
        0x00000c3e:    2305        .#      MOVS     r3,#5
        0x00000c40:    071b        ..      LSLS     r3,r3,#28
        0x00000c42:    63d8        .c      STR      r0,[r3,#0x3c]
        0x00000c44:    e11d        ..      B        0xe82 ; DrvGPIO_InitFunction + 1858
        0x00000c46:    bf00        ..      NOP      
        0x00000c48:    bf00        ..      NOP      
        0x00000c4a:    2930        0)      CMP      r1,#0x30
        0x00000c4c:    d108        ..      BNE      0xc60 ; DrvGPIO_InitFunction + 1312
        0x00000c4e:    2005        .       MOVS     r0,#5
        0x00000c50:    0700        ..      LSLS     r0,r0,#28
        0x00000c52:    6b00        .k      LDR      r0,[r0,#0x30]
        0x00000c54:    020b        ..      LSLS     r3,r1,#8
        0x00000c56:    4318        .C      ORRS     r0,r0,r3
        0x00000c58:    2305        .#      MOVS     r3,#5
        0x00000c5a:    071b        ..      LSLS     r3,r3,#28
        0x00000c5c:    6318        .c      STR      r0,[r3,#0x30]
        0x00000c5e:    e00a        ..      B        0xc76 ; DrvGPIO_InitFunction + 1334
        0x00000c60:    2005        .       MOVS     r0,#5
        0x00000c62:    0700        ..      LSLS     r0,r0,#28
        0x00000c64:    6b03        .k      LDR      r3,[r0,#0x30]
        0x00000c66:    4608        .F      MOV      r0,r1
        0x00000c68:    3828        (8      SUBS     r0,r0,#0x28
        0x00000c6a:    2401        .$      MOVS     r4,#1
        0x00000c6c:    4084        .@      LSLS     r4,r4,r0
        0x00000c6e:    4323        #C      ORRS     r3,r3,r4
        0x00000c70:    2005        .       MOVS     r0,#5
        0x00000c72:    0700        ..      LSLS     r0,r0,#28
        0x00000c74:    6303        .c      STR      r3,[r0,#0x30]
        0x00000c76:    4884        .H      LDR      r0,[pc,#528] ; [0xe88] = 0x50000040
        0x00000c78:    6900        .i      LDR      r0,[r0,#0x10]
        0x00000c7a:    2301        .#      MOVS     r3,#1
        0x00000c7c:    02db        ..      LSLS     r3,r3,#11
        0x00000c7e:    4398        .C      BICS     r0,r0,r3
        0x00000c80:    4b81        .K      LDR      r3,[pc,#516] ; [0xe88] = 0x50000040
        0x00000c82:    6118        .a      STR      r0,[r3,#0x10]
        0x00000c84:    e0fd        ..      B        0xe82 ; DrvGPIO_InitFunction + 1858
        0x00000c86:    bf00        ..      NOP      
        0x00000c88:    bf00        ..      NOP      
        0x00000c8a:    2931        1)      CMP      r1,#0x31
        0x00000c8c:    d116        ..      BNE      0xcbc ; DrvGPIO_InitFunction + 1404
        0x00000c8e:    2005        .       MOVS     r0,#5
        0x00000c90:    0700        ..      LSLS     r0,r0,#28
        0x00000c92:    6b00        .k      LDR      r0,[r0,#0x30]
        0x00000c94:    2303        .#      MOVS     r3,#3
        0x00000c96:    039b        ..      LSLS     r3,r3,#14
        0x00000c98:    4318        .C      ORRS     r0,r0,r3
        0x00000c9a:    2305        .#      MOVS     r3,#5
        0x00000c9c:    071b        ..      LSLS     r3,r3,#28
        0x00000c9e:    6318        .c      STR      r0,[r3,#0x30]
        0x00000ca0:    4879        yH      LDR      r0,[pc,#484] ; [0xe88] = 0x50000040
        0x00000ca2:    6900        .i      LDR      r0,[r0,#0x10]
        0x00000ca4:    2301        .#      MOVS     r3,#1
        0x00000ca6:    025b        [.      LSLS     r3,r3,#9
        0x00000ca8:    4398        .C      BICS     r0,r0,r3
        0x00000caa:    4b77        wK      LDR      r3,[pc,#476] ; [0xe88] = 0x50000040
        0x00000cac:    6118        .a      STR      r0,[r3,#0x10]
        0x00000cae:    4618        .F      MOV      r0,r3
        0x00000cb0:    6900        .i      LDR      r0,[r0,#0x10]
        0x00000cb2:    015b        [.      LSLS     r3,r3,#5
        0x00000cb4:    4398        .C      BICS     r0,r0,r3
        0x00000cb6:    4b74        tK      LDR      r3,[pc,#464] ; [0xe88] = 0x50000040
        0x00000cb8:    6118        .a      STR      r0,[r3,#0x10]
        0x00000cba:    e01b        ..      B        0xcf4 ; DrvGPIO_InitFunction + 1460
        0x00000cbc:    2005        .       MOVS     r0,#5
        0x00000cbe:    0700        ..      LSLS     r0,r0,#28
        0x00000cc0:    6b03        .k      LDR      r3,[r0,#0x30]
        0x00000cc2:    4608        .F      MOV      r0,r1
        0x00000cc4:    3828        (8      SUBS     r0,r0,#0x28
        0x00000cc6:    2401        .$      MOVS     r4,#1
        0x00000cc8:    4084        .@      LSLS     r4,r4,r0
        0x00000cca:    4323        #C      ORRS     r3,r3,r4
        0x00000ccc:    2005        .       MOVS     r0,#5
        0x00000cce:    0700        ..      LSLS     r0,r0,#28
        0x00000cd0:    6303        .c      STR      r3,[r0,#0x30]
        0x00000cd2:    2936        6)      CMP      r1,#0x36
        0x00000cd4:    d107        ..      BNE      0xce6 ; DrvGPIO_InitFunction + 1446
        0x00000cd6:    486c        lH      LDR      r0,[pc,#432] ; [0xe88] = 0x50000040
        0x00000cd8:    6900        .i      LDR      r0,[r0,#0x10]
        0x00000cda:    2301        .#      MOVS     r3,#1
        0x00000cdc:    02db        ..      LSLS     r3,r3,#11
        0x00000cde:    4398        .C      BICS     r0,r0,r3
        0x00000ce0:    4b69        iK      LDR      r3,[pc,#420] ; [0xe88] = 0x50000040
        0x00000ce2:    6118        .a      STR      r0,[r3,#0x10]
        0x00000ce4:    e006        ..      B        0xcf4 ; DrvGPIO_InitFunction + 1460
        0x00000ce6:    4868        hH      LDR      r0,[pc,#416] ; [0xe88] = 0x50000040
        0x00000ce8:    6900        .i      LDR      r0,[r0,#0x10]
        0x00000cea:    2301        .#      MOVS     r3,#1
        0x00000cec:    025b        [.      LSLS     r3,r3,#9
        0x00000cee:    4398        .C      BICS     r0,r0,r3
        0x00000cf0:    4b65        eK      LDR      r3,[pc,#404] ; [0xe88] = 0x50000040
        0x00000cf2:    6118        .a      STR      r0,[r3,#0x10]
        0x00000cf4:    e0c5        ..      B        0xe82 ; DrvGPIO_InitFunction + 1858
        0x00000cf6:    bf00        ..      NOP      
        0x00000cf8:    bf00        ..      NOP      
        0x00000cfa:    2932        2)      CMP      r1,#0x32
        0x00000cfc:    d115        ..      BNE      0xd2a ; DrvGPIO_InitFunction + 1514
        0x00000cfe:    2005        .       MOVS     r0,#5
        0x00000d00:    0700        ..      LSLS     r0,r0,#28
        0x00000d02:    6b40        @k      LDR      r0,[r0,#0x34]
        0x00000d04:    2301        .#      MOVS     r3,#1
        0x00000d06:    02db        ..      LSLS     r3,r3,#11
        0x00000d08:    4318        .C      ORRS     r0,r0,r3
        0x00000d0a:    2305        .#      MOVS     r3,#5
        0x00000d0c:    071b        ..      LSLS     r3,r3,#28
        0x00000d0e:    6358        Xc      STR      r0,[r3,#0x34]
        0x00000d10:    485d        ]H      LDR      r0,[pc,#372] ; [0xe88] = 0x50000040
        0x00000d12:    6900        .i      LDR      r0,[r0,#0x10]
        0x00000d14:    2310        .#      MOVS     r3,#0x10
        0x00000d16:    4318        .C      ORRS     r0,r0,r3
        0x00000d18:    4b5b        [K      LDR      r3,[pc,#364] ; [0xe88] = 0x50000040
        0x00000d1a:    6118        .a      STR      r0,[r3,#0x10]
        0x00000d1c:    4618        .F      MOV      r0,r3
        0x00000d1e:    6800        .h      LDR      r0,[r0,#0]
        0x00000d20:    2320         #      MOVS     r3,#0x20
        0x00000d22:    4318        .C      ORRS     r0,r0,r3
        0x00000d24:    4b58        XK      LDR      r3,[pc,#352] ; [0xe88] = 0x50000040
        0x00000d26:    6018        .`      STR      r0,[r3,#0]
        0x00000d28:    e017        ..      B        0xd5a ; DrvGPIO_InitFunction + 1562
        0x00000d2a:    2938        8)      CMP      r1,#0x38
        0x00000d2c:    d10f        ..      BNE      0xd4e ; DrvGPIO_InitFunction + 1550
        0x00000d2e:    2005        .       MOVS     r0,#5
        0x00000d30:    0700        ..      LSLS     r0,r0,#28
        0x00000d32:    6b40        @k      LDR      r0,[r0,#0x34]
        0x00000d34:    2301        .#      MOVS     r3,#1
        0x00000d36:    02db        ..      LSLS     r3,r3,#11
        0x00000d38:    4318        .C      ORRS     r0,r0,r3
        0x00000d3a:    2305        .#      MOVS     r3,#5
        0x00000d3c:    071b        ..      LSLS     r3,r3,#28
        0x00000d3e:    6358        Xc      STR      r0,[r3,#0x34]
        0x00000d40:    4851        QH      LDR      r0,[pc,#324] ; [0xe88] = 0x50000040
        0x00000d42:    6900        .i      LDR      r0,[r0,#0x10]
        0x00000d44:    2310        .#      MOVS     r3,#0x10
        0x00000d46:    4318        .C      ORRS     r0,r0,r3
        0x00000d48:    4b4f        OK      LDR      r3,[pc,#316] ; [0xe88] = 0x50000040
        0x00000d4a:    6118        .a      STR      r0,[r3,#0x10]
        0x00000d4c:    e005        ..      B        0xd5a ; DrvGPIO_InitFunction + 1562
        0x00000d4e:    484e        NH      LDR      r0,[pc,#312] ; [0xe88] = 0x50000040
        0x00000d50:    6800        .h      LDR      r0,[r0,#0]
        0x00000d52:    2320         #      MOVS     r3,#0x20
        0x00000d54:    4318        .C      ORRS     r0,r0,r3
        0x00000d56:    4b4c        LK      LDR      r3,[pc,#304] ; [0xe88] = 0x50000040
        0x00000d58:    6018        .`      STR      r0,[r3,#0]
        0x00000d5a:    e092        ..      B        0xe82 ; DrvGPIO_InitFunction + 1858
        0x00000d5c:    bf00        ..      NOP      
        0x00000d5e:    bf00        ..      NOP      
        0x00000d60:    2933        3)      CMP      r1,#0x33
        0x00000d62:    d106        ..      BNE      0xd72 ; DrvGPIO_InitFunction + 1586
        0x00000d64:    4848        HH      LDR      r0,[pc,#288] ; [0xe88] = 0x50000040
        0x00000d66:    6800        .h      LDR      r0,[r0,#0]
        0x00000d68:    2303        .#      MOVS     r3,#3
        0x00000d6a:    4318        .C      ORRS     r0,r0,r3
        0x00000d6c:    4b46        FK      LDR      r3,[pc,#280] ; [0xe88] = 0x50000040
        0x00000d6e:    6018        .`      STR      r0,[r3,#0]
        0x00000d70:    e00e        ..      B        0xd90 ; DrvGPIO_InitFunction + 1616
        0x00000d72:    293a        :)      CMP      r1,#0x3a
        0x00000d74:    d106        ..      BNE      0xd84 ; DrvGPIO_InitFunction + 1604
        0x00000d76:    4844        DH      LDR      r0,[pc,#272] ; [0xe88] = 0x50000040
        0x00000d78:    6800        .h      LDR      r0,[r0,#0]
        0x00000d7a:    2301        .#      MOVS     r3,#1
        0x00000d7c:    4318        .C      ORRS     r0,r0,r3
        0x00000d7e:    4b42        BK      LDR      r3,[pc,#264] ; [0xe88] = 0x50000040
        0x00000d80:    6018        .`      STR      r0,[r3,#0]
        0x00000d82:    e005        ..      B        0xd90 ; DrvGPIO_InitFunction + 1616
        0x00000d84:    4840        @H      LDR      r0,[pc,#256] ; [0xe88] = 0x50000040
        0x00000d86:    6800        .h      LDR      r0,[r0,#0]
        0x00000d88:    2302        .#      MOVS     r3,#2
        0x00000d8a:    4318        .C      ORRS     r0,r0,r3
        0x00000d8c:    4b3e        >K      LDR      r3,[pc,#248] ; [0xe88] = 0x50000040
        0x00000d8e:    6018        .`      STR      r0,[r3,#0]
        0x00000d90:    e077        w.      B        0xe82 ; DrvGPIO_InitFunction + 1858
        0x00000d92:    2005        .       MOVS     r0,#5
        0x00000d94:    0700        ..      LSLS     r0,r0,#28
        0x00000d96:    6b40        @k      LDR      r0,[r0,#0x34]
        0x00000d98:    230c        .#      MOVS     r3,#0xc
        0x00000d9a:    4318        .C      ORRS     r0,r0,r3
        0x00000d9c:    2305        .#      MOVS     r3,#5
        0x00000d9e:    071b        ..      LSLS     r3,r3,#28
        0x00000da0:    6358        Xc      STR      r0,[r3,#0x34]
        0x00000da2:    4839        9H      LDR      r0,[pc,#228] ; [0xe88] = 0x50000040
        0x00000da4:    6900        .i      LDR      r0,[r0,#0x10]
        0x00000da6:    2303        .#      MOVS     r3,#3
        0x00000da8:    035b        [.      LSLS     r3,r3,#13
        0x00000daa:    4318        .C      ORRS     r0,r0,r3
        0x00000dac:    4b36        6K      LDR      r3,[pc,#216] ; [0xe88] = 0x50000040
        0x00000dae:    6118        .a      STR      r0,[r3,#0x10]
        0x00000db0:    2005        .       MOVS     r0,#5
        0x00000db2:    0700        ..      LSLS     r0,r0,#28
        0x00000db4:    6b00        .k      LDR      r0,[r0,#0x30]
        0x00000db6:    4b35        5K      LDR      r3,[pc,#212] ; [0xe8c] = 0x703e
        0x00000db8:    4318        .C      ORRS     r0,r0,r3
        0x00000dba:    2305        .#      MOVS     r3,#5
        0x00000dbc:    071b        ..      LSLS     r3,r3,#28
        0x00000dbe:    6318        .c      STR      r0,[r3,#0x30]
        0x00000dc0:    4831        1H      LDR      r0,[pc,#196] ; [0xe88] = 0x50000040
        0x00000dc2:    6900        .i      LDR      r0,[r0,#0x10]
        0x00000dc4:    23ff        .#      MOVS     r3,#0xff
        0x00000dc6:    041b        ..      LSLS     r3,r3,#16
        0x00000dc8:    4318        .C      ORRS     r0,r0,r3
        0x00000dca:    4b2f        /K      LDR      r3,[pc,#188] ; [0xe88] = 0x50000040
        0x00000dcc:    6118        .a      STR      r0,[r3,#0x10]
        0x00000dce:    bf00        ..      NOP      
        0x00000dd0:    293c        <)      CMP      r1,#0x3c
        0x00000dd2:    d11e        ..      BNE      0xe12 ; DrvGPIO_InitFunction + 1746
        0x00000dd4:    2005        .       MOVS     r0,#5
        0x00000dd6:    0700        ..      LSLS     r0,r0,#28
        0x00000dd8:    6b40        @k      LDR      r0,[r0,#0x34]
        0x00000dda:    230c        .#      MOVS     r3,#0xc
        0x00000ddc:    4398        .C      BICS     r0,r0,r3
        0x00000dde:    2305        .#      MOVS     r3,#5
        0x00000de0:    071b        ..      LSLS     r3,r3,#28
        0x00000de2:    6358        Xc      STR      r0,[r3,#0x34]
        0x00000de4:    4828        (H      LDR      r0,[pc,#160] ; [0xe88] = 0x50000040
        0x00000de6:    6900        .i      LDR      r0,[r0,#0x10]
        0x00000de8:    2303        .#      MOVS     r3,#3
        0x00000dea:    035b        [.      LSLS     r3,r3,#13
        0x00000dec:    4398        .C      BICS     r0,r0,r3
        0x00000dee:    4b26        &K      LDR      r3,[pc,#152] ; [0xe88] = 0x50000040
        0x00000df0:    6118        .a      STR      r0,[r3,#0x10]
        0x00000df2:    2005        .       MOVS     r0,#5
        0x00000df4:    0700        ..      LSLS     r0,r0,#28
        0x00000df6:    6b00        .k      LDR      r0,[r0,#0x30]
        0x00000df8:    4b24        $K      LDR      r3,[pc,#144] ; [0xe8c] = 0x703e
        0x00000dfa:    43db        .C      MVNS     r3,r3
        0x00000dfc:    4018        .@      ANDS     r0,r0,r3
        0x00000dfe:    2305        .#      MOVS     r3,#5
        0x00000e00:    071b        ..      LSLS     r3,r3,#28
        0x00000e02:    6318        .c      STR      r0,[r3,#0x30]
        0x00000e04:    4820         H      LDR      r0,[pc,#128] ; [0xe88] = 0x50000040
        0x00000e06:    6900        .i      LDR      r0,[r0,#0x10]
        0x00000e08:    23ff        .#      MOVS     r3,#0xff
        0x00000e0a:    041b        ..      LSLS     r3,r3,#16
        0x00000e0c:    4398        .C      BICS     r0,r0,r3
        0x00000e0e:    4b1e        .K      LDR      r3,[pc,#120] ; [0xe88] = 0x50000040
        0x00000e10:    6118        .a      STR      r0,[r3,#0x10]
        0x00000e12:    481d        .H      LDR      r0,[pc,#116] ; [0xe88] = 0x50000040
        0x00000e14:    6900        .i      LDR      r0,[r0,#0x10]
        0x00000e16:    2303        .#      MOVS     r3,#3
        0x00000e18:    02db        ..      LSLS     r3,r3,#11
        0x00000e1a:    4318        .C      ORRS     r0,r0,r3
        0x00000e1c:    4b1a        .K      LDR      r3,[pc,#104] ; [0xe88] = 0x50000040
        0x00000e1e:    6118        .a      STR      r0,[r3,#0x10]
        0x00000e20:    2005        .       MOVS     r0,#5
        0x00000e22:    0700        ..      LSLS     r0,r0,#28
        0x00000e24:    6b80        .k      LDR      r0,[r0,#0x38]
        0x00000e26:    23ff        .#      MOVS     r3,#0xff
        0x00000e28:    3301        .3      ADDS     r3,#1
        0x00000e2a:    4318        .C      ORRS     r0,r0,r3
        0x00000e2c:    2305        .#      MOVS     r3,#5
        0x00000e2e:    071b        ..      LSLS     r3,r3,#28
        0x00000e30:    6398        .c      STR      r0,[r3,#0x38]
        0x00000e32:    4618        .F      MOV      r0,r3
        0x00000e34:    6b00        .k      LDR      r0,[r0,#0x30]
        0x00000e36:    2303        .#      MOVS     r3,#3
        0x00000e38:    029b        ..      LSLS     r3,r3,#10
        0x00000e3a:    4318        .C      ORRS     r0,r0,r3
        0x00000e3c:    2305        .#      MOVS     r3,#5
        0x00000e3e:    071b        ..      LSLS     r3,r3,#28
        0x00000e40:    6318        .c      STR      r0,[r3,#0x30]
        0x00000e42:    4618        .F      MOV      r0,r3
        0x00000e44:    6b40        @k      LDR      r0,[r0,#0x34]
        0x00000e46:    23c0        .#      MOVS     r3,#0xc0
        0x00000e48:    4318        .C      ORRS     r0,r0,r3
        0x00000e4a:    2305        .#      MOVS     r3,#5
        0x00000e4c:    071b        ..      LSLS     r3,r3,#28
        0x00000e4e:    6358        Xc      STR      r0,[r3,#0x34]
        0x00000e50:    4618        .F      MOV      r0,r3
        0x00000e52:    6b00        .k      LDR      r0,[r0,#0x30]
        0x00000e54:    23c0        .#      MOVS     r3,#0xc0
        0x00000e56:    4318        .C      ORRS     r0,r0,r3
        0x00000e58:    2305        .#      MOVS     r3,#5
        0x00000e5a:    071b        ..      LSLS     r3,r3,#28
        0x00000e5c:    6318        .c      STR      r0,[r3,#0x30]
        0x00000e5e:    4618        .F      MOV      r0,r3
        0x00000e60:    6b80        .k      LDR      r0,[r0,#0x38]
        0x00000e62:    4b0b        .K      LDR      r3,[pc,#44] ; [0xe90] = 0xc0c0
        0x00000e64:    4318        .C      ORRS     r0,r0,r3
        0x00000e66:    2305        .#      MOVS     r3,#5
        0x00000e68:    071b        ..      LSLS     r3,r3,#28
        0x00000e6a:    6398        .c      STR      r0,[r3,#0x38]
        0x00000e6c:    4618        .F      MOV      r0,r3
        0x00000e6e:    6b40        @k      LDR      r0,[r0,#0x34]
        0x00000e70:    2303        .#      MOVS     r3,#3
        0x00000e72:    031b        ..      LSLS     r3,r3,#12
        0x00000e74:    4318        .C      ORRS     r0,r0,r3
        0x00000e76:    2305        .#      MOVS     r3,#5
        0x00000e78:    071b        ..      LSLS     r3,r3,#28
        0x00000e7a:    6358        Xc      STR      r0,[r3,#0x34]
        0x00000e7c:    e001        ..      B        0xe82 ; DrvGPIO_InitFunction + 1858
        0x00000e7e:    4805        .H      LDR      r0,[pc,#20] ; [0xe94] = 0xffff8901
        0x00000e80:    bd10        ..      POP      {r4,pc}
        0x00000e82:    bf00        ..      NOP      
        0x00000e84:    2000        .       MOVS     r0,#0
        0x00000e86:    e7fb        ..      B        0xe80 ; DrvGPIO_InitFunction + 1856
    $d
        0x00000e88:    50000040    @..P    DCD    1342177344
        0x00000e8c:    0000703e    >p..    DCD    28734
        0x00000e90:    0000c0c0    ....    DCD    49344
        0x00000e94:    ffff8901    ....    DCD    4294936833
    $t
    i.DrvGPIO_Open
    DrvGPIO_Open
        0x00000e98:    b570        p.      PUSH     {r4-r6,lr}
        0x00000e9a:    4604        .F      MOV      r4,r0
        0x00000e9c:    460b        .F      MOV      r3,r1
        0x00000e9e:    2b00        .+      CMP      r3,#0
        0x00000ea0:    db01        ..      BLT      0xea6 ; DrvGPIO_Open + 14
        0x00000ea2:    2b10        .+      CMP      r3,#0x10
        0x00000ea4:    dd01        ..      BLE      0xeaa ; DrvGPIO_Open + 18
        0x00000ea6:    4818        .H      LDR      r0,[pc,#96] ; [0xf08] = 0xffff8901
        0x00000ea8:    bd70        p.      POP      {r4-r6,pc}
        0x00000eaa:    01a0        ..      LSLS     r0,r4,#6
        0x00000eac:    4d17        .M      LDR      r5,[pc,#92] ; [0xf0c] = 0x50004000
        0x00000eae:    1941        A.      ADDS     r1,r0,r5
        0x00000eb0:    2a00        .*      CMP      r2,#0
        0x00000eb2:    d003        ..      BEQ      0xebc ; DrvGPIO_Open + 36
        0x00000eb4:    2a01        .*      CMP      r2,#1
        0x00000eb6:    d001        ..      BEQ      0xebc ; DrvGPIO_Open + 36
        0x00000eb8:    2a02        .*      CMP      r2,#2
        0x00000eba:    d117        ..      BNE      0xeec ; DrvGPIO_Open + 84
        0x00000ebc:    6808        .h      LDR      r0,[r1,#0]
        0x00000ebe:    005e        ^.      LSLS     r6,r3,#1
        0x00000ec0:    2503        .%      MOVS     r5,#3
        0x00000ec2:    40b5        .@      LSLS     r5,r5,r6
        0x00000ec4:    43a8        .C      BICS     r0,r0,r5
        0x00000ec6:    6008        .`      STR      r0,[r1,#0]
        0x00000ec8:    2a01        .*      CMP      r2,#1
        0x00000eca:    d106        ..      BNE      0xeda ; DrvGPIO_Open + 66
        0x00000ecc:    6808        .h      LDR      r0,[r1,#0]
        0x00000ece:    005e        ^.      LSLS     r6,r3,#1
        0x00000ed0:    2501        .%      MOVS     r5,#1
        0x00000ed2:    40b5        .@      LSLS     r5,r5,r6
        0x00000ed4:    4328        (C      ORRS     r0,r0,r5
        0x00000ed6:    6008        .`      STR      r0,[r1,#0]
        0x00000ed8:    e013        ..      B        0xf02 ; DrvGPIO_Open + 106
        0x00000eda:    2a02        .*      CMP      r2,#2
        0x00000edc:    d111        ..      BNE      0xf02 ; DrvGPIO_Open + 106
        0x00000ede:    6808        .h      LDR      r0,[r1,#0]
        0x00000ee0:    005e        ^.      LSLS     r6,r3,#1
        0x00000ee2:    2502        .%      MOVS     r5,#2
        0x00000ee4:    40b5        .@      LSLS     r5,r5,r6
        0x00000ee6:    4328        (C      ORRS     r0,r0,r5
        0x00000ee8:    6008        .`      STR      r0,[r1,#0]
        0x00000eea:    e00a        ..      B        0xf02 ; DrvGPIO_Open + 106
        0x00000eec:    2a03        .*      CMP      r2,#3
        0x00000eee:    d106        ..      BNE      0xefe ; DrvGPIO_Open + 102
        0x00000ef0:    6808        .h      LDR      r0,[r1,#0]
        0x00000ef2:    005e        ^.      LSLS     r6,r3,#1
        0x00000ef4:    2503        .%      MOVS     r5,#3
        0x00000ef6:    40b5        .@      LSLS     r5,r5,r6
        0x00000ef8:    4328        (C      ORRS     r0,r0,r5
        0x00000efa:    6008        .`      STR      r0,[r1,#0]
        0x00000efc:    e001        ..      B        0xf02 ; DrvGPIO_Open + 106
        0x00000efe:    4802        .H      LDR      r0,[pc,#8] ; [0xf08] = 0xffff8901
        0x00000f00:    e7d2        ..      B        0xea8 ; DrvGPIO_Open + 16
        0x00000f02:    2000        .       MOVS     r0,#0
        0x00000f04:    e7d0        ..      B        0xea8 ; DrvGPIO_Open + 16
    $d
        0x00000f06:    0000        ..      DCW    0
        0x00000f08:    ffff8901    ....    DCD    4294936833
        0x00000f0c:    50004000    .@.P    DCD    1342193664
    $t
    i.DrvGPIO_SetBit
    DrvGPIO_SetBit
        0x00000f10:    b510        ..      PUSH     {r4,lr}
        0x00000f12:    4603        .F      MOV      r3,r0
        0x00000f14:    2900        .)      CMP      r1,#0
        0x00000f16:    db01        ..      BLT      0xf1c ; DrvGPIO_SetBit + 12
        0x00000f18:    2910        .)      CMP      r1,#0x10
        0x00000f1a:    dd01        ..      BLE      0xf20 ; DrvGPIO_SetBit + 16
        0x00000f1c:    4805        .H      LDR      r0,[pc,#20] ; [0xf34] = 0xffff8901
        0x00000f1e:    bd10        ..      POP      {r4,pc}
        0x00000f20:    0198        ..      LSLS     r0,r3,#6
        0x00000f22:    4c05        .L      LDR      r4,[pc,#20] ; [0xf38] = 0x50004000
        0x00000f24:    1902        ..      ADDS     r2,r0,r4
        0x00000f26:    6890        .h      LDR      r0,[r2,#8]
        0x00000f28:    2401        .$      MOVS     r4,#1
        0x00000f2a:    408c        .@      LSLS     r4,r4,r1
        0x00000f2c:    4320         C      ORRS     r0,r0,r4
        0x00000f2e:    6090        .`      STR      r0,[r2,#8]
        0x00000f30:    2000        .       MOVS     r0,#0
        0x00000f32:    e7f4        ..      B        0xf1e ; DrvGPIO_SetBit + 14
    $d
        0x00000f34:    ffff8901    ....    DCD    4294936833
        0x00000f38:    50004000    .@.P    DCD    1342193664
    $t
    i.DrvI2C_Close
    DrvI2C_Close
        0x00000f3c:    4601        .F      MOV      r1,r0
        0x00000f3e:    2900        .)      CMP      r1,#0
        0x00000f40:    d01e        ..      BEQ      0xf80 ; DrvI2C_Close + 68
        0x00000f42:    481f        .H      LDR      r0,[pc,#124] ; [0xfc0] = 0x40120000
        0x00000f44:    6800        .h      LDR      r0,[r0,#0]
        0x00000f46:    2240        @"      MOVS     r2,#0x40
        0x00000f48:    4390        .C      BICS     r0,r0,r2
        0x00000f4a:    4a1d        .J      LDR      r2,[pc,#116] ; [0xfc0] = 0x40120000
        0x00000f4c:    6010        .`      STR      r0,[r2,#0]
        0x00000f4e:    2005        .       MOVS     r0,#5
        0x00000f50:    0700        ..      LSLS     r0,r0,#28
        0x00000f52:    68c0        .h      LDR      r0,[r0,#0xc]
        0x00000f54:    1552        R.      ASRS     r2,r2,#21
        0x00000f56:    4390        .C      BICS     r0,r0,r2
        0x00000f58:    1880        ..      ADDS     r0,r0,r2
        0x00000f5a:    2205        ."      MOVS     r2,#5
        0x00000f5c:    0712        ..      LSLS     r2,r2,#28
        0x00000f5e:    60d0        .`      STR      r0,[r2,#0xc]
        0x00000f60:    4610        .F      MOV      r0,r2
        0x00000f62:    68c0        .h      LDR      r0,[r0,#0xc]
        0x00000f64:    2201        ."      MOVS     r2,#1
        0x00000f66:    0252        R.      LSLS     r2,r2,#9
        0x00000f68:    4390        .C      BICS     r0,r0,r2
        0x00000f6a:    2205        ."      MOVS     r2,#5
        0x00000f6c:    0712        ..      LSLS     r2,r2,#28
        0x00000f6e:    60d0        .`      STR      r0,[r2,#0xc]
        0x00000f70:    4814        .H      LDR      r0,[pc,#80] ; [0xfc4] = 0x50000200
        0x00000f72:    6880        .h      LDR      r0,[r0,#8]
        0x00000f74:    2201        ."      MOVS     r2,#1
        0x00000f76:    0252        R.      LSLS     r2,r2,#9
        0x00000f78:    4390        .C      BICS     r0,r0,r2
        0x00000f7a:    4a12        .J      LDR      r2,[pc,#72] ; [0xfc4] = 0x50000200
        0x00000f7c:    6090        .`      STR      r0,[r2,#8]
        0x00000f7e:    e01d        ..      B        0xfbc ; DrvI2C_Close + 128
        0x00000f80:    4811        .H      LDR      r0,[pc,#68] ; [0xfc8] = 0x40020000
        0x00000f82:    6800        .h      LDR      r0,[r0,#0]
        0x00000f84:    2240        @"      MOVS     r2,#0x40
        0x00000f86:    4390        .C      BICS     r0,r0,r2
        0x00000f88:    4a0f        .J      LDR      r2,[pc,#60] ; [0xfc8] = 0x40020000
        0x00000f8a:    6010        .`      STR      r0,[r2,#0]
        0x00000f8c:    2005        .       MOVS     r0,#5
        0x00000f8e:    0700        ..      LSLS     r0,r0,#28
        0x00000f90:    68c0        .h      LDR      r0,[r0,#0xc]
        0x00000f92:    1592        ..      ASRS     r2,r2,#22
        0x00000f94:    4390        .C      BICS     r0,r0,r2
        0x00000f96:    1880        ..      ADDS     r0,r0,r2
        0x00000f98:    2205        ."      MOVS     r2,#5
        0x00000f9a:    0712        ..      LSLS     r2,r2,#28
        0x00000f9c:    60d0        .`      STR      r0,[r2,#0xc]
        0x00000f9e:    4610        .F      MOV      r0,r2
        0x00000fa0:    68c0        .h      LDR      r0,[r0,#0xc]
        0x00000fa2:    22ff        ."      MOVS     r2,#0xff
        0x00000fa4:    3201        .2      ADDS     r2,#1
        0x00000fa6:    4390        .C      BICS     r0,r0,r2
        0x00000fa8:    2205        ."      MOVS     r2,#5
        0x00000faa:    0712        ..      LSLS     r2,r2,#28
        0x00000fac:    60d0        .`      STR      r0,[r2,#0xc]
        0x00000fae:    4805        .H      LDR      r0,[pc,#20] ; [0xfc4] = 0x50000200
        0x00000fb0:    6880        .h      LDR      r0,[r0,#8]
        0x00000fb2:    22ff        ."      MOVS     r2,#0xff
        0x00000fb4:    3201        .2      ADDS     r2,#1
        0x00000fb6:    4390        .C      BICS     r0,r0,r2
        0x00000fb8:    4a02        .J      LDR      r2,[pc,#8] ; [0xfc4] = 0x50000200
        0x00000fba:    6090        .`      STR      r0,[r2,#8]
        0x00000fbc:    2000        .       MOVS     r0,#0
        0x00000fbe:    4770        pG      BX       lr
    $d
        0x00000fc0:    40120000    ...@    DCD    1074921472
        0x00000fc4:    50000200    ...P    DCD    1342177792
        0x00000fc8:    40020000    ...@    DCD    1073872896
    $t
    i.DrvI2C_Ctrl
    DrvI2C_Ctrl
        0x00000fcc:    b5f0        ..      PUSH     {r4-r7,lr}
        0x00000fce:    9c05        ..      LDR      r4,[sp,#0x14]
        0x00000fd0:    2500        .%      MOVS     r5,#0
        0x00000fd2:    2900        .)      CMP      r1,#0
        0x00000fd4:    d001        ..      BEQ      0xfda ; DrvI2C_Ctrl + 14
        0x00000fd6:    2620         &      MOVS     r6,#0x20
        0x00000fd8:    4335        5C      ORRS     r5,r5,r6
        0x00000fda:    2a00        .*      CMP      r2,#0
        0x00000fdc:    d001        ..      BEQ      0xfe2 ; DrvI2C_Ctrl + 22
        0x00000fde:    2610        .&      MOVS     r6,#0x10
        0x00000fe0:    4335        5C      ORRS     r5,r5,r6
        0x00000fe2:    2b00        .+      CMP      r3,#0
        0x00000fe4:    d001        ..      BEQ      0xfea ; DrvI2C_Ctrl + 30
        0x00000fe6:    2608        .&      MOVS     r6,#8
        0x00000fe8:    4335        5C      ORRS     r5,r5,r6
        0x00000fea:    2c00        .,      CMP      r4,#0
        0x00000fec:    d001        ..      BEQ      0xff2 ; DrvI2C_Ctrl + 38
        0x00000fee:    2604        .&      MOVS     r6,#4
        0x00000ff0:    4335        5C      ORRS     r5,r5,r6
        0x00000ff2:    2800        .(      CMP      r0,#0
        0x00000ff4:    d007        ..      BEQ      0x1006 ; DrvI2C_Ctrl + 58
        0x00000ff6:    4e08        .N      LDR      r6,[pc,#32] ; [0x1018] = 0x40120000
        0x00000ff8:    6836        6h      LDR      r6,[r6,#0]
        0x00000ffa:    273c        <'      MOVS     r7,#0x3c
        0x00000ffc:    43be        .C      BICS     r6,r6,r7
        0x00000ffe:    432e        .C      ORRS     r6,r6,r5
        0x00001000:    4f05        .O      LDR      r7,[pc,#20] ; [0x1018] = 0x40120000
        0x00001002:    603e        >`      STR      r6,[r7,#0]
        0x00001004:    e006        ..      B        0x1014 ; DrvI2C_Ctrl + 72
        0x00001006:    4e05        .N      LDR      r6,[pc,#20] ; [0x101c] = 0x40020000
        0x00001008:    6836        6h      LDR      r6,[r6,#0]
        0x0000100a:    273c        <'      MOVS     r7,#0x3c
        0x0000100c:    43be        .C      BICS     r6,r6,r7
        0x0000100e:    432e        .C      ORRS     r6,r6,r5
        0x00001010:    4f02        .O      LDR      r7,[pc,#8] ; [0x101c] = 0x40020000
        0x00001012:    603e        >`      STR      r6,[r7,#0]
        0x00001014:    bdf0        ..      POP      {r4-r7,pc}
    $d
        0x00001016:    0000        ..      DCW    0
        0x00001018:    40120000    ...@    DCD    1074921472
        0x0000101c:    40020000    ...@    DCD    1073872896
    $t
    i.DrvI2C_Open
    DrvI2C_Open
        0x00001020:    b5f8        ..      PUSH     {r3-r7,lr}
        0x00001022:    4605        .F      MOV      r5,r0
        0x00001024:    460e        .F      MOV      r6,r1
        0x00001026:    00b1        ..      LSLS     r1,r6,#2
        0x00001028:    4a2d        -J      LDR      r2,[pc,#180] ; [0x10e0] = 0x20000000
        0x0000102a:    6812        .h      LDR      r2,[r2,#0]
        0x0000102c:    230a        .#      MOVS     r3,#0xa
        0x0000102e:    435a        ZC      MULS     r2,r3,r2
        0x00001030:    4610        .F      MOV      r0,r2
        0x00001032:    f7fff9f1    ....    BL       __aeabi_uidiv ; 0x418
        0x00001036:    1d47        G.      ADDS     r7,r0,#5
        0x00001038:    210a        .!      MOVS     r1,#0xa
        0x0000103a:    4638        8F      MOV      r0,r7
        0x0000103c:    f7fff9ec    ....    BL       __aeabi_uidiv ; 0x418
        0x00001040:    1e44        D.      SUBS     r4,r0,#1
        0x00001042:    2c04        .,      CMP      r4,#4
        0x00001044:    d200        ..      BCS      0x1048 ; DrvI2C_Open + 40
        0x00001046:    2404        .$      MOVS     r4,#4
        0x00001048:    2d00        .-      CMP      r5,#0
        0x0000104a:    d023        #.      BEQ      0x1094 ; DrvI2C_Open + 116
        0x0000104c:    4825        %H      LDR      r0,[pc,#148] ; [0x10e4] = 0x50000200
        0x0000104e:    6880        .h      LDR      r0,[r0,#8]
        0x00001050:    2101        .!      MOVS     r1,#1
        0x00001052:    0249        I.      LSLS     r1,r1,#9
        0x00001054:    4388        .C      BICS     r0,r0,r1
        0x00001056:    1840        @.      ADDS     r0,r0,r1
        0x00001058:    4922        "I      LDR      r1,[pc,#136] ; [0x10e4] = 0x50000200
        0x0000105a:    6088        .`      STR      r0,[r1,#8]
        0x0000105c:    2005        .       MOVS     r0,#5
        0x0000105e:    0700        ..      LSLS     r0,r0,#28
        0x00001060:    68c0        .h      LDR      r0,[r0,#0xc]
        0x00001062:    2101        .!      MOVS     r1,#1
        0x00001064:    0249        I.      LSLS     r1,r1,#9
        0x00001066:    4388        .C      BICS     r0,r0,r1
        0x00001068:    1840        @.      ADDS     r0,r0,r1
        0x0000106a:    2105        .!      MOVS     r1,#5
        0x0000106c:    0709        ..      LSLS     r1,r1,#28
        0x0000106e:    60c8        .`      STR      r0,[r1,#0xc]
        0x00001070:    4608        .F      MOV      r0,r1
        0x00001072:    68c0        .h      LDR      r0,[r0,#0xc]
        0x00001074:    2101        .!      MOVS     r1,#1
        0x00001076:    0249        I.      LSLS     r1,r1,#9
        0x00001078:    4388        .C      BICS     r0,r0,r1
        0x0000107a:    2105        .!      MOVS     r1,#5
        0x0000107c:    0709        ..      LSLS     r1,r1,#28
        0x0000107e:    60c8        .`      STR      r0,[r1,#0xc]
        0x00001080:    4819        .H      LDR      r0,[pc,#100] ; [0x10e8] = 0x40120000
        0x00001082:    6800        .h      LDR      r0,[r0,#0]
        0x00001084:    2140        @!      MOVS     r1,#0x40
        0x00001086:    4388        .C      BICS     r0,r0,r1
        0x00001088:    3040        @0      ADDS     r0,r0,#0x40
        0x0000108a:    4917        .I      LDR      r1,[pc,#92] ; [0x10e8] = 0x40120000
        0x0000108c:    6008        .`      STR      r0,[r1,#0]
        0x0000108e:    4608        .F      MOV      r0,r1
        0x00001090:    6104        .a      STR      r4,[r0,#0x10]
        0x00001092:    e022        ".      B        0x10da ; DrvI2C_Open + 186
        0x00001094:    4813        .H      LDR      r0,[pc,#76] ; [0x10e4] = 0x50000200
        0x00001096:    6880        .h      LDR      r0,[r0,#8]
        0x00001098:    21ff        .!      MOVS     r1,#0xff
        0x0000109a:    3101        .1      ADDS     r1,#1
        0x0000109c:    4388        .C      BICS     r0,r0,r1
        0x0000109e:    1840        @.      ADDS     r0,r0,r1
        0x000010a0:    4910        .I      LDR      r1,[pc,#64] ; [0x10e4] = 0x50000200
        0x000010a2:    6088        .`      STR      r0,[r1,#8]
        0x000010a4:    2005        .       MOVS     r0,#5
        0x000010a6:    0700        ..      LSLS     r0,r0,#28
        0x000010a8:    68c0        .h      LDR      r0,[r0,#0xc]
        0x000010aa:    21ff        .!      MOVS     r1,#0xff
        0x000010ac:    3101        .1      ADDS     r1,#1
        0x000010ae:    4388        .C      BICS     r0,r0,r1
        0x000010b0:    1840        @.      ADDS     r0,r0,r1
        0x000010b2:    2105        .!      MOVS     r1,#5
        0x000010b4:    0709        ..      LSLS     r1,r1,#28
        0x000010b6:    60c8        .`      STR      r0,[r1,#0xc]
        0x000010b8:    4608        .F      MOV      r0,r1
        0x000010ba:    68c0        .h      LDR      r0,[r0,#0xc]
        0x000010bc:    21ff        .!      MOVS     r1,#0xff
        0x000010be:    3101        .1      ADDS     r1,#1
        0x000010c0:    4388        .C      BICS     r0,r0,r1
        0x000010c2:    2105        .!      MOVS     r1,#5
        0x000010c4:    0709        ..      LSLS     r1,r1,#28
        0x000010c6:    60c8        .`      STR      r0,[r1,#0xc]
        0x000010c8:    4808        .H      LDR      r0,[pc,#32] ; [0x10ec] = 0x40020000
        0x000010ca:    6800        .h      LDR      r0,[r0,#0]
        0x000010cc:    2140        @!      MOVS     r1,#0x40
        0x000010ce:    4388        .C      BICS     r0,r0,r1
        0x000010d0:    3040        @0      ADDS     r0,r0,#0x40
        0x000010d2:    4906        .I      LDR      r1,[pc,#24] ; [0x10ec] = 0x40020000
        0x000010d4:    6008        .`      STR      r0,[r1,#0]
        0x000010d6:    4608        .F      MOV      r0,r1
        0x000010d8:    6104        .a      STR      r4,[r0,#0x10]
        0x000010da:    2000        .       MOVS     r0,#0
        0x000010dc:    bdf8        ..      POP      {r3-r7,pc}
    $d
        0x000010de:    0000        ..      DCW    0
        0x000010e0:    20000000    ...     DCD    536870912
        0x000010e4:    50000200    ...P    DCD    1342177792
        0x000010e8:    40120000    ...@    DCD    1074921472
        0x000010ec:    40020000    ...@    DCD    1073872896
    $t
    i.DrvSYS_Delay
    DrvSYS_Delay
        0x000010f0:    4908        .I      LDR      r1,[pc,#32] ; [0x1114] = 0x20000004
        0x000010f2:    6809        .h      LDR      r1,[r1,#0]
        0x000010f4:    4341        AC      MULS     r1,r0,r1
        0x000010f6:    4a08        .J      LDR      r2,[pc,#32] ; [0x1118] = 0xe000e000
        0x000010f8:    6151        Qa      STR      r1,[r2,#0x14]
        0x000010fa:    2100        .!      MOVS     r1,#0
        0x000010fc:    6191        .a      STR      r1,[r2,#0x18]
        0x000010fe:    2105        .!      MOVS     r1,#5
        0x00001100:    6111        .a      STR      r1,[r2,#0x10]
        0x00001102:    bf00        ..      NOP      
        0x00001104:    4904        .I      LDR      r1,[pc,#16] ; [0x1118] = 0xe000e000
        0x00001106:    6909        .i      LDR      r1,[r1,#0x10]
        0x00001108:    2201        ."      MOVS     r2,#1
        0x0000110a:    0412        ..      LSLS     r2,r2,#16
        0x0000110c:    4211        .B      TST      r1,r2
        0x0000110e:    d0f9        ..      BEQ      0x1104 ; DrvSYS_Delay + 20
        0x00001110:    4770        pG      BX       lr
    $d
        0x00001112:    0000        ..      DCW    0
        0x00001114:    20000004    ...     DCD    536870916
        0x00001118:    e000e000    ....    DCD    3758153728
    $t
    i.DrvSYS_GetHCLKFreq
    DrvSYS_GetHCLKFreq
        0x0000111c:    b570        p.      PUSH     {r4-r6,lr}
        0x0000111e:    2500        .%      MOVS     r5,#0
        0x00001120:    4815        .H      LDR      r0,[pc,#84] ; [0x1178] = 0x50000200
        0x00001122:    6900        .i      LDR      r0,[r0,#0x10]
        0x00001124:    0740        @.      LSLS     r0,r0,#29
        0x00001126:    0f40        @.      LSRS     r0,r0,#29
        0x00001128:    d101        ..      BNE      0x112e ; DrvSYS_GetHCLKFreq + 18
        0x0000112a:    4d14        .M      LDR      r5,[pc,#80] ; [0x117c] = 0xb71b00
        0x0000112c:    e01a        ..      B        0x1164 ; DrvSYS_GetHCLKFreq + 72
        0x0000112e:    4812        .H      LDR      r0,[pc,#72] ; [0x1178] = 0x50000200
        0x00001130:    6900        .i      LDR      r0,[r0,#0x10]
        0x00001132:    0740        @.      LSLS     r0,r0,#29
        0x00001134:    0f40        @.      LSRS     r0,r0,#29
        0x00001136:    2801        .(      CMP      r0,#1
        0x00001138:    d101        ..      BNE      0x113e ; DrvSYS_GetHCLKFreq + 34
        0x0000113a:    03c5        ..      LSLS     r5,r0,#15
        0x0000113c:    e012        ..      B        0x1164 ; DrvSYS_GetHCLKFreq + 72
        0x0000113e:    480e        .H      LDR      r0,[pc,#56] ; [0x1178] = 0x50000200
        0x00001140:    6900        .i      LDR      r0,[r0,#0x10]
        0x00001142:    0740        @.      LSLS     r0,r0,#29
        0x00001144:    0f40        @.      LSRS     r0,r0,#29
        0x00001146:    2802        .(      CMP      r0,#2
        0x00001148:    d103        ..      BNE      0x1152 ; DrvSYS_GetHCLKFreq + 54
        0x0000114a:    f000f81d    ....    BL       DrvSYS_GetPLLClockFreq ; 0x1188
        0x0000114e:    4605        .F      MOV      r5,r0
        0x00001150:    e008        ..      B        0x1164 ; DrvSYS_GetHCLKFreq + 72
        0x00001152:    4809        .H      LDR      r0,[pc,#36] ; [0x1178] = 0x50000200
        0x00001154:    6900        .i      LDR      r0,[r0,#0x10]
        0x00001156:    0740        @.      LSLS     r0,r0,#29
        0x00001158:    0f40        @.      LSRS     r0,r0,#29
        0x0000115a:    2803        .(      CMP      r0,#3
        0x0000115c:    d101        ..      BNE      0x1162 ; DrvSYS_GetHCLKFreq + 70
        0x0000115e:    4d08        .M      LDR      r5,[pc,#32] ; [0x1180] = 0x2710
        0x00001160:    e000        ..      B        0x1164 ; DrvSYS_GetHCLKFreq + 72
        0x00001162:    4d08        .M      LDR      r5,[pc,#32] ; [0x1184] = 0x1518000
        0x00001164:    4804        .H      LDR      r0,[pc,#16] ; [0x1178] = 0x50000200
        0x00001166:    6980        .i      LDR      r0,[r0,#0x18]
        0x00001168:    0700        ..      LSLS     r0,r0,#28
        0x0000116a:    0f00        ..      LSRS     r0,r0,#28
        0x0000116c:    1c44        D.      ADDS     r4,r0,#1
        0x0000116e:    4621        !F      MOV      r1,r4
        0x00001170:    4628        (F      MOV      r0,r5
        0x00001172:    f7fff951    ..Q.    BL       __aeabi_uidiv ; 0x418
        0x00001176:    bd70        p.      POP      {r4-r6,pc}
    $d
        0x00001178:    50000200    ...P    DCD    1342177792
        0x0000117c:    00b71b00    ....    DCD    12000000
        0x00001180:    00002710    .'..    DCD    10000
        0x00001184:    01518000    ..Q.    DCD    22118400
    $t
    i.DrvSYS_GetPLLClockFreq
    DrvSYS_GetPLLClockFreq
        0x00001188:    b57f        ..      PUSH     {r0-r6,lr}
        0x0000118a:    2500        .%      MOVS     r5,#0
        0x0000118c:    4b18        .K      LDR      r3,[pc,#96] ; [0x11f0] = 0x2798
        0x0000118e:    cb0f        ..      LDM      r3,{r0-r3}
        0x00001190:    466c        lF      MOV      r4,sp
        0x00001192:    c40f        ..      STM      r4!,{r0-r3}
        0x00001194:    4817        .H      LDR      r0,[pc,#92] ; [0x11f4] = 0x50000200
        0x00001196:    6a00        .j      LDR      r0,[r0,#0x20]
        0x00001198:    0300        ..      LSLS     r0,r0,#12
        0x0000119a:    0fc0        ..      LSRS     r0,r0,#31
        0x0000119c:    2801        .(      CMP      r0,#1
        0x0000119e:    d101        ..      BNE      0x11a4 ; DrvSYS_GetPLLClockFreq + 28
        0x000011a0:    4c15        .L      LDR      r4,[pc,#84] ; [0x11f8] = 0x1518000
        0x000011a2:    e000        ..      B        0x11a6 ; DrvSYS_GetPLLClockFreq + 30
        0x000011a4:    4c15        .L      LDR      r4,[pc,#84] ; [0x11fc] = 0xb71b00
        0x000011a6:    4813        .H      LDR      r0,[pc,#76] ; [0x11f4] = 0x50000200
        0x000011a8:    6a00        .j      LDR      r0,[r0,#0x20]
        0x000011aa:    03c0        ..      LSLS     r0,r0,#15
        0x000011ac:    0fc0        ..      LSRS     r0,r0,#31
        0x000011ae:    2801        .(      CMP      r0,#1
        0x000011b0:    d101        ..      BNE      0x11b6 ; DrvSYS_GetPLLClockFreq + 46
        0x000011b2:    2500        .%      MOVS     r5,#0
        0x000011b4:    e019        ..      B        0x11ea ; DrvSYS_GetPLLClockFreq + 98
        0x000011b6:    4a0f        .J      LDR      r2,[pc,#60] ; [0x11f4] = 0x50000200
        0x000011b8:    6a12        .j      LDR      r2,[r2,#0x20]
        0x000011ba:    0492        ..      LSLS     r2,r2,#18
        0x000011bc:    0ed2        ..      LSRS     r2,r2,#27
        0x000011be:    1c91        ..      ADDS     r1,r2,#2
        0x000011c0:    4a0c        .J      LDR      r2,[pc,#48] ; [0x11f4] = 0x50000200
        0x000011c2:    6a12        .j      LDR      r2,[r2,#0x20]
        0x000011c4:    05d2        ..      LSLS     r2,r2,#23
        0x000011c6:    0dd2        ..      LSRS     r2,r2,#23
        0x000011c8:    1c92        ..      ADDS     r2,r2,#2
        0x000011ca:    4362        bC      MULS     r2,r4,r2
        0x000011cc:    4610        .F      MOV      r0,r2
        0x000011ce:    f7fff923    ..#.    BL       __aeabi_uidiv ; 0x418
        0x000011d2:    4606        .F      MOV      r6,r0
        0x000011d4:    4807        .H      LDR      r0,[pc,#28] ; [0x11f4] = 0x50000200
        0x000011d6:    6a00        .j      LDR      r0,[r0,#0x20]
        0x000011d8:    0400        ..      LSLS     r0,r0,#16
        0x000011da:    0f80        ..      LSRS     r0,r0,#30
        0x000011dc:    0080        ..      LSLS     r0,r0,#2
        0x000011de:    466a        jF      MOV      r2,sp
        0x000011e0:    5811        .X      LDR      r1,[r2,r0]
        0x000011e2:    4630        0F      MOV      r0,r6
        0x000011e4:    f7fff918    ....    BL       __aeabi_uidiv ; 0x418
        0x000011e8:    4605        .F      MOV      r5,r0
        0x000011ea:    4628        (F      MOV      r0,r5
        0x000011ec:    b004        ..      ADD      sp,sp,#0x10
        0x000011ee:    bd70        p.      POP      {r4-r6,pc}
    $d
        0x000011f0:    00002798    .'..    DCD    10136
        0x000011f4:    50000200    ...P    DCD    1342177792
        0x000011f8:    01518000    ..Q.    DCD    22118400
        0x000011fc:    00b71b00    ....    DCD    12000000
    $t
    i.DrvSYS_GetPLLContent
    DrvSYS_GetPLLContent
        0x00001200:    b5f3        ..      PUSH     {r0,r1,r4-r7,lr}
        0x00001202:    b083        ..      SUB      sp,sp,#0xc
        0x00001204:    460c        .F      MOV      r4,r1
        0x00001206:    4827        'H      LDR      r0,[pc,#156] ; [0x12a4] = 0xb71b00
        0x00001208:    9002        ..      STR      r0,[sp,#8]
        0x0000120a:    2000        .       MOVS     r0,#0
        0x0000120c:    9001        ..      STR      r0,[sp,#4]
        0x0000120e:    4826        &H      LDR      r0,[pc,#152] ; [0x12a8] = 0xbebc200
        0x00001210:    4284        .B      CMP      r4,r0
        0x00001212:    d804        ..      BHI      0x121e ; DrvSYS_GetPLLContent + 30
        0x00001214:    1040        @.      ASRS     r0,r0,#1
        0x00001216:    4284        .B      CMP      r4,r0
        0x00001218:    d901        ..      BLS      0x121e ; DrvSYS_GetPLLContent + 30
        0x0000121a:    2700        .'      MOVS     r7,#0
        0x0000121c:    e014        ..      B        0x1248 ; DrvSYS_GetPLLContent + 72
        0x0000121e:    4823        #H      LDR      r0,[pc,#140] ; [0x12ac] = 0x5f5e100
        0x00001220:    4284        .B      CMP      r4,r0
        0x00001222:    d805        ..      BHI      0x1230 ; DrvSYS_GetPLLContent + 48
        0x00001224:    1040        @.      ASRS     r0,r0,#1
        0x00001226:    4284        .B      CMP      r4,r0
        0x00001228:    d902        ..      BLS      0x1230 ; DrvSYS_GetPLLContent + 48
        0x0000122a:    2701        .'      MOVS     r7,#1
        0x0000122c:    0064        d.      LSLS     r4,r4,#1
        0x0000122e:    e00b        ..      B        0x1248 ; DrvSYS_GetPLLContent + 72
        0x00001230:    481f        .H      LDR      r0,[pc,#124] ; [0x12b0] = 0x2faf080
        0x00001232:    4284        .B      CMP      r4,r0
        0x00001234:    d805        ..      BHI      0x1242 ; DrvSYS_GetPLLContent + 66
        0x00001236:    1040        @.      ASRS     r0,r0,#1
        0x00001238:    4284        .B      CMP      r4,r0
        0x0000123a:    d302        ..      BCC      0x1242 ; DrvSYS_GetPLLContent + 66
        0x0000123c:    2703        .'      MOVS     r7,#3
        0x0000123e:    00a4        ..      LSLS     r4,r4,#2
        0x00001240:    e002        ..      B        0x1248 ; DrvSYS_GetPLLContent + 72
        0x00001242:    481c        .H      LDR      r0,[pc,#112] ; [0x12b4] = 0xc22e
        0x00001244:    b005        ..      ADD      sp,sp,#0x14
        0x00001246:    bdf0        ..      POP      {r4-r7,pc}
        0x00001248:    9803        ..      LDR      r0,[sp,#0xc]
        0x0000124a:    2800        .(      CMP      r0,#0
        0x0000124c:    d102        ..      BNE      0x1254 ; DrvSYS_GetPLLContent + 84
        0x0000124e:    4815        .H      LDR      r0,[pc,#84] ; [0x12a4] = 0xb71b00
        0x00001250:    9002        ..      STR      r0,[sp,#8]
        0x00001252:    e004        ..      B        0x125e ; DrvSYS_GetPLLContent + 94
        0x00001254:    9803        ..      LDR      r0,[sp,#0xc]
        0x00001256:    2801        .(      CMP      r0,#1
        0x00001258:    d101        ..      BNE      0x125e ; DrvSYS_GetPLLContent + 94
        0x0000125a:    4817        .H      LDR      r0,[pc,#92] ; [0x12b8] = 0x1518000
        0x0000125c:    9002        ..      STR      r0,[sp,#8]
        0x0000125e:    4917        .I      LDR      r1,[pc,#92] ; [0x12bc] = 0xf4240
        0x00001260:    4620         F      MOV      r0,r4
        0x00001262:    f7fff8d9    ....    BL       __aeabi_uidiv ; 0x418
        0x00001266:    4606        .F      MOV      r6,r0
        0x00001268:    4914        .I      LDR      r1,[pc,#80] ; [0x12bc] = 0xf4240
        0x0000126a:    9802        ..      LDR      r0,[sp,#8]
        0x0000126c:    f7fff8d4    ....    BL       __aeabi_uidiv ; 0x418
        0x00001270:    4605        .F      MOV      r5,r0
        0x00001272:    e00c        ..      B        0x128e ; DrvSYS_GetPLLContent + 142
        0x00001274:    07e8        ..      LSLS     r0,r5,#31
        0x00001276:    0fc0        ..      LSRS     r0,r0,#31
        0x00001278:    d106        ..      BNE      0x1288 ; DrvSYS_GetPLLContent + 136
        0x0000127a:    07f0        ..      LSLS     r0,r6,#31
        0x0000127c:    0fc0        ..      LSRS     r0,r0,#31
        0x0000127e:    d103        ..      BNE      0x1288 ; DrvSYS_GetPLLContent + 136
        0x00001280:    2d02        .-      CMP      r5,#2
        0x00001282:    d001        ..      BEQ      0x1288 ; DrvSYS_GetPLLContent + 136
        0x00001284:    2e02        ..      CMP      r6,#2
        0x00001286:    d100        ..      BNE      0x128a ; DrvSYS_GetPLLContent + 138
        0x00001288:    e002        ..      B        0x1290 ; DrvSYS_GetPLLContent + 144
        0x0000128a:    086d        m.      LSRS     r5,r5,#1
        0x0000128c:    0876        v.      LSRS     r6,r6,#1
        0x0000128e:    e7f1        ..      B        0x1274 ; DrvSYS_GetPLLContent + 116
        0x00001290:    bf00        ..      NOP      
        0x00001292:    03b8        ..      LSLS     r0,r7,#14
        0x00001294:    1ea9        ..      SUBS     r1,r5,#2
        0x00001296:    0249        I.      LSLS     r1,r1,#9
        0x00001298:    4308        .C      ORRS     r0,r0,r1
        0x0000129a:    1eb1        ..      SUBS     r1,r6,#2
        0x0000129c:    4308        .C      ORRS     r0,r0,r1
        0x0000129e:    9001        ..      STR      r0,[sp,#4]
        0x000012a0:    9801        ..      LDR      r0,[sp,#4]
        0x000012a2:    e7cf        ..      B        0x1244 ; DrvSYS_GetPLLContent + 68
    $d
        0x000012a4:    00b71b00    ....    DCD    12000000
        0x000012a8:    0bebc200    ....    DCD    200000000
        0x000012ac:    05f5e100    ....    DCD    100000000
        0x000012b0:    02faf080    ....    DCD    50000000
        0x000012b4:    0000c22e    ....    DCD    49710
        0x000012b8:    01518000    ..Q.    DCD    22118400
        0x000012bc:    000f4240    @B..    DCD    1000000
    $t
    i.DrvSYS_IsProtectedRegLocked
    DrvSYS_IsProtectedRegLocked
        0x000012c0:    4802        .H      LDR      r0,[pc,#8] ; [0x12cc] = 0x50000100
        0x000012c2:    6800        .h      LDR      r0,[r0,#0]
        0x000012c4:    07c0        ..      LSLS     r0,r0,#31
        0x000012c6:    0fc0        ..      LSRS     r0,r0,#31
        0x000012c8:    4770        pG      BX       lr
    $d
        0x000012ca:    0000        ..      DCW    0
        0x000012cc:    50000100    ...P    DCD    1342177536
    $t
    i.DrvSYS_Open
    DrvSYS_Open
        0x000012d0:    b5f8        ..      PUSH     {r3-r7,lr}
        0x000012d2:    4605        .F      MOV      r5,r0
        0x000012d4:    2600        .&      MOVS     r6,#0
        0x000012d6:    4825        %H      LDR      r0,[pc,#148] ; [0x136c] = 0x2faf080
        0x000012d8:    4285        .B      CMP      r5,r0
        0x000012da:    d802        ..      BHI      0x12e2 ; DrvSYS_Open + 18
        0x000012dc:    1040        @.      ASRS     r0,r0,#1
        0x000012de:    4285        .B      CMP      r5,r0
        0x000012e0:    d201        ..      BCS      0x12e6 ; DrvSYS_Open + 22
        0x000012e2:    4823        #H      LDR      r0,[pc,#140] ; [0x1370] = 0xffff9606
        0x000012e4:    bdf8        ..      POP      {r3-r7,pc}
        0x000012e6:    f7ffffeb    ....    BL       DrvSYS_IsProtectedRegLocked ; 0x12c0
        0x000012ea:    2800        .(      CMP      r0,#0
        0x000012ec:    d102        ..      BNE      0x12f4 ; DrvSYS_Open + 36
        0x000012ee:    4820         H      LDR      r0,[pc,#128] ; [0x1370] = 0xffff9606
        0x000012f0:    1c40        @.      ADDS     r0,r0,#1
        0x000012f2:    e7f7        ..      B        0x12e4 ; DrvSYS_Open + 20
        0x000012f4:    481f        .H      LDR      r0,[pc,#124] ; [0x1374] = 0x50000200
        0x000012f6:    6a00        .j      LDR      r0,[r0,#0x20]
        0x000012f8:    0300        ..      LSLS     r0,r0,#12
        0x000012fa:    0fc0        ..      LSRS     r0,r0,#31
        0x000012fc:    d108        ..      BNE      0x1310 ; DrvSYS_Open + 64
        0x000012fe:    481d        .H      LDR      r0,[pc,#116] ; [0x1374] = 0x50000200
        0x00001300:    6800        .h      LDR      r0,[r0,#0]
        0x00001302:    0840        @.      LSRS     r0,r0,#1
        0x00001304:    0040        @.      LSLS     r0,r0,#1
        0x00001306:    1c40        @.      ADDS     r0,r0,#1
        0x00001308:    491a        .I      LDR      r1,[pc,#104] ; [0x1374] = 0x50000200
        0x0000130a:    6008        .`      STR      r0,[r1,#0]
        0x0000130c:    2600        .&      MOVS     r6,#0
        0x0000130e:    e007        ..      B        0x1320 ; DrvSYS_Open + 80
        0x00001310:    4818        .H      LDR      r0,[pc,#96] ; [0x1374] = 0x50000200
        0x00001312:    6800        .h      LDR      r0,[r0,#0]
        0x00001314:    2104        .!      MOVS     r1,#4
        0x00001316:    4388        .C      BICS     r0,r0,r1
        0x00001318:    1d00        ..      ADDS     r0,r0,#4
        0x0000131a:    4916        .I      LDR      r1,[pc,#88] ; [0x1374] = 0x50000200
        0x0000131c:    6008        .`      STR      r0,[r1,#0]
        0x0000131e:    2601        .&      MOVS     r6,#1
        0x00001320:    4629        )F      MOV      r1,r5
        0x00001322:    4630        0F      MOV      r0,r6
        0x00001324:    f7ffff6c    ..l.    BL       DrvSYS_GetPLLContent ; 0x1200
        0x00001328:    4607        .F      MOV      r7,r0
        0x0000132a:    2400        .$      MOVS     r4,#0
        0x0000132c:    e000        ..      B        0x1330 ; DrvSYS_Open + 96
        0x0000132e:    1c64        d.      ADDS     r4,r4,#1
        0x00001330:    4811        .H      LDR      r0,[pc,#68] ; [0x1378] = 0x2710
        0x00001332:    4284        .B      CMP      r4,r0
        0x00001334:    d3fb        ..      BCC      0x132e ; DrvSYS_Open + 94
        0x00001336:    4638        8F      MOV      r0,r7
        0x00001338:    f000f83c    ..<.    BL       DrvSYS_SetPLLContent ; 0x13b4
        0x0000133c:    480d        .H      LDR      r0,[pc,#52] ; [0x1374] = 0x50000200
        0x0000133e:    6a00        .j      LDR      r0,[r0,#0x20]
        0x00001340:    2101        .!      MOVS     r1,#1
        0x00001342:    0489        ..      LSLS     r1,r1,#18
        0x00001344:    4388        .C      BICS     r0,r0,r1
        0x00001346:    490b        .I      LDR      r1,[pc,#44] ; [0x1374] = 0x50000200
        0x00001348:    6208        .b      STR      r0,[r1,#0x20]
        0x0000134a:    4608        .F      MOV      r0,r1
        0x0000134c:    6a00        .j      LDR      r0,[r0,#0x20]
        0x0000134e:    01c9        ..      LSLS     r1,r1,#7
        0x00001350:    4388        .C      BICS     r0,r0,r1
        0x00001352:    4908        .I      LDR      r1,[pc,#32] ; [0x1374] = 0x50000200
        0x00001354:    6208        .b      STR      r0,[r1,#0x20]
        0x00001356:    2400        .$      MOVS     r4,#0
        0x00001358:    e000        ..      B        0x135c ; DrvSYS_Open + 140
        0x0000135a:    1c64        d.      ADDS     r4,r4,#1
        0x0000135c:    4806        .H      LDR      r0,[pc,#24] ; [0x1378] = 0x2710
        0x0000135e:    4284        .B      CMP      r4,r0
        0x00001360:    d3fb        ..      BCC      0x135a ; DrvSYS_Open + 138
        0x00001362:    2002        .       MOVS     r0,#2
        0x00001364:    f000f80a    ....    BL       DrvSYS_SelectHCLKSource ; 0x137c
        0x00001368:    2000        .       MOVS     r0,#0
        0x0000136a:    e7bb        ..      B        0x12e4 ; DrvSYS_Open + 20
    $d
        0x0000136c:    02faf080    ....    DCD    50000000
        0x00001370:    ffff9606    ....    DCD    4294940166
        0x00001374:    50000200    ...P    DCD    1342177792
        0x00001378:    00002710    .'..    DCD    10000
    $t
    i.DrvSYS_SelectHCLKSource
    DrvSYS_SelectHCLKSource
        0x0000137c:    b510        ..      PUSH     {r4,lr}
        0x0000137e:    4604        .F      MOV      r4,r0
        0x00001380:    2c07        .,      CMP      r4,#7
        0x00001382:    dc03        ..      BGT      0x138c ; DrvSYS_SelectHCLKSource + 16
        0x00001384:    2c03        .,      CMP      r4,#3
        0x00001386:    dd03        ..      BLE      0x1390 ; DrvSYS_SelectHCLKSource + 20
        0x00001388:    2c07        .,      CMP      r4,#7
        0x0000138a:    da01        ..      BGE      0x1390 ; DrvSYS_SelectHCLKSource + 20
        0x0000138c:    4807        .H      LDR      r0,[pc,#28] ; [0x13ac] = 0xffff9603
        0x0000138e:    bd10        ..      POP      {r4,pc}
        0x00001390:    4807        .H      LDR      r0,[pc,#28] ; [0x13b0] = 0x50000200
        0x00001392:    6900        .i      LDR      r0,[r0,#0x10]
        0x00001394:    08c0        ..      LSRS     r0,r0,#3
        0x00001396:    00c0        ..      LSLS     r0,r0,#3
        0x00001398:    0761        a.      LSLS     r1,r4,#29
        0x0000139a:    0f49        I.      LSRS     r1,r1,#29
        0x0000139c:    4308        .C      ORRS     r0,r0,r1
        0x0000139e:    4904        .I      LDR      r1,[pc,#16] ; [0x13b0] = 0x50000200
        0x000013a0:    6108        .a      STR      r0,[r1,#0x10]
        0x000013a2:    f000feaf    ....    BL       SystemCoreClockUpdate ; 0x2104
        0x000013a6:    2000        .       MOVS     r0,#0
        0x000013a8:    e7f1        ..      B        0x138e ; DrvSYS_SelectHCLKSource + 18
    $d
        0x000013aa:    0000        ..      DCW    0
        0x000013ac:    ffff9603    ....    DCD    4294940163
        0x000013b0:    50000200    ...P    DCD    1342177792
    $t
    i.DrvSYS_SetPLLContent
    DrvSYS_SetPLLContent
        0x000013b4:    4911        .I      LDR      r1,[pc,#68] ; [0x13fc] = 0x50000200
        0x000013b6:    6a09        .j      LDR      r1,[r1,#0x20]
        0x000013b8:    0a49        I.      LSRS     r1,r1,#9
        0x000013ba:    0249        I.      LSLS     r1,r1,#9
        0x000013bc:    05c2        ..      LSLS     r2,r0,#23
        0x000013be:    0dd2        ..      LSRS     r2,r2,#23
        0x000013c0:    4311        .C      ORRS     r1,r1,r2
        0x000013c2:    4a0e        .J      LDR      r2,[pc,#56] ; [0x13fc] = 0x50000200
        0x000013c4:    6211        .b      STR      r1,[r2,#0x20]
        0x000013c6:    4611        .F      MOV      r1,r2
        0x000013c8:    6a09        .j      LDR      r1,[r1,#0x20]
        0x000013ca:    221f        ."      MOVS     r2,#0x1f
        0x000013cc:    0252        R.      LSLS     r2,r2,#9
        0x000013ce:    4391        .C      BICS     r1,r1,r2
        0x000013d0:    0a42        B.      LSRS     r2,r0,#9
        0x000013d2:    0252        R.      LSLS     r2,r2,#9
        0x000013d4:    231f        .#      MOVS     r3,#0x1f
        0x000013d6:    025b        [.      LSLS     r3,r3,#9
        0x000013d8:    401a        .@      ANDS     r2,r2,r3
        0x000013da:    4311        .C      ORRS     r1,r1,r2
        0x000013dc:    4a07        .J      LDR      r2,[pc,#28] ; [0x13fc] = 0x50000200
        0x000013de:    6211        .b      STR      r1,[r2,#0x20]
        0x000013e0:    4611        .F      MOV      r1,r2
        0x000013e2:    6a09        .j      LDR      r1,[r1,#0x20]
        0x000013e4:    2203        ."      MOVS     r2,#3
        0x000013e6:    0392        ..      LSLS     r2,r2,#14
        0x000013e8:    4391        .C      BICS     r1,r1,r2
        0x000013ea:    0b82        ..      LSRS     r2,r0,#14
        0x000013ec:    0392        ..      LSLS     r2,r2,#14
        0x000013ee:    2303        .#      MOVS     r3,#3
        0x000013f0:    039b        ..      LSLS     r3,r3,#14
        0x000013f2:    401a        .@      ANDS     r2,r2,r3
        0x000013f4:    4311        .C      ORRS     r1,r1,r2
        0x000013f6:    4a01        .J      LDR      r2,[pc,#4] ; [0x13fc] = 0x50000200
        0x000013f8:    6211        .b      STR      r1,[r2,#0x20]
        0x000013fa:    4770        pG      BX       lr
    $d
        0x000013fc:    50000200    ...P    DCD    1342177792
    $t
    i.EINT0_IRQHandler
    EINT0_IRQHandler
        0x00001400:    b510        ..      PUSH     {r4,lr}
        0x00001402:    2001        .       MOVS     r0,#1
        0x00001404:    0380        ..      LSLS     r0,r0,#14
        0x00001406:    4905        .I      LDR      r1,[pc,#20] ; [0x141c] = 0x50004040
        0x00001408:    6208        .b      STR      r0,[r1,#0x20]
        0x0000140a:    4805        .H      LDR      r0,[pc,#20] ; [0x1420] = 0x2000064c
        0x0000140c:    6800        .h      LDR      r0,[r0,#0]
        0x0000140e:    2800        .(      CMP      r0,#0
        0x00001410:    d002        ..      BEQ      0x1418 ; EINT0_IRQHandler + 24
        0x00001412:    4803        .H      LDR      r0,[pc,#12] ; [0x1420] = 0x2000064c
        0x00001414:    6800        .h      LDR      r0,[r0,#0]
        0x00001416:    4780        .G      BLX      r0
        0x00001418:    bd10        ..      POP      {r4,pc}
    $d
        0x0000141a:    0000        ..      DCW    0
        0x0000141c:    50004040    @@.P    DCD    1342193728
        0x00001420:    2000064c    L..     DCD    536872524
    $t
    i.EINT1_IRQHandler
    EINT1_IRQHandler
        0x00001424:    b510        ..      PUSH     {r4,lr}
        0x00001426:    2001        .       MOVS     r0,#1
        0x00001428:    03c0        ..      LSLS     r0,r0,#15
        0x0000142a:    4905        .I      LDR      r1,[pc,#20] ; [0x1440] = 0x50004040
        0x0000142c:    6208        .b      STR      r0,[r1,#0x20]
        0x0000142e:    4805        .H      LDR      r0,[pc,#20] ; [0x1444] = 0x20000650
        0x00001430:    6800        .h      LDR      r0,[r0,#0]
        0x00001432:    2800        .(      CMP      r0,#0
        0x00001434:    d002        ..      BEQ      0x143c ; EINT1_IRQHandler + 24
        0x00001436:    4803        .H      LDR      r0,[pc,#12] ; [0x1444] = 0x20000650
        0x00001438:    6800        .h      LDR      r0,[r0,#0]
        0x0000143a:    4780        .G      BLX      r0
        0x0000143c:    bd10        ..      POP      {r4,pc}
    $d
        0x0000143e:    0000        ..      DCW    0
        0x00001440:    50004040    @@.P    DCD    1342193728
        0x00001444:    20000650    P..     DCD    536872528
    $t
    i.GPAB_IRQHandler
    GPAB_IRQHandler
        0x00001448:    b570        p.      PUSH     {r4-r6,lr}
        0x0000144a:    480c        .H      LDR      r0,[pc,#48] ; [0x147c] = 0x50004000
        0x0000144c:    6a05        .j      LDR      r5,[r0,#0x20]
        0x0000144e:    480b        .H      LDR      r0,[pc,#44] ; [0x147c] = 0x50004000
        0x00001450:    3040        @0      ADDS     r0,r0,#0x40
        0x00001452:    6a04        .j      LDR      r4,[r0,#0x20]
        0x00001454:    2103        .!      MOVS     r1,#3
        0x00001456:    0389        ..      LSLS     r1,r1,#14
        0x00001458:    4620         F      MOV      r0,r4
        0x0000145a:    4388        .C      BICS     r0,r0,r1
        0x0000145c:    4604        .F      MOV      r4,r0
        0x0000145e:    4807        .H      LDR      r0,[pc,#28] ; [0x147c] = 0x50004000
        0x00001460:    6205        .b      STR      r5,[r0,#0x20]
        0x00001462:    4806        .H      LDR      r0,[pc,#24] ; [0x147c] = 0x50004000
        0x00001464:    3040        @0      ADDS     r0,r0,#0x40
        0x00001466:    6204        .b      STR      r4,[r0,#0x20]
        0x00001468:    4805        .H      LDR      r0,[pc,#20] ; [0x1480] = 0x20000644
        0x0000146a:    6800        .h      LDR      r0,[r0,#0]
        0x0000146c:    2800        .(      CMP      r0,#0
        0x0000146e:    d004        ..      BEQ      0x147a ; GPAB_IRQHandler + 50
        0x00001470:    4621        !F      MOV      r1,r4
        0x00001472:    4628        (F      MOV      r0,r5
        0x00001474:    4a02        .J      LDR      r2,[pc,#8] ; [0x1480] = 0x20000644
        0x00001476:    6812        .h      LDR      r2,[r2,#0]
        0x00001478:    4790        .G      BLX      r2
        0x0000147a:    bd70        p.      POP      {r4-r6,pc}
    $d
        0x0000147c:    50004000    .@.P    DCD    1342193664
        0x00001480:    20000644    D..     DCD    536872516
    $t
    i.GPCDE_IRQHandler
    GPCDE_IRQHandler
        0x00001484:    b570        p.      PUSH     {r4-r6,lr}
        0x00001486:    480d        .H      LDR      r0,[pc,#52] ; [0x14bc] = 0x50004080
        0x00001488:    6a04        .j      LDR      r4,[r0,#0x20]
        0x0000148a:    480c        .H      LDR      r0,[pc,#48] ; [0x14bc] = 0x50004080
        0x0000148c:    3040        @0      ADDS     r0,r0,#0x40
        0x0000148e:    6a05        .j      LDR      r5,[r0,#0x20]
        0x00001490:    480a        .H      LDR      r0,[pc,#40] ; [0x14bc] = 0x50004080
        0x00001492:    3080        .0      ADDS     r0,r0,#0x80
        0x00001494:    6a06        .j      LDR      r6,[r0,#0x20]
        0x00001496:    4809        .H      LDR      r0,[pc,#36] ; [0x14bc] = 0x50004080
        0x00001498:    6204        .b      STR      r4,[r0,#0x20]
        0x0000149a:    4808        .H      LDR      r0,[pc,#32] ; [0x14bc] = 0x50004080
        0x0000149c:    3040        @0      ADDS     r0,r0,#0x40
        0x0000149e:    6205        .b      STR      r5,[r0,#0x20]
        0x000014a0:    4806        .H      LDR      r0,[pc,#24] ; [0x14bc] = 0x50004080
        0x000014a2:    3080        .0      ADDS     r0,r0,#0x80
        0x000014a4:    6206        .b      STR      r6,[r0,#0x20]
        0x000014a6:    4806        .H      LDR      r0,[pc,#24] ; [0x14c0] = 0x20000648
        0x000014a8:    6800        .h      LDR      r0,[r0,#0]
        0x000014aa:    2800        .(      CMP      r0,#0
        0x000014ac:    d005        ..      BEQ      0x14ba ; GPCDE_IRQHandler + 54
        0x000014ae:    4632        2F      MOV      r2,r6
        0x000014b0:    4629        )F      MOV      r1,r5
        0x000014b2:    4620         F      MOV      r0,r4
        0x000014b4:    4b02        .K      LDR      r3,[pc,#8] ; [0x14c0] = 0x20000648
        0x000014b6:    681b        .h      LDR      r3,[r3,#0]
        0x000014b8:    4798        .G      BLX      r3
        0x000014ba:    bd70        p.      POP      {r4-r6,pc}
    $d
        0x000014bc:    50004080    .@.P    DCD    1342193792
        0x000014c0:    20000648    H..     DCD    536872520
    $t
    i.HEX2Disp
    HEX2Disp
        0x000014c4:    4601        .F      MOV      r1,r0
        0x000014c6:    4a01        .J      LDR      r2,[pc,#4] ; [0x14cc] = 0x273c
        0x000014c8:    5c50        P\      LDRB     r0,[r2,r1]
        0x000014ca:    4770        pG      BX       lr
    $d
        0x000014cc:    0000273c    <'..    DCD    10044
    $t
    i.I2C0_IRQHandler
    I2C0_IRQHandler
        0x000014d0:    b510        ..      PUSH     {r4,lr}
        0x000014d2:    481b        .H      LDR      r0,[pc,#108] ; [0x1540] = 0x40020000
        0x000014d4:    68c4        .h      LDR      r4,[r0,#0xc]
        0x000014d6:    6940        @i      LDR      r0,[r0,#0x14]
        0x000014d8:    07c0        ..      LSLS     r0,r0,#31
        0x000014da:    0fc0        ..      LSRS     r0,r0,#31
        0x000014dc:    d00f        ..      BEQ      0x14fe ; I2C0_IRQHandler + 46
        0x000014de:    4818        .H      LDR      r0,[pc,#96] ; [0x1540] = 0x40020000
        0x000014e0:    6940        @i      LDR      r0,[r0,#0x14]
        0x000014e2:    0840        @.      LSRS     r0,r0,#1
        0x000014e4:    0040        @.      LSLS     r0,r0,#1
        0x000014e6:    1c40        @.      ADDS     r0,r0,#1
        0x000014e8:    4915        .I      LDR      r1,[pc,#84] ; [0x1540] = 0x40020000
        0x000014ea:    6148        Ha      STR      r0,[r1,#0x14]
        0x000014ec:    4815        .H      LDR      r0,[pc,#84] ; [0x1544] = 0x20000654
        0x000014ee:    68c0        .h      LDR      r0,[r0,#0xc]
        0x000014f0:    2800        .(      CMP      r0,#0
        0x000014f2:    d024        $.      BEQ      0x153e ; I2C0_IRQHandler + 110
        0x000014f4:    4813        .H      LDR      r0,[pc,#76] ; [0x1544] = 0x20000654
        0x000014f6:    68c1        .h      LDR      r1,[r0,#0xc]
        0x000014f8:    4620         F      MOV      r0,r4
        0x000014fa:    4788        .G      BLX      r1
        0x000014fc:    e01f        ..      B        0x153e ; I2C0_IRQHandler + 110
        0x000014fe:    2c00        .,      CMP      r4,#0
        0x00001500:    d00a        ..      BEQ      0x1518 ; I2C0_IRQHandler + 72
        0x00001502:    2c38        8,      CMP      r4,#0x38
        0x00001504:    d111        ..      BNE      0x152a ; I2C0_IRQHandler + 90
        0x00001506:    480f        .H      LDR      r0,[pc,#60] ; [0x1544] = 0x20000654
        0x00001508:    6840        @h      LDR      r0,[r0,#4]
        0x0000150a:    2800        .(      CMP      r0,#0
        0x0000150c:    d003        ..      BEQ      0x1516 ; I2C0_IRQHandler + 70
        0x0000150e:    480d        .H      LDR      r0,[pc,#52] ; [0x1544] = 0x20000654
        0x00001510:    6841        Ah      LDR      r1,[r0,#4]
        0x00001512:    4620         F      MOV      r0,r4
        0x00001514:    4788        .G      BLX      r1
        0x00001516:    e011        ..      B        0x153c ; I2C0_IRQHandler + 108
        0x00001518:    480a        .H      LDR      r0,[pc,#40] ; [0x1544] = 0x20000654
        0x0000151a:    6880        .h      LDR      r0,[r0,#8]
        0x0000151c:    2800        .(      CMP      r0,#0
        0x0000151e:    d003        ..      BEQ      0x1528 ; I2C0_IRQHandler + 88
        0x00001520:    4808        .H      LDR      r0,[pc,#32] ; [0x1544] = 0x20000654
        0x00001522:    6881        .h      LDR      r1,[r0,#8]
        0x00001524:    4620         F      MOV      r0,r4
        0x00001526:    4788        .G      BLX      r1
        0x00001528:    e008        ..      B        0x153c ; I2C0_IRQHandler + 108
        0x0000152a:    4806        .H      LDR      r0,[pc,#24] ; [0x1544] = 0x20000654
        0x0000152c:    6800        .h      LDR      r0,[r0,#0]
        0x0000152e:    2800        .(      CMP      r0,#0
        0x00001530:    d003        ..      BEQ      0x153a ; I2C0_IRQHandler + 106
        0x00001532:    4804        .H      LDR      r0,[pc,#16] ; [0x1544] = 0x20000654
        0x00001534:    6801        .h      LDR      r1,[r0,#0]
        0x00001536:    4620         F      MOV      r0,r4
        0x00001538:    4788        .G      BLX      r1
        0x0000153a:    bf00        ..      NOP      
        0x0000153c:    bf00        ..      NOP      
        0x0000153e:    bd10        ..      POP      {r4,pc}
    $d
        0x00001540:    40020000    ...@    DCD    1073872896
        0x00001544:    20000654    T..     DCD    536872532
    $t
    i.I2C1_IRQHandler
    I2C1_IRQHandler
        0x00001548:    b510        ..      PUSH     {r4,lr}
        0x0000154a:    481b        .H      LDR      r0,[pc,#108] ; [0x15b8] = 0x40120000
        0x0000154c:    68c4        .h      LDR      r4,[r0,#0xc]
        0x0000154e:    6940        @i      LDR      r0,[r0,#0x14]
        0x00001550:    07c0        ..      LSLS     r0,r0,#31
        0x00001552:    0fc0        ..      LSRS     r0,r0,#31
        0x00001554:    d00f        ..      BEQ      0x1576 ; I2C1_IRQHandler + 46
        0x00001556:    4818        .H      LDR      r0,[pc,#96] ; [0x15b8] = 0x40120000
        0x00001558:    6940        @i      LDR      r0,[r0,#0x14]
        0x0000155a:    0840        @.      LSRS     r0,r0,#1
        0x0000155c:    0040        @.      LSLS     r0,r0,#1
        0x0000155e:    1c40        @.      ADDS     r0,r0,#1
        0x00001560:    4915        .I      LDR      r1,[pc,#84] ; [0x15b8] = 0x40120000
        0x00001562:    6148        Ha      STR      r0,[r1,#0x14]
        0x00001564:    4815        .H      LDR      r0,[pc,#84] ; [0x15bc] = 0x20000664
        0x00001566:    68c0        .h      LDR      r0,[r0,#0xc]
        0x00001568:    2800        .(      CMP      r0,#0
        0x0000156a:    d024        $.      BEQ      0x15b6 ; I2C1_IRQHandler + 110
        0x0000156c:    4813        .H      LDR      r0,[pc,#76] ; [0x15bc] = 0x20000664
        0x0000156e:    68c1        .h      LDR      r1,[r0,#0xc]
        0x00001570:    4620         F      MOV      r0,r4
        0x00001572:    4788        .G      BLX      r1
        0x00001574:    e01f        ..      B        0x15b6 ; I2C1_IRQHandler + 110
        0x00001576:    2c00        .,      CMP      r4,#0
        0x00001578:    d00a        ..      BEQ      0x1590 ; I2C1_IRQHandler + 72
        0x0000157a:    2c38        8,      CMP      r4,#0x38
        0x0000157c:    d111        ..      BNE      0x15a2 ; I2C1_IRQHandler + 90
        0x0000157e:    480f        .H      LDR      r0,[pc,#60] ; [0x15bc] = 0x20000664
        0x00001580:    6840        @h      LDR      r0,[r0,#4]
        0x00001582:    2800        .(      CMP      r0,#0
        0x00001584:    d003        ..      BEQ      0x158e ; I2C1_IRQHandler + 70
        0x00001586:    480d        .H      LDR      r0,[pc,#52] ; [0x15bc] = 0x20000664
        0x00001588:    6841        Ah      LDR      r1,[r0,#4]
        0x0000158a:    4620         F      MOV      r0,r4
        0x0000158c:    4788        .G      BLX      r1
        0x0000158e:    e011        ..      B        0x15b4 ; I2C1_IRQHandler + 108
        0x00001590:    480a        .H      LDR      r0,[pc,#40] ; [0x15bc] = 0x20000664
        0x00001592:    6880        .h      LDR      r0,[r0,#8]
        0x00001594:    2800        .(      CMP      r0,#0
        0x00001596:    d003        ..      BEQ      0x15a0 ; I2C1_IRQHandler + 88
        0x00001598:    4808        .H      LDR      r0,[pc,#32] ; [0x15bc] = 0x20000664
        0x0000159a:    6881        .h      LDR      r1,[r0,#8]
        0x0000159c:    4620         F      MOV      r0,r4
        0x0000159e:    4788        .G      BLX      r1
        0x000015a0:    e008        ..      B        0x15b4 ; I2C1_IRQHandler + 108
        0x000015a2:    4806        .H      LDR      r0,[pc,#24] ; [0x15bc] = 0x20000664
        0x000015a4:    6800        .h      LDR      r0,[r0,#0]
        0x000015a6:    2800        .(      CMP      r0,#0
        0x000015a8:    d003        ..      BEQ      0x15b2 ; I2C1_IRQHandler + 106
        0x000015aa:    4804        .H      LDR      r0,[pc,#16] ; [0x15bc] = 0x20000664
        0x000015ac:    6801        .h      LDR      r1,[r0,#0]
        0x000015ae:    4620         F      MOV      r0,r4
        0x000015b0:    4788        .G      BLX      r1
        0x000015b2:    bf00        ..      NOP      
        0x000015b4:    bf00        ..      NOP      
        0x000015b6:    bd10        ..      POP      {r4,pc}
    $d
        0x000015b8:    40120000    ...@    DCD    1074921472
        0x000015bc:    20000664    d..     DCD    536872548
    $t
    i.InitADC0
    InitADC0
        0x000015c0:    4824        $H      LDR      r0,[pc,#144] ; [0x1654] = 0x50004000
        0x000015c2:    6840        @h      LDR      r0,[r0,#4]
        0x000015c4:    2101        .!      MOVS     r1,#1
        0x000015c6:    0409        ..      LSLS     r1,r1,#16
        0x000015c8:    4308        .C      ORRS     r0,r0,r1
        0x000015ca:    4922        "I      LDR      r1,[pc,#136] ; [0x1654] = 0x50004000
        0x000015cc:    6048        H`      STR      r0,[r1,#4]
        0x000015ce:    2005        .       MOVS     r0,#5
        0x000015d0:    0700        ..      LSLS     r0,r0,#28
        0x000015d2:    6b00        .k      LDR      r0,[r0,#0x30]
        0x000015d4:    0840        @.      LSRS     r0,r0,#1
        0x000015d6:    0040        @.      LSLS     r0,r0,#1
        0x000015d8:    1c40        @.      ADDS     r0,r0,#1
        0x000015da:    2105        .!      MOVS     r1,#5
        0x000015dc:    0709        ..      LSLS     r1,r1,#28
        0x000015de:    6308        .c      STR      r0,[r1,#0x30]
        0x000015e0:    481d        .H      LDR      r0,[pc,#116] ; [0x1658] = 0x50000200
        0x000015e2:    6940        @i      LDR      r0,[r0,#0x14]
        0x000015e4:    210c        .!      MOVS     r1,#0xc
        0x000015e6:    4388        .C      BICS     r0,r0,r1
        0x000015e8:    300c        .0      ADDS     r0,r0,#0xc
        0x000015ea:    491b        .I      LDR      r1,[pc,#108] ; [0x1658] = 0x50000200
        0x000015ec:    6148        Ha      STR      r0,[r1,#0x14]
        0x000015ee:    4608        .F      MOV      r0,r1
        0x000015f0:    6980        .i      LDR      r0,[r0,#0x18]
        0x000015f2:    21ff        .!      MOVS     r1,#0xff
        0x000015f4:    0409        ..      LSLS     r1,r1,#16
        0x000015f6:    4388        .C      BICS     r0,r0,r1
        0x000015f8:    2101        .!      MOVS     r1,#1
        0x000015fa:    0409        ..      LSLS     r1,r1,#16
        0x000015fc:    1840        @.      ADDS     r0,r0,r1
        0x000015fe:    4916        .I      LDR      r1,[pc,#88] ; [0x1658] = 0x50000200
        0x00001600:    6188        .a      STR      r0,[r1,#0x18]
        0x00001602:    4608        .F      MOV      r0,r1
        0x00001604:    6880        .h      LDR      r0,[r0,#8]
        0x00001606:    04c9        ..      LSLS     r1,r1,#19
        0x00001608:    4388        .C      BICS     r0,r0,r1
        0x0000160a:    1840        @.      ADDS     r0,r0,r1
        0x0000160c:    4912        .I      LDR      r1,[pc,#72] ; [0x1658] = 0x50000200
        0x0000160e:    6088        .`      STR      r0,[r1,#8]
        0x00001610:    4812        .H      LDR      r0,[pc,#72] ; [0x165c] = 0x400e0000
        0x00001612:    6a00        .j      LDR      r0,[r0,#0x20]
        0x00001614:    0840        @.      LSRS     r0,r0,#1
        0x00001616:    0040        @.      LSLS     r0,r0,#1
        0x00001618:    1c40        @.      ADDS     r0,r0,#1
        0x0000161a:    4910        .I      LDR      r1,[pc,#64] ; [0x165c] = 0x400e0000
        0x0000161c:    6208        .b      STR      r0,[r1,#0x20]
        0x0000161e:    4608        .F      MOV      r0,r1
        0x00001620:    6a00        .j      LDR      r0,[r0,#0x20]
        0x00001622:    1509        ..      ASRS     r1,r1,#20
        0x00001624:    4388        .C      BICS     r0,r0,r1
        0x00001626:    490d        .I      LDR      r1,[pc,#52] ; [0x165c] = 0x400e0000
        0x00001628:    6208        .b      STR      r0,[r1,#0x20]
        0x0000162a:    4608        .F      MOV      r0,r1
        0x0000162c:    6a00        .j      LDR      r0,[r0,#0x20]
        0x0000162e:    210c        .!      MOVS     r1,#0xc
        0x00001630:    4388        .C      BICS     r0,r0,r1
        0x00001632:    490a        .I      LDR      r1,[pc,#40] ; [0x165c] = 0x400e0000
        0x00001634:    6208        .b      STR      r0,[r1,#0x20]
        0x00001636:    4608        .F      MOV      r0,r1
        0x00001638:    6a40        @j      LDR      r0,[r0,#0x24]
        0x0000163a:    0a00        ..      LSRS     r0,r0,#8
        0x0000163c:    0200        ..      LSLS     r0,r0,#8
        0x0000163e:    1c40        @.      ADDS     r0,r0,#1
        0x00001640:    6248        Hb      STR      r0,[r1,#0x24]
        0x00001642:    4608        .F      MOV      r0,r1
        0x00001644:    6a00        .j      LDR      r0,[r0,#0x20]
        0x00001646:    2101        .!      MOVS     r1,#1
        0x00001648:    02c9        ..      LSLS     r1,r1,#11
        0x0000164a:    4388        .C      BICS     r0,r0,r1
        0x0000164c:    1840        @.      ADDS     r0,r0,r1
        0x0000164e:    4903        .I      LDR      r1,[pc,#12] ; [0x165c] = 0x400e0000
        0x00001650:    6208        .b      STR      r0,[r1,#0x20]
        0x00001652:    4770        pG      BX       lr
    $d
        0x00001654:    50004000    .@.P    DCD    1342193664
        0x00001658:    50000200    ...P    DCD    1342177792
        0x0000165c:    400e0000    ...@    DCD    1074659328
    $t
    i.InitGPIOR
    InitGPIOR
        0x00001660:    b510        ..      PUSH     {r4,lr}
        0x00001662:    2201        ."      MOVS     r2,#1
        0x00001664:    210c        .!      MOVS     r1,#0xc
        0x00001666:    2000        .       MOVS     r0,#0
        0x00001668:    f7fffc16    ....    BL       DrvGPIO_Open ; 0xe98
        0x0000166c:    2201        ."      MOVS     r2,#1
        0x0000166e:    210d        .!      MOVS     r1,#0xd
        0x00001670:    2000        .       MOVS     r0,#0
        0x00001672:    f7fffc11    ....    BL       DrvGPIO_Open ; 0xe98
        0x00001676:    2201        ."      MOVS     r2,#1
        0x00001678:    210e        .!      MOVS     r1,#0xe
        0x0000167a:    2000        .       MOVS     r0,#0
        0x0000167c:    f7fffc0c    ....    BL       DrvGPIO_Open ; 0xe98
        0x00001680:    210c        .!      MOVS     r1,#0xc
        0x00001682:    2000        .       MOVS     r0,#0
        0x00001684:    f7fffc44    ..D.    BL       DrvGPIO_SetBit ; 0xf10
        0x00001688:    210d        .!      MOVS     r1,#0xd
        0x0000168a:    2000        .       MOVS     r0,#0
        0x0000168c:    f7fffc40    ..@.    BL       DrvGPIO_SetBit ; 0xf10
        0x00001690:    210e        .!      MOVS     r1,#0xe
        0x00001692:    2000        .       MOVS     r0,#0
        0x00001694:    f7fff83e    ..>.    BL       DrvGPIO_ClrBit ; 0x714
        0x00001698:    bd10        ..      POP      {r4,pc}
        0x0000169a:    0000        ..      MOVS     r0,r0
    i.InitPWM3
    InitPWM3
        0x0000169c:    2005        .       MOVS     r0,#5
        0x0000169e:    0700        ..      LSLS     r0,r0,#28
        0x000016a0:    6b00        .k      LDR      r0,[r0,#0x30]
        0x000016a2:    2101        .!      MOVS     r1,#1
        0x000016a4:    03c9        ..      LSLS     r1,r1,#15
        0x000016a6:    4388        .C      BICS     r0,r0,r1
        0x000016a8:    1840        @.      ADDS     r0,r0,r1
        0x000016aa:    2105        .!      MOVS     r1,#5
        0x000016ac:    0709        ..      LSLS     r1,r1,#28
        0x000016ae:    6308        .c      STR      r0,[r1,#0x30]
        0x000016b0:    4820         H      LDR      r0,[pc,#128] ; [0x1734] = 0x50000200
        0x000016b2:    6880        .h      LDR      r0,[r0,#8]
        0x000016b4:    2101        .!      MOVS     r1,#1
        0x000016b6:    0549        I.      LSLS     r1,r1,#21
        0x000016b8:    4388        .C      BICS     r0,r0,r1
        0x000016ba:    1840        @.      ADDS     r0,r0,r1
        0x000016bc:    491d        .I      LDR      r1,[pc,#116] ; [0x1734] = 0x50000200
        0x000016be:    6088        .`      STR      r0,[r1,#8]
        0x000016c0:    4608        .F      MOV      r0,r1
        0x000016c2:    6940        @i      LDR      r0,[r0,#0x14]
        0x000016c4:    0080        ..      LSLS     r0,r0,#2
        0x000016c6:    0880        ..      LSRS     r0,r0,#2
        0x000016c8:    2103        .!      MOVS     r1,#3
        0x000016ca:    0789        ..      LSLS     r1,r1,#30
        0x000016cc:    1840        @.      ADDS     r0,r0,r1
        0x000016ce:    4919        .I      LDR      r1,[pc,#100] ; [0x1734] = 0x50000200
        0x000016d0:    6148        Ha      STR      r0,[r1,#0x14]
        0x000016d2:    4819        .H      LDR      r0,[pc,#100] ; [0x1738] = 0x40040000
        0x000016d4:    6800        .h      LDR      r0,[r0,#0]
        0x000016d6:    21ff        .!      MOVS     r1,#0xff
        0x000016d8:    0209        ..      LSLS     r1,r1,#8
        0x000016da:    4388        .C      BICS     r0,r0,r1
        0x000016dc:    30ff        .0      ADDS     r0,r0,#0xff
        0x000016de:    3001        .0      ADDS     r0,#1
        0x000016e0:    4915        .I      LDR      r1,[pc,#84] ; [0x1738] = 0x40040000
        0x000016e2:    6008        .`      STR      r0,[r1,#0]
        0x000016e4:    4608        .F      MOV      r0,r1
        0x000016e6:    6840        @h      LDR      r0,[r0,#4]
        0x000016e8:    2107        .!      MOVS     r1,#7
        0x000016ea:    0309        ..      LSLS     r1,r1,#12
        0x000016ec:    4388        .C      BICS     r0,r0,r1
        0x000016ee:    4912        .I      LDR      r1,[pc,#72] ; [0x1738] = 0x40040000
        0x000016f0:    6048        H`      STR      r0,[r1,#4]
        0x000016f2:    4608        .F      MOV      r0,r1
        0x000016f4:    6880        .h      LDR      r0,[r0,#8]
        0x000016f6:    0249        I.      LSLS     r1,r1,#9
        0x000016f8:    4388        .C      BICS     r0,r0,r1
        0x000016fa:    1840        @.      ADDS     r0,r0,r1
        0x000016fc:    490e        .I      LDR      r1,[pc,#56] ; [0x1738] = 0x40040000
        0x000016fe:    6088        .`      STR      r0,[r1,#8]
        0x00001700:    480e        .H      LDR      r0,[pc,#56] ; [0x173c] = 0xffff
        0x00001702:    6308        .c      STR      r0,[r1,#0x30]
        0x00001704:    6348        Hc      STR      r0,[r1,#0x34]
        0x00001706:    4608        .F      MOV      r0,r1
        0x00001708:    6880        .h      LDR      r0,[r0,#8]
        0x0000170a:    0209        ..      LSLS     r1,r1,#8
        0x0000170c:    4388        .C      BICS     r0,r0,r1
        0x0000170e:    490a        .I      LDR      r1,[pc,#40] ; [0x1738] = 0x40040000
        0x00001710:    6088        .`      STR      r0,[r1,#8]
        0x00001712:    4608        .F      MOV      r0,r1
        0x00001714:    6880        .h      LDR      r0,[r0,#8]
        0x00001716:    0189        ..      LSLS     r1,r1,#6
        0x00001718:    4388        .C      BICS     r0,r0,r1
        0x0000171a:    1840        @.      ADDS     r0,r0,r1
        0x0000171c:    4906        .I      LDR      r1,[pc,#24] ; [0x1738] = 0x40040000
        0x0000171e:    6088        .`      STR      r0,[r1,#8]
        0x00001720:    4805        .H      LDR      r0,[pc,#20] ; [0x1738] = 0x40040000
        0x00001722:    3040        @0      ADDS     r0,r0,#0x40
        0x00001724:    6bc0        .k      LDR      r0,[r0,#0x3c]
        0x00001726:    2108        .!      MOVS     r1,#8
        0x00001728:    4388        .C      BICS     r0,r0,r1
        0x0000172a:    3008        .0      ADDS     r0,r0,#8
        0x0000172c:    4902        .I      LDR      r1,[pc,#8] ; [0x1738] = 0x40040000
        0x0000172e:    3140        @1      ADDS     r1,r1,#0x40
        0x00001730:    63c8        .c      STR      r0,[r1,#0x3c]
        0x00001732:    4770        pG      BX       lr
    $d
        0x00001734:    50000200    ...P    DCD    1342177792
        0x00001738:    40040000    ...@    DCD    1074003968
        0x0000173c:    0000ffff    ....    DCD    65535
    $t
    i.InitTIMER0
    InitTIMER0
        0x00001740:    4825        %H      LDR      r0,[pc,#148] ; [0x17d8] = 0x50000200
        0x00001742:    6940        @i      LDR      r0,[r0,#0x14]
        0x00001744:    2107        .!      MOVS     r1,#7
        0x00001746:    0209        ..      LSLS     r1,r1,#8
        0x00001748:    4388        .C      BICS     r0,r0,r1
        0x0000174a:    30ff        .0      ADDS     r0,r0,#0xff
        0x0000174c:    30ff        .0      ADDS     r0,r0,#0xff
        0x0000174e:    3002        .0      ADDS     r0,#2
        0x00001750:    4921        !I      LDR      r1,[pc,#132] ; [0x17d8] = 0x50000200
        0x00001752:    6148        Ha      STR      r0,[r1,#0x14]
        0x00001754:    4608        .F      MOV      r0,r1
        0x00001756:    6880        .h      LDR      r0,[r0,#8]
        0x00001758:    2104        .!      MOVS     r1,#4
        0x0000175a:    4388        .C      BICS     r0,r0,r1
        0x0000175c:    1d00        ..      ADDS     r0,r0,#4
        0x0000175e:    491e        .I      LDR      r1,[pc,#120] ; [0x17d8] = 0x50000200
        0x00001760:    6088        .`      STR      r0,[r1,#8]
        0x00001762:    2005        .       MOVS     r0,#5
        0x00001764:    0700        ..      LSLS     r0,r0,#28
        0x00001766:    6b40        @k      LDR      r0,[r0,#0x34]
        0x00001768:    21ff        .!      MOVS     r1,#0xff
        0x0000176a:    3101        .1      ADDS     r1,#1
        0x0000176c:    4388        .C      BICS     r0,r0,r1
        0x0000176e:    1840        @.      ADDS     r0,r0,r1
        0x00001770:    2105        .!      MOVS     r1,#5
        0x00001772:    0709        ..      LSLS     r1,r1,#28
        0x00001774:    6348        Hc      STR      r0,[r1,#0x34]
        0x00001776:    4819        .H      LDR      r0,[pc,#100] ; [0x17dc] = 0x40010000
        0x00001778:    6940        @i      LDR      r0,[r0,#0x14]
        0x0000177a:    0840        @.      LSRS     r0,r0,#1
        0x0000177c:    0040        @.      LSLS     r0,r0,#1
        0x0000177e:    1c40        @.      ADDS     r0,r0,#1
        0x00001780:    4916        .I      LDR      r1,[pc,#88] ; [0x17dc] = 0x40010000
        0x00001782:    6148        Ha      STR      r0,[r1,#0x14]
        0x00001784:    4608        .F      MOV      r0,r1
        0x00001786:    6940        @i      LDR      r0,[r0,#0x14]
        0x00001788:    2180        .!      MOVS     r1,#0x80
        0x0000178a:    4388        .C      BICS     r0,r0,r1
        0x0000178c:    3080        .0      ADDS     r0,r0,#0x80
        0x0000178e:    4913        .I      LDR      r1,[pc,#76] ; [0x17dc] = 0x40010000
        0x00001790:    6148        Ha      STR      r0,[r1,#0x14]
        0x00001792:    4608        .F      MOV      r0,r1
        0x00001794:    6800        .h      LDR      r0,[r0,#0]
        0x00001796:    0209        ..      LSLS     r1,r1,#8
        0x00001798:    4388        .C      BICS     r0,r0,r1
        0x0000179a:    1840        @.      ADDS     r0,r0,r1
        0x0000179c:    490f        .I      LDR      r1,[pc,#60] ; [0x17dc] = 0x40010000
        0x0000179e:    6008        .`      STR      r0,[r1,#0]
        0x000017a0:    4608        .F      MOV      r0,r1
        0x000017a2:    6800        .h      LDR      r0,[r0,#0]
        0x000017a4:    0a00        ..      LSRS     r0,r0,#8
        0x000017a6:    0200        ..      LSLS     r0,r0,#8
        0x000017a8:    6008        .`      STR      r0,[r1,#0]
        0x000017aa:    4608        .F      MOV      r0,r1
        0x000017ac:    6800        .h      LDR      r0,[r0,#0]
        0x000017ae:    0289        ..      LSLS     r1,r1,#10
        0x000017b0:    4388        .C      BICS     r0,r0,r1
        0x000017b2:    1840        @.      ADDS     r0,r0,r1
        0x000017b4:    4909        .I      LDR      r1,[pc,#36] ; [0x17dc] = 0x40010000
        0x000017b6:    6008        .`      STR      r0,[r1,#0]
        0x000017b8:    4608        .F      MOV      r0,r1
        0x000017ba:    6800        .h      LDR      r0,[r0,#0]
        0x000017bc:    0389        ..      LSLS     r1,r1,#14
        0x000017be:    4388        .C      BICS     r0,r0,r1
        0x000017c0:    1840        @.      ADDS     r0,r0,r1
        0x000017c2:    4906        .I      LDR      r1,[pc,#24] ; [0x17dc] = 0x40010000
        0x000017c4:    6008        .`      STR      r0,[r1,#0]
        0x000017c6:    4608        .F      MOV      r0,r1
        0x000017c8:    6800        .h      LDR      r0,[r0,#0]
        0x000017ca:    2101        .!      MOVS     r1,#1
        0x000017cc:    0409        ..      LSLS     r1,r1,#16
        0x000017ce:    4388        .C      BICS     r0,r0,r1
        0x000017d0:    1840        @.      ADDS     r0,r0,r1
        0x000017d2:    4902        .I      LDR      r1,[pc,#8] ; [0x17dc] = 0x40010000
        0x000017d4:    6008        .`      STR      r0,[r1,#0]
        0x000017d6:    4770        pG      BX       lr
    $d
        0x000017d8:    50000200    ...P    DCD    1342177792
        0x000017dc:    40010000    ...@    DCD    1073807360
    $t
    i.InitTIMER3
    InitTIMER3
        0x000017e0:    4821        !H      LDR      r0,[pc,#132] ; [0x1868] = 0x50000200
        0x000017e2:    6940        @i      LDR      r0,[r0,#0x14]
        0x000017e4:    2107        .!      MOVS     r1,#7
        0x000017e6:    0509        ..      LSLS     r1,r1,#20
        0x000017e8:    4388        .C      BICS     r0,r0,r1
        0x000017ea:    491f        .I      LDR      r1,[pc,#124] ; [0x1868] = 0x50000200
        0x000017ec:    6148        Ha      STR      r0,[r1,#0x14]
        0x000017ee:    4608        .F      MOV      r0,r1
        0x000017f0:    6880        .h      LDR      r0,[r0,#8]
        0x000017f2:    2120         !      MOVS     r1,#0x20
        0x000017f4:    4388        .C      BICS     r0,r0,r1
        0x000017f6:    3020         0      ADDS     r0,r0,#0x20
        0x000017f8:    491b        .I      LDR      r1,[pc,#108] ; [0x1868] = 0x50000200
        0x000017fa:    6088        .`      STR      r0,[r1,#8]
        0x000017fc:    481b        .H      LDR      r0,[pc,#108] ; [0x186c] = 0x40110000
        0x000017fe:    6a00        .j      LDR      r0,[r0,#0x20]
        0x00001800:    2103        .!      MOVS     r1,#3
        0x00001802:    06c9        ..      LSLS     r1,r1,#27
        0x00001804:    4388        .C      BICS     r0,r0,r1
        0x00001806:    2101        .!      MOVS     r1,#1
        0x00001808:    06c9        ..      LSLS     r1,r1,#27
        0x0000180a:    1840        @.      ADDS     r0,r0,r1
        0x0000180c:    4917        .I      LDR      r1,[pc,#92] ; [0x186c] = 0x40110000
        0x0000180e:    6208        .b      STR      r0,[r1,#0x20]
        0x00001810:    4608        .F      MOV      r0,r1
        0x00001812:    6a00        .j      LDR      r0,[r0,#0x20]
        0x00001814:    0a00        ..      LSRS     r0,r0,#8
        0x00001816:    0200        ..      LSLS     r0,r0,#8
        0x00001818:    300b        .0      ADDS     r0,r0,#0xb
        0x0000181a:    6208        .b      STR      r0,[r1,#0x20]
        0x0000181c:    4814        .H      LDR      r0,[pc,#80] ; [0x1870] = 0xf4240
        0x0000181e:    6248        Hb      STR      r0,[r1,#0x24]
        0x00001820:    4608        .F      MOV      r0,r1
        0x00001822:    6a00        .j      LDR      r0,[r0,#0x20]
        0x00001824:    0349        I.      LSLS     r1,r1,#13
        0x00001826:    4388        .C      BICS     r0,r0,r1
        0x00001828:    1840        @.      ADDS     r0,r0,r1
        0x0000182a:    4910        .I      LDR      r1,[pc,#64] ; [0x186c] = 0x40110000
        0x0000182c:    6208        .b      STR      r0,[r1,#0x20]
        0x0000182e:    4608        .F      MOV      r0,r1
        0x00001830:    6a80        .j      LDR      r0,[r0,#0x28]
        0x00001832:    0840        @.      LSRS     r0,r0,#1
        0x00001834:    0040        @.      LSLS     r0,r0,#1
        0x00001836:    1c40        @.      ADDS     r0,r0,#1
        0x00001838:    6288        .b      STR      r0,[r1,#0x28]
        0x0000183a:    200b        .       MOVS     r0,#0xb
        0x0000183c:    2101        .!      MOVS     r1,#1
        0x0000183e:    4081        .@      LSLS     r1,r1,r0
        0x00001840:    4a0c        .J      LDR      r2,[pc,#48] ; [0x1874] = 0xe000e100
        0x00001842:    6011        .`      STR      r1,[r2,#0]
        0x00001844:    bf00        ..      NOP      
        0x00001846:    4809        .H      LDR      r0,[pc,#36] ; [0x186c] = 0x40110000
        0x00001848:    6a00        .j      LDR      r0,[r0,#0x20]
        0x0000184a:    2101        .!      MOVS     r1,#1
        0x0000184c:    0689        ..      LSLS     r1,r1,#26
        0x0000184e:    4388        .C      BICS     r0,r0,r1
        0x00001850:    1840        @.      ADDS     r0,r0,r1
        0x00001852:    4906        .I      LDR      r1,[pc,#24] ; [0x186c] = 0x40110000
        0x00001854:    6208        .b      STR      r0,[r1,#0x20]
        0x00001856:    4608        .F      MOV      r0,r1
        0x00001858:    6a00        .j      LDR      r0,[r0,#0x20]
        0x0000185a:    0389        ..      LSLS     r1,r1,#14
        0x0000185c:    4388        .C      BICS     r0,r0,r1
        0x0000185e:    1840        @.      ADDS     r0,r0,r1
        0x00001860:    4902        .I      LDR      r1,[pc,#8] ; [0x186c] = 0x40110000
        0x00001862:    6208        .b      STR      r0,[r1,#0x20]
        0x00001864:    4770        pG      BX       lr
    $d
        0x00001866:    0000        ..      DCW    0
        0x00001868:    50000200    ...P    DCD    1342177792
        0x0000186c:    40110000    ...@    DCD    1074855936
        0x00001870:    000f4240    @B..    DCD    1000000
        0x00001874:    e000e100    ....    DCD    3758153984
    $t
    i.Initial_pannel
    Initial_pannel
        0x00001878:    4883        .H      LDR      r0,[pc,#524] ; [0x1a88] = 0x50000200
        0x0000187a:    6880        .h      LDR      r0,[r0,#8]
        0x0000187c:    2101        .!      MOVS     r1,#1
        0x0000187e:    03c9        ..      LSLS     r1,r1,#15
        0x00001880:    4388        .C      BICS     r0,r0,r1
        0x00001882:    1840        @.      ADDS     r0,r0,r1
        0x00001884:    4980        .I      LDR      r1,[pc,#512] ; [0x1a88] = 0x50000200
        0x00001886:    6088        .`      STR      r0,[r1,#8]
        0x00001888:    2005        .       MOVS     r0,#5
        0x0000188a:    0700        ..      LSLS     r0,r0,#28
        0x0000188c:    68c0        .h      LDR      r0,[r0,#0xc]
        0x0000188e:    0189        ..      LSLS     r1,r1,#6
        0x00001890:    4388        .C      BICS     r0,r0,r1
        0x00001892:    1840        @.      ADDS     r0,r0,r1
        0x00001894:    2105        .!      MOVS     r1,#5
        0x00001896:    0709        ..      LSLS     r1,r1,#28
        0x00001898:    60c8        .`      STR      r0,[r1,#0xc]
        0x0000189a:    4608        .F      MOV      r0,r1
        0x0000189c:    68c0        .h      LDR      r0,[r0,#0xc]
        0x0000189e:    2101        .!      MOVS     r1,#1
        0x000018a0:    03c9        ..      LSLS     r1,r1,#15
        0x000018a2:    4388        .C      BICS     r0,r0,r1
        0x000018a4:    2105        .!      MOVS     r1,#5
        0x000018a6:    0709        ..      LSLS     r1,r1,#28
        0x000018a8:    60c8        .`      STR      r0,[r1,#0xc]
        0x000018aa:    4608        .F      MOV      r0,r1
        0x000018ac:    6bc0        .k      LDR      r0,[r0,#0x3c]
        0x000018ae:    21ff        .!      MOVS     r1,#0xff
        0x000018b0:    3101        .1      ADDS     r1,#1
        0x000018b2:    4388        .C      BICS     r0,r0,r1
        0x000018b4:    1840        @.      ADDS     r0,r0,r1
        0x000018b6:    2105        .!      MOVS     r1,#5
        0x000018b8:    0709        ..      LSLS     r1,r1,#28
        0x000018ba:    63c8        .c      STR      r0,[r1,#0x3c]
        0x000018bc:    4608        .F      MOV      r0,r1
        0x000018be:    6bc0        .k      LDR      r0,[r0,#0x3c]
        0x000018c0:    2101        .!      MOVS     r1,#1
        0x000018c2:    0249        I.      LSLS     r1,r1,#9
        0x000018c4:    4388        .C      BICS     r0,r0,r1
        0x000018c6:    1840        @.      ADDS     r0,r0,r1
        0x000018c8:    2105        .!      MOVS     r1,#5
        0x000018ca:    0709        ..      LSLS     r1,r1,#28
        0x000018cc:    63c8        .c      STR      r0,[r1,#0x3c]
        0x000018ce:    4608        .F      MOV      r0,r1
        0x000018d0:    6bc0        .k      LDR      r0,[r0,#0x3c]
        0x000018d2:    2101        .!      MOVS     r1,#1
        0x000018d4:    02c9        ..      LSLS     r1,r1,#11
        0x000018d6:    4388        .C      BICS     r0,r0,r1
        0x000018d8:    1840        @.      ADDS     r0,r0,r1
        0x000018da:    2105        .!      MOVS     r1,#5
        0x000018dc:    0709        ..      LSLS     r1,r1,#28
        0x000018de:    63c8        .c      STR      r0,[r1,#0x3c]
        0x000018e0:    486a        jH      LDR      r0,[pc,#424] ; [0x1a8c] = 0x20000030
        0x000018e2:    68c0        .h      LDR      r0,[r0,#0xc]
        0x000018e4:    6800        .h      LDR      r0,[r0,#0]
        0x000018e6:    2101        .!      MOVS     r1,#1
        0x000018e8:    02c9        ..      LSLS     r1,r1,#11
        0x000018ea:    4388        .C      BICS     r0,r0,r1
        0x000018ec:    1840        @.      ADDS     r0,r0,r1
        0x000018ee:    4967        gI      LDR      r1,[pc,#412] ; [0x1a8c] = 0x20000030
        0x000018f0:    68c9        .h      LDR      r1,[r1,#0xc]
        0x000018f2:    6008        .`      STR      r0,[r1,#0]
        0x000018f4:    4865        eH      LDR      r0,[pc,#404] ; [0x1a8c] = 0x20000030
        0x000018f6:    68c0        .h      LDR      r0,[r0,#0xc]
        0x000018f8:    6800        .h      LDR      r0,[r0,#0]
        0x000018fa:    21f8        .!      MOVS     r1,#0xf8
        0x000018fc:    4388        .C      BICS     r0,r0,r1
        0x000018fe:    3048        H0      ADDS     r0,r0,#0x48
        0x00001900:    4962        bI      LDR      r1,[pc,#392] ; [0x1a8c] = 0x20000030
        0x00001902:    68c9        .h      LDR      r1,[r1,#0xc]
        0x00001904:    6008        .`      STR      r0,[r1,#0]
        0x00001906:    4861        aH      LDR      r0,[pc,#388] ; [0x1a8c] = 0x20000030
        0x00001908:    68c0        .h      LDR      r0,[r0,#0xc]
        0x0000190a:    6800        .h      LDR      r0,[r0,#0]
        0x0000190c:    2104        .!      MOVS     r1,#4
        0x0000190e:    4388        .C      BICS     r0,r0,r1
        0x00001910:    1d00        ..      ADDS     r0,r0,#4
        0x00001912:    495e        ^I      LDR      r1,[pc,#376] ; [0x1a8c] = 0x20000030
        0x00001914:    68c9        .h      LDR      r1,[r1,#0xc]
        0x00001916:    6008        .`      STR      r0,[r1,#0]
        0x00001918:    485c        \H      LDR      r0,[pc,#368] ; [0x1a8c] = 0x20000030
        0x0000191a:    68c0        .h      LDR      r0,[r0,#0xc]
        0x0000191c:    6840        @h      LDR      r0,[r0,#4]
        0x0000191e:    0c00        ..      LSRS     r0,r0,#16
        0x00001920:    0400        ..      LSLS     r0,r0,#16
        0x00001922:    1cc0        ..      ADDS     r0,r0,#3
        0x00001924:    4959        YI      LDR      r1,[pc,#356] ; [0x1a8c] = 0x20000030
        0x00001926:    68c9        .h      LDR      r1,[r1,#0xc]
        0x00001928:    6048        H`      STR      r0,[r1,#4]
        0x0000192a:    4858        XH      LDR      r0,[pc,#352] ; [0x1a8c] = 0x20000030
        0x0000192c:    68c0        .h      LDR      r0,[r0,#0xc]
        0x0000192e:    6880        .h      LDR      r0,[r0,#8]
        0x00001930:    0880        ..      LSRS     r0,r0,#2
        0x00001932:    0080        ..      LSLS     r0,r0,#2
        0x00001934:    1c40        @.      ADDS     r0,r0,#1
        0x00001936:    4955        UI      LDR      r1,[pc,#340] ; [0x1a8c] = 0x20000030
        0x00001938:    68c9        .h      LDR      r1,[r1,#0xc]
        0x0000193a:    6088        .`      STR      r0,[r1,#8]
        0x0000193c:    20eb        .       MOVS     r0,#0xeb
        0x0000193e:    4953        SI      LDR      r1,[pc,#332] ; [0x1a8c] = 0x20000030
        0x00001940:    68c9        .h      LDR      r1,[r1,#0xc]
        0x00001942:    6208        .b      STR      r0,[r1,#0x20]
        0x00001944:    4851        QH      LDR      r0,[pc,#324] ; [0x1a8c] = 0x20000030
        0x00001946:    68c0        .h      LDR      r0,[r0,#0xc]
        0x00001948:    6800        .h      LDR      r0,[r0,#0]
        0x0000194a:    0840        @.      LSRS     r0,r0,#1
        0x0000194c:    0040        @.      LSLS     r0,r0,#1
        0x0000194e:    1c40        @.      ADDS     r0,r0,#1
        0x00001950:    494e        NI      LDR      r1,[pc,#312] ; [0x1a8c] = 0x20000030
        0x00001952:    68c9        .h      LDR      r1,[r1,#0xc]
        0x00001954:    6008        .`      STR      r0,[r1,#0]
        0x00001956:    bf00        ..      NOP      
        0x00001958:    484c        LH      LDR      r0,[pc,#304] ; [0x1a8c] = 0x20000030
        0x0000195a:    68c0        .h      LDR      r0,[r0,#0xc]
        0x0000195c:    6800        .h      LDR      r0,[r0,#0]
        0x0000195e:    07c0        ..      LSLS     r0,r0,#31
        0x00001960:    0fc0        ..      LSRS     r0,r0,#31
        0x00001962:    2801        .(      CMP      r0,#1
        0x00001964:    d0f8        ..      BEQ      0x1958 ; Initial_pannel + 224
        0x00001966:    4849        IH      LDR      r0,[pc,#292] ; [0x1a8c] = 0x20000030
        0x00001968:    68c0        .h      LDR      r0,[r0,#0xc]
        0x0000196a:    6880        .h      LDR      r0,[r0,#8]
        0x0000196c:    0880        ..      LSRS     r0,r0,#2
        0x0000196e:    0080        ..      LSLS     r0,r0,#2
        0x00001970:    4946        FI      LDR      r1,[pc,#280] ; [0x1a8c] = 0x20000030
        0x00001972:    68c9        .h      LDR      r1,[r1,#0xc]
        0x00001974:    6088        .`      STR      r0,[r1,#8]
        0x00001976:    4845        EH      LDR      r0,[pc,#276] ; [0x1a8c] = 0x20000030
        0x00001978:    68c0        .h      LDR      r0,[r0,#0xc]
        0x0000197a:    6880        .h      LDR      r0,[r0,#8]
        0x0000197c:    0880        ..      LSRS     r0,r0,#2
        0x0000197e:    0080        ..      LSLS     r0,r0,#2
        0x00001980:    1c40        @.      ADDS     r0,r0,#1
        0x00001982:    4942        BI      LDR      r1,[pc,#264] ; [0x1a8c] = 0x20000030
        0x00001984:    68c9        .h      LDR      r1,[r1,#0xc]
        0x00001986:    6088        .`      STR      r0,[r1,#8]
        0x00001988:    2081        .       MOVS     r0,#0x81
        0x0000198a:    4940        @I      LDR      r1,[pc,#256] ; [0x1a8c] = 0x20000030
        0x0000198c:    68c9        .h      LDR      r1,[r1,#0xc]
        0x0000198e:    6208        .b      STR      r0,[r1,#0x20]
        0x00001990:    483e        >H      LDR      r0,[pc,#248] ; [0x1a8c] = 0x20000030
        0x00001992:    68c0        .h      LDR      r0,[r0,#0xc]
        0x00001994:    6800        .h      LDR      r0,[r0,#0]
        0x00001996:    0840        @.      LSRS     r0,r0,#1
        0x00001998:    0040        @.      LSLS     r0,r0,#1
        0x0000199a:    1c40        @.      ADDS     r0,r0,#1
        0x0000199c:    493b        ;I      LDR      r1,[pc,#236] ; [0x1a8c] = 0x20000030
        0x0000199e:    68c9        .h      LDR      r1,[r1,#0xc]
        0x000019a0:    6008        .`      STR      r0,[r1,#0]
        0x000019a2:    bf00        ..      NOP      
        0x000019a4:    4839        9H      LDR      r0,[pc,#228] ; [0x1a8c] = 0x20000030
        0x000019a6:    68c0        .h      LDR      r0,[r0,#0xc]
        0x000019a8:    6800        .h      LDR      r0,[r0,#0]
        0x000019aa:    07c0        ..      LSLS     r0,r0,#31
        0x000019ac:    0fc0        ..      LSRS     r0,r0,#31
        0x000019ae:    2801        .(      CMP      r0,#1
        0x000019b0:    d0f8        ..      BEQ      0x19a4 ; Initial_pannel + 300
        0x000019b2:    20a0        .       MOVS     r0,#0xa0
        0x000019b4:    4935        5I      LDR      r1,[pc,#212] ; [0x1a8c] = 0x20000030
        0x000019b6:    68c9        .h      LDR      r1,[r1,#0xc]
        0x000019b8:    6208        .b      STR      r0,[r1,#0x20]
        0x000019ba:    4834        4H      LDR      r0,[pc,#208] ; [0x1a8c] = 0x20000030
        0x000019bc:    68c0        .h      LDR      r0,[r0,#0xc]
        0x000019be:    6800        .h      LDR      r0,[r0,#0]
        0x000019c0:    0840        @.      LSRS     r0,r0,#1
        0x000019c2:    0040        @.      LSLS     r0,r0,#1
        0x000019c4:    1c40        @.      ADDS     r0,r0,#1
        0x000019c6:    4931        1I      LDR      r1,[pc,#196] ; [0x1a8c] = 0x20000030
        0x000019c8:    68c9        .h      LDR      r1,[r1,#0xc]
        0x000019ca:    6008        .`      STR      r0,[r1,#0]
        0x000019cc:    bf00        ..      NOP      
        0x000019ce:    482f        /H      LDR      r0,[pc,#188] ; [0x1a8c] = 0x20000030
        0x000019d0:    68c0        .h      LDR      r0,[r0,#0xc]
        0x000019d2:    6800        .h      LDR      r0,[r0,#0]
        0x000019d4:    07c0        ..      LSLS     r0,r0,#31
        0x000019d6:    0fc0        ..      LSRS     r0,r0,#31
        0x000019d8:    2801        .(      CMP      r0,#1
        0x000019da:    d0f8        ..      BEQ      0x19ce ; Initial_pannel + 342
        0x000019dc:    482b        +H      LDR      r0,[pc,#172] ; [0x1a8c] = 0x20000030
        0x000019de:    68c0        .h      LDR      r0,[r0,#0xc]
        0x000019e0:    6880        .h      LDR      r0,[r0,#8]
        0x000019e2:    0880        ..      LSRS     r0,r0,#2
        0x000019e4:    0080        ..      LSLS     r0,r0,#2
        0x000019e6:    4929        )I      LDR      r1,[pc,#164] ; [0x1a8c] = 0x20000030
        0x000019e8:    68c9        .h      LDR      r1,[r1,#0xc]
        0x000019ea:    6088        .`      STR      r0,[r1,#8]
        0x000019ec:    4827        'H      LDR      r0,[pc,#156] ; [0x1a8c] = 0x20000030
        0x000019ee:    68c0        .h      LDR      r0,[r0,#0xc]
        0x000019f0:    6880        .h      LDR      r0,[r0,#8]
        0x000019f2:    0880        ..      LSRS     r0,r0,#2
        0x000019f4:    0080        ..      LSLS     r0,r0,#2
        0x000019f6:    1c40        @.      ADDS     r0,r0,#1
        0x000019f8:    4924        $I      LDR      r1,[pc,#144] ; [0x1a8c] = 0x20000030
        0x000019fa:    68c9        .h      LDR      r1,[r1,#0xc]
        0x000019fc:    6088        .`      STR      r0,[r1,#8]
        0x000019fe:    20c0        .       MOVS     r0,#0xc0
        0x00001a00:    4922        "I      LDR      r1,[pc,#136] ; [0x1a8c] = 0x20000030
        0x00001a02:    68c9        .h      LDR      r1,[r1,#0xc]
        0x00001a04:    6208        .b      STR      r0,[r1,#0x20]
        0x00001a06:    4821        !H      LDR      r0,[pc,#132] ; [0x1a8c] = 0x20000030
        0x00001a08:    68c0        .h      LDR      r0,[r0,#0xc]
        0x00001a0a:    6800        .h      LDR      r0,[r0,#0]
        0x00001a0c:    0840        @.      LSRS     r0,r0,#1
        0x00001a0e:    0040        @.      LSLS     r0,r0,#1
        0x00001a10:    1c40        @.      ADDS     r0,r0,#1
        0x00001a12:    491e        .I      LDR      r1,[pc,#120] ; [0x1a8c] = 0x20000030
        0x00001a14:    68c9        .h      LDR      r1,[r1,#0xc]
        0x00001a16:    6008        .`      STR      r0,[r1,#0]
        0x00001a18:    bf00        ..      NOP      
        0x00001a1a:    481c        .H      LDR      r0,[pc,#112] ; [0x1a8c] = 0x20000030
        0x00001a1c:    68c0        .h      LDR      r0,[r0,#0xc]
        0x00001a1e:    6800        .h      LDR      r0,[r0,#0]
        0x00001a20:    07c0        ..      LSLS     r0,r0,#31
        0x00001a22:    0fc0        ..      LSRS     r0,r0,#31
        0x00001a24:    2801        .(      CMP      r0,#1
        0x00001a26:    d0f8        ..      BEQ      0x1a1a ; Initial_pannel + 418
        0x00001a28:    4818        .H      LDR      r0,[pc,#96] ; [0x1a8c] = 0x20000030
        0x00001a2a:    68c0        .h      LDR      r0,[r0,#0xc]
        0x00001a2c:    6880        .h      LDR      r0,[r0,#8]
        0x00001a2e:    0880        ..      LSRS     r0,r0,#2
        0x00001a30:    0080        ..      LSLS     r0,r0,#2
        0x00001a32:    4916        .I      LDR      r1,[pc,#88] ; [0x1a8c] = 0x20000030
        0x00001a34:    68c9        .h      LDR      r1,[r1,#0xc]
        0x00001a36:    6088        .`      STR      r0,[r1,#8]
        0x00001a38:    4814        .H      LDR      r0,[pc,#80] ; [0x1a8c] = 0x20000030
        0x00001a3a:    68c0        .h      LDR      r0,[r0,#0xc]
        0x00001a3c:    6880        .h      LDR      r0,[r0,#8]
        0x00001a3e:    0880        ..      LSRS     r0,r0,#2
        0x00001a40:    0080        ..      LSLS     r0,r0,#2
        0x00001a42:    1c40        @.      ADDS     r0,r0,#1
        0x00001a44:    4911        .I      LDR      r1,[pc,#68] ; [0x1a8c] = 0x20000030
        0x00001a46:    68c9        .h      LDR      r1,[r1,#0xc]
        0x00001a48:    6088        .`      STR      r0,[r1,#8]
        0x00001a4a:    20af        .       MOVS     r0,#0xaf
        0x00001a4c:    490f        .I      LDR      r1,[pc,#60] ; [0x1a8c] = 0x20000030
        0x00001a4e:    68c9        .h      LDR      r1,[r1,#0xc]
        0x00001a50:    6208        .b      STR      r0,[r1,#0x20]
        0x00001a52:    480e        .H      LDR      r0,[pc,#56] ; [0x1a8c] = 0x20000030
        0x00001a54:    68c0        .h      LDR      r0,[r0,#0xc]
        0x00001a56:    6800        .h      LDR      r0,[r0,#0]
        0x00001a58:    0840        @.      LSRS     r0,r0,#1
        0x00001a5a:    0040        @.      LSLS     r0,r0,#1
        0x00001a5c:    1c40        @.      ADDS     r0,r0,#1
        0x00001a5e:    490b        .I      LDR      r1,[pc,#44] ; [0x1a8c] = 0x20000030
        0x00001a60:    68c9        .h      LDR      r1,[r1,#0xc]
        0x00001a62:    6008        .`      STR      r0,[r1,#0]
        0x00001a64:    bf00        ..      NOP      
        0x00001a66:    4809        .H      LDR      r0,[pc,#36] ; [0x1a8c] = 0x20000030
        0x00001a68:    68c0        .h      LDR      r0,[r0,#0xc]
        0x00001a6a:    6800        .h      LDR      r0,[r0,#0]
        0x00001a6c:    07c0        ..      LSLS     r0,r0,#31
        0x00001a6e:    0fc0        ..      LSRS     r0,r0,#31
        0x00001a70:    2801        .(      CMP      r0,#1
        0x00001a72:    d0f8        ..      BEQ      0x1a66 ; Initial_pannel + 494
        0x00001a74:    4805        .H      LDR      r0,[pc,#20] ; [0x1a8c] = 0x20000030
        0x00001a76:    68c0        .h      LDR      r0,[r0,#0xc]
        0x00001a78:    6880        .h      LDR      r0,[r0,#8]
        0x00001a7a:    0880        ..      LSRS     r0,r0,#2
        0x00001a7c:    0080        ..      LSLS     r0,r0,#2
        0x00001a7e:    4903        .I      LDR      r1,[pc,#12] ; [0x1a8c] = 0x20000030
        0x00001a80:    68c9        .h      LDR      r1,[r1,#0xc]
        0x00001a82:    6088        .`      STR      r0,[r1,#8]
        0x00001a84:    4770        pG      BX       lr
    $d
        0x00001a86:    0000        ..      DCW    0
        0x00001a88:    50000200    ...P    DCD    1342177792
        0x00001a8c:    20000030    0..     DCD    536870960
    $t
    i.OneWireReadByteTemperature
    OneWireReadByteTemperature
        0x00001a90:    b570        p.      PUSH     {r4-r6,lr}
        0x00001a92:    2433        3$      MOVS     r4,#0x33
        0x00001a94:    43e4        .C      MVNS     r4,r4
        0x00001a96:    4852        RH      LDR      r0,[pc,#328] ; [0x1be0] = 0x50004000
        0x00001a98:    6880        .h      LDR      r0,[r0,#8]
        0x00001a9a:    4952        RI      LDR      r1,[pc,#328] ; [0x1be4] = 0xffbf
        0x00001a9c:    4008        .@      ANDS     r0,r0,r1
        0x00001a9e:    4950        PI      LDR      r1,[pc,#320] ; [0x1be0] = 0x50004000
        0x00001aa0:    6088        .`      STR      r0,[r1,#8]
        0x00001aa2:    20ff        .       MOVS     r0,#0xff
        0x00001aa4:    30f5        .0      ADDS     r0,r0,#0xf5
        0x00001aa6:    f7fffb23    ..#.    BL       DrvSYS_Delay ; 0x10f0
        0x00001aaa:    484d        MH      LDR      r0,[pc,#308] ; [0x1be0] = 0x50004000
        0x00001aac:    6880        .h      LDR      r0,[r0,#8]
        0x00001aae:    2140        @!      MOVS     r1,#0x40
        0x00001ab0:    4308        .C      ORRS     r0,r0,r1
        0x00001ab2:    494b        KI      LDR      r1,[pc,#300] ; [0x1be0] = 0x50004000
        0x00001ab4:    6088        .`      STR      r0,[r1,#8]
        0x00001ab6:    20c8        .       MOVS     r0,#0xc8
        0x00001ab8:    f7fffb1a    ....    BL       DrvSYS_Delay ; 0x10f0
        0x00001abc:    2500        .%      MOVS     r5,#0
        0x00001abe:    e02a        *.      B        0x1b16 ; OneWireReadByteTemperature + 134
        0x00001ac0:    07e0        ..      LSLS     r0,r4,#31
        0x00001ac2:    0fc0        ..      LSRS     r0,r0,#31
        0x00001ac4:    d012        ..      BEQ      0x1aec ; OneWireReadByteTemperature + 92
        0x00001ac6:    4846        FH      LDR      r0,[pc,#280] ; [0x1be0] = 0x50004000
        0x00001ac8:    6880        .h      LDR      r0,[r0,#8]
        0x00001aca:    4946        FI      LDR      r1,[pc,#280] ; [0x1be4] = 0xffbf
        0x00001acc:    4008        .@      ANDS     r0,r0,r1
        0x00001ace:    4944        DI      LDR      r1,[pc,#272] ; [0x1be0] = 0x50004000
        0x00001ad0:    6088        .`      STR      r0,[r1,#8]
        0x00001ad2:    2003        .       MOVS     r0,#3
        0x00001ad4:    f7fffb0c    ....    BL       DrvSYS_Delay ; 0x10f0
        0x00001ad8:    4841        AH      LDR      r0,[pc,#260] ; [0x1be0] = 0x50004000
        0x00001ada:    6880        .h      LDR      r0,[r0,#8]
        0x00001adc:    2140        @!      MOVS     r1,#0x40
        0x00001ade:    4308        .C      ORRS     r0,r0,r1
        0x00001ae0:    493f        ?I      LDR      r1,[pc,#252] ; [0x1be0] = 0x50004000
        0x00001ae2:    6088        .`      STR      r0,[r1,#8]
        0x00001ae4:    203c        <       MOVS     r0,#0x3c
        0x00001ae6:    f7fffb03    ....    BL       DrvSYS_Delay ; 0x10f0
        0x00001aea:    e011        ..      B        0x1b10 ; OneWireReadByteTemperature + 128
        0x00001aec:    483c        <H      LDR      r0,[pc,#240] ; [0x1be0] = 0x50004000
        0x00001aee:    6880        .h      LDR      r0,[r0,#8]
        0x00001af0:    493c        <I      LDR      r1,[pc,#240] ; [0x1be4] = 0xffbf
        0x00001af2:    4008        .@      ANDS     r0,r0,r1
        0x00001af4:    493a        :I      LDR      r1,[pc,#232] ; [0x1be0] = 0x50004000
        0x00001af6:    6088        .`      STR      r0,[r1,#8]
        0x00001af8:    203c        <       MOVS     r0,#0x3c
        0x00001afa:    f7fffaf9    ....    BL       DrvSYS_Delay ; 0x10f0
        0x00001afe:    4838        8H      LDR      r0,[pc,#224] ; [0x1be0] = 0x50004000
        0x00001b00:    6880        .h      LDR      r0,[r0,#8]
        0x00001b02:    2140        @!      MOVS     r1,#0x40
        0x00001b04:    4308        .C      ORRS     r0,r0,r1
        0x00001b06:    4936        6I      LDR      r1,[pc,#216] ; [0x1be0] = 0x50004000
        0x00001b08:    6088        .`      STR      r0,[r1,#8]
        0x00001b0a:    2002        .       MOVS     r0,#2
        0x00001b0c:    f7fffaf0    ....    BL       DrvSYS_Delay ; 0x10f0
        0x00001b10:    1064        d.      ASRS     r4,r4,#1
        0x00001b12:    1c68        h.      ADDS     r0,r5,#1
        0x00001b14:    b245        E.      SXTB     r5,r0
        0x00001b16:    2d08        .-      CMP      r5,#8
        0x00001b18:    dbd2        ..      BLT      0x1ac0 ; OneWireReadByteTemperature + 48
        0x00001b1a:    2441        A$      MOVS     r4,#0x41
        0x00001b1c:    43e4        .C      MVNS     r4,r4
        0x00001b1e:    2500        .%      MOVS     r5,#0
        0x00001b20:    e02a        *.      B        0x1b78 ; OneWireReadByteTemperature + 232
        0x00001b22:    07e0        ..      LSLS     r0,r4,#31
        0x00001b24:    0fc0        ..      LSRS     r0,r0,#31
        0x00001b26:    d012        ..      BEQ      0x1b4e ; OneWireReadByteTemperature + 190
        0x00001b28:    482d        -H      LDR      r0,[pc,#180] ; [0x1be0] = 0x50004000
        0x00001b2a:    6880        .h      LDR      r0,[r0,#8]
        0x00001b2c:    492d        -I      LDR      r1,[pc,#180] ; [0x1be4] = 0xffbf
        0x00001b2e:    4008        .@      ANDS     r0,r0,r1
        0x00001b30:    492b        +I      LDR      r1,[pc,#172] ; [0x1be0] = 0x50004000
        0x00001b32:    6088        .`      STR      r0,[r1,#8]
        0x00001b34:    2003        .       MOVS     r0,#3
        0x00001b36:    f7fffadb    ....    BL       DrvSYS_Delay ; 0x10f0
        0x00001b3a:    4829        )H      LDR      r0,[pc,#164] ; [0x1be0] = 0x50004000
        0x00001b3c:    6880        .h      LDR      r0,[r0,#8]
        0x00001b3e:    2140        @!      MOVS     r1,#0x40
        0x00001b40:    4308        .C      ORRS     r0,r0,r1
        0x00001b42:    4927        'I      LDR      r1,[pc,#156] ; [0x1be0] = 0x50004000
        0x00001b44:    6088        .`      STR      r0,[r1,#8]
        0x00001b46:    203c        <       MOVS     r0,#0x3c
        0x00001b48:    f7fffad2    ....    BL       DrvSYS_Delay ; 0x10f0
        0x00001b4c:    e011        ..      B        0x1b72 ; OneWireReadByteTemperature + 226
        0x00001b4e:    4824        $H      LDR      r0,[pc,#144] ; [0x1be0] = 0x50004000
        0x00001b50:    6880        .h      LDR      r0,[r0,#8]
        0x00001b52:    4924        $I      LDR      r1,[pc,#144] ; [0x1be4] = 0xffbf
        0x00001b54:    4008        .@      ANDS     r0,r0,r1
        0x00001b56:    4922        "I      LDR      r1,[pc,#136] ; [0x1be0] = 0x50004000
        0x00001b58:    6088        .`      STR      r0,[r1,#8]
        0x00001b5a:    203c        <       MOVS     r0,#0x3c
        0x00001b5c:    f7fffac8    ....    BL       DrvSYS_Delay ; 0x10f0
        0x00001b60:    481f        .H      LDR      r0,[pc,#124] ; [0x1be0] = 0x50004000
        0x00001b62:    6880        .h      LDR      r0,[r0,#8]
        0x00001b64:    2140        @!      MOVS     r1,#0x40
        0x00001b66:    4308        .C      ORRS     r0,r0,r1
        0x00001b68:    491d        .I      LDR      r1,[pc,#116] ; [0x1be0] = 0x50004000
        0x00001b6a:    6088        .`      STR      r0,[r1,#8]
        0x00001b6c:    2002        .       MOVS     r0,#2
        0x00001b6e:    f7fffabf    ....    BL       DrvSYS_Delay ; 0x10f0
        0x00001b72:    1064        d.      ASRS     r4,r4,#1
        0x00001b74:    1c68        h.      ADDS     r0,r5,#1
        0x00001b76:    b245        E.      SXTB     r5,r0
        0x00001b78:    2d08        .-      CMP      r5,#8
        0x00001b7a:    dbd2        ..      BLT      0x1b22 ; OneWireReadByteTemperature + 146
        0x00001b7c:    2064        d       MOVS     r0,#0x64
        0x00001b7e:    f7fffab7    ....    BL       DrvSYS_Delay ; 0x10f0
        0x00001b82:    2500        .%      MOVS     r5,#0
        0x00001b84:    e026        &.      B        0x1bd4 ; OneWireReadByteTemperature + 324
        0x00001b86:    4816        .H      LDR      r0,[pc,#88] ; [0x1be0] = 0x50004000
        0x00001b88:    6880        .h      LDR      r0,[r0,#8]
        0x00001b8a:    4916        .I      LDR      r1,[pc,#88] ; [0x1be4] = 0xffbf
        0x00001b8c:    4008        .@      ANDS     r0,r0,r1
        0x00001b8e:    4914        .I      LDR      r1,[pc,#80] ; [0x1be0] = 0x50004000
        0x00001b90:    6088        .`      STR      r0,[r1,#8]
        0x00001b92:    2002        .       MOVS     r0,#2
        0x00001b94:    f7fffaac    ....    BL       DrvSYS_Delay ; 0x10f0
        0x00001b98:    4811        .H      LDR      r0,[pc,#68] ; [0x1be0] = 0x50004000
        0x00001b9a:    6880        .h      LDR      r0,[r0,#8]
        0x00001b9c:    2140        @!      MOVS     r1,#0x40
        0x00001b9e:    4308        .C      ORRS     r0,r0,r1
        0x00001ba0:    490f        .I      LDR      r1,[pc,#60] ; [0x1be0] = 0x50004000
        0x00001ba2:    6088        .`      STR      r0,[r1,#8]
        0x00001ba4:    200c        .       MOVS     r0,#0xc
        0x00001ba6:    f7fffaa3    ....    BL       DrvSYS_Delay ; 0x10f0
        0x00001baa:    480d        .H      LDR      r0,[pc,#52] ; [0x1be0] = 0x50004000
        0x00001bac:    6900        .i      LDR      r0,[r0,#0x10]
        0x00001bae:    2140        @!      MOVS     r1,#0x40
        0x00001bb0:    4008        .@      ANDS     r0,r0,r1
        0x00001bb2:    490b        .I      LDR      r1,[pc,#44] ; [0x1be0] = 0x50004000
        0x00001bb4:    6108        .a      STR      r0,[r1,#0x10]
        0x00001bb6:    2840        @(      CMP      r0,#0x40
        0x00001bb8:    d104        ..      BNE      0x1bc4 ; OneWireReadByteTemperature + 308
        0x00001bba:    1064        d.      ASRS     r4,r4,#1
        0x00001bbc:    2080        .       MOVS     r0,#0x80
        0x00001bbe:    4320         C      ORRS     r0,r0,r4
        0x00001bc0:    b244        D.      SXTB     r4,r0
        0x00001bc2:    e002        ..      B        0x1bca ; OneWireReadByteTemperature + 314
        0x00001bc4:    1064        d.      ASRS     r4,r4,#1
        0x00001bc6:    0664        d.      LSLS     r4,r4,#25
        0x00001bc8:    0e64        d.      LSRS     r4,r4,#25
        0x00001bca:    203c        <       MOVS     r0,#0x3c
        0x00001bcc:    f7fffa90    ....    BL       DrvSYS_Delay ; 0x10f0
        0x00001bd0:    1c68        h.      ADDS     r0,r5,#1
        0x00001bd2:    b245        E.      SXTB     r5,r0
        0x00001bd4:    2d08        .-      CMP      r5,#8
        0x00001bd6:    dbd6        ..      BLT      0x1b86 ; OneWireReadByteTemperature + 246
        0x00001bd8:    1064        d.      ASRS     r4,r4,#1
        0x00001bda:    4620         F      MOV      r0,r4
        0x00001bdc:    bd70        p.      POP      {r4-r6,pc}
    $d
        0x00001bde:    0000        ..      DCW    0
        0x00001be0:    50004000    .@.P    DCD    1342193664
        0x00001be4:    0000ffbf    ....    DCD    65471
    $t
    i.OneWireTxSkipROMConvert
    OneWireTxSkipROMConvert
        0x00001be8:    b570        p.      PUSH     {r4-r6,lr}
        0x00001bea:    25cc        .%      MOVS     r5,#0xcc
        0x00001bec:    4839        9H      LDR      r0,[pc,#228] ; [0x1cd4] = 0x50004000
        0x00001bee:    6880        .h      LDR      r0,[r0,#8]
        0x00001bf0:    4939        9I      LDR      r1,[pc,#228] ; [0x1cd8] = 0xffbf
        0x00001bf2:    4008        .@      ANDS     r0,r0,r1
        0x00001bf4:    4937        7I      LDR      r1,[pc,#220] ; [0x1cd4] = 0x50004000
        0x00001bf6:    6088        .`      STR      r0,[r1,#8]
        0x00001bf8:    20ff        .       MOVS     r0,#0xff
        0x00001bfa:    30f5        .0      ADDS     r0,r0,#0xf5
        0x00001bfc:    f7fffa78    ..x.    BL       DrvSYS_Delay ; 0x10f0
        0x00001c00:    4834        4H      LDR      r0,[pc,#208] ; [0x1cd4] = 0x50004000
        0x00001c02:    6880        .h      LDR      r0,[r0,#8]
        0x00001c04:    2140        @!      MOVS     r1,#0x40
        0x00001c06:    4308        .C      ORRS     r0,r0,r1
        0x00001c08:    4932        2I      LDR      r1,[pc,#200] ; [0x1cd4] = 0x50004000
        0x00001c0a:    6088        .`      STR      r0,[r1,#8]
        0x00001c0c:    20c8        .       MOVS     r0,#0xc8
        0x00001c0e:    f7fffa6f    ..o.    BL       DrvSYS_Delay ; 0x10f0
        0x00001c12:    2400        .$      MOVS     r4,#0
        0x00001c14:    e02a        *.      B        0x1c6c ; OneWireTxSkipROMConvert + 132
        0x00001c16:    07e8        ..      LSLS     r0,r5,#31
        0x00001c18:    0fc0        ..      LSRS     r0,r0,#31
        0x00001c1a:    d012        ..      BEQ      0x1c42 ; OneWireTxSkipROMConvert + 90
        0x00001c1c:    482d        -H      LDR      r0,[pc,#180] ; [0x1cd4] = 0x50004000
        0x00001c1e:    6880        .h      LDR      r0,[r0,#8]
        0x00001c20:    492d        -I      LDR      r1,[pc,#180] ; [0x1cd8] = 0xffbf
        0x00001c22:    4008        .@      ANDS     r0,r0,r1
        0x00001c24:    492b        +I      LDR      r1,[pc,#172] ; [0x1cd4] = 0x50004000
        0x00001c26:    6088        .`      STR      r0,[r1,#8]
        0x00001c28:    2003        .       MOVS     r0,#3
        0x00001c2a:    f7fffa61    ..a.    BL       DrvSYS_Delay ; 0x10f0
        0x00001c2e:    4829        )H      LDR      r0,[pc,#164] ; [0x1cd4] = 0x50004000
        0x00001c30:    6880        .h      LDR      r0,[r0,#8]
        0x00001c32:    2140        @!      MOVS     r1,#0x40
        0x00001c34:    4308        .C      ORRS     r0,r0,r1
        0x00001c36:    4927        'I      LDR      r1,[pc,#156] ; [0x1cd4] = 0x50004000
        0x00001c38:    6088        .`      STR      r0,[r1,#8]
        0x00001c3a:    203c        <       MOVS     r0,#0x3c
        0x00001c3c:    f7fffa58    ..X.    BL       DrvSYS_Delay ; 0x10f0
        0x00001c40:    e011        ..      B        0x1c66 ; OneWireTxSkipROMConvert + 126
        0x00001c42:    4824        $H      LDR      r0,[pc,#144] ; [0x1cd4] = 0x50004000
        0x00001c44:    6880        .h      LDR      r0,[r0,#8]
        0x00001c46:    4924        $I      LDR      r1,[pc,#144] ; [0x1cd8] = 0xffbf
        0x00001c48:    4008        .@      ANDS     r0,r0,r1
        0x00001c4a:    4922        "I      LDR      r1,[pc,#136] ; [0x1cd4] = 0x50004000
        0x00001c4c:    6088        .`      STR      r0,[r1,#8]
        0x00001c4e:    203c        <       MOVS     r0,#0x3c
        0x00001c50:    f7fffa4e    ..N.    BL       DrvSYS_Delay ; 0x10f0
        0x00001c54:    481f        .H      LDR      r0,[pc,#124] ; [0x1cd4] = 0x50004000
        0x00001c56:    6880        .h      LDR      r0,[r0,#8]
        0x00001c58:    2140        @!      MOVS     r1,#0x40
        0x00001c5a:    4308        .C      ORRS     r0,r0,r1
        0x00001c5c:    491d        .I      LDR      r1,[pc,#116] ; [0x1cd4] = 0x50004000
        0x00001c5e:    6088        .`      STR      r0,[r1,#8]
        0x00001c60:    2002        .       MOVS     r0,#2
        0x00001c62:    f7fffa45    ..E.    BL       DrvSYS_Delay ; 0x10f0
        0x00001c66:    106d        m.      ASRS     r5,r5,#1
        0x00001c68:    1c60        `.      ADDS     r0,r4,#1
        0x00001c6a:    b244        D.      SXTB     r4,r0
        0x00001c6c:    2c08        .,      CMP      r4,#8
        0x00001c6e:    dbd2        ..      BLT      0x1c16 ; OneWireTxSkipROMConvert + 46
        0x00001c70:    2544        D%      MOVS     r5,#0x44
        0x00001c72:    2400        .$      MOVS     r4,#0
        0x00001c74:    e02a        *.      B        0x1ccc ; OneWireTxSkipROMConvert + 228
        0x00001c76:    07e8        ..      LSLS     r0,r5,#31
        0x00001c78:    0fc0        ..      LSRS     r0,r0,#31
        0x00001c7a:    d012        ..      BEQ      0x1ca2 ; OneWireTxSkipROMConvert + 186
        0x00001c7c:    4815        .H      LDR      r0,[pc,#84] ; [0x1cd4] = 0x50004000
        0x00001c7e:    6880        .h      LDR      r0,[r0,#8]
        0x00001c80:    4915        .I      LDR      r1,[pc,#84] ; [0x1cd8] = 0xffbf
        0x00001c82:    4008        .@      ANDS     r0,r0,r1
        0x00001c84:    4913        .I      LDR      r1,[pc,#76] ; [0x1cd4] = 0x50004000
        0x00001c86:    6088        .`      STR      r0,[r1,#8]
        0x00001c88:    2003        .       MOVS     r0,#3
        0x00001c8a:    f7fffa31    ..1.    BL       DrvSYS_Delay ; 0x10f0
        0x00001c8e:    4811        .H      LDR      r0,[pc,#68] ; [0x1cd4] = 0x50004000
        0x00001c90:    6880        .h      LDR      r0,[r0,#8]
        0x00001c92:    2140        @!      MOVS     r1,#0x40
        0x00001c94:    4308        .C      ORRS     r0,r0,r1
        0x00001c96:    490f        .I      LDR      r1,[pc,#60] ; [0x1cd4] = 0x50004000
        0x00001c98:    6088        .`      STR      r0,[r1,#8]
        0x00001c9a:    203c        <       MOVS     r0,#0x3c
        0x00001c9c:    f7fffa28    ..(.    BL       DrvSYS_Delay ; 0x10f0
        0x00001ca0:    e011        ..      B        0x1cc6 ; OneWireTxSkipROMConvert + 222
        0x00001ca2:    480c        .H      LDR      r0,[pc,#48] ; [0x1cd4] = 0x50004000
        0x00001ca4:    6880        .h      LDR      r0,[r0,#8]
        0x00001ca6:    490c        .I      LDR      r1,[pc,#48] ; [0x1cd8] = 0xffbf
        0x00001ca8:    4008        .@      ANDS     r0,r0,r1
        0x00001caa:    490a        .I      LDR      r1,[pc,#40] ; [0x1cd4] = 0x50004000
        0x00001cac:    6088        .`      STR      r0,[r1,#8]
        0x00001cae:    203c        <       MOVS     r0,#0x3c
        0x00001cb0:    f7fffa1e    ....    BL       DrvSYS_Delay ; 0x10f0
        0x00001cb4:    4807        .H      LDR      r0,[pc,#28] ; [0x1cd4] = 0x50004000
        0x00001cb6:    6880        .h      LDR      r0,[r0,#8]
        0x00001cb8:    2140        @!      MOVS     r1,#0x40
        0x00001cba:    4308        .C      ORRS     r0,r0,r1
        0x00001cbc:    4905        .I      LDR      r1,[pc,#20] ; [0x1cd4] = 0x50004000
        0x00001cbe:    6088        .`      STR      r0,[r1,#8]
        0x00001cc0:    2002        .       MOVS     r0,#2
        0x00001cc2:    f7fffa15    ....    BL       DrvSYS_Delay ; 0x10f0
        0x00001cc6:    106d        m.      ASRS     r5,r5,#1
        0x00001cc8:    1c60        `.      ADDS     r0,r4,#1
        0x00001cca:    b244        D.      SXTB     r4,r0
        0x00001ccc:    2c08        .,      CMP      r4,#8
        0x00001cce:    dbd2        ..      BLT      0x1c76 ; OneWireTxSkipROMConvert + 142
        0x00001cd0:    bd70        p.      POP      {r4-r6,pc}
    $d
        0x00001cd2:    0000        ..      DCW    0
        0x00001cd4:    50004000    .@.P    DCD    1342193664
        0x00001cd8:    0000ffbf    ....    DCD    65471
    $t
    i.PWRWU_IRQHandler
    PWRWU_IRQHandler
        0x00001cdc:    b510        ..      PUSH     {r4,lr}
        0x00001cde:    4807        .H      LDR      r0,[pc,#28] ; [0x1cfc] = 0x50000200
        0x00001ce0:    6800        .h      LDR      r0,[r0,#0]
        0x00001ce2:    2140        @!      MOVS     r1,#0x40
        0x00001ce4:    4388        .C      BICS     r0,r0,r1
        0x00001ce6:    3040        @0      ADDS     r0,r0,#0x40
        0x00001ce8:    4904        .I      LDR      r1,[pc,#16] ; [0x1cfc] = 0x50000200
        0x00001cea:    6008        .`      STR      r0,[r1,#0]
        0x00001cec:    4804        .H      LDR      r0,[pc,#16] ; [0x1d00] = 0x20000634
        0x00001cee:    6800        .h      LDR      r0,[r0,#0]
        0x00001cf0:    2800        .(      CMP      r0,#0
        0x00001cf2:    d002        ..      BEQ      0x1cfa ; PWRWU_IRQHandler + 30
        0x00001cf4:    4802        .H      LDR      r0,[pc,#8] ; [0x1d00] = 0x20000634
        0x00001cf6:    6800        .h      LDR      r0,[r0,#0]
        0x00001cf8:    4780        .G      BLX      r0
        0x00001cfa:    bd10        ..      POP      {r4,pc}
    $d
        0x00001cfc:    50000200    ...P    DCD    1342177792
        0x00001d00:    20000634    4..     DCD    536872500
    $t
    i.Read_A2D_8591
    Read_A2D_8591
        0x00001d04:    b538        8.      PUSH     {r3-r5,lr}
        0x00001d06:    f7fffa09    ....    BL       DrvSYS_GetHCLKFreq ; 0x111c
        0x00001d0a:    493c        <I      LDR      r1,[pc,#240] ; [0x1dfc] = 0x20000000
        0x00001d0c:    6008        .`      STR      r0,[r1,#0]
        0x00001d0e:    493c        <I      LDR      r1,[pc,#240] ; [0x1e00] = 0xc350
        0x00001d10:    2001        .       MOVS     r0,#1
        0x00001d12:    f7fff985    ....    BL       DrvI2C_Open ; 0x1020
        0x00001d16:    2000        .       MOVS     r0,#0
        0x00001d18:    2301        .#      MOVS     r3,#1
        0x00001d1a:    4602        .F      MOV      r2,r0
        0x00001d1c:    4619        .F      MOV      r1,r3
        0x00001d1e:    9000        ..      STR      r0,[sp,#0]
        0x00001d20:    4618        .F      MOV      r0,r3
        0x00001d22:    f7fff953    ..S.    BL       DrvI2C_Ctrl ; 0xfcc
        0x00001d26:    bf00        ..      NOP      
        0x00001d28:    4836        6H      LDR      r0,[pc,#216] ; [0x1e04] = 0x40120000
        0x00001d2a:    6800        .h      LDR      r0,[r0,#0]
        0x00001d2c:    0700        ..      LSLS     r0,r0,#28
        0x00001d2e:    0fc0        ..      LSRS     r0,r0,#31
        0x00001d30:    d0fa        ..      BEQ      0x1d28 ; Read_A2D_8591 + 36
        0x00001d32:    2090        .       MOVS     r0,#0x90
        0x00001d34:    4933        3I      LDR      r1,[pc,#204] ; [0x1e04] = 0x40120000
        0x00001d36:    6088        .`      STR      r0,[r1,#8]
        0x00001d38:    2000        .       MOVS     r0,#0
        0x00001d3a:    2301        .#      MOVS     r3,#1
        0x00001d3c:    4602        .F      MOV      r2,r0
        0x00001d3e:    4601        .F      MOV      r1,r0
        0x00001d40:    9000        ..      STR      r0,[sp,#0]
        0x00001d42:    4618        .F      MOV      r0,r3
        0x00001d44:    f7fff942    ..B.    BL       DrvI2C_Ctrl ; 0xfcc
        0x00001d48:    bf00        ..      NOP      
        0x00001d4a:    482e        .H      LDR      r0,[pc,#184] ; [0x1e04] = 0x40120000
        0x00001d4c:    6800        .h      LDR      r0,[r0,#0]
        0x00001d4e:    0700        ..      LSLS     r0,r0,#28
        0x00001d50:    0fc0        ..      LSRS     r0,r0,#31
        0x00001d52:    d0fa        ..      BEQ      0x1d4a ; Read_A2D_8591 + 70
        0x00001d54:    2000        .       MOVS     r0,#0
        0x00001d56:    492b        +I      LDR      r1,[pc,#172] ; [0x1e04] = 0x40120000
        0x00001d58:    6088        .`      STR      r0,[r1,#8]
        0x00001d5a:    2301        .#      MOVS     r3,#1
        0x00001d5c:    4602        .F      MOV      r2,r0
        0x00001d5e:    4601        .F      MOV      r1,r0
        0x00001d60:    9000        ..      STR      r0,[sp,#0]
        0x00001d62:    4618        .F      MOV      r0,r3
        0x00001d64:    f7fff932    ..2.    BL       DrvI2C_Ctrl ; 0xfcc
        0x00001d68:    bf00        ..      NOP      
        0x00001d6a:    4826        &H      LDR      r0,[pc,#152] ; [0x1e04] = 0x40120000
        0x00001d6c:    6800        .h      LDR      r0,[r0,#0]
        0x00001d6e:    0700        ..      LSLS     r0,r0,#28
        0x00001d70:    0fc0        ..      LSRS     r0,r0,#31
        0x00001d72:    d0fa        ..      BEQ      0x1d6a ; Read_A2D_8591 + 102
        0x00001d74:    2000        .       MOVS     r0,#0
        0x00001d76:    2301        .#      MOVS     r3,#1
        0x00001d78:    4602        .F      MOV      r2,r0
        0x00001d7a:    4619        .F      MOV      r1,r3
        0x00001d7c:    9000        ..      STR      r0,[sp,#0]
        0x00001d7e:    4618        .F      MOV      r0,r3
        0x00001d80:    f7fff924    ..$.    BL       DrvI2C_Ctrl ; 0xfcc
        0x00001d84:    bf00        ..      NOP      
        0x00001d86:    481f        .H      LDR      r0,[pc,#124] ; [0x1e04] = 0x40120000
        0x00001d88:    6800        .h      LDR      r0,[r0,#0]
        0x00001d8a:    0700        ..      LSLS     r0,r0,#28
        0x00001d8c:    0fc0        ..      LSRS     r0,r0,#31
        0x00001d8e:    d0fa        ..      BEQ      0x1d86 ; Read_A2D_8591 + 130
        0x00001d90:    2091        .       MOVS     r0,#0x91
        0x00001d92:    491c        .I      LDR      r1,[pc,#112] ; [0x1e04] = 0x40120000
        0x00001d94:    6088        .`      STR      r0,[r1,#8]
        0x00001d96:    2000        .       MOVS     r0,#0
        0x00001d98:    2301        .#      MOVS     r3,#1
        0x00001d9a:    4602        .F      MOV      r2,r0
        0x00001d9c:    4601        .F      MOV      r1,r0
        0x00001d9e:    9000        ..      STR      r0,[sp,#0]
        0x00001da0:    4618        .F      MOV      r0,r3
        0x00001da2:    f7fff913    ....    BL       DrvI2C_Ctrl ; 0xfcc
        0x00001da6:    bf00        ..      NOP      
        0x00001da8:    4816        .H      LDR      r0,[pc,#88] ; [0x1e04] = 0x40120000
        0x00001daa:    6800        .h      LDR      r0,[r0,#0]
        0x00001dac:    0700        ..      LSLS     r0,r0,#28
        0x00001dae:    0fc0        ..      LSRS     r0,r0,#31
        0x00001db0:    d0fa        ..      BEQ      0x1da8 ; Read_A2D_8591 + 164
        0x00001db2:    2000        .       MOVS     r0,#0
        0x00001db4:    2301        .#      MOVS     r3,#1
        0x00001db6:    4602        .F      MOV      r2,r0
        0x00001db8:    4601        .F      MOV      r1,r0
        0x00001dba:    9000        ..      STR      r0,[sp,#0]
        0x00001dbc:    4618        .F      MOV      r0,r3
        0x00001dbe:    f7fff905    ....    BL       DrvI2C_Ctrl ; 0xfcc
        0x00001dc2:    bf00        ..      NOP      
        0x00001dc4:    480f        .H      LDR      r0,[pc,#60] ; [0x1e04] = 0x40120000
        0x00001dc6:    6800        .h      LDR      r0,[r0,#0]
        0x00001dc8:    0700        ..      LSLS     r0,r0,#28
        0x00001dca:    0fc0        ..      LSRS     r0,r0,#31
        0x00001dcc:    d0fa        ..      BEQ      0x1dc4 ; Read_A2D_8591 + 192
        0x00001dce:    480d        .H      LDR      r0,[pc,#52] ; [0x1e04] = 0x40120000
        0x00001dd0:    6880        .h      LDR      r0,[r0,#8]
        0x00001dd2:    b2c4        ..      UXTB     r4,r0
        0x00001dd4:    2000        .       MOVS     r0,#0
        0x00001dd6:    2301        .#      MOVS     r3,#1
        0x00001dd8:    461a        .F      MOV      r2,r3
        0x00001dda:    4601        .F      MOV      r1,r0
        0x00001ddc:    9000        ..      STR      r0,[sp,#0]
        0x00001dde:    4618        .F      MOV      r0,r3
        0x00001de0:    f7fff8f4    ....    BL       DrvI2C_Ctrl ; 0xfcc
        0x00001de4:    bf00        ..      NOP      
        0x00001de6:    4807        .H      LDR      r0,[pc,#28] ; [0x1e04] = 0x40120000
        0x00001de8:    6800        .h      LDR      r0,[r0,#0]
        0x00001dea:    06c0        ..      LSLS     r0,r0,#27
        0x00001dec:    0fc0        ..      LSRS     r0,r0,#31
        0x00001dee:    d1fa        ..      BNE      0x1de6 ; Read_A2D_8591 + 226
        0x00001df0:    2001        .       MOVS     r0,#1
        0x00001df2:    f7fff8a3    ....    BL       DrvI2C_Close ; 0xf3c
        0x00001df6:    4620         F      MOV      r0,r4
        0x00001df8:    bd38        8.      POP      {r3-r5,pc}
    $d
        0x00001dfa:    0000        ..      DCW    0
        0x00001dfc:    20000000    ...     DCD    536870912
        0x00001e00:    0000c350    P...    DCD    50000
        0x00001e04:    40120000    ...@    DCD    1074921472
    $t
    i.SPI0_IRQHandler
    SPI0_IRQHandler
        0x00001e08:    b510        ..      PUSH     {r4,lr}
        0x00001e0a:    4816        .H      LDR      r0,[pc,#88] ; [0x1e64] = 0x40030000
        0x00001e0c:    6800        .h      LDR      r0,[r0,#0]
        0x00001e0e:    03c0        ..      LSLS     r0,r0,#15
        0x00001e10:    0fc0        ..      LSRS     r0,r0,#31
        0x00001e12:    2801        .(      CMP      r0,#1
        0x00001e14:    d10f        ..      BNE      0x1e36 ; SPI0_IRQHandler + 46
        0x00001e16:    4813        .H      LDR      r0,[pc,#76] ; [0x1e64] = 0x40030000
        0x00001e18:    6800        .h      LDR      r0,[r0,#0]
        0x00001e1a:    2101        .!      MOVS     r1,#1
        0x00001e1c:    0409        ..      LSLS     r1,r1,#16
        0x00001e1e:    4388        .C      BICS     r0,r0,r1
        0x00001e20:    1840        @.      ADDS     r0,r0,r1
        0x00001e22:    4910        .I      LDR      r1,[pc,#64] ; [0x1e64] = 0x40030000
        0x00001e24:    6008        .`      STR      r0,[r1,#0]
        0x00001e26:    4810        .H      LDR      r0,[pc,#64] ; [0x1e68] = 0x20000674
        0x00001e28:    6840        @h      LDR      r0,[r0,#4]
        0x00001e2a:    2800        .(      CMP      r0,#0
        0x00001e2c:    d003        ..      BEQ      0x1e36 ; SPI0_IRQHandler + 46
        0x00001e2e:    4a0e        .J      LDR      r2,[pc,#56] ; [0x1e68] = 0x20000674
        0x00001e30:    6890        .h      LDR      r0,[r2,#8]
        0x00001e32:    6851        Qh      LDR      r1,[r2,#4]
        0x00001e34:    4788        .G      BLX      r1
        0x00001e36:    480b        .H      LDR      r0,[pc,#44] ; [0x1e64] = 0x40030000
        0x00001e38:    6bc0        .k      LDR      r0,[r0,#0x3c]
        0x00001e3a:    0500        ..      LSLS     r0,r0,#20
        0x00001e3c:    0fc0        ..      LSRS     r0,r0,#31
        0x00001e3e:    2801        .(      CMP      r0,#1
        0x00001e40:    d10f        ..      BNE      0x1e62 ; SPI0_IRQHandler + 90
        0x00001e42:    4808        .H      LDR      r0,[pc,#32] ; [0x1e64] = 0x40030000
        0x00001e44:    6bc0        .k      LDR      r0,[r0,#0x3c]
        0x00001e46:    2101        .!      MOVS     r1,#1
        0x00001e48:    02c9        ..      LSLS     r1,r1,#11
        0x00001e4a:    4388        .C      BICS     r0,r0,r1
        0x00001e4c:    1840        @.      ADDS     r0,r0,r1
        0x00001e4e:    4905        .I      LDR      r1,[pc,#20] ; [0x1e64] = 0x40030000
        0x00001e50:    63c8        .c      STR      r0,[r1,#0x3c]
        0x00001e52:    4805        .H      LDR      r0,[pc,#20] ; [0x1e68] = 0x20000674
        0x00001e54:    68c0        .h      LDR      r0,[r0,#0xc]
        0x00001e56:    2800        .(      CMP      r0,#0
        0x00001e58:    d003        ..      BEQ      0x1e62 ; SPI0_IRQHandler + 90
        0x00001e5a:    4a03        .J      LDR      r2,[pc,#12] ; [0x1e68] = 0x20000674
        0x00001e5c:    6910        .i      LDR      r0,[r2,#0x10]
        0x00001e5e:    68d1        .h      LDR      r1,[r2,#0xc]
        0x00001e60:    4788        .G      BLX      r1
        0x00001e62:    bd10        ..      POP      {r4,pc}
    $d
        0x00001e64:    40030000    ...@    DCD    1073938432
        0x00001e68:    20000674    t..     DCD    536872564
    $t
    i.SPI1_IRQHandler
    SPI1_IRQHandler
        0x00001e6c:    b510        ..      PUSH     {r4,lr}
        0x00001e6e:    4816        .H      LDR      r0,[pc,#88] ; [0x1ec8] = 0x40034000
        0x00001e70:    6800        .h      LDR      r0,[r0,#0]
        0x00001e72:    03c0        ..      LSLS     r0,r0,#15
        0x00001e74:    0fc0        ..      LSRS     r0,r0,#31
        0x00001e76:    2801        .(      CMP      r0,#1
        0x00001e78:    d10f        ..      BNE      0x1e9a ; SPI1_IRQHandler + 46
        0x00001e7a:    4813        .H      LDR      r0,[pc,#76] ; [0x1ec8] = 0x40034000
        0x00001e7c:    6800        .h      LDR      r0,[r0,#0]
        0x00001e7e:    2101        .!      MOVS     r1,#1
        0x00001e80:    0409        ..      LSLS     r1,r1,#16
        0x00001e82:    4388        .C      BICS     r0,r0,r1
        0x00001e84:    1840        @.      ADDS     r0,r0,r1
        0x00001e86:    4910        .I      LDR      r1,[pc,#64] ; [0x1ec8] = 0x40034000
        0x00001e88:    6008        .`      STR      r0,[r1,#0]
        0x00001e8a:    4810        .H      LDR      r0,[pc,#64] ; [0x1ecc] = 0x20000674
        0x00001e8c:    6980        .i      LDR      r0,[r0,#0x18]
        0x00001e8e:    2800        .(      CMP      r0,#0
        0x00001e90:    d003        ..      BEQ      0x1e9a ; SPI1_IRQHandler + 46
        0x00001e92:    4a0e        .J      LDR      r2,[pc,#56] ; [0x1ecc] = 0x20000674
        0x00001e94:    69d0        .i      LDR      r0,[r2,#0x1c]
        0x00001e96:    6991        .i      LDR      r1,[r2,#0x18]
        0x00001e98:    4788        .G      BLX      r1
        0x00001e9a:    480b        .H      LDR      r0,[pc,#44] ; [0x1ec8] = 0x40034000
        0x00001e9c:    6bc0        .k      LDR      r0,[r0,#0x3c]
        0x00001e9e:    0500        ..      LSLS     r0,r0,#20
        0x00001ea0:    0fc0        ..      LSRS     r0,r0,#31
        0x00001ea2:    2801        .(      CMP      r0,#1
        0x00001ea4:    d10f        ..      BNE      0x1ec6 ; SPI1_IRQHandler + 90
        0x00001ea6:    4808        .H      LDR      r0,[pc,#32] ; [0x1ec8] = 0x40034000
        0x00001ea8:    6bc0        .k      LDR      r0,[r0,#0x3c]
        0x00001eaa:    2101        .!      MOVS     r1,#1
        0x00001eac:    02c9        ..      LSLS     r1,r1,#11
        0x00001eae:    4388        .C      BICS     r0,r0,r1
        0x00001eb0:    1840        @.      ADDS     r0,r0,r1
        0x00001eb2:    4905        .I      LDR      r1,[pc,#20] ; [0x1ec8] = 0x40034000
        0x00001eb4:    63c8        .c      STR      r0,[r1,#0x3c]
        0x00001eb6:    4805        .H      LDR      r0,[pc,#20] ; [0x1ecc] = 0x20000674
        0x00001eb8:    6a00        .j      LDR      r0,[r0,#0x20]
        0x00001eba:    2800        .(      CMP      r0,#0
        0x00001ebc:    d003        ..      BEQ      0x1ec6 ; SPI1_IRQHandler + 90
        0x00001ebe:    4a03        .J      LDR      r2,[pc,#12] ; [0x1ecc] = 0x20000674
        0x00001ec0:    6a50        Pj      LDR      r0,[r2,#0x24]
        0x00001ec2:    6a11        .j      LDR      r1,[r2,#0x20]
        0x00001ec4:    4788        .G      BLX      r1
        0x00001ec6:    bd10        ..      POP      {r4,pc}
    $d
        0x00001ec8:    40034000    .@.@    DCD    1073954816
        0x00001ecc:    20000674    t..     DCD    536872564
    $t
    i.SPI2_IRQHandler
    SPI2_IRQHandler
        0x00001ed0:    b510        ..      PUSH     {r4,lr}
        0x00001ed2:    4816        .H      LDR      r0,[pc,#88] ; [0x1f2c] = 0x40130000
        0x00001ed4:    6800        .h      LDR      r0,[r0,#0]
        0x00001ed6:    03c0        ..      LSLS     r0,r0,#15
        0x00001ed8:    0fc0        ..      LSRS     r0,r0,#31
        0x00001eda:    2801        .(      CMP      r0,#1
        0x00001edc:    d10f        ..      BNE      0x1efe ; SPI2_IRQHandler + 46
        0x00001ede:    4813        .H      LDR      r0,[pc,#76] ; [0x1f2c] = 0x40130000
        0x00001ee0:    6800        .h      LDR      r0,[r0,#0]
        0x00001ee2:    2101        .!      MOVS     r1,#1
        0x00001ee4:    0409        ..      LSLS     r1,r1,#16
        0x00001ee6:    4388        .C      BICS     r0,r0,r1
        0x00001ee8:    1840        @.      ADDS     r0,r0,r1
        0x00001eea:    4910        .I      LDR      r1,[pc,#64] ; [0x1f2c] = 0x40130000
        0x00001eec:    6008        .`      STR      r0,[r1,#0]
        0x00001eee:    4810        .H      LDR      r0,[pc,#64] ; [0x1f30] = 0x20000674
        0x00001ef0:    6ac0        .j      LDR      r0,[r0,#0x2c]
        0x00001ef2:    2800        .(      CMP      r0,#0
        0x00001ef4:    d003        ..      BEQ      0x1efe ; SPI2_IRQHandler + 46
        0x00001ef6:    4a0e        .J      LDR      r2,[pc,#56] ; [0x1f30] = 0x20000674
        0x00001ef8:    6b10        .k      LDR      r0,[r2,#0x30]
        0x00001efa:    6ad1        .j      LDR      r1,[r2,#0x2c]
        0x00001efc:    4788        .G      BLX      r1
        0x00001efe:    480b        .H      LDR      r0,[pc,#44] ; [0x1f2c] = 0x40130000
        0x00001f00:    6bc0        .k      LDR      r0,[r0,#0x3c]
        0x00001f02:    0500        ..      LSLS     r0,r0,#20
        0x00001f04:    0fc0        ..      LSRS     r0,r0,#31
        0x00001f06:    2801        .(      CMP      r0,#1
        0x00001f08:    d10f        ..      BNE      0x1f2a ; SPI2_IRQHandler + 90
        0x00001f0a:    4808        .H      LDR      r0,[pc,#32] ; [0x1f2c] = 0x40130000
        0x00001f0c:    6bc0        .k      LDR      r0,[r0,#0x3c]
        0x00001f0e:    2101        .!      MOVS     r1,#1
        0x00001f10:    02c9        ..      LSLS     r1,r1,#11
        0x00001f12:    4388        .C      BICS     r0,r0,r1
        0x00001f14:    1840        @.      ADDS     r0,r0,r1
        0x00001f16:    4905        .I      LDR      r1,[pc,#20] ; [0x1f2c] = 0x40130000
        0x00001f18:    63c8        .c      STR      r0,[r1,#0x3c]
        0x00001f1a:    4805        .H      LDR      r0,[pc,#20] ; [0x1f30] = 0x20000674
        0x00001f1c:    6b40        @k      LDR      r0,[r0,#0x34]
        0x00001f1e:    2800        .(      CMP      r0,#0
        0x00001f20:    d003        ..      BEQ      0x1f2a ; SPI2_IRQHandler + 90
        0x00001f22:    4a03        .J      LDR      r2,[pc,#12] ; [0x1f30] = 0x20000674
        0x00001f24:    6b90        .k      LDR      r0,[r2,#0x38]
        0x00001f26:    6b51        Qk      LDR      r1,[r2,#0x34]
        0x00001f28:    4788        .G      BLX      r1
        0x00001f2a:    bd10        ..      POP      {r4,pc}
    $d
        0x00001f2c:    40130000    ...@    DCD    1074987008
        0x00001f30:    20000674    t..     DCD    536872564
    $t
    i.SPI3_IRQHandler
    SPI3_IRQHandler
        0x00001f34:    b510        ..      PUSH     {r4,lr}
        0x00001f36:    4816        .H      LDR      r0,[pc,#88] ; [0x1f90] = 0x40134000
        0x00001f38:    6800        .h      LDR      r0,[r0,#0]
        0x00001f3a:    03c0        ..      LSLS     r0,r0,#15
        0x00001f3c:    0fc0        ..      LSRS     r0,r0,#31
        0x00001f3e:    2801        .(      CMP      r0,#1
        0x00001f40:    d10f        ..      BNE      0x1f62 ; SPI3_IRQHandler + 46
        0x00001f42:    4813        .H      LDR      r0,[pc,#76] ; [0x1f90] = 0x40134000
        0x00001f44:    6800        .h      LDR      r0,[r0,#0]
        0x00001f46:    2101        .!      MOVS     r1,#1
        0x00001f48:    0409        ..      LSLS     r1,r1,#16
        0x00001f4a:    4388        .C      BICS     r0,r0,r1
        0x00001f4c:    1840        @.      ADDS     r0,r0,r1
        0x00001f4e:    4910        .I      LDR      r1,[pc,#64] ; [0x1f90] = 0x40134000
        0x00001f50:    6008        .`      STR      r0,[r1,#0]
        0x00001f52:    4810        .H      LDR      r0,[pc,#64] ; [0x1f94] = 0x20000674
        0x00001f54:    6c00        .l      LDR      r0,[r0,#0x40]
        0x00001f56:    2800        .(      CMP      r0,#0
        0x00001f58:    d003        ..      BEQ      0x1f62 ; SPI3_IRQHandler + 46
        0x00001f5a:    4a0e        .J      LDR      r2,[pc,#56] ; [0x1f94] = 0x20000674
        0x00001f5c:    6c50        Pl      LDR      r0,[r2,#0x44]
        0x00001f5e:    6c11        .l      LDR      r1,[r2,#0x40]
        0x00001f60:    4788        .G      BLX      r1
        0x00001f62:    480b        .H      LDR      r0,[pc,#44] ; [0x1f90] = 0x40134000
        0x00001f64:    6bc0        .k      LDR      r0,[r0,#0x3c]
        0x00001f66:    0500        ..      LSLS     r0,r0,#20
        0x00001f68:    0fc0        ..      LSRS     r0,r0,#31
        0x00001f6a:    2801        .(      CMP      r0,#1
        0x00001f6c:    d10f        ..      BNE      0x1f8e ; SPI3_IRQHandler + 90
        0x00001f6e:    4808        .H      LDR      r0,[pc,#32] ; [0x1f90] = 0x40134000
        0x00001f70:    6bc0        .k      LDR      r0,[r0,#0x3c]
        0x00001f72:    2101        .!      MOVS     r1,#1
        0x00001f74:    02c9        ..      LSLS     r1,r1,#11
        0x00001f76:    4388        .C      BICS     r0,r0,r1
        0x00001f78:    1840        @.      ADDS     r0,r0,r1
        0x00001f7a:    4905        .I      LDR      r1,[pc,#20] ; [0x1f90] = 0x40134000
        0x00001f7c:    63c8        .c      STR      r0,[r1,#0x3c]
        0x00001f7e:    4805        .H      LDR      r0,[pc,#20] ; [0x1f94] = 0x20000674
        0x00001f80:    6c80        .l      LDR      r0,[r0,#0x48]
        0x00001f82:    2800        .(      CMP      r0,#0
        0x00001f84:    d003        ..      BEQ      0x1f8e ; SPI3_IRQHandler + 90
        0x00001f86:    4a03        .J      LDR      r2,[pc,#12] ; [0x1f94] = 0x20000674
        0x00001f88:    6cd0        .l      LDR      r0,[r2,#0x4c]
        0x00001f8a:    6c91        .l      LDR      r1,[r2,#0x48]
        0x00001f8c:    4788        .G      BLX      r1
        0x00001f8e:    bd10        ..      POP      {r4,pc}
    $d
        0x00001f90:    40134000    .@.@    DCD    1075003392
        0x00001f94:    20000674    t..     DCD    536872564
    $t
    i.SetPACA
    SetPACA
        0x00001f98:    4a3b        ;J      LDR      r2,[pc,#236] ; [0x2088] = 0x20000030
        0x00001f9a:    68d2        .h      LDR      r2,[r2,#0xc]
        0x00001f9c:    6892        .h      LDR      r2,[r2,#8]
        0x00001f9e:    0892        ..      LSRS     r2,r2,#2
        0x00001fa0:    0092        ..      LSLS     r2,r2,#2
        0x00001fa2:    1c52        R.      ADDS     r2,r2,#1
        0x00001fa4:    4b38        8K      LDR      r3,[pc,#224] ; [0x2088] = 0x20000030
        0x00001fa6:    68db        .h      LDR      r3,[r3,#0xc]
        0x00001fa8:    609a        .`      STR      r2,[r3,#8]
        0x00001faa:    22b0        ."      MOVS     r2,#0xb0
        0x00001fac:    4302        .C      ORRS     r2,r2,r0
        0x00001fae:    4b36        6K      LDR      r3,[pc,#216] ; [0x2088] = 0x20000030
        0x00001fb0:    68db        .h      LDR      r3,[r3,#0xc]
        0x00001fb2:    621a        .b      STR      r2,[r3,#0x20]
        0x00001fb4:    4a34        4J      LDR      r2,[pc,#208] ; [0x2088] = 0x20000030
        0x00001fb6:    68d2        .h      LDR      r2,[r2,#0xc]
        0x00001fb8:    6812        .h      LDR      r2,[r2,#0]
        0x00001fba:    0852        R.      LSRS     r2,r2,#1
        0x00001fbc:    0052        R.      LSLS     r2,r2,#1
        0x00001fbe:    1c52        R.      ADDS     r2,r2,#1
        0x00001fc0:    4b31        1K      LDR      r3,[pc,#196] ; [0x2088] = 0x20000030
        0x00001fc2:    68db        .h      LDR      r3,[r3,#0xc]
        0x00001fc4:    601a        .`      STR      r2,[r3,#0]
        0x00001fc6:    bf00        ..      NOP      
        0x00001fc8:    4a2f        /J      LDR      r2,[pc,#188] ; [0x2088] = 0x20000030
        0x00001fca:    68d2        .h      LDR      r2,[r2,#0xc]
        0x00001fcc:    6812        .h      LDR      r2,[r2,#0]
        0x00001fce:    07d2        ..      LSLS     r2,r2,#31
        0x00001fd0:    0fd2        ..      LSRS     r2,r2,#31
        0x00001fd2:    2a01        .*      CMP      r2,#1
        0x00001fd4:    d0f8        ..      BEQ      0x1fc8 ; SetPACA + 48
        0x00001fd6:    4a2c        ,J      LDR      r2,[pc,#176] ; [0x2088] = 0x20000030
        0x00001fd8:    68d2        .h      LDR      r2,[r2,#0xc]
        0x00001fda:    6892        .h      LDR      r2,[r2,#8]
        0x00001fdc:    0892        ..      LSRS     r2,r2,#2
        0x00001fde:    0092        ..      LSLS     r2,r2,#2
        0x00001fe0:    4b29        )K      LDR      r3,[pc,#164] ; [0x2088] = 0x20000030
        0x00001fe2:    68db        .h      LDR      r3,[r3,#0xc]
        0x00001fe4:    609a        .`      STR      r2,[r3,#8]
        0x00001fe6:    4a28        (J      LDR      r2,[pc,#160] ; [0x2088] = 0x20000030
        0x00001fe8:    68d2        .h      LDR      r2,[r2,#0xc]
        0x00001fea:    6892        .h      LDR      r2,[r2,#8]
        0x00001fec:    0892        ..      LSRS     r2,r2,#2
        0x00001fee:    0092        ..      LSLS     r2,r2,#2
        0x00001ff0:    1c52        R.      ADDS     r2,r2,#1
        0x00001ff2:    4b25        %K      LDR      r3,[pc,#148] ; [0x2088] = 0x20000030
        0x00001ff4:    68db        .h      LDR      r3,[r3,#0xc]
        0x00001ff6:    609a        .`      STR      r2,[r3,#8]
        0x00001ff8:    110a        ..      ASRS     r2,r1,#4
        0x00001ffa:    2310        .#      MOVS     r3,#0x10
        0x00001ffc:    431a        .C      ORRS     r2,r2,r3
        0x00001ffe:    4b22        "K      LDR      r3,[pc,#136] ; [0x2088] = 0x20000030
        0x00002000:    68db        .h      LDR      r3,[r3,#0xc]
        0x00002002:    621a        .b      STR      r2,[r3,#0x20]
        0x00002004:    4a20         J      LDR      r2,[pc,#128] ; [0x2088] = 0x20000030
        0x00002006:    68d2        .h      LDR      r2,[r2,#0xc]
        0x00002008:    6812        .h      LDR      r2,[r2,#0]
        0x0000200a:    0852        R.      LSRS     r2,r2,#1
        0x0000200c:    0052        R.      LSLS     r2,r2,#1
        0x0000200e:    1c52        R.      ADDS     r2,r2,#1
        0x00002010:    4b1d        .K      LDR      r3,[pc,#116] ; [0x2088] = 0x20000030
        0x00002012:    68db        .h      LDR      r3,[r3,#0xc]
        0x00002014:    601a        .`      STR      r2,[r3,#0]
        0x00002016:    bf00        ..      NOP      
        0x00002018:    4a1b        .J      LDR      r2,[pc,#108] ; [0x2088] = 0x20000030
        0x0000201a:    68d2        .h      LDR      r2,[r2,#0xc]
        0x0000201c:    6812        .h      LDR      r2,[r2,#0]
        0x0000201e:    07d2        ..      LSLS     r2,r2,#31
        0x00002020:    0fd2        ..      LSRS     r2,r2,#31
        0x00002022:    2a01        .*      CMP      r2,#1
        0x00002024:    d0f8        ..      BEQ      0x2018 ; SetPACA + 128
        0x00002026:    4a18        .J      LDR      r2,[pc,#96] ; [0x2088] = 0x20000030
        0x00002028:    68d2        .h      LDR      r2,[r2,#0xc]
        0x0000202a:    6892        .h      LDR      r2,[r2,#8]
        0x0000202c:    0892        ..      LSRS     r2,r2,#2
        0x0000202e:    0092        ..      LSLS     r2,r2,#2
        0x00002030:    4b15        .K      LDR      r3,[pc,#84] ; [0x2088] = 0x20000030
        0x00002032:    68db        .h      LDR      r3,[r3,#0xc]
        0x00002034:    609a        .`      STR      r2,[r3,#8]
        0x00002036:    4a14        .J      LDR      r2,[pc,#80] ; [0x2088] = 0x20000030
        0x00002038:    68d2        .h      LDR      r2,[r2,#0xc]
        0x0000203a:    6892        .h      LDR      r2,[r2,#8]
        0x0000203c:    0892        ..      LSRS     r2,r2,#2
        0x0000203e:    0092        ..      LSLS     r2,r2,#2
        0x00002040:    1c52        R.      ADDS     r2,r2,#1
        0x00002042:    4b11        .K      LDR      r3,[pc,#68] ; [0x2088] = 0x20000030
        0x00002044:    68db        .h      LDR      r3,[r3,#0xc]
        0x00002046:    609a        .`      STR      r2,[r3,#8]
        0x00002048:    070a        ..      LSLS     r2,r1,#28
        0x0000204a:    0f12        ..      LSRS     r2,r2,#28
        0x0000204c:    4b0e        .K      LDR      r3,[pc,#56] ; [0x2088] = 0x20000030
        0x0000204e:    68db        .h      LDR      r3,[r3,#0xc]
        0x00002050:    621a        .b      STR      r2,[r3,#0x20]
        0x00002052:    4a0d        .J      LDR      r2,[pc,#52] ; [0x2088] = 0x20000030
        0x00002054:    68d2        .h      LDR      r2,[r2,#0xc]
        0x00002056:    6812        .h      LDR      r2,[r2,#0]
        0x00002058:    0852        R.      LSRS     r2,r2,#1
        0x0000205a:    0052        R.      LSLS     r2,r2,#1
        0x0000205c:    1c52        R.      ADDS     r2,r2,#1
        0x0000205e:    4b0a        .K      LDR      r3,[pc,#40] ; [0x2088] = 0x20000030
        0x00002060:    68db        .h      LDR      r3,[r3,#0xc]
        0x00002062:    601a        .`      STR      r2,[r3,#0]
        0x00002064:    bf00        ..      NOP      
        0x00002066:    4a08        .J      LDR      r2,[pc,#32] ; [0x2088] = 0x20000030
        0x00002068:    68d2        .h      LDR      r2,[r2,#0xc]
        0x0000206a:    6812        .h      LDR      r2,[r2,#0]
        0x0000206c:    07d2        ..      LSLS     r2,r2,#31
        0x0000206e:    0fd2        ..      LSRS     r2,r2,#31
        0x00002070:    2a01        .*      CMP      r2,#1
        0x00002072:    d0f8        ..      BEQ      0x2066 ; SetPACA + 206
        0x00002074:    4a04        .J      LDR      r2,[pc,#16] ; [0x2088] = 0x20000030
        0x00002076:    68d2        .h      LDR      r2,[r2,#0xc]
        0x00002078:    6892        .h      LDR      r2,[r2,#8]
        0x0000207a:    0892        ..      LSRS     r2,r2,#2
        0x0000207c:    0092        ..      LSLS     r2,r2,#2
        0x0000207e:    4b02        .K      LDR      r3,[pc,#8] ; [0x2088] = 0x20000030
        0x00002080:    68db        .h      LDR      r3,[r3,#0xc]
        0x00002082:    609a        .`      STR      r2,[r3,#8]
        0x00002084:    4770        pG      BX       lr
    $d
        0x00002086:    0000        ..      DCW    0
        0x00002088:    20000030    0..     DCD    536870960
    $t
    i.Show_Word
    Show_Word
        0x0000208c:    b5fc        ..      PUSH     {r2-r7,lr}
        0x0000208e:    4605        .F      MOV      r5,r0
        0x00002090:    460e        .F      MOV      r6,r1
        0x00002092:    4617        .F      MOV      r7,r2
        0x00002094:    2400        .$      MOVS     r4,#0
        0x00002096:    2000        .       MOVS     r0,#0
        0x00002098:    9001        ..      STR      r0,[sp,#4]
        0x0000209a:    4638        8F      MOV      r0,r7
        0x0000209c:    3820         8      SUBS     r0,r0,#0x20
        0x0000209e:    0100        ..      LSLS     r0,r0,#4
        0x000020a0:    9001        ..      STR      r0,[sp,#4]
        0x000020a2:    bf00        ..      NOP      
        0x000020a4:    e011        ..      B        0x20ca ; Show_Word + 62
        0x000020a6:    00f2        ..      LSLS     r2,r6,#3
        0x000020a8:    2381        .#      MOVS     r3,#0x81
        0x000020aa:    1a9a        ..      SUBS     r2,r3,r2
        0x000020ac:    1b12        ..      SUBS     r2,r2,r4
        0x000020ae:    b2d1        ..      UXTB     r1,r2
        0x000020b0:    066a        j.      LSLS     r2,r5,#25
        0x000020b2:    0e10        ..      LSRS     r0,r2,#24
        0x000020b4:    f7ffff70    ..p.    BL       SetPACA ; 0x1f98
        0x000020b8:    9801        ..      LDR      r0,[sp,#4]
        0x000020ba:    1900        ..      ADDS     r0,r0,r4
        0x000020bc:    4910        .I      LDR      r1,[pc,#64] ; [0x2100] = 0x20000040
        0x000020be:    5c08        .\      LDRB     r0,[r1,r0]
        0x000020c0:    9000        ..      STR      r0,[sp,#0]
        0x000020c2:    9800        ..      LDR      r0,[sp,#0]
        0x000020c4:    f000f958    ..X.    BL       WriteData ; 0x2378
        0x000020c8:    1c64        d.      ADDS     r4,r4,#1
        0x000020ca:    2c08        .,      CMP      r4,#8
        0x000020cc:    dbeb        ..      BLT      0x20a6 ; Show_Word + 26
        0x000020ce:    2400        .$      MOVS     r4,#0
        0x000020d0:    e013        ..      B        0x20fa ; Show_Word + 110
        0x000020d2:    00f2        ..      LSLS     r2,r6,#3
        0x000020d4:    2381        .#      MOVS     r3,#0x81
        0x000020d6:    1a9a        ..      SUBS     r2,r3,r2
        0x000020d8:    1b12        ..      SUBS     r2,r2,r4
        0x000020da:    b2d1        ..      UXTB     r1,r2
        0x000020dc:    006a        j.      LSLS     r2,r5,#1
        0x000020de:    1c52        R.      ADDS     r2,r2,#1
        0x000020e0:    b2d0        ..      UXTB     r0,r2
        0x000020e2:    f7ffff59    ..Y.    BL       SetPACA ; 0x1f98
        0x000020e6:    9801        ..      LDR      r0,[sp,#4]
        0x000020e8:    1900        ..      ADDS     r0,r0,r4
        0x000020ea:    3008        .0      ADDS     r0,r0,#8
        0x000020ec:    4904        .I      LDR      r1,[pc,#16] ; [0x2100] = 0x20000040
        0x000020ee:    5c08        .\      LDRB     r0,[r1,r0]
        0x000020f0:    9000        ..      STR      r0,[sp,#0]
        0x000020f2:    9800        ..      LDR      r0,[sp,#0]
        0x000020f4:    f000f940    ..@.    BL       WriteData ; 0x2378
        0x000020f8:    1c64        d.      ADDS     r4,r4,#1
        0x000020fa:    2c08        .,      CMP      r4,#8
        0x000020fc:    dbe9        ..      BLT      0x20d2 ; Show_Word + 70
        0x000020fe:    bdfc        ..      POP      {r2-r7,pc}
    $d
        0x00002100:    20000040    @..     DCD    536870976
    $t
    i.SystemCoreClockUpdate
    SystemCoreClockUpdate
        0x00002104:    b570        p.      PUSH     {r4-r6,lr}
        0x00002106:    4820         H      LDR      r0,[pc,#128] ; [0x2188] = 0x50000200
        0x00002108:    6900        .i      LDR      r0,[r0,#0x10]
        0x0000210a:    0746        F.      LSLS     r6,r0,#29
        0x0000210c:    0f76        v.      LSRS     r6,r6,#29
        0x0000210e:    2e05        ..      CMP      r6,#5
        0x00002110:    d900        ..      BLS      0x2114 ; SystemCoreClockUpdate + 16
        0x00002112:    2604        .&      MOVS     r6,#4
        0x00002114:    2e02        ..      CMP      r6,#2
        0x00002116:    d003        ..      BEQ      0x2120 ; SystemCoreClockUpdate + 28
        0x00002118:    00b0        ..      LSLS     r0,r6,#2
        0x0000211a:    491c        .I      LDR      r1,[pc,#112] ; [0x218c] = 0x20000008
        0x0000211c:    580d        .X      LDR      r5,[r1,r0]
        0x0000211e:    e01e        ..      B        0x215e ; SystemCoreClockUpdate + 90
        0x00002120:    4819        .H      LDR      r0,[pc,#100] ; [0x2188] = 0x50000200
        0x00002122:    6a00        .j      LDR      r0,[r0,#0x20]
        0x00002124:    0400        ..      LSLS     r0,r0,#16
        0x00002126:    0f84        ..      LSRS     r4,r0,#30
        0x00002128:    2c01        .,      CMP      r4,#1
        0x0000212a:    d900        ..      BLS      0x212e ; SystemCoreClockUpdate + 42
        0x0000212c:    1e64        d.      SUBS     r4,r4,#1
        0x0000212e:    4a16        .J      LDR      r2,[pc,#88] ; [0x2188] = 0x50000200
        0x00002130:    6a12        .j      LDR      r2,[r2,#0x20]
        0x00002132:    0312        ..      LSLS     r2,r2,#12
        0x00002134:    0fd2        ..      LSRS     r2,r2,#31
        0x00002136:    d001        ..      BEQ      0x213c ; SystemCoreClockUpdate + 56
        0x00002138:    4a15        .J      LDR      r2,[pc,#84] ; [0x2190] = 0x1518000
        0x0000213a:    e000        ..      B        0x213e ; SystemCoreClockUpdate + 58
        0x0000213c:    4a15        .J      LDR      r2,[pc,#84] ; [0x2194] = 0xb71b00
        0x0000213e:    4b12        .K      LDR      r3,[pc,#72] ; [0x2188] = 0x50000200
        0x00002140:    6a1b        .j      LDR      r3,[r3,#0x20]
        0x00002142:    05db        ..      LSLS     r3,r3,#23
        0x00002144:    0ddb        ..      LSRS     r3,r3,#23
        0x00002146:    1c9b        ..      ADDS     r3,r3,#2
        0x00002148:    4610        .F      MOV      r0,r2
        0x0000214a:    4358        XC      MULS     r0,r3,r0
        0x0000214c:    4a0e        .J      LDR      r2,[pc,#56] ; [0x2188] = 0x50000200
        0x0000214e:    6a12        .j      LDR      r2,[r2,#0x20]
        0x00002150:    0492        ..      LSLS     r2,r2,#18
        0x00002152:    0ed2        ..      LSRS     r2,r2,#27
        0x00002154:    1c91        ..      ADDS     r1,r2,#2
        0x00002156:    f7fef95f    .._.    BL       __aeabi_uidiv ; 0x418
        0x0000215a:    40e0        .@      LSRS     r0,r0,r4
        0x0000215c:    4605        .F      MOV      r5,r0
        0x0000215e:    480a        .H      LDR      r0,[pc,#40] ; [0x2188] = 0x50000200
        0x00002160:    6980        .i      LDR      r0,[r0,#0x18]
        0x00002162:    0700        ..      LSLS     r0,r0,#28
        0x00002164:    0f00        ..      LSRS     r0,r0,#28
        0x00002166:    1c41        A.      ADDS     r1,r0,#1
        0x00002168:    4628        (F      MOV      r0,r5
        0x0000216a:    f7fef955    ..U.    BL       __aeabi_uidiv ; 0x418
        0x0000216e:    490a        .I      LDR      r1,[pc,#40] ; [0x2198] = 0x20000000
        0x00002170:    6008        .`      STR      r0,[r1,#0]
        0x00002172:    490a        .I      LDR      r1,[pc,#40] ; [0x219c] = 0xf4240
        0x00002174:    4808        .H      LDR      r0,[pc,#32] ; [0x2198] = 0x20000000
        0x00002176:    6800        .h      LDR      r0,[r0,#0]
        0x00002178:    104a        J.      ASRS     r2,r1,#1
        0x0000217a:    1880        ..      ADDS     r0,r0,r2
        0x0000217c:    f7fef94c    ..L.    BL       __aeabi_uidiv ; 0x418
        0x00002180:    4907        .I      LDR      r1,[pc,#28] ; [0x21a0] = 0x20000004
        0x00002182:    6008        .`      STR      r0,[r1,#0]
        0x00002184:    bd70        p.      POP      {r4-r6,pc}
    $d
        0x00002186:    0000        ..      DCW    0
        0x00002188:    50000200    ...P    DCD    1342177792
        0x0000218c:    20000008    ...     DCD    536870920
        0x00002190:    01518000    ..Q.    DCD    22118400
        0x00002194:    00b71b00    ....    DCD    12000000
        0x00002198:    20000000    ...     DCD    536870912
        0x0000219c:    000f4240    @B..    DCD    1000000
        0x000021a0:    20000004    ...     DCD    536870916
    $t
    i.SystemInit
    SystemInit
        0x000021a4:    4770        pG      BX       lr
        0x000021a6:    0000        ..      MOVS     r0,r0
    i.TMR3_IRQHandler
    TMR3_IRQHandler
        0x000021a8:    b510        ..      PUSH     {r4,lr}
        0x000021aa:    b094        ..      SUB      sp,sp,#0x50
        0x000021ac:    2400        .$      MOVS     r4,#0
        0x000021ae:    4b4a        JK      LDR      r3,[pc,#296] ; [0x22d8] = 0x274c
        0x000021b0:    cb0f        ..      LDM      r3,{r0-r3}
        0x000021b2:    9313        ..      STR      r3,[sp,#0x4c]
        0x000021b4:    ab10        ..      ADD      r3,sp,#0x40
        0x000021b6:    c307        ..      STM      r3!,{r0-r2}
        0x000021b8:    2214        ."      MOVS     r2,#0x14
        0x000021ba:    4947        GI      LDR      r1,[pc,#284] ; [0x22d8] = 0x274c
        0x000021bc:    3110        .1      ADDS     r1,r1,#0x10
        0x000021be:    a80b        ..      ADD      r0,sp,#0x2c
        0x000021c0:    f7fdffde    ....    BL       __aeabi_memcpy4 ; 0x180
        0x000021c4:    2214        ."      MOVS     r2,#0x14
        0x000021c6:    4944        DI      LDR      r1,[pc,#272] ; [0x22d8] = 0x274c
        0x000021c8:    3124        $1      ADDS     r1,r1,#0x24
        0x000021ca:    a806        ..      ADD      r0,sp,#0x18
        0x000021cc:    f7fdffd8    ....    BL       __aeabi_memcpy4 ; 0x180
        0x000021d0:    2214        ."      MOVS     r2,#0x14
        0x000021d2:    4941        AI      LDR      r1,[pc,#260] ; [0x22d8] = 0x274c
        0x000021d4:    3138        81      ADDS     r1,r1,#0x38
        0x000021d6:    a801        ..      ADD      r0,sp,#4
        0x000021d8:    f7fdffd2    ....    BL       __aeabi_memcpy4 ; 0x180
        0x000021dc:    f7fffd92    ....    BL       Read_A2D_8591 ; 0x1d04
        0x000021e0:    4604        .F      MOV      r4,r0
        0x000021e2:    4620         F      MOV      r0,r4
        0x000021e4:    f000f9dc    ....    BL       out_D2A_8591 ; 0x25a0
        0x000021e8:    4620         F      MOV      r0,r4
        0x000021ea:    f000f97c    ..|.    BL       disp2Digit8574 ; 0x24e6
        0x000021ee:    483b        ;H      LDR      r0,[pc,#236] ; [0x22dc] = 0x2000001c
        0x000021f0:    8802        ..      LDRH     r2,[r0,#0]
        0x000021f2:    a13b        ;.      ADR      r1,{pc}+0xee ; 0x22e0
        0x000021f4:    a807        ..      ADD      r0,sp,#0x1c
        0x000021f6:    3003        .0      ADDS     r0,#3
        0x000021f8:    f7fef810    ....    BL       __2sprintf ; 0x21c
        0x000021fc:    a906        ..      ADD      r1,sp,#0x18
        0x000021fe:    2002        .       MOVS     r0,#2
        0x00002200:    f000fa30    ..0.    BL       print_lcd ; 0x2664
        0x00002204:    4835        5H      LDR      r0,[pc,#212] ; [0x22dc] = 0x2000001c
        0x00002206:    8800        ..      LDRH     r0,[r0,#0]
        0x00002208:    1c40        @.      ADDS     r0,r0,#1
        0x0000220a:    4934        4I      LDR      r1,[pc,#208] ; [0x22dc] = 0x2000001c
        0x0000220c:    8008        ..      STRH     r0,[r1,#0]
        0x0000220e:    f7fffceb    ....    BL       OneWireTxSkipROMConvert ; 0x1be8
        0x00002212:    2064        d       MOVS     r0,#0x64
        0x00002214:    f7feff6c    ..l.    BL       DrvSYS_Delay ; 0x10f0
        0x00002218:    f7fffc3a    ..:.    BL       OneWireReadByteTemperature ; 0x1a90
        0x0000221c:    4931        1I      LDR      r1,[pc,#196] ; [0x22e4] = 0x2000002e
        0x0000221e:    7008        .p      STRB     r0,[r1,#0]
        0x00002220:    2000        .       MOVS     r0,#0
        0x00002222:    5608        .V      LDRSB    r0,[r1,r0]
        0x00002224:    4930        0I      LDR      r1,[pc,#192] ; [0x22e8] = 0x2000002f
        0x00002226:    7008        .p      STRB     r0,[r1,#0]
        0x00002228:    482e        .H      LDR      r0,[pc,#184] ; [0x22e4] = 0x2000002e
        0x0000222a:    2300        .#      MOVS     r3,#0
        0x0000222c:    56c3        .V      LDRSB    r3,[r0,r3]
        0x0000222e:    2200        ."      MOVS     r2,#0
        0x00002230:    5682        .V      LDRSB    r2,[r0,r2]
        0x00002232:    a12e        ..      ADR      r1,{pc}+0xba ; 0x22ec
        0x00002234:    a80c        ..      ADD      r0,sp,#0x30
        0x00002236:    f7fdfff1    ....    BL       __2sprintf ; 0x21c
        0x0000223a:    a90b        ..      ADD      r1,sp,#0x2c
        0x0000223c:    2001        .       MOVS     r0,#1
        0x0000223e:    f000fa11    ....    BL       print_lcd ; 0x2664
        0x00002242:    bf00        ..      NOP      
        0x00002244:    482c        ,H      LDR      r0,[pc,#176] ; [0x22f8] = 0x400e0000
        0x00002246:    6b00        .k      LDR      r0,[r0,#0x30]
        0x00002248:    07c0        ..      LSLS     r0,r0,#31
        0x0000224a:    0fc0        ..      LSRS     r0,r0,#31
        0x0000224c:    d0fa        ..      BEQ      0x2244 ; TMR3_IRQHandler + 156
        0x0000224e:    482a        *H      LDR      r0,[pc,#168] ; [0x22f8] = 0x400e0000
        0x00002250:    6b00        .k      LDR      r0,[r0,#0x30]
        0x00002252:    0840        @.      LSRS     r0,r0,#1
        0x00002254:    0040        @.      LSLS     r0,r0,#1
        0x00002256:    1c40        @.      ADDS     r0,r0,#1
        0x00002258:    4927        'I      LDR      r1,[pc,#156] ; [0x22f8] = 0x400e0000
        0x0000225a:    6308        .c      STR      r0,[r1,#0x30]
        0x0000225c:    4608        .F      MOV      r0,r1
        0x0000225e:    6800        .h      LDR      r0,[r0,#0]
        0x00002260:    0400        ..      LSLS     r0,r0,#16
        0x00002262:    0b00        ..      LSRS     r0,r0,#12
        0x00002264:    4925        %I      LDR      r1,[pc,#148] ; [0x22fc] = 0x40040000
        0x00002266:    6348        Hc      STR      r0,[r1,#0x34]
        0x00002268:    4823        #H      LDR      r0,[pc,#140] ; [0x22f8] = 0x400e0000
        0x0000226a:    6800        .h      LDR      r0,[r0,#0]
        0x0000226c:    b282        ..      UXTH     r2,r0
        0x0000226e:    a124        $.      ADR      r1,{pc}+0x92 ; 0x2300
        0x00002270:    a812        ..      ADD      r0,sp,#0x48
        0x00002272:    3003        .0      ADDS     r0,#3
        0x00002274:    f7fdffd2    ....    BL       __2sprintf ; 0x21c
        0x00002278:    a910        ..      ADD      r1,sp,#0x40
        0x0000227a:    2000        .       MOVS     r0,#0
        0x0000227c:    f000f9f2    ....    BL       print_lcd ; 0x2664
        0x00002280:    481d        .H      LDR      r0,[pc,#116] ; [0x22f8] = 0x400e0000
        0x00002282:    6a00        .j      LDR      r0,[r0,#0x20]
        0x00002284:    2101        .!      MOVS     r1,#1
        0x00002286:    02c9        ..      LSLS     r1,r1,#11
        0x00002288:    4388        .C      BICS     r0,r0,r1
        0x0000228a:    1840        @.      ADDS     r0,r0,r1
        0x0000228c:    491a        .I      LDR      r1,[pc,#104] ; [0x22f8] = 0x400e0000
        0x0000228e:    6208        .b      STR      r0,[r1,#0x20]
        0x00002290:    481d        .H      LDR      r0,[pc,#116] ; [0x2308] = 0x40010000
        0x00002292:    68c2        .h      LDR      r2,[r0,#0xc]
        0x00002294:    a11d        ..      ADR      r1,{pc}+0x78 ; 0x230c
        0x00002296:    a802        ..      ADD      r0,sp,#8
        0x00002298:    3003        .0      ADDS     r0,#3
        0x0000229a:    f7fdffbf    ....    BL       __2sprintf ; 0x21c
        0x0000229e:    a901        ..      ADD      r1,sp,#4
        0x000022a0:    2003        .       MOVS     r0,#3
        0x000022a2:    f000f9df    ....    BL       print_lcd ; 0x2664
        0x000022a6:    4818        .H      LDR      r0,[pc,#96] ; [0x2308] = 0x40010000
        0x000022a8:    6800        .h      LDR      r0,[r0,#0]
        0x000022aa:    2101        .!      MOVS     r1,#1
        0x000022ac:    0689        ..      LSLS     r1,r1,#26
        0x000022ae:    4388        .C      BICS     r0,r0,r1
        0x000022b0:    1840        @.      ADDS     r0,r0,r1
        0x000022b2:    4915        .I      LDR      r1,[pc,#84] ; [0x2308] = 0x40010000
        0x000022b4:    6008        .`      STR      r0,[r1,#0]
        0x000022b6:    4608        .F      MOV      r0,r1
        0x000022b8:    6800        .h      LDR      r0,[r0,#0]
        0x000022ba:    0389        ..      LSLS     r1,r1,#14
        0x000022bc:    4388        .C      BICS     r0,r0,r1
        0x000022be:    1840        @.      ADDS     r0,r0,r1
        0x000022c0:    4911        .I      LDR      r1,[pc,#68] ; [0x2308] = 0x40010000
        0x000022c2:    6008        .`      STR      r0,[r1,#0]
        0x000022c4:    4814        .H      LDR      r0,[pc,#80] ; [0x2318] = 0x40110000
        0x000022c6:    6a80        .j      LDR      r0,[r0,#0x28]
        0x000022c8:    0840        @.      LSRS     r0,r0,#1
        0x000022ca:    0040        @.      LSLS     r0,r0,#1
        0x000022cc:    1c40        @.      ADDS     r0,r0,#1
        0x000022ce:    4912        .I      LDR      r1,[pc,#72] ; [0x2318] = 0x40110000
        0x000022d0:    6288        .b      STR      r0,[r1,#0x28]
        0x000022d2:    b014        ..      ADD      sp,sp,#0x50
        0x000022d4:    bd10        ..      POP      {r4,pc}
    $d
        0x000022d6:    0000        ..      DCW    0
        0x000022d8:    0000274c    L'..    DCD    10060
        0x000022dc:    2000001c    ...     DCD    536870940
        0x000022e0:    00642520     %d.    DCD    6563104
        0x000022e4:    2000002e    ...     DCD    536870958
        0x000022e8:    2000002f    /..     DCD    536870959
        0x000022ec:    43206425    %d C    DCD    1126196261
        0x000022f0:    25783020     0x%    DCD    628633632
        0x000022f4:    00000058    X...    DCD    88
        0x000022f8:    400e0000    ...@    DCD    1074659328
        0x000022fc:    40040000    ...@    DCD    1074003968
        0x00002300:    20205825    %X      DCD    538990629
        0x00002304:    00000020     ...    DCD    32
        0x00002308:    40010000    ...@    DCD    1073807360
        0x0000230c:    20642520     %d     DCD    543434016
        0x00002310:    20202020            DCD    538976288
        0x00002314:    00002020      ..    DCD    8224
        0x00002318:    40110000    ...@    DCD    1074855936
    $t
    i.UART02_IRQHandler
    UART02_IRQHandler
        0x0000231c:    b570        p.      PUSH     {r4-r6,lr}
        0x0000231e:    480a        .H      LDR      r0,[pc,#40] ; [0x2348] = 0x40050000
        0x00002320:    69c4        .i      LDR      r4,[r0,#0x1c]
        0x00002322:    480a        .H      LDR      r0,[pc,#40] ; [0x234c] = 0x40154000
        0x00002324:    69c5        .i      LDR      r5,[r0,#0x1c]
        0x00002326:    480a        .H      LDR      r0,[pc,#40] ; [0x2350] = 0x20000638
        0x00002328:    6800        .h      LDR      r0,[r0,#0]
        0x0000232a:    2800        .(      CMP      r0,#0
        0x0000232c:    d003        ..      BEQ      0x2336 ; UART02_IRQHandler + 26
        0x0000232e:    4620         F      MOV      r0,r4
        0x00002330:    4907        .I      LDR      r1,[pc,#28] ; [0x2350] = 0x20000638
        0x00002332:    6809        .h      LDR      r1,[r1,#0]
        0x00002334:    4788        .G      BLX      r1
        0x00002336:    4807        .H      LDR      r0,[pc,#28] ; [0x2354] = 0x20000640
        0x00002338:    6800        .h      LDR      r0,[r0,#0]
        0x0000233a:    2800        .(      CMP      r0,#0
        0x0000233c:    d003        ..      BEQ      0x2346 ; UART02_IRQHandler + 42
        0x0000233e:    4628        (F      MOV      r0,r5
        0x00002340:    4904        .I      LDR      r1,[pc,#16] ; [0x2354] = 0x20000640
        0x00002342:    6809        .h      LDR      r1,[r1,#0]
        0x00002344:    4788        .G      BLX      r1
        0x00002346:    bd70        p.      POP      {r4-r6,pc}
    $d
        0x00002348:    40050000    ...@    DCD    1074069504
        0x0000234c:    40154000    .@.@    DCD    1075134464
        0x00002350:    20000638    8..     DCD    536872504
        0x00002354:    20000640    @..     DCD    536872512
    $t
    i.UART1_IRQHandler
    UART1_IRQHandler
        0x00002358:    b510        ..      PUSH     {r4,lr}
        0x0000235a:    4805        .H      LDR      r0,[pc,#20] ; [0x2370] = 0x40150000
        0x0000235c:    69c4        .i      LDR      r4,[r0,#0x1c]
        0x0000235e:    4805        .H      LDR      r0,[pc,#20] ; [0x2374] = 0x2000063c
        0x00002360:    6800        .h      LDR      r0,[r0,#0]
        0x00002362:    2800        .(      CMP      r0,#0
        0x00002364:    d003        ..      BEQ      0x236e ; UART1_IRQHandler + 22
        0x00002366:    4620         F      MOV      r0,r4
        0x00002368:    4902        .I      LDR      r1,[pc,#8] ; [0x2374] = 0x2000063c
        0x0000236a:    6809        .h      LDR      r1,[r1,#0]
        0x0000236c:    4788        .G      BLX      r1
        0x0000236e:    bd10        ..      POP      {r4,pc}
    $d
        0x00002370:    40150000    ...@    DCD    1075118080
        0x00002374:    2000063c    <..     DCD    536872508
    $t
    i.WriteData
    WriteData
        0x00002378:    4914        .I      LDR      r1,[pc,#80] ; [0x23cc] = 0x20000030
        0x0000237a:    68c9        .h      LDR      r1,[r1,#0xc]
        0x0000237c:    6889        .h      LDR      r1,[r1,#8]
        0x0000237e:    0889        ..      LSRS     r1,r1,#2
        0x00002380:    0089        ..      LSLS     r1,r1,#2
        0x00002382:    1c49        I.      ADDS     r1,r1,#1
        0x00002384:    4a11        .J      LDR      r2,[pc,#68] ; [0x23cc] = 0x20000030
        0x00002386:    68d2        .h      LDR      r2,[r2,#0xc]
        0x00002388:    6091        .`      STR      r1,[r2,#8]
        0x0000238a:    21ff        .!      MOVS     r1,#0xff
        0x0000238c:    3101        .1      ADDS     r1,#1
        0x0000238e:    4301        .C      ORRS     r1,r1,r0
        0x00002390:    4a0e        .J      LDR      r2,[pc,#56] ; [0x23cc] = 0x20000030
        0x00002392:    68d2        .h      LDR      r2,[r2,#0xc]
        0x00002394:    6211        .b      STR      r1,[r2,#0x20]
        0x00002396:    490d        .I      LDR      r1,[pc,#52] ; [0x23cc] = 0x20000030
        0x00002398:    68c9        .h      LDR      r1,[r1,#0xc]
        0x0000239a:    6809        .h      LDR      r1,[r1,#0]
        0x0000239c:    0849        I.      LSRS     r1,r1,#1
        0x0000239e:    0049        I.      LSLS     r1,r1,#1
        0x000023a0:    1c49        I.      ADDS     r1,r1,#1
        0x000023a2:    4a0a        .J      LDR      r2,[pc,#40] ; [0x23cc] = 0x20000030
        0x000023a4:    68d2        .h      LDR      r2,[r2,#0xc]
        0x000023a6:    6011        .`      STR      r1,[r2,#0]
        0x000023a8:    bf00        ..      NOP      
        0x000023aa:    4908        .I      LDR      r1,[pc,#32] ; [0x23cc] = 0x20000030
        0x000023ac:    68c9        .h      LDR      r1,[r1,#0xc]
        0x000023ae:    6809        .h      LDR      r1,[r1,#0]
        0x000023b0:    07c9        ..      LSLS     r1,r1,#31
        0x000023b2:    0fc9        ..      LSRS     r1,r1,#31
        0x000023b4:    2901        .)      CMP      r1,#1
        0x000023b6:    d0f8        ..      BEQ      0x23aa ; WriteData + 50
        0x000023b8:    4904        .I      LDR      r1,[pc,#16] ; [0x23cc] = 0x20000030
        0x000023ba:    68c9        .h      LDR      r1,[r1,#0xc]
        0x000023bc:    6889        .h      LDR      r1,[r1,#8]
        0x000023be:    0889        ..      LSRS     r1,r1,#2
        0x000023c0:    0089        ..      LSLS     r1,r1,#2
        0x000023c2:    4a02        .J      LDR      r2,[pc,#8] ; [0x23cc] = 0x20000030
        0x000023c4:    68d2        .h      LDR      r2,[r2,#0xc]
        0x000023c6:    6091        .`      STR      r1,[r2,#8]
        0x000023c8:    4770        pG      BX       lr
    $d
        0x000023ca:    0000        ..      DCW    0
        0x000023cc:    20000030    0..     DCD    536870960
    $t
    i.Write_to_any8574
    Write_to_any8574
        0x000023d0:    b538        8.      PUSH     {r3-r5,lr}
        0x000023d2:    4604        .F      MOV      r4,r0
        0x000023d4:    460d        .F      MOV      r5,r1
        0x000023d6:    f7fefea1    ....    BL       DrvSYS_GetHCLKFreq ; 0x111c
        0x000023da:    4922        "I      LDR      r1,[pc,#136] ; [0x2464] = 0x20000000
        0x000023dc:    6008        .`      STR      r0,[r1,#0]
        0x000023de:    4922        "I      LDR      r1,[pc,#136] ; [0x2468] = 0xc350
        0x000023e0:    2001        .       MOVS     r0,#1
        0x000023e2:    f7fefe1d    ....    BL       DrvI2C_Open ; 0x1020
        0x000023e6:    2000        .       MOVS     r0,#0
        0x000023e8:    4603        .F      MOV      r3,r0
        0x000023ea:    4602        .F      MOV      r2,r0
        0x000023ec:    2101        .!      MOVS     r1,#1
        0x000023ee:    9000        ..      STR      r0,[sp,#0]
        0x000023f0:    4608        .F      MOV      r0,r1
        0x000023f2:    f7fefdeb    ....    BL       DrvI2C_Ctrl ; 0xfcc
        0x000023f6:    bf00        ..      NOP      
        0x000023f8:    481c        .H      LDR      r0,[pc,#112] ; [0x246c] = 0x40120000
        0x000023fa:    6800        .h      LDR      r0,[r0,#0]
        0x000023fc:    0700        ..      LSLS     r0,r0,#28
        0x000023fe:    0fc0        ..      LSRS     r0,r0,#31
        0x00002400:    d0fa        ..      BEQ      0x23f8 ; Write_to_any8574 + 40
        0x00002402:    481a        .H      LDR      r0,[pc,#104] ; [0x246c] = 0x40120000
        0x00002404:    6084        .`      STR      r4,[r0,#8]
        0x00002406:    2000        .       MOVS     r0,#0
        0x00002408:    2301        .#      MOVS     r3,#1
        0x0000240a:    4602        .F      MOV      r2,r0
        0x0000240c:    4601        .F      MOV      r1,r0
        0x0000240e:    9000        ..      STR      r0,[sp,#0]
        0x00002410:    4618        .F      MOV      r0,r3
        0x00002412:    f7fefddb    ....    BL       DrvI2C_Ctrl ; 0xfcc
        0x00002416:    bf00        ..      NOP      
        0x00002418:    4814        .H      LDR      r0,[pc,#80] ; [0x246c] = 0x40120000
        0x0000241a:    6800        .h      LDR      r0,[r0,#0]
        0x0000241c:    0700        ..      LSLS     r0,r0,#28
        0x0000241e:    0fc0        ..      LSRS     r0,r0,#31
        0x00002420:    d0fa        ..      BEQ      0x2418 ; Write_to_any8574 + 72
        0x00002422:    4812        .H      LDR      r0,[pc,#72] ; [0x246c] = 0x40120000
        0x00002424:    6085        .`      STR      r5,[r0,#8]
        0x00002426:    2001        .       MOVS     r0,#1
        0x00002428:    4603        .F      MOV      r3,r0
        0x0000242a:    2200        ."      MOVS     r2,#0
        0x0000242c:    4611        .F      MOV      r1,r2
        0x0000242e:    9000        ..      STR      r0,[sp,#0]
        0x00002430:    f7fefdcc    ....    BL       DrvI2C_Ctrl ; 0xfcc
        0x00002434:    bf00        ..      NOP      
        0x00002436:    480d        .H      LDR      r0,[pc,#52] ; [0x246c] = 0x40120000
        0x00002438:    6800        .h      LDR      r0,[r0,#0]
        0x0000243a:    0700        ..      LSLS     r0,r0,#28
        0x0000243c:    0fc0        ..      LSRS     r0,r0,#31
        0x0000243e:    d0fa        ..      BEQ      0x2436 ; Write_to_any8574 + 102
        0x00002440:    2000        .       MOVS     r0,#0
        0x00002442:    2301        .#      MOVS     r3,#1
        0x00002444:    461a        .F      MOV      r2,r3
        0x00002446:    4601        .F      MOV      r1,r0
        0x00002448:    9000        ..      STR      r0,[sp,#0]
        0x0000244a:    4618        .F      MOV      r0,r3
        0x0000244c:    f7fefdbe    ....    BL       DrvI2C_Ctrl ; 0xfcc
        0x00002450:    bf00        ..      NOP      
        0x00002452:    4806        .H      LDR      r0,[pc,#24] ; [0x246c] = 0x40120000
        0x00002454:    6800        .h      LDR      r0,[r0,#0]
        0x00002456:    06c0        ..      LSLS     r0,r0,#27
        0x00002458:    0fc0        ..      LSRS     r0,r0,#31
        0x0000245a:    d1fa        ..      BNE      0x2452 ; Write_to_any8574 + 130
        0x0000245c:    2001        .       MOVS     r0,#1
        0x0000245e:    f7fefd6d    ..m.    BL       DrvI2C_Close ; 0xf3c
        0x00002462:    bd38        8.      POP      {r3-r5,pc}
    $d
        0x00002464:    20000000    ...     DCD    536870912
        0x00002468:    0000c350    P...    DCD    50000
        0x0000246c:    40120000    ...@    DCD    1074921472
    $t
    i.__ARM_common_switch8
    __ARM_common_switch8
        0x00002470:    b430        0.      PUSH     {r4,r5}
        0x00002472:    4674        tF      MOV      r4,lr
        0x00002474:    1e64        d.      SUBS     r4,r4,#1
        0x00002476:    7825        %x      LDRB     r5,[r4,#0]
        0x00002478:    1c64        d.      ADDS     r4,r4,#1
        0x0000247a:    42ab        .B      CMP      r3,r5
        0x0000247c:    d304        ..      BCC      0x2488 ; __ARM_common_switch8 + 24
        0x0000247e:    5d63        c]      LDRB     r3,[r4,r5]
        0x00002480:    005b        [.      LSLS     r3,r3,#1
        0x00002482:    18e3        ..      ADDS     r3,r4,r3
        0x00002484:    bc30        0.      POP      {r4,r5}
        0x00002486:    4718        .G      BX       r3
        0x00002488:    461d        .F      MOV      r5,r3
        0x0000248a:    e7f8        ..      B        0x247e ; __ARM_common_switch8 + 14
    i._is_digit
    _is_digit
        0x0000248c:    3830        08      SUBS     r0,r0,#0x30
        0x0000248e:    280a        .(      CMP      r0,#0xa
        0x00002490:    d201        ..      BCS      0x2496 ; _is_digit + 10
        0x00002492:    2001        .       MOVS     r0,#1
        0x00002494:    4770        pG      BX       lr
        0x00002496:    2000        .       MOVS     r0,#0
        0x00002498:    4770        pG      BX       lr
    i.close_seven_segment
    close_seven_segment
        0x0000249a:    b510        ..      PUSH     {r4,lr}
        0x0000249c:    2104        .!      MOVS     r1,#4
        0x0000249e:    2002        .       MOVS     r0,#2
        0x000024a0:    f7fef938    ..8.    BL       DrvGPIO_ClrBit ; 0x714
        0x000024a4:    2105        .!      MOVS     r1,#5
        0x000024a6:    2002        .       MOVS     r0,#2
        0x000024a8:    f7fef934    ..4.    BL       DrvGPIO_ClrBit ; 0x714
        0x000024ac:    2106        .!      MOVS     r1,#6
        0x000024ae:    2002        .       MOVS     r0,#2
        0x000024b0:    f7fef930    ..0.    BL       DrvGPIO_ClrBit ; 0x714
        0x000024b4:    2107        .!      MOVS     r1,#7
        0x000024b6:    2002        .       MOVS     r0,#2
        0x000024b8:    f7fef92c    ..,.    BL       DrvGPIO_ClrBit ; 0x714
        0x000024bc:    bd10        ..      POP      {r4,pc}
    i.clr_all_pannal
    clr_all_pannal
        0x000024be:    b510        ..      PUSH     {r4,lr}
        0x000024c0:    2400        .$      MOVS     r4,#0
        0x000024c2:    2100        .!      MOVS     r1,#0
        0x000024c4:    4608        .F      MOV      r0,r1
        0x000024c6:    f7fffd67    ..g.    BL       SetPACA ; 0x1f98
        0x000024ca:    bf00        ..      NOP      
        0x000024cc:    e003        ..      B        0x24d6 ; clr_all_pannal + 24
        0x000024ce:    2000        .       MOVS     r0,#0
        0x000024d0:    f7ffff52    ..R.    BL       WriteData ; 0x2378
        0x000024d4:    1c64        d.      ADDS     r4,r4,#1
        0x000024d6:    2021        !       MOVS     r0,#0x21
        0x000024d8:    0140        @.      LSLS     r0,r0,#5
        0x000024da:    4284        .B      CMP      r4,r0
        0x000024dc:    dbf7        ..      BLT      0x24ce ; clr_all_pannal + 16
        0x000024de:    200f        .       MOVS     r0,#0xf
        0x000024e0:    f7ffff4a    ..J.    BL       WriteData ; 0x2378
        0x000024e4:    bd10        ..      POP      {r4,pc}
    i.disp2Digit8574
    disp2Digit8574
        0x000024e6:    b570        p.      PUSH     {r4-r6,lr}
        0x000024e8:    4604        .F      MOV      r4,r0
        0x000024ea:    1120         .      ASRS     r0,r4,#4
        0x000024ec:    f7feffea    ....    BL       HEX2Disp ; 0x14c4
        0x000024f0:    4605        .F      MOV      r5,r0
        0x000024f2:    4629        )F      MOV      r1,r5
        0x000024f4:    2072        r       MOVS     r0,#0x72
        0x000024f6:    f7ffff6b    ..k.    BL       Write_to_any8574 ; 0x23d0
        0x000024fa:    0721        !.      LSLS     r1,r4,#28
        0x000024fc:    0f09        ..      LSRS     r1,r1,#28
        0x000024fe:    460c        .F      MOV      r4,r1
        0x00002500:    4608        .F      MOV      r0,r1
        0x00002502:    f7feffdf    ....    BL       HEX2Disp ; 0x14c4
        0x00002506:    4605        .F      MOV      r5,r0
        0x00002508:    4629        )F      MOV      r1,r5
        0x0000250a:    2070        p       MOVS     r0,#0x70
        0x0000250c:    f7ffff60    ..`.    BL       Write_to_any8574 ; 0x23d0
        0x00002510:    bd70        p.      POP      {r4-r6,pc}
        0x00002512:    0000        ..      MOVS     r0,r0
    i.main
    main
        0x00002514:    2059        Y       MOVS     r0,#0x59
        0x00002516:    491a        .I      LDR      r1,[pc,#104] ; [0x2580] = 0x50000100
        0x00002518:    6008        .`      STR      r0,[r1,#0]
        0x0000251a:    2016        .       MOVS     r0,#0x16
        0x0000251c:    6008        .`      STR      r0,[r1,#0]
        0x0000251e:    2088        .       MOVS     r0,#0x88
        0x00002520:    6008        .`      STR      r0,[r1,#0]
        0x00002522:    4818        .H      LDR      r0,[pc,#96] ; [0x2584] = 0x2dc6c00
        0x00002524:    f7fefed4    ....    BL       DrvSYS_Open ; 0x12d0
        0x00002528:    2000        .       MOVS     r0,#0
        0x0000252a:    4915        .I      LDR      r1,[pc,#84] ; [0x2580] = 0x50000100
        0x0000252c:    6008        .`      STR      r0,[r1,#0]
        0x0000252e:    2200        ."      MOVS     r2,#0
        0x00002530:    210f        .!      MOVS     r1,#0xf
        0x00002532:    2001        .       MOVS     r0,#1
        0x00002534:    f7fefcb0    ....    BL       DrvGPIO_Open ; 0xe98
        0x00002538:    f7fff892    ....    BL       InitGPIOR ; 0x1660
        0x0000253c:    f7fff99c    ....    BL       Initial_pannel ; 0x1878
        0x00002540:    f7ffffbd    ....    BL       clr_all_pannal ; 0x24be
        0x00002544:    a110        ..      ADR      r1,{pc}+0x44 ; 0x2588
        0x00002546:    2000        .       MOVS     r0,#0
        0x00002548:    f000f88c    ....    BL       print_lcd ; 0x2664
        0x0000254c:    2000        .       MOVS     r0,#0
        0x0000254e:    4912        .I      LDR      r1,[pc,#72] ; [0x2598] = 0x50004280
        0x00002550:    6308        .c      STR      r0,[r1,#0x30]
        0x00002552:    6388        .c      STR      r0,[r1,#0x38]
        0x00002554:    2203        ."      MOVS     r2,#3
        0x00002556:    2106        .!      MOVS     r1,#6
        0x00002558:    f7fefc9e    ....    BL       DrvGPIO_Open ; 0xe98
        0x0000255c:    f7fff8f0    ....    BL       InitTIMER0 ; 0x1740
        0x00002560:    f7fff93e    ..>.    BL       InitTIMER3 ; 0x17e0
        0x00002564:    f7fff89a    ....    BL       InitPWM3 ; 0x169c
        0x00002568:    f7fff82a    ..*.    BL       InitADC0 ; 0x15c0
        0x0000256c:    2003        .       MOVS     r0,#3
        0x0000256e:    f7fef8e7    ....    BL       DrvGPIO_InitFunction ; 0x740
        0x00002572:    e004        ..      B        0x257e ; main + 106
        0x00002574:    4909        .I      LDR      r1,[pc,#36] ; [0x259c] = 0x2000002f
        0x00002576:    2000        .       MOVS     r0,#0
        0x00002578:    5608        .V      LDRSB    r0,[r1,r0]
        0x0000257a:    f000f887    ....    BL       seg_display_Hex ; 0x268c
        0x0000257e:    e7f9        ..      B        0x2574 ; main + 96
    $d
        0x00002580:    50000100    ...P    DCD    1342177536
        0x00002584:    02dc6c00    .l..    DCD    48000000
        0x00002588:    38315344    DS18    DCD    942756676
        0x0000258c:    4f203032    20 O    DCD    1327509554
        0x00002590:    6977656e    newi    DCD    1769432430
        0x00002594:    00006572    re..    DCD    25970
        0x00002598:    50004280    .B.P    DCD    1342194304
        0x0000259c:    2000002f    /..     DCD    536870959
    $t
    i.out_D2A_8591
    out_D2A_8591
        0x000025a0:    b538        8.      PUSH     {r3-r5,lr}
        0x000025a2:    4604        .F      MOV      r4,r0
        0x000025a4:    f7fefdba    ....    BL       DrvSYS_GetHCLKFreq ; 0x111c
        0x000025a8:    492b        +I      LDR      r1,[pc,#172] ; [0x2658] = 0x20000000
        0x000025aa:    6008        .`      STR      r0,[r1,#0]
        0x000025ac:    492b        +I      LDR      r1,[pc,#172] ; [0x265c] = 0xc350
        0x000025ae:    2001        .       MOVS     r0,#1
        0x000025b0:    f7fefd36    ..6.    BL       DrvI2C_Open ; 0x1020
        0x000025b4:    2000        .       MOVS     r0,#0
        0x000025b6:    2301        .#      MOVS     r3,#1
        0x000025b8:    4602        .F      MOV      r2,r0
        0x000025ba:    4619        .F      MOV      r1,r3
        0x000025bc:    9000        ..      STR      r0,[sp,#0]
        0x000025be:    4618        .F      MOV      r0,r3
        0x000025c0:    f7fefd04    ....    BL       DrvI2C_Ctrl ; 0xfcc
        0x000025c4:    bf00        ..      NOP      
        0x000025c6:    4826        &H      LDR      r0,[pc,#152] ; [0x2660] = 0x40120000
        0x000025c8:    6800        .h      LDR      r0,[r0,#0]
        0x000025ca:    0700        ..      LSLS     r0,r0,#28
        0x000025cc:    0fc0        ..      LSRS     r0,r0,#31
        0x000025ce:    d0fa        ..      BEQ      0x25c6 ; out_D2A_8591 + 38
        0x000025d0:    2090        .       MOVS     r0,#0x90
        0x000025d2:    4923        #I      LDR      r1,[pc,#140] ; [0x2660] = 0x40120000
        0x000025d4:    6088        .`      STR      r0,[r1,#8]
        0x000025d6:    2000        .       MOVS     r0,#0
        0x000025d8:    2301        .#      MOVS     r3,#1
        0x000025da:    4602        .F      MOV      r2,r0
        0x000025dc:    4601        .F      MOV      r1,r0
        0x000025de:    9000        ..      STR      r0,[sp,#0]
        0x000025e0:    4618        .F      MOV      r0,r3
        0x000025e2:    f7fefcf3    ....    BL       DrvI2C_Ctrl ; 0xfcc
        0x000025e6:    bf00        ..      NOP      
        0x000025e8:    481d        .H      LDR      r0,[pc,#116] ; [0x2660] = 0x40120000
        0x000025ea:    6800        .h      LDR      r0,[r0,#0]
        0x000025ec:    0700        ..      LSLS     r0,r0,#28
        0x000025ee:    0fc0        ..      LSRS     r0,r0,#31
        0x000025f0:    d0fa        ..      BEQ      0x25e8 ; out_D2A_8591 + 72
        0x000025f2:    2040        @       MOVS     r0,#0x40
        0x000025f4:    491a        .I      LDR      r1,[pc,#104] ; [0x2660] = 0x40120000
        0x000025f6:    6088        .`      STR      r0,[r1,#8]
        0x000025f8:    2000        .       MOVS     r0,#0
        0x000025fa:    2301        .#      MOVS     r3,#1
        0x000025fc:    4602        .F      MOV      r2,r0
        0x000025fe:    4601        .F      MOV      r1,r0
        0x00002600:    9000        ..      STR      r0,[sp,#0]
        0x00002602:    4618        .F      MOV      r0,r3
        0x00002604:    f7fefce2    ....    BL       DrvI2C_Ctrl ; 0xfcc
        0x00002608:    bf00        ..      NOP      
        0x0000260a:    4815        .H      LDR      r0,[pc,#84] ; [0x2660] = 0x40120000
        0x0000260c:    6800        .h      LDR      r0,[r0,#0]
        0x0000260e:    0700        ..      LSLS     r0,r0,#28
        0x00002610:    0fc0        ..      LSRS     r0,r0,#31
        0x00002612:    d0fa        ..      BEQ      0x260a ; out_D2A_8591 + 106
        0x00002614:    4812        .H      LDR      r0,[pc,#72] ; [0x2660] = 0x40120000
        0x00002616:    6084        .`      STR      r4,[r0,#8]
        0x00002618:    2000        .       MOVS     r0,#0
        0x0000261a:    2301        .#      MOVS     r3,#1
        0x0000261c:    4602        .F      MOV      r2,r0
        0x0000261e:    4601        .F      MOV      r1,r0
        0x00002620:    9000        ..      STR      r0,[sp,#0]
        0x00002622:    4618        .F      MOV      r0,r3
        0x00002624:    f7fefcd2    ....    BL       DrvI2C_Ctrl ; 0xfcc
        0x00002628:    bf00        ..      NOP      
        0x0000262a:    480d        .H      LDR      r0,[pc,#52] ; [0x2660] = 0x40120000
        0x0000262c:    6800        .h      LDR      r0,[r0,#0]
        0x0000262e:    0700        ..      LSLS     r0,r0,#28
        0x00002630:    0fc0        ..      LSRS     r0,r0,#31
        0x00002632:    d0fa        ..      BEQ      0x262a ; out_D2A_8591 + 138
        0x00002634:    2000        .       MOVS     r0,#0
        0x00002636:    2301        .#      MOVS     r3,#1
        0x00002638:    461a        .F      MOV      r2,r3
        0x0000263a:    4601        .F      MOV      r1,r0
        0x0000263c:    9000        ..      STR      r0,[sp,#0]
        0x0000263e:    4618        .F      MOV      r0,r3
        0x00002640:    f7fefcc4    ....    BL       DrvI2C_Ctrl ; 0xfcc
        0x00002644:    bf00        ..      NOP      
        0x00002646:    4806        .H      LDR      r0,[pc,#24] ; [0x2660] = 0x40120000
        0x00002648:    6800        .h      LDR      r0,[r0,#0]
        0x0000264a:    06c0        ..      LSLS     r0,r0,#27
        0x0000264c:    0fc0        ..      LSRS     r0,r0,#31
        0x0000264e:    d1fa        ..      BNE      0x2646 ; out_D2A_8591 + 166
        0x00002650:    2001        .       MOVS     r0,#1
        0x00002652:    f7fefc73    ..s.    BL       DrvI2C_Close ; 0xf3c
        0x00002656:    bd38        8.      POP      {r3-r5,pc}
    $d
        0x00002658:    20000000    ...     DCD    536870912
        0x0000265c:    0000c350    P...    DCD    50000
        0x00002660:    40120000    ...@    DCD    1074921472
    $t
    i.print_lcd
    print_lcd
        0x00002664:    b570        p.      PUSH     {r4-r6,lr}
        0x00002666:    4606        .F      MOV      r6,r0
        0x00002668:    460c        .F      MOV      r4,r1
        0x0000266a:    2500        .%      MOVS     r5,#0
        0x0000266c:    bf00        ..      NOP      
        0x0000266e:    7822        "x      LDRB     r2,[r4,#0]
        0x00002670:    1c64        d.      ADDS     r4,r4,#1
        0x00002672:    b2e9        ..      UXTB     r1,r5
        0x00002674:    4630        0F      MOV      r0,r6
        0x00002676:    f7fffd09    ....    BL       Show_Word ; 0x208c
        0x0000267a:    1c6d        m.      ADDS     r5,r5,#1
        0x0000267c:    2d0f        .-      CMP      r5,#0xf
        0x0000267e:    dd00        ..      BLE      0x2682 ; print_lcd + 30
        0x00002680:    e002        ..      B        0x2688 ; print_lcd + 36
        0x00002682:    7820         x      LDRB     r0,[r4,#0]
        0x00002684:    2800        .(      CMP      r0,#0
        0x00002686:    d1f2        ..      BNE      0x266e ; print_lcd + 10
        0x00002688:    bf00        ..      NOP      
        0x0000268a:    bd70        p.      POP      {r4-r6,pc}
    i.seg_display_Hex
    seg_display_Hex
        0x0000268c:    b570        p.      PUSH     {r4-r6,lr}
        0x0000268e:    4604        .F      MOV      r4,r0
        0x00002690:    17e1        ..      ASRS     r1,r4,#31
        0x00002692:    0e09        ..      LSRS     r1,r1,#24
        0x00002694:    1909        ..      ADDS     r1,r1,r4
        0x00002696:    120d        ..      ASRS     r5,r1,#8
        0x00002698:    f7fffeff    ....    BL       close_seven_segment ; 0x249a
        0x0000269c:    207d        }       MOVS     r0,#0x7d
        0x0000269e:    0140        @.      LSLS     r0,r0,#5
        0x000026a0:    f7fefd26    ..&.    BL       DrvSYS_Delay ; 0x10f0
        0x000026a4:    0228        (.      LSLS     r0,r5,#8
        0x000026a6:    1a20         .      SUBS     r0,r4,r0
        0x000026a8:    b204        ..      SXTH     r4,r0
        0x000026aa:    17e1        ..      ASRS     r1,r4,#31
        0x000026ac:    0f09        ..      LSRS     r1,r1,#28
        0x000026ae:    1909        ..      ADDS     r1,r1,r4
        0x000026b0:    1109        ..      ASRS     r1,r1,#4
        0x000026b2:    b24d        M.      SXTB     r5,r1
        0x000026b4:    f7fffef1    ....    BL       close_seven_segment ; 0x249a
        0x000026b8:    b2e9        ..      UXTB     r1,r5
        0x000026ba:    2001        .       MOVS     r0,#1
        0x000026bc:    f000f81e    ....    BL       show_seven_segment_Hex ; 0x26fc
        0x000026c0:    207d        }       MOVS     r0,#0x7d
        0x000026c2:    0140        @.      LSLS     r0,r0,#5
        0x000026c4:    f7fefd14    ....    BL       DrvSYS_Delay ; 0x10f0
        0x000026c8:    0128        (.      LSLS     r0,r5,#4
        0x000026ca:    1a24        $.      SUBS     r4,r4,r0
        0x000026cc:    b265        e.      SXTB     r5,r4
        0x000026ce:    f7fffee4    ....    BL       close_seven_segment ; 0x249a
        0x000026d2:    b2e9        ..      UXTB     r1,r5
        0x000026d4:    2000        .       MOVS     r0,#0
        0x000026d6:    f000f811    ....    BL       show_seven_segment_Hex ; 0x26fc
        0x000026da:    207d        }       MOVS     r0,#0x7d
        0x000026dc:    0140        @.      LSLS     r0,r0,#5
        0x000026de:    f7fefd07    ....    BL       DrvSYS_Delay ; 0x10f0
        0x000026e2:    200a        .       MOVS     r0,#0xa
        0x000026e4:    4368        hC      MULS     r0,r5,r0
        0x000026e6:    1a20         .      SUBS     r0,r4,r0
        0x000026e8:    b204        ..      SXTH     r4,r0
        0x000026ea:    bf00        ..      NOP      
        0x000026ec:    f7fffed5    ....    BL       close_seven_segment ; 0x249a
        0x000026f0:    207d        }       MOVS     r0,#0x7d
        0x000026f2:    0140        @.      LSLS     r0,r0,#5
        0x000026f4:    f7fefcfc    ....    BL       DrvSYS_Delay ; 0x10f0
        0x000026f8:    bd70        p.      POP      {r4-r6,pc}
        0x000026fa:    0000        ..      MOVS     r0,r0
    i.show_seven_segment_Hex
    show_seven_segment_Hex
        0x000026fc:    b5f8        ..      PUSH     {r3-r7,lr}
        0x000026fe:    4605        .F      MOV      r5,r0
        0x00002700:    460f        .F      MOV      r7,r1
        0x00002702:    480d        .H      LDR      r0,[pc,#52] ; [0x2738] = 0x2000001e
        0x00002704:    5dc6        .]      LDRB     r6,[r0,r7]
        0x00002706:    2400        .$      MOVS     r4,#0
        0x00002708:    e00f        ..      B        0x272a ; show_seven_segment_Hex + 46
        0x0000270a:    07f0        ..      LSLS     r0,r6,#31
        0x0000270c:    0fc0        ..      LSRS     r0,r0,#31
        0x0000270e:    2801        .(      CMP      r0,#1
        0x00002710:    d104        ..      BNE      0x271c ; show_seven_segment_Hex + 32
        0x00002712:    4621        !F      MOV      r1,r4
        0x00002714:    2004        .       MOVS     r0,#4
        0x00002716:    f7fefbfb    ....    BL       DrvGPIO_SetBit ; 0xf10
        0x0000271a:    e003        ..      B        0x2724 ; show_seven_segment_Hex + 40
        0x0000271c:    4621        !F      MOV      r1,r4
        0x0000271e:    2004        .       MOVS     r0,#4
        0x00002720:    f7fdfff8    ....    BL       DrvGPIO_ClrBit ; 0x714
        0x00002724:    1076        v.      ASRS     r6,r6,#1
        0x00002726:    1c60        `.      ADDS     r0,r4,#1
        0x00002728:    b2c4        ..      UXTB     r4,r0
        0x0000272a:    2c08        .,      CMP      r4,#8
        0x0000272c:    dbed        ..      BLT      0x270a ; show_seven_segment_Hex + 14
        0x0000272e:    1d29        ).      ADDS     r1,r5,#4
        0x00002730:    2002        .       MOVS     r0,#2
        0x00002732:    f7fefbed    ....    BL       DrvGPIO_SetBit ; 0xf10
        0x00002736:    bdf8        ..      POP      {r3-r7,pc}
    $d
        0x00002738:    2000001e    ...     DCD    536870942
    $d.realdata
    .constdata
    lookUp
        0x0000273c:    b0a4f9c0    ....    DCD    2963601856
        0x00002740:    f8829299    ....    DCD    4169306777
        0x00002744:    83889080    ....    DCD    2206765184
        0x00002748:    8e86a1c6    ....    DCD    2391187910
        0x0000274c:    30434441    ADC0    DCD    809714753
        0x00002750:    6c615620     Val    DCD    1818318368
        0x00002754:    003a6575    ue:.    DCD    3827061
        0x00002758:    00000000    ....    DCD    0
        0x0000275c:    203d2054    T =     DCD    540876884
        0x00002760:    43202020       C    DCD    1126178848
        0x00002764:    00000000    ....    DCD    0
        0x00002768:    00000000    ....    DCD    0
        0x0000276c:    00000000    ....    DCD    0
        0x00002770:    656d6954    Time    DCD    1701669204
        0x00002774:    003a3372    r3:.    DCD    3814258
        0x00002778:    00000000    ....    DCD    0
        0x0000277c:    00000000    ....    DCD    0
        0x00002780:    00000000    ....    DCD    0
        0x00002784:    545f3354    T3_T    DCD    1415525204
        0x00002788:    003a5244    DR:.    DCD    3822148
        0x0000278c:    00000000    ....    DCD    0
        0x00002790:    00000000    ....    DCD    0
        0x00002794:    00000000    ....    DCD    0
    .constdata
        0x00002798:    00000001    ....    DCD    1
        0x0000279c:    00000002    ....    DCD    2
        0x000027a0:    00000002    ....    DCD    2
        0x000027a4:    00000004    ....    DCD    4
    .constdata
    uc_hextab
        0x000027a8:    33323130    0123    DCD    858927408
        0x000027ac:    37363534    4567    DCD    926299444
        0x000027b0:    42413938    89AB    DCD    1111570744
        0x000027b4:    46454443    CDEF    DCD    1178944579
        0x000027b8:    00583040    @0X.    DCD    5779520
    lc_hextab
        0x000027bc:    33323130    0123    DCD    858927408
        0x000027c0:    37363534    4567    DCD    926299444
        0x000027c4:    62613938    89ab    DCD    1650538808
        0x000027c8:    66656463    cdef    DCD    1717920867
        0x000027cc:    00783040    @0x.    DCD    7876672
    Region$$Table$$Base
        0x000027d0:    000027f0    .'..    DCD    10224
        0x000027d4:    20000000    ...     DCD    536870912
        0x000027d8:    00000654    T...    DCD    1620
        0x000027dc:    00000104    ....    DCD    260
        0x000027e0:    00002e44    D...    DCD    11844
        0x000027e4:    20000654    T..     DCD    536872532
        0x000027e8:    000004d4    ....    DCD    1236
        0x000027ec:    00000120     ...    DCD    288
    Region$$Table$$Limit

** Section #2 'ER_RW' (SHT_PROGBITS) [SHF_ALLOC + SHF_WRITE]
    Size   : 1620 bytes (alignment 4)
    Address: 0x20000000


** Section #3 'ER_ZI' (SHT_NOBITS) [SHF_ALLOC + SHF_WRITE]
    Size   : 1236 bytes (alignment 8)
    Address: 0x20000654


** Section #4 '.debug_abbrev' (SHT_PROGBITS)
    Size   : 1476 bytes


** Section #5 '.debug_frame' (SHT_PROGBITS)
    Size   : 2256 bytes


** Section #6 '.debug_info' (SHT_PROGBITS)
    Size   : 128544 bytes


** Section #7 '.debug_line' (SHT_PROGBITS)
    Size   : 11616 bytes


** Section #8 '.debug_loc' (SHT_PROGBITS)
    Size   : 3344 bytes


** Section #9 '.debug_macinfo' (SHT_PROGBITS)
    Size   : 150404 bytes


** Section #10 '.debug_pubnames' (SHT_PROGBITS)
    Size   : 2258 bytes


** Section #11 '.symtab' (SHT_SYMTAB)
    Size   : 8736 bytes (alignment 4)
    String table #12 '.strtab'
    Last local symbol no. 373


** Section #12 '.strtab' (SHT_STRTAB)
    Size   : 6872 bytes


** Section #13 '.note' (SHT_NOTE)
    Size   : 28 bytes (alignment 4)


** Section #14 '.comment' (SHT_PROGBITS)
    Size   : 6516 bytes


** Section #15 '.shstrtab' (SHT_STRTAB)
    Size   : 156 bytes


