
========================================================================

** ELF Header Information

    File Name: .\obj\Smpl_Start_Kit.axf

    Machine class: ELFCLASS32 (32-bit)
    Data encoding: ELFDATA2LSB (Little endian)
    Header version: EV_CURRENT (Current version)
    Operating System ABI: none
    ABI Version: 0
    File Type: ET_EXEC (Executable) (2)
    Machine: EM_ARM (ARM)

    Image Entry point: 0x000001b1
    Flags: EF_ARM_HASENTRY (0x05000002)

    ARM ELF revision: 5 (ABI version 2)

    Built with
    ARM C/C++ Compiler, 4.1 [Build 894]
    ARM Assembler, 4.1 [Build 894]
    ARM Linker, 4.1 [Build 894] 

    Header size: 52 bytes (0x34)
    Program header entry size: 32 bytes (0x20)
    Section header entry size: 40 bytes (0x28)

    Program header entries: 1
    Section header entries: 16

    Program header offset: 324824 (0x0004f4d8)
    Section header offset: 324856 (0x0004f4f8)

    Section header string table index: 15

========================================================================

** Program header #0 (PT_LOAD) [PF_X + PF_W + PF_R + PF_ARM_ENTRY]
    Size : 8464 bytes (7264 bytes in file)
    Virtual address: 0x00000000 (Alignment 8)


========================================================================

** Section #1 'ER_RO' (SHT_PROGBITS) [SHF_ALLOC + SHF_EXECINSTR]
    Size   : 5640 bytes (alignment 4)
    Address: 0x00000000

    $d.realdata
    RESET
    __Vectors
        0x00000000:    20000b08    ...     DCD    536873736
        0x00000004:    000001b1    ....    DCD    433
        0x00000008:    000001d1    ....    DCD    465
        0x0000000c:    000001d3    ....    DCD    467
        0x00000010:    00000000    ....    DCD    0
        0x00000014:    00000000    ....    DCD    0
        0x00000018:    00000000    ....    DCD    0
        0x0000001c:    00000000    ....    DCD    0
        0x00000020:    00000000    ....    DCD    0
        0x00000024:    00000000    ....    DCD    0
        0x00000028:    00000000    ....    DCD    0
        0x0000002c:    000001d5    ....    DCD    469
        0x00000030:    00000000    ....    DCD    0
        0x00000034:    00000000    ....    DCD    0
        0x00000038:    000001d7    ....    DCD    471
        0x0000003c:    000001d9    ....    DCD    473
        0x00000040:    0000068d    ....    DCD    1677
        0x00000044:    00001265    e...    DCD    4709
        0x00000048:    00000859    Y...    DCD    2137
        0x0000004c:    000008e5    ....    DCD    2277
        0x00000050:    00000909    ....    DCD    2313
        0x00000054:    00000945    E...    DCD    2373
        0x00000058:    000001db    ....    DCD    475
        0x0000005c:    000001db    ....    DCD    475
        0x00000060:    000001db    ....    DCD    475
        0x00000064:    000001db    ....    DCD    475
        0x00000068:    000001db    ....    DCD    475
        0x0000006c:    000011b5    ....    DCD    4533
        0x00000070:    00001209    ....    DCD    4617
        0x00000074:    00001245    E...    DCD    4677
        0x00000078:    00000df9    ....    DCD    3577
        0x0000007c:    00000e5d    ]...    DCD    3677
        0x00000080:    00000ec1    ....    DCD    3777
        0x00000084:    00000f25    %...    DCD    3877
        0x00000088:    000001db    ....    DCD    475
        0x0000008c:    000001db    ....    DCD    475
        0x00000090:    000001db    ....    DCD    475
        0x00000094:    000001db    ....    DCD    475
        0x00000098:    000001db    ....    DCD    475
        0x0000009c:    000001db    ....    DCD    475
        0x000000a0:    000001db    ....    DCD    475
        0x000000a4:    000001db    ....    DCD    475
        0x000000a8:    000001db    ....    DCD    475
        0x000000ac:    000001db    ....    DCD    475
        0x000000b0:    00000d99    ....    DCD    3481
        0x000000b4:    000001db    ....    DCD    475
        0x000000b8:    000001db    ....    DCD    475
        0x000000bc:    000001db    ....    DCD    475
    $t
    !!!main
    __main
        0x000000c0:    f000f802    ....    BL       __scatterload ; 0xc8
        0x000000c4:    f000f848    ..H.    BL       __rt_entry ; 0x158
    !!!scatter
    __scatterload
    __scatterload_rt2
    __scatterload_rt2_thumb_only
        0x000000c8:    a00c        ..      ADR      r0,{pc}+0x34 ; 0xfc
        0x000000ca:    c830        0.      LDM      r0!,{r4,r5}
        0x000000cc:    3808        .8      SUBS     r0,r0,#8
        0x000000ce:    1824        $.      ADDS     r4,r4,r0
        0x000000d0:    182d        -.      ADDS     r5,r5,r0
        0x000000d2:    46a2        .F      MOV      r10,r4
        0x000000d4:    1e67        g.      SUBS     r7,r4,#1
        0x000000d6:    46ab        .F      MOV      r11,r5
    __scatterload_null
        0x000000d8:    4654        TF      MOV      r4,r10
        0x000000da:    465d        ]F      MOV      r5,r11
        0x000000dc:    42ac        .B      CMP      r4,r5
        0x000000de:    d101        ..      BNE      0xe4 ; __scatterload_null + 12
        0x000000e0:    f000f83a    ..:.    BL       __rt_entry ; 0x158
        0x000000e4:    467e        ~F      MOV      r6,pc
        0x000000e6:    3e0f        .>      SUBS     r6,r6,#0xf
        0x000000e8:    cc0f        ..      LDM      r4!,{r0-r3}
        0x000000ea:    46b6        .F      MOV      lr,r6
        0x000000ec:    2601        .&      MOVS     r6,#1
        0x000000ee:    4233        3B      TST      r3,r6
        0x000000f0:    d000        ..      BEQ      0xf4 ; __scatterload_null + 28
        0x000000f2:    1afb        ..      SUBS     r3,r7,r3
        0x000000f4:    46a2        .F      MOV      r10,r4
        0x000000f6:    46ab        .F      MOV      r11,r5
        0x000000f8:    4333        3C      ORRS     r3,r3,r6
        0x000000fa:    4718        .G      BX       r3
    $d
        0x000000fc:    000014ec    ....    DCD    5356
        0x00000100:    0000150c    ....    DCD    5388
    $t
    !!handler_copy
    __scatterload_copy
        0x00000104:    3a10        .:      SUBS     r2,r2,#0x10
        0x00000106:    d302        ..      BCC      0x10e ; __scatterload_copy + 10
        0x00000108:    c878        x.      LDM      r0!,{r3-r6}
        0x0000010a:    c178        x.      STM      r1!,{r3-r6}
        0x0000010c:    d8fa        ..      BHI      __scatterload_copy ; 0x104
        0x0000010e:    0752        R.      LSLS     r2,r2,#29
        0x00000110:    d301        ..      BCC      0x116 ; __scatterload_copy + 18
        0x00000112:    c830        0.      LDM      r0!,{r4,r5}
        0x00000114:    c130        0.      STM      r1!,{r4,r5}
        0x00000116:    d501        ..      BPL      0x11c ; __scatterload_copy + 24
        0x00000118:    6804        .h      LDR      r4,[r0,#0]
        0x0000011a:    600c        .`      STR      r4,[r1,#0]
        0x0000011c:    4770        pG      BX       lr
        0x0000011e:    0000        ..      MOVS     r0,r0
    !!handler_zi
    __scatterload_zeroinit
        0x00000120:    2300        .#      MOVS     r3,#0
        0x00000122:    2400        .$      MOVS     r4,#0
        0x00000124:    2500        .%      MOVS     r5,#0
        0x00000126:    2600        .&      MOVS     r6,#0
        0x00000128:    3a10        .:      SUBS     r2,r2,#0x10
        0x0000012a:    d301        ..      BCC      0x130 ; __scatterload_zeroinit + 16
        0x0000012c:    c178        x.      STM      r1!,{r3-r6}
        0x0000012e:    d8fb        ..      BHI      0x128 ; __scatterload_zeroinit + 8
        0x00000130:    0752        R.      LSLS     r2,r2,#29
        0x00000132:    d300        ..      BCC      0x136 ; __scatterload_zeroinit + 22
        0x00000134:    c130        0.      STM      r1!,{r4,r5}
        0x00000136:    d500        ..      BPL      0x13a ; __scatterload_zeroinit + 26
        0x00000138:    600b        .`      STR      r3,[r1,#0]
        0x0000013a:    4770        pG      BX       lr
    .ARM.Collect$$_printf_percent$$00000000
    _printf_percent
        0x0000013c:    b510        ..      PUSH     {r4,lr}
    .ARM.Collect$$_printf_percent$$00000009
    _printf_d
        0x0000013e:    2964        d)      CMP      r1,#0x64
        0x00000140:    d102        ..      BNE      _printf_percent_end ; 0x148
        0x00000142:    f000f87b    ..{.    BL       _printf_int_dec ; 0x23c
        0x00000146:    bd10        ..      POP      {r4,pc}
    .ARM.Collect$$_printf_percent$$00000017
    _printf_percent_end
        0x00000148:    2000        .       MOVS     r0,#0
        0x0000014a:    bd10        ..      POP      {r4,pc}
    .ARM.Collect$$libinit$$00000000
    __rt_lib_init
        0x0000014c:    b51f        ..      PUSH     {r0-r4,lr}
        0x0000014e:    46c0        .F      MOV      r8,r8
        0x00000150:    46c0        .F      MOV      r8,r8
    .ARM.Collect$$libinit$$00000006
    .ARM.Collect$$libinit$$00000008
    .ARM.Collect$$libinit$$0000000A
    .ARM.Collect$$libinit$$0000000D
    .ARM.Collect$$libinit$$0000000F
    .ARM.Collect$$libinit$$00000011
    .ARM.Collect$$libinit$$00000013
    .ARM.Collect$$libinit$$00000015
    .ARM.Collect$$libinit$$00000017
    .ARM.Collect$$libinit$$00000019
    .ARM.Collect$$libinit$$0000001B
    .ARM.Collect$$libinit$$0000001D
    .ARM.Collect$$libinit$$0000001F
    .ARM.Collect$$libinit$$00000021
    .ARM.Collect$$libinit$$00000028
    .ARM.Collect$$libinit$$0000002A
    .ARM.Collect$$libinit$$0000002C
    .ARM.Collect$$libinit$$0000002E
    .ARM.Collect$$libinit$$0000002F
    __rt_lib_init_alloca_1
    __rt_lib_init_argv_1
    __rt_lib_init_atexit_1
    __rt_lib_init_clock_1
    __rt_lib_init_cpp_1
    __rt_lib_init_exceptions_1
    __rt_lib_init_fp_trap_1
    __rt_lib_init_getenv_1
    __rt_lib_init_heap_1
    __rt_lib_init_lc_collate_1
    __rt_lib_init_lc_ctype_1
    __rt_lib_init_lc_monetary_1
    __rt_lib_init_lc_numeric_1
    __rt_lib_init_lc_time_1
    __rt_lib_init_rand_1
    __rt_lib_init_return
    __rt_lib_init_signal_1
    __rt_lib_init_stdio_1
    __rt_lib_init_user_alloc_1
        0x00000152:    bd1f        ..      POP      {r0-r4,pc}
    .ARM.Collect$$libshutdown$$00000000
    __rt_lib_shutdown
        0x00000154:    b510        ..      PUSH     {r4,lr}
    .ARM.Collect$$libshutdown$$00000003
    .ARM.Collect$$libshutdown$$00000006
    .ARM.Collect$$libshutdown$$00000009
    .ARM.Collect$$libshutdown$$0000000B
    .ARM.Collect$$libshutdown$$0000000E
    .ARM.Collect$$libshutdown$$0000000F
    __rt_lib_shutdown_fp_trap_1
    __rt_lib_shutdown_heap_1
    __rt_lib_shutdown_return
    __rt_lib_shutdown_signal_1
    __rt_lib_shutdown_stdio_1
    __rt_lib_shutdown_user_alloc_1
        0x00000156:    bd10        ..      POP      {r4,pc}
    .ARM.Collect$$rtentry$$00000000
    .ARM.Collect$$rtentry$$00000002
    .ARM.Collect$$rtentry$$00000004
    __rt_entry
    __rt_entry_presh_1
    __rt_entry_sh
        0x00000158:    f000fa67    ..g.    BL       __user_setup_stackheap ; 0x62a
        0x0000015c:    4611        .F      MOV      r1,r2
    .ARM.Collect$$rtentry$$00000009
    .ARM.Collect$$rtentry$$0000000A
    __rt_entry_li
    __rt_entry_postsh_1
        0x0000015e:    f7fffff5    ....    BL       __rt_lib_init ; 0x14c
    .ARM.Collect$$rtentry$$0000000C
    .ARM.Collect$$rtentry$$0000000D
    __rt_entry_main
    __rt_entry_postli_1
        0x00000162:    f001f931    ..1.    BL       main ; 0x13c8
        0x00000166:    f000fa7f    ....    BL       exit ; 0x668
    .ARM.Collect$$rtexit$$00000000
    __rt_exit
        0x0000016a:    b403        ..      PUSH     {r0,r1}
    .ARM.Collect$$rtexit$$00000002
    .ARM.Collect$$rtexit$$00000003
    __rt_exit_ls
    __rt_exit_prels_1
        0x0000016c:    f7fffff2    ....    BL       __rt_lib_shutdown ; 0x154
    .ARM.Collect$$rtexit$$00000004
    __rt_exit_exit
        0x00000170:    bc03        ..      POP      {r0,r1}
        0x00000172:    f000fa83    ....    BL       _sys_exit ; 0x67c
        0x00000176:    0000        ..      MOVS     r0,r0
    .emb_text
    __aeabi_memcpy4
    __aeabi_memcpy8
        0x00000178:    b570        p.      PUSH     {r4-r6,lr}
        0x0000017a:    4605        .F      MOV      r5,r0
        0x0000017c:    460c        .F      MOV      r4,r1
        0x0000017e:    4616        .F      MOV      r6,r2
        0x00000180:    e002        ..      B        0x188 ; __aeabi_memcpy4 + 16
        0x00000182:    cc0f        ..      LDM      r4!,{r0-r3}
        0x00000184:    c50f        ..      STM      r5!,{r0-r3}
        0x00000186:    3e10        .>      SUBS     r6,r6,#0x10
        0x00000188:    2e10        ..      CMP      r6,#0x10
        0x0000018a:    d2fa        ..      BCS      0x182 ; __aeabi_memcpy4 + 10
        0x0000018c:    2e08        ..      CMP      r6,#8
        0x0000018e:    d302        ..      BCC      0x196 ; __aeabi_memcpy4 + 30
        0x00000190:    cc03        ..      LDM      r4!,{r0,r1}
        0x00000192:    c503        ..      STM      r5!,{r0,r1}
        0x00000194:    3e08        .>      SUBS     r6,r6,#8
        0x00000196:    2e04        ..      CMP      r6,#4
        0x00000198:    d307        ..      BCC      0x1aa ; __aeabi_memcpy4 + 50
        0x0000019a:    cc01        ..      LDM      r4!,{r0}
        0x0000019c:    c501        ..      STM      r5!,{r0}
        0x0000019e:    1f36        6.      SUBS     r6,r6,#4
        0x000001a0:    e003        ..      B        0x1aa ; __aeabi_memcpy4 + 50
        0x000001a2:    7821        !x      LDRB     r1,[r4,#0]
        0x000001a4:    7029        )p      STRB     r1,[r5,#0]
        0x000001a6:    1c64        d.      ADDS     r4,r4,#1
        0x000001a8:    1c6d        m.      ADDS     r5,r5,#1
        0x000001aa:    1e76        v.      SUBS     r6,r6,#1
        0x000001ac:    d2f9        ..      BCS      0x1a2 ; __aeabi_memcpy4 + 42
        0x000001ae:    bd70        p.      POP      {r4-r6,pc}
    .text
    Reset_Handler
        0x000001b0:    480d        .H      LDR      r0,[pc,#52] ; [0x1e8] = 0x50000100
        0x000001b2:    490e        .I      LDR      r1,[pc,#56] ; [0x1ec] = 0x59
        0x000001b4:    6001        .`      STR      r1,[r0,#0]
        0x000001b6:    490e        .I      LDR      r1,[pc,#56] ; [0x1f0] = 0x16
        0x000001b8:    6001        .`      STR      r1,[r0,#0]
        0x000001ba:    490e        .I      LDR      r1,[pc,#56] ; [0x1f4] = 0x88
        0x000001bc:    6001        .`      STR      r1,[r0,#0]
        0x000001be:    4a0e        .J      LDR      r2,[pc,#56] ; [0x1f8] = 0x50000024
        0x000001c0:    490e        .I      LDR      r1,[pc,#56] ; [0x1fc] = 0x5aa5
        0x000001c2:    6011        .`      STR      r1,[r2,#0]
        0x000001c4:    2100        .!      MOVS     r1,#0
        0x000001c6:    6001        .`      STR      r1,[r0,#0]
        0x000001c8:    480d        .H      LDR      r0,[pc,#52] ; [0x200] = 0x11b1
        0x000001ca:    4780        .G      BLX      r0
        0x000001cc:    480d        .H      LDR      r0,[pc,#52] ; [0x204] = 0xc1
        0x000001ce:    4700        .G      BX       r0
    NMI_Handler
        0x000001d0:    e7fe        ..      B        NMI_Handler ; 0x1d0
    HardFault_Handler
        0x000001d2:    e7fe        ..      B        HardFault_Handler ; 0x1d2
    SVC_Handler
        0x000001d4:    e7fe        ..      B        SVC_Handler ; 0x1d4
    PendSV_Handler
        0x000001d6:    e7fe        ..      B        PendSV_Handler ; 0x1d6
    SysTick_Handler
        0x000001d8:    e7fe        ..      B        SysTick_Handler ; 0x1d8
    Default_Handler
    ACMP_IRQHandler
    ADC_IRQHandler
    CAN0_IRQHandler
    I2C0_IRQHandler
    I2C1_IRQHandler
    I2S_IRQHandler
    PDMA_IRQHandler
    PS2_IRQHandler
    PWMA_IRQHandler
    PWMB_IRQHandler
    RTC_IRQHandler
    TMR0_IRQHandler
    TMR1_IRQHandler
    TMR2_IRQHandler
    USBD_IRQHandler
        0x000001da:    e7fe        ..      B        Default_Handler ; 0x1da
    __user_initial_stackheap
        0x000001dc:    480a        .H      LDR      r0,[pc,#40] ; [0x208] = 0x20000708
        0x000001de:    490b        .I      LDR      r1,[pc,#44] ; [0x20c] = 0x20000b08
        0x000001e0:    4a09        .J      LDR      r2,[pc,#36] ; [0x208] = 0x20000708
        0x000001e2:    4b0b        .K      LDR      r3,[pc,#44] ; [0x210] = 0x20000708
        0x000001e4:    4770        pG      BX       lr
    $d
        0x000001e6:    0000        ..      DCW    0
        0x000001e8:    50000100    ...P    DCD    1342177536
        0x000001ec:    00000059    Y...    DCD    89
        0x000001f0:    00000016    ....    DCD    22
        0x000001f4:    00000088    ....    DCD    136
        0x000001f8:    50000024    $..P    DCD    1342177316
        0x000001fc:    00005aa5    .Z..    DCD    23205
        0x00000200:    000011b1    ....    DCD    4529
        0x00000204:    000000c1    ....    DCD    193
        0x00000208:    20000708    ...     DCD    536872712
        0x0000020c:    20000b08    ...     DCD    536873736
        0x00000210:    20000708    ...     DCD    536872712
    $t
    .text
    __2sprintf
        0x00000214:    b40f        ..      PUSH     {r0-r3}
        0x00000216:    b51c        ..      PUSH     {r2-r4,lr}
        0x00000218:    4b07        .K      LDR      r3,[pc,#28] ; [0x238] = 0x3d9
        0x0000021a:    aa06        ..      ADD      r2,sp,#0x18
        0x0000021c:    447b        {D      ADD      r3,r3,pc
        0x0000021e:    4669        iF      MOV      r1,sp
        0x00000220:    9000        ..      STR      r0,[sp,#0]
        0x00000222:    9805        ..      LDR      r0,[sp,#0x14]
        0x00000224:    f000f9d5    ....    BL       _printf_char_common ; 0x5d2
        0x00000228:    2000        .       MOVS     r0,#0
        0x0000022a:    4669        iF      MOV      r1,sp
        0x0000022c:    f000f9e4    ....    BL       _sputc ; 0x5f8
        0x00000230:    bc1c        ..      POP      {r2-r4}
        0x00000232:    bc08        ..      POP      {r3}
        0x00000234:    b004        ..      ADD      sp,sp,#0x10
        0x00000236:    4718        .G      BX       r3
    $d
        0x00000238:    000003d9    ....    DCD    985
    $t
    .text
    _printf_int_dec
        0x0000023c:    b5f7        ..      PUSH     {r0-r2,r4-r7,lr}
        0x0000023e:    2600        .&      MOVS     r6,#0
        0x00000240:    2975        u)      CMP      r1,#0x75
        0x00000242:    6810        .h      LDR      r0,[r2,#0]
        0x00000244:    9900        ..      LDR      r1,[sp,#0]
        0x00000246:    a514        ..      ADR      r5,{pc}+0x52 ; 0x298
        0x00000248:    d011        ..      BEQ      0x26e ; _printf_int_dec + 50
        0x0000024a:    46c0        .F      MOV      r8,r8
        0x0000024c:    46c0        .F      MOV      r8,r8
        0x0000024e:    2800        .(      CMP      r0,#0
        0x00000250:    da02        ..      BGE      0x258 ; _printf_int_dec + 28
        0x00000252:    4240        @B      RSBS     r0,r0,#0
        0x00000254:    a511        ..      ADR      r5,{pc}+0x48 ; 0x29c
        0x00000256:    e008        ..      B        0x26a ; _printf_int_dec + 46
        0x00000258:    9900        ..      LDR      r1,[sp,#0]
        0x0000025a:    6809        .h      LDR      r1,[r1,#0]
        0x0000025c:    078a        ..      LSLS     r2,r1,#30
        0x0000025e:    d501        ..      BPL      0x264 ; _printf_int_dec + 40
        0x00000260:    a50f        ..      ADR      r5,{pc}+0x40 ; 0x2a0
        0x00000262:    e002        ..      B        0x26a ; _printf_int_dec + 46
        0x00000264:    0749        I.      LSLS     r1,r1,#29
        0x00000266:    d504        ..      BPL      0x272 ; _printf_int_dec + 54
        0x00000268:    a50e        ..      ADR      r5,{pc}+0x3c ; 0x2a4
        0x0000026a:    2601        .&      MOVS     r6,#1
        0x0000026c:    e001        ..      B        0x272 ; _printf_int_dec + 54
        0x0000026e:    46c0        .F      MOV      r8,r8
        0x00000270:    46c0        .F      MOV      r8,r8
        0x00000272:    9f00        ..      LDR      r7,[sp,#0]
        0x00000274:    2400        .$      MOVS     r4,#0
        0x00000276:    3724        $7      ADDS     r7,r7,#0x24
        0x00000278:    e004        ..      B        0x284 ; _printf_int_dec + 72
        0x0000027a:    f000f9c2    ....    BL       __rt_udiv10 ; 0x602
        0x0000027e:    3130        01      ADDS     r1,r1,#0x30
        0x00000280:    5539        9U      STRB     r1,[r7,r4]
        0x00000282:    1c64        d.      ADDS     r4,r4,#1
        0x00000284:    2800        .(      CMP      r0,#0
        0x00000286:    d1f8        ..      BNE      0x27a ; _printf_int_dec + 62
        0x00000288:    4633        3F      MOV      r3,r6
        0x0000028a:    462a        *F      MOV      r2,r5
        0x0000028c:    4621        !F      MOV      r1,r4
        0x0000028e:    9800        ..      LDR      r0,[sp,#0]
        0x00000290:    f000f942    ..B.    BL       _printf_int_common ; 0x518
        0x00000294:    bdfe        ..      POP      {r1-r7,pc}
    $d
        0x00000296:    0000        ..      DCW    0
        0x00000298:    00000000    ....    DCD    0
        0x0000029c:    0000002d    -...    DCD    45
        0x000002a0:    0000002b    +...    DCD    43
        0x000002a4:    00000020     ...    DCD    32
    $t
    .text
    __printf
        0x000002a8:    b5f3        ..      PUSH     {r0,r1,r4-r7,lr}
        0x000002aa:    4604        .F      MOV      r4,r0
        0x000002ac:    2000        .       MOVS     r0,#0
        0x000002ae:    b081        ..      SUB      sp,sp,#4
        0x000002b0:    e07e        ~.      B        0x3b0 ; __printf + 264
        0x000002b2:    68e1        .h      LDR      r1,[r4,#0xc]
        0x000002b4:    4620         F      MOV      r0,r4
        0x000002b6:    4788        .G      BLX      r1
        0x000002b8:    2800        .(      CMP      r0,#0
        0x000002ba:    d07b        {.      BEQ      0x3b4 ; __printf + 268
        0x000002bc:    2825        %(      CMP      r0,#0x25
        0x000002be:    d002        ..      BEQ      0x2c6 ; __printf + 30
        0x000002c0:    6862        bh      LDR      r2,[r4,#4]
        0x000002c2:    68a1        .h      LDR      r1,[r4,#8]
        0x000002c4:    e071        q.      B        0x3aa ; __printf + 258
        0x000002c6:    68e1        .h      LDR      r1,[r4,#0xc]
        0x000002c8:    4620         F      MOV      r0,r4
        0x000002ca:    2500        .%      MOVS     r5,#0
        0x000002cc:    4788        .G      BLX      r1
        0x000002ce:    4606        .F      MOV      r6,r0
        0x000002d0:    2000        .       MOVS     r0,#0
        0x000002d2:    61e0        .a      STR      r0,[r4,#0x1c]
        0x000002d4:    4607        .F      MOV      r7,r0
        0x000002d6:    61a0        .a      STR      r0,[r4,#0x18]
        0x000002d8:    2e2a        *.      CMP      r6,#0x2a
        0x000002da:    d00a        ..      BEQ      0x2f2 ; __printf + 74
        0x000002dc:    4630        0F      MOV      r0,r6
        0x000002de:    f001f81b    ....    BL       _is_digit ; 0x1318
        0x000002e2:    2800        .(      CMP      r0,#0
        0x000002e4:    d027        '.      BEQ      0x336 ; __printf + 142
        0x000002e6:    3e30        0>      SUBS     r6,r6,#0x30
        0x000002e8:    00b8        ..      LSLS     r0,r7,#2
        0x000002ea:    1900        ..      ADDS     r0,r0,r4
        0x000002ec:    9000        ..      STR      r0,[sp,#0]
        0x000002ee:    6186        .a      STR      r6,[r0,#0x18]
        0x000002f0:    e019        ..      B        0x326 ; __printf + 126
        0x000002f2:    9802        ..      LDR      r0,[sp,#8]
        0x000002f4:    00ba        ..      LSLS     r2,r7,#2
        0x000002f6:    1912        ..      ADDS     r2,r2,r4
        0x000002f8:    c802        ..      LDM      r0!,{r1}
        0x000002fa:    6191        .a      STR      r1,[r2,#0x18]
        0x000002fc:    9002        ..      STR      r0,[sp,#8]
        0x000002fe:    4620         F      MOV      r0,r4
        0x00000300:    68e1        .h      LDR      r1,[r4,#0xc]
        0x00000302:    4788        .G      BLX      r1
        0x00000304:    2f01        ./      CMP      r7,#1
        0x00000306:    4606        .F      MOV      r6,r0
        0x00000308:    d117        ..      BNE      0x33a ; __printf + 146
        0x0000030a:    69e0        .i      LDR      r0,[r4,#0x1c]
        0x0000030c:    2800        .(      CMP      r0,#0
        0x0000030e:    da1f        ..      BGE      0x350 ; __printf + 168
        0x00000310:    2020                MOVS     r0,#0x20
        0x00000312:    4385        .C      BICS     r5,r5,r0
        0x00000314:    e01c        ..      B        0x350 ; __printf + 168
        0x00000316:    9800        ..      LDR      r0,[sp,#0]
        0x00000318:    210a        .!      MOVS     r1,#0xa
        0x0000031a:    6980        .i      LDR      r0,[r0,#0x18]
        0x0000031c:    4348        HC      MULS     r0,r1,r0
        0x0000031e:    9900        ..      LDR      r1,[sp,#0]
        0x00000320:    1980        ..      ADDS     r0,r0,r6
        0x00000322:    3830        08      SUBS     r0,r0,#0x30
        0x00000324:    6188        .a      STR      r0,[r1,#0x18]
        0x00000326:    4620         F      MOV      r0,r4
        0x00000328:    68e1        .h      LDR      r1,[r4,#0xc]
        0x0000032a:    4788        .G      BLX      r1
        0x0000032c:    4606        .F      MOV      r6,r0
        0x0000032e:    f000fff3    ....    BL       _is_digit ; 0x1318
        0x00000332:    2800        .(      CMP      r0,#0
        0x00000334:    d1ef        ..      BNE      0x316 ; __printf + 110
        0x00000336:    2f01        ./      CMP      r7,#1
        0x00000338:    d00a        ..      BEQ      0x350 ; __printf + 168
        0x0000033a:    2e2e        ..      CMP      r6,#0x2e
        0x0000033c:    d108        ..      BNE      0x350 ; __printf + 168
        0x0000033e:    4620         F      MOV      r0,r4
        0x00000340:    68e1        .h      LDR      r1,[r4,#0xc]
        0x00000342:    4788        .G      BLX      r1
        0x00000344:    4606        .F      MOV      r6,r0
        0x00000346:    2020                MOVS     r0,#0x20
        0x00000348:    4305        .C      ORRS     r5,r5,r0
        0x0000034a:    1c7f        ..      ADDS     r7,r7,#1
        0x0000034c:    2f02        ./      CMP      r7,#2
        0x0000034e:    dbc3        ..      BLT      0x2d8 ; __printf + 48
        0x00000350:    69a0        .i      LDR      r0,[r4,#0x18]
        0x00000352:    2800        .(      CMP      r0,#0
        0x00000354:    da03        ..      BGE      0x35e ; __printf + 182
        0x00000356:    4240        @B      RSBS     r0,r0,#0
        0x00000358:    61a0        .a      STR      r0,[r4,#0x18]
        0x0000035a:    2001        .       MOVS     r0,#1
        0x0000035c:    4305        .C      ORRS     r5,r5,r0
        0x0000035e:    07e8        ..      LSLS     r0,r5,#31
        0x00000360:    d001        ..      BEQ      0x366 ; __printf + 190
        0x00000362:    2010        .       MOVS     r0,#0x10
        0x00000364:    4385        .C      BICS     r5,r5,r0
        0x00000366:    2e00        ..      CMP      r6,#0
        0x00000368:    d024        $.      BEQ      0x3b4 ; __printf + 268
        0x0000036a:    4630        0F      MOV      r0,r6
        0x0000036c:    3841        A8      SUBS     r0,r0,#0x41
        0x0000036e:    2819        .(      CMP      r0,#0x19
        0x00000370:    d803        ..      BHI      0x37a ; __printf + 210
        0x00000372:    2001        .       MOVS     r0,#1
        0x00000374:    02c0        ..      LSLS     r0,r0,#11
        0x00000376:    4305        .C      ORRS     r5,r5,r0
        0x00000378:    3620         6      ADDS     r6,r6,#0x20
        0x0000037a:    4620         F      MOV      r0,r4
        0x0000037c:    6025        %`      STR      r5,[r4,#0]
        0x0000037e:    4631        1F      MOV      r1,r6
        0x00000380:    9a02        ..      LDR      r2,[sp,#8]
        0x00000382:    4615        .F      MOV      r5,r2
        0x00000384:    f7fffeda    ....    BL       _printf_percent ; 0x13c
        0x00000388:    2800        .(      CMP      r0,#0
        0x0000038a:    d00b        ..      BEQ      0x3a4 ; __printf + 252
        0x0000038c:    2801        .(      CMP      r0,#1
        0x0000038e:    d006        ..      BEQ      0x39e ; __printf + 246
        0x00000390:    1ded        ..      ADDS     r5,r5,#7
        0x00000392:    08e8        ..      LSRS     r0,r5,#3
        0x00000394:    00c0        ..      LSLS     r0,r0,#3
        0x00000396:    3008        .0      ADDS     r0,r0,#8
        0x00000398:    9002        ..      STR      r0,[sp,#8]
        0x0000039a:    e78a        ..      B        0x2b2 ; __printf + 10
        0x0000039c:    e00a        ..      B        0x3b4 ; __printf + 268
        0x0000039e:    1d2d        -.      ADDS     r5,r5,#4
        0x000003a0:    9502        ..      STR      r5,[sp,#8]
        0x000003a2:    e786        ..      B        0x2b2 ; __printf + 10
        0x000003a4:    6862        bh      LDR      r2,[r4,#4]
        0x000003a6:    4630        0F      MOV      r0,r6
        0x000003a8:    68a1        .h      LDR      r1,[r4,#8]
        0x000003aa:    4790        .G      BLX      r2
        0x000003ac:    6a20         j      LDR      r0,[r4,#0x20]
        0x000003ae:    1c40        @.      ADDS     r0,r0,#1
        0x000003b0:    6220         b      STR      r0,[r4,#0x20]
        0x000003b2:    e77e        ~.      B        0x2b2 ; __printf + 10
        0x000003b4:    6a20         j      LDR      r0,[r4,#0x20]
        0x000003b6:    bdfe        ..      POP      {r1-r7,pc}
    .text
    __aeabi_uidiv
    __aeabi_uidivmod
        0x000003b8:    2200        ."      MOVS     r2,#0
        0x000003ba:    0903        ..      LSRS     r3,r0,#4
        0x000003bc:    428b        .B      CMP      r3,r1
        0x000003be:    d32c        ,.      BCC      0x41a ; __aeabi_idiv + 78
        0x000003c0:    0a03        ..      LSRS     r3,r0,#8
        0x000003c2:    428b        .B      CMP      r3,r1
        0x000003c4:    d311        ..      BCC      0x3ea ; __aeabi_idiv + 30
        0x000003c6:    2300        .#      MOVS     r3,#0
        0x000003c8:    469c        .F      MOV      r12,r3
        0x000003ca:    e04e        N.      B        0x46a ; __aeabi_idiv + 158
    __aeabi_idiv
    __aeabi_idivmod
        0x000003cc:    4603        .F      MOV      r3,r0
        0x000003ce:    430b        .C      ORRS     r3,r3,r1
        0x000003d0:    d43c        <.      BMI      0x44c ; __aeabi_idiv + 128
        0x000003d2:    2200        ."      MOVS     r2,#0
        0x000003d4:    0843        C.      LSRS     r3,r0,#1
        0x000003d6:    428b        .B      CMP      r3,r1
        0x000003d8:    d331        1.      BCC      0x43e ; __aeabi_idiv + 114
        0x000003da:    0903        ..      LSRS     r3,r0,#4
        0x000003dc:    428b        .B      CMP      r3,r1
        0x000003de:    d31c        ..      BCC      0x41a ; __aeabi_idiv + 78
        0x000003e0:    0a03        ..      LSRS     r3,r0,#8
        0x000003e2:    428b        .B      CMP      r3,r1
        0x000003e4:    d301        ..      BCC      0x3ea ; __aeabi_idiv + 30
        0x000003e6:    4694        .F      MOV      r12,r2
        0x000003e8:    e03f        ?.      B        0x46a ; __aeabi_idiv + 158
        0x000003ea:    09c3        ..      LSRS     r3,r0,#7
        0x000003ec:    428b        .B      CMP      r3,r1
        0x000003ee:    d301        ..      BCC      0x3f4 ; __aeabi_idiv + 40
        0x000003f0:    01cb        ..      LSLS     r3,r1,#7
        0x000003f2:    1ac0        ..      SUBS     r0,r0,r3
        0x000003f4:    4152        RA      ADCS     r2,r2,r2
        0x000003f6:    0983        ..      LSRS     r3,r0,#6
        0x000003f8:    428b        .B      CMP      r3,r1
        0x000003fa:    d301        ..      BCC      0x400 ; __aeabi_idiv + 52
        0x000003fc:    018b        ..      LSLS     r3,r1,#6
        0x000003fe:    1ac0        ..      SUBS     r0,r0,r3
        0x00000400:    4152        RA      ADCS     r2,r2,r2
        0x00000402:    0943        C.      LSRS     r3,r0,#5
        0x00000404:    428b        .B      CMP      r3,r1
        0x00000406:    d301        ..      BCC      0x40c ; __aeabi_idiv + 64
        0x00000408:    014b        K.      LSLS     r3,r1,#5
        0x0000040a:    1ac0        ..      SUBS     r0,r0,r3
        0x0000040c:    4152        RA      ADCS     r2,r2,r2
        0x0000040e:    0903        ..      LSRS     r3,r0,#4
        0x00000410:    428b        .B      CMP      r3,r1
        0x00000412:    d301        ..      BCC      0x418 ; __aeabi_idiv + 76
        0x00000414:    010b        ..      LSLS     r3,r1,#4
        0x00000416:    1ac0        ..      SUBS     r0,r0,r3
        0x00000418:    4152        RA      ADCS     r2,r2,r2
        0x0000041a:    08c3        ..      LSRS     r3,r0,#3
        0x0000041c:    428b        .B      CMP      r3,r1
        0x0000041e:    d301        ..      BCC      0x424 ; __aeabi_idiv + 88
        0x00000420:    00cb        ..      LSLS     r3,r1,#3
        0x00000422:    1ac0        ..      SUBS     r0,r0,r3
        0x00000424:    4152        RA      ADCS     r2,r2,r2
        0x00000426:    0883        ..      LSRS     r3,r0,#2
        0x00000428:    428b        .B      CMP      r3,r1
        0x0000042a:    d301        ..      BCC      0x430 ; __aeabi_idiv + 100
        0x0000042c:    008b        ..      LSLS     r3,r1,#2
        0x0000042e:    1ac0        ..      SUBS     r0,r0,r3
        0x00000430:    4152        RA      ADCS     r2,r2,r2
        0x00000432:    0843        C.      LSRS     r3,r0,#1
        0x00000434:    428b        .B      CMP      r3,r1
        0x00000436:    d301        ..      BCC      0x43c ; __aeabi_idiv + 112
        0x00000438:    004b        K.      LSLS     r3,r1,#1
        0x0000043a:    1ac0        ..      SUBS     r0,r0,r3
        0x0000043c:    4152        RA      ADCS     r2,r2,r2
        0x0000043e:    1a41        A.      SUBS     r1,r0,r1
        0x00000440:    d200        ..      BCS      0x444 ; __aeabi_idiv + 120
        0x00000442:    4601        .F      MOV      r1,r0
        0x00000444:    4152        RA      ADCS     r2,r2,r2
        0x00000446:    4610        .F      MOV      r0,r2
        0x00000448:    4770        pG      BX       lr
        0x0000044a:    e05d        ].      B        0x508 ; __aeabi_idiv + 316
        0x0000044c:    0fca        ..      LSRS     r2,r1,#31
        0x0000044e:    d000        ..      BEQ      0x452 ; __aeabi_idiv + 134
        0x00000450:    4249        IB      RSBS     r1,r1,#0
        0x00000452:    1003        ..      ASRS     r3,r0,#32
        0x00000454:    d300        ..      BCC      0x458 ; __aeabi_idiv + 140
        0x00000456:    4240        @B      RSBS     r0,r0,#0
        0x00000458:    4053        S@      EORS     r3,r3,r2
        0x0000045a:    2200        ."      MOVS     r2,#0
        0x0000045c:    469c        .F      MOV      r12,r3
        0x0000045e:    0903        ..      LSRS     r3,r0,#4
        0x00000460:    428b        .B      CMP      r3,r1
        0x00000462:    d32d        -.      BCC      0x4c0 ; __aeabi_idiv + 244
        0x00000464:    0a03        ..      LSRS     r3,r0,#8
        0x00000466:    428b        .B      CMP      r3,r1
        0x00000468:    d312        ..      BCC      0x490 ; __aeabi_idiv + 196
        0x0000046a:    22fc        ."      MOVS     r2,#0xfc
        0x0000046c:    0189        ..      LSLS     r1,r1,#6
        0x0000046e:    ba12        ..      REV      r2,r2
        0x00000470:    0a03        ..      LSRS     r3,r0,#8
        0x00000472:    428b        .B      CMP      r3,r1
        0x00000474:    d30c        ..      BCC      0x490 ; __aeabi_idiv + 196
        0x00000476:    0189        ..      LSLS     r1,r1,#6
        0x00000478:    1192        ..      ASRS     r2,r2,#6
        0x0000047a:    428b        .B      CMP      r3,r1
        0x0000047c:    d308        ..      BCC      0x490 ; __aeabi_idiv + 196
        0x0000047e:    0189        ..      LSLS     r1,r1,#6
        0x00000480:    1192        ..      ASRS     r2,r2,#6
        0x00000482:    428b        .B      CMP      r3,r1
        0x00000484:    d304        ..      BCC      0x490 ; __aeabi_idiv + 196
        0x00000486:    0189        ..      LSLS     r1,r1,#6
        0x00000488:    d03a        :.      BEQ      0x500 ; __aeabi_idiv + 308
        0x0000048a:    1192        ..      ASRS     r2,r2,#6
        0x0000048c:    e000        ..      B        0x490 ; __aeabi_idiv + 196
        0x0000048e:    0989        ..      LSRS     r1,r1,#6
        0x00000490:    09c3        ..      LSRS     r3,r0,#7
        0x00000492:    428b        .B      CMP      r3,r1
        0x00000494:    d301        ..      BCC      0x49a ; __aeabi_idiv + 206
        0x00000496:    01cb        ..      LSLS     r3,r1,#7
        0x00000498:    1ac0        ..      SUBS     r0,r0,r3
        0x0000049a:    4152        RA      ADCS     r2,r2,r2
        0x0000049c:    0983        ..      LSRS     r3,r0,#6
        0x0000049e:    428b        .B      CMP      r3,r1
        0x000004a0:    d301        ..      BCC      0x4a6 ; __aeabi_idiv + 218
        0x000004a2:    018b        ..      LSLS     r3,r1,#6
        0x000004a4:    1ac0        ..      SUBS     r0,r0,r3
        0x000004a6:    4152        RA      ADCS     r2,r2,r2
        0x000004a8:    0943        C.      LSRS     r3,r0,#5
        0x000004aa:    428b        .B      CMP      r3,r1
        0x000004ac:    d301        ..      BCC      0x4b2 ; __aeabi_idiv + 230
        0x000004ae:    014b        K.      LSLS     r3,r1,#5
        0x000004b0:    1ac0        ..      SUBS     r0,r0,r3
        0x000004b2:    4152        RA      ADCS     r2,r2,r2
        0x000004b4:    0903        ..      LSRS     r3,r0,#4
        0x000004b6:    428b        .B      CMP      r3,r1
        0x000004b8:    d301        ..      BCC      0x4be ; __aeabi_idiv + 242
        0x000004ba:    010b        ..      LSLS     r3,r1,#4
        0x000004bc:    1ac0        ..      SUBS     r0,r0,r3
        0x000004be:    4152        RA      ADCS     r2,r2,r2
        0x000004c0:    08c3        ..      LSRS     r3,r0,#3
        0x000004c2:    428b        .B      CMP      r3,r1
        0x000004c4:    d301        ..      BCC      0x4ca ; __aeabi_idiv + 254
        0x000004c6:    00cb        ..      LSLS     r3,r1,#3
        0x000004c8:    1ac0        ..      SUBS     r0,r0,r3
        0x000004ca:    4152        RA      ADCS     r2,r2,r2
        0x000004cc:    0883        ..      LSRS     r3,r0,#2
        0x000004ce:    428b        .B      CMP      r3,r1
        0x000004d0:    d301        ..      BCC      0x4d6 ; __aeabi_idiv + 266
        0x000004d2:    008b        ..      LSLS     r3,r1,#2
        0x000004d4:    1ac0        ..      SUBS     r0,r0,r3
        0x000004d6:    4152        RA      ADCS     r2,r2,r2
        0x000004d8:    d2d9        ..      BCS      0x48e ; __aeabi_idiv + 194
        0x000004da:    0843        C.      LSRS     r3,r0,#1
        0x000004dc:    428b        .B      CMP      r3,r1
        0x000004de:    d301        ..      BCC      0x4e4 ; __aeabi_idiv + 280
        0x000004e0:    004b        K.      LSLS     r3,r1,#1
        0x000004e2:    1ac0        ..      SUBS     r0,r0,r3
        0x000004e4:    4152        RA      ADCS     r2,r2,r2
        0x000004e6:    1a41        A.      SUBS     r1,r0,r1
        0x000004e8:    d200        ..      BCS      0x4ec ; __aeabi_idiv + 288
        0x000004ea:    4601        .F      MOV      r1,r0
        0x000004ec:    4663        cF      MOV      r3,r12
        0x000004ee:    4152        RA      ADCS     r2,r2,r2
        0x000004f0:    105b        [.      ASRS     r3,r3,#1
        0x000004f2:    4610        .F      MOV      r0,r2
        0x000004f4:    d301        ..      BCC      0x4fa ; __aeabi_idiv + 302
        0x000004f6:    4240        @B      RSBS     r0,r0,#0
        0x000004f8:    2b00        .+      CMP      r3,#0
        0x000004fa:    d500        ..      BPL      0x4fe ; __aeabi_idiv + 306
        0x000004fc:    4249        IB      RSBS     r1,r1,#0
        0x000004fe:    4770        pG      BX       lr
        0x00000500:    4663        cF      MOV      r3,r12
        0x00000502:    105b        [.      ASRS     r3,r3,#1
        0x00000504:    d300        ..      BCC      0x508 ; __aeabi_idiv + 316
        0x00000506:    4240        @B      RSBS     r0,r0,#0
        0x00000508:    b501        ..      PUSH     {r0,lr}
        0x0000050a:    2000        .       MOVS     r0,#0
        0x0000050c:    46c0        .F      MOV      r8,r8
        0x0000050e:    46c0        .F      MOV      r8,r8
        0x00000510:    bd02        ..      POP      {r1,pc}
    .text
    __use_two_region_memory
        0x00000512:    4770        pG      BX       lr
    __rt_heap_escrow$2region
        0x00000514:    4770        pG      BX       lr
    __rt_heap_expand$2region
        0x00000516:    4770        pG      BX       lr
    .text
    _printf_int_common
        0x00000518:    b5ff        ..      PUSH     {r0-r7,lr}
        0x0000051a:    4604        .F      MOV      r4,r0
        0x0000051c:    460d        .F      MOV      r5,r1
        0x0000051e:    b081        ..      SUB      sp,sp,#4
        0x00000520:    3024        $0      ADDS     r0,r0,#0x24
        0x00000522:    9000        ..      STR      r0,[sp,#0]
        0x00000524:    6821        !h      LDR      r1,[r4,#0]
        0x00000526:    0688        ..      LSLS     r0,r1,#26
        0x00000528:    d504        ..      BPL      0x534 ; _printf_int_common + 28
        0x0000052a:    2210        ."      MOVS     r2,#0x10
        0x0000052c:    69e0        .i      LDR      r0,[r4,#0x1c]
        0x0000052e:    4391        .C      BICS     r1,r1,r2
        0x00000530:    6021        !`      STR      r1,[r4,#0]
        0x00000532:    e000        ..      B        0x536 ; _printf_int_common + 30
        0x00000534:    2001        .       MOVS     r0,#1
        0x00000536:    42a8        .B      CMP      r0,r5
        0x00000538:    dd01        ..      BLE      0x53e ; _printf_int_common + 38
        0x0000053a:    1b47        G.      SUBS     r7,r0,r5
        0x0000053c:    e000        ..      B        0x540 ; _printf_int_common + 40
        0x0000053e:    2700        .'      MOVS     r7,#0
        0x00000540:    9804        ..      LDR      r0,[sp,#0x10]
        0x00000542:    69a1        .i      LDR      r1,[r4,#0x18]
        0x00000544:    197a        z.      ADDS     r2,r7,r5
        0x00000546:    1810        ..      ADDS     r0,r2,r0
        0x00000548:    1a08        ..      SUBS     r0,r1,r0
        0x0000054a:    61a0        .a      STR      r0,[r4,#0x18]
        0x0000054c:    6820         h      LDR      r0,[r4,#0]
        0x0000054e:    06c0        ..      LSLS     r0,r0,#27
        0x00000550:    d402        ..      BMI      0x558 ; _printf_int_common + 64
        0x00000552:    4620         F      MOV      r0,r4
        0x00000554:    46c0        .F      MOV      r8,r8
        0x00000556:    46c0        .F      MOV      r8,r8
        0x00000558:    2600        .&      MOVS     r6,#0
        0x0000055a:    e008        ..      B        0x56e ; _printf_int_common + 86
        0x0000055c:    9803        ..      LDR      r0,[sp,#0xc]
        0x0000055e:    6862        bh      LDR      r2,[r4,#4]
        0x00000560:    68a1        .h      LDR      r1,[r4,#8]
        0x00000562:    5d80        .]      LDRB     r0,[r0,r6]
        0x00000564:    4790        .G      BLX      r2
        0x00000566:    6a20         j      LDR      r0,[r4,#0x20]
        0x00000568:    1c40        @.      ADDS     r0,r0,#1
        0x0000056a:    1c76        v.      ADDS     r6,r6,#1
        0x0000056c:    6220         b      STR      r0,[r4,#0x20]
        0x0000056e:    9804        ..      LDR      r0,[sp,#0x10]
        0x00000570:    4286        .B      CMP      r6,r0
        0x00000572:    dbf3        ..      BLT      0x55c ; _printf_int_common + 68
        0x00000574:    6820         h      LDR      r0,[r4,#0]
        0x00000576:    06c0        ..      LSLS     r0,r0,#27
        0x00000578:    d50a        ..      BPL      0x590 ; _printf_int_common + 120
        0x0000057a:    4620         F      MOV      r0,r4
        0x0000057c:    46c0        .F      MOV      r8,r8
        0x0000057e:    46c0        .F      MOV      r8,r8
        0x00000580:    e006        ..      B        0x590 ; _printf_int_common + 120
        0x00000582:    6862        bh      LDR      r2,[r4,#4]
        0x00000584:    68a1        .h      LDR      r1,[r4,#8]
        0x00000586:    2030        0       MOVS     r0,#0x30
        0x00000588:    4790        .G      BLX      r2
        0x0000058a:    6a20         j      LDR      r0,[r4,#0x20]
        0x0000058c:    1c40        @.      ADDS     r0,r0,#1
        0x0000058e:    6220         b      STR      r0,[r4,#0x20]
        0x00000590:    4638        8F      MOV      r0,r7
        0x00000592:    1e7f        ..      SUBS     r7,r7,#1
        0x00000594:    2800        .(      CMP      r0,#0
        0x00000596:    dcf4        ..      BGT      0x582 ; _printf_int_common + 106
        0x00000598:    e007        ..      B        0x5aa ; _printf_int_common + 146
        0x0000059a:    9800        ..      LDR      r0,[sp,#0]
        0x0000059c:    6862        bh      LDR      r2,[r4,#4]
        0x0000059e:    68a1        .h      LDR      r1,[r4,#8]
        0x000005a0:    5d40        @]      LDRB     r0,[r0,r5]
        0x000005a2:    4790        .G      BLX      r2
        0x000005a4:    6a20         j      LDR      r0,[r4,#0x20]
        0x000005a6:    1c40        @.      ADDS     r0,r0,#1
        0x000005a8:    6220         b      STR      r0,[r4,#0x20]
        0x000005aa:    4628        (F      MOV      r0,r5
        0x000005ac:    1e6d        m.      SUBS     r5,r5,#1
        0x000005ae:    2800        .(      CMP      r0,#0
        0x000005b0:    dcf3        ..      BGT      0x59a ; _printf_int_common + 130
        0x000005b2:    4620         F      MOV      r0,r4
        0x000005b4:    46c0        .F      MOV      r8,r8
        0x000005b6:    46c0        .F      MOV      r8,r8
        0x000005b8:    6820         h      LDR      r0,[r4,#0]
        0x000005ba:    0600        ..      LSLS     r0,r0,#24
        0x000005bc:    d502        ..      BPL      0x5c4 ; _printf_int_common + 172
        0x000005be:    2002        .       MOVS     r0,#2
        0x000005c0:    b005        ..      ADD      sp,sp,#0x14
        0x000005c2:    bdf0        ..      POP      {r4-r7,pc}
        0x000005c4:    2001        .       MOVS     r0,#1
        0x000005c6:    e7fb        ..      B        0x5c0 ; _printf_int_common + 168
    .text
    _printf_input_char
        0x000005c8:    6901        .i      LDR      r1,[r0,#0x10]
        0x000005ca:    1c4a        J.      ADDS     r2,r1,#1
        0x000005cc:    6102        .a      STR      r2,[r0,#0x10]
        0x000005ce:    7808        .x      LDRB     r0,[r1,#0]
        0x000005d0:    4770        pG      BX       lr
    _printf_char_common
        0x000005d2:    b500        ..      PUSH     {lr}
        0x000005d4:    b08f        ..      SUB      sp,sp,#0x3c
        0x000005d6:    9102        ..      STR      r1,[sp,#8]
        0x000005d8:    2100        .!      MOVS     r1,#0
        0x000005da:    9105        ..      STR      r1,[sp,#0x14]
        0x000005dc:    4905        .I      LDR      r1,[pc,#20] ; [0x5f4] = 0xffffffe5
        0x000005de:    9301        ..      STR      r3,[sp,#4]
        0x000005e0:    4479        yD      ADD      r1,r1,pc
        0x000005e2:    9103        ..      STR      r1,[sp,#0xc]
        0x000005e4:    4611        .F      MOV      r1,r2
        0x000005e6:    9004        ..      STR      r0,[sp,#0x10]
        0x000005e8:    4668        hF      MOV      r0,sp
        0x000005ea:    f7fffe5d    ..].    BL       __printf ; 0x2a8
        0x000005ee:    b00f        ..      ADD      sp,sp,#0x3c
        0x000005f0:    bd00        ..      POP      {pc}
    $d
        0x000005f2:    0000        ..      DCW    0
        0x000005f4:    ffffffe5    ....    DCD    4294967269
    $t
    .text
    _sputc
        0x000005f8:    680a        .h      LDR      r2,[r1,#0]
        0x000005fa:    7010        .p      STRB     r0,[r2,#0]
        0x000005fc:    1c52        R.      ADDS     r2,r2,#1
        0x000005fe:    600a        .`      STR      r2,[r1,#0]
        0x00000600:    4770        pG      BX       lr
    .text
    __rt_udiv10
        0x00000602:    4601        .F      MOV      r1,r0
        0x00000604:    0880        ..      LSRS     r0,r0,#2
        0x00000606:    1a08        ..      SUBS     r0,r1,r0
        0x00000608:    0902        ..      LSRS     r2,r0,#4
        0x0000060a:    1810        ..      ADDS     r0,r2,r0
        0x0000060c:    0a02        ..      LSRS     r2,r0,#8
        0x0000060e:    1810        ..      ADDS     r0,r2,r0
        0x00000610:    0c02        ..      LSRS     r2,r0,#16
        0x00000612:    1810        ..      ADDS     r0,r2,r0
        0x00000614:    08c0        ..      LSRS     r0,r0,#3
        0x00000616:    0082        ..      LSLS     r2,r0,#2
        0x00000618:    1812        ..      ADDS     r2,r2,r0
        0x0000061a:    0052        R.      LSLS     r2,r2,#1
        0x0000061c:    1a89        ..      SUBS     r1,r1,r2
        0x0000061e:    e001        ..      B        0x624 ; __rt_udiv10 + 34
        0x00000620:    390a        .9      SUBS     r1,r1,#0xa
        0x00000622:    1c40        @.      ADDS     r0,r0,#1
        0x00000624:    290a        .)      CMP      r1,#0xa
        0x00000626:    d2fb        ..      BCS      0x620 ; __rt_udiv10 + 30
        0x00000628:    4770        pG      BX       lr
    .text
    __user_setup_stackheap
        0x0000062a:    4675        uF      MOV      r5,lr
        0x0000062c:    f000f822    ..".    BL       __user_libspace ; 0x674
        0x00000630:    46ae        .F      MOV      lr,r5
        0x00000632:    0005        ..      MOVS     r5,r0
        0x00000634:    4669        iF      MOV      r1,sp
        0x00000636:    4653        SF      MOV      r3,r10
        0x00000638:    08c0        ..      LSRS     r0,r0,#3
        0x0000063a:    00c0        ..      LSLS     r0,r0,#3
        0x0000063c:    4685        .F      MOV      sp,r0
        0x0000063e:    b018        ..      ADD      sp,sp,#0x60
        0x00000640:    b520         .      PUSH     {r5,lr}
        0x00000642:    f7fffdcb    ....    BL       __user_initial_stackheap ; 0x1dc
        0x00000646:    bc60        `.      POP      {r5,r6}
        0x00000648:    2700        .'      MOVS     r7,#0
        0x0000064a:    0849        I.      LSRS     r1,r1,#1
        0x0000064c:    46b6        .F      MOV      lr,r6
        0x0000064e:    2600        .&      MOVS     r6,#0
        0x00000650:    c5c0        ..      STM      r5!,{r6,r7}
        0x00000652:    c5c0        ..      STM      r5!,{r6,r7}
        0x00000654:    c5c0        ..      STM      r5!,{r6,r7}
        0x00000656:    c5c0        ..      STM      r5!,{r6,r7}
        0x00000658:    c5c0        ..      STM      r5!,{r6,r7}
        0x0000065a:    c5c0        ..      STM      r5!,{r6,r7}
        0x0000065c:    c5c0        ..      STM      r5!,{r6,r7}
        0x0000065e:    c5c0        ..      STM      r5!,{r6,r7}
        0x00000660:    3d40        @=      SUBS     r5,r5,#0x40
        0x00000662:    0049        I.      LSLS     r1,r1,#1
        0x00000664:    468d        .F      MOV      sp,r1
        0x00000666:    4770        pG      BX       lr
    .text
    exit
        0x00000668:    4604        .F      MOV      r4,r0
        0x0000066a:    46c0        .F      MOV      r8,r8
        0x0000066c:    46c0        .F      MOV      r8,r8
        0x0000066e:    4620         F      MOV      r0,r4
        0x00000670:    f7fffd7b    ..{.    BL       __rt_exit ; 0x16a
    .text
    __user_libspace
    __user_perproc_libspace
    __user_perthread_libspace
        0x00000674:    4800        .H      LDR      r0,[pc,#0] ; [0x678] = 0x200006a8
        0x00000676:    4770        pG      BX       lr
    $d
        0x00000678:    200006a8    ...     DCD    536872616
    $t
    .text
    _sys_exit
        0x0000067c:    4901        .I      LDR      r1,[pc,#4] ; [0x684] = 0x20026
        0x0000067e:    2018        .       MOVS     r0,#0x18
        0x00000680:    beab        ..      BKPT     #0xab
        0x00000682:    e7fe        ..      B        0x682 ; _sys_exit + 6
    $d
        0x00000684:    00020026    &...    DCD    131110
    $t
    .text
    __I$use$semihosting
    __use_no_semihosting_swi
        0x00000688:    4770        pG      BX       lr
    .text
    __semihosting_library_function
        0x0000068a:    0000        ..      MOVS     r0,r0
    i.BOD_IRQHandler
    BOD_IRQHandler
        0x0000068c:    b510        ..      PUSH     {r4,lr}
        0x0000068e:    2005        .       MOVS     r0,#5
        0x00000690:    0700        ..      LSLS     r0,r0,#28
        0x00000692:    6980        .i      LDR      r0,[r0,#0x18]
        0x00000694:    2110        .!      MOVS     r1,#0x10
        0x00000696:    4388        .C      BICS     r0,r0,r1
        0x00000698:    3010        .0      ADDS     r0,r0,#0x10
        0x0000069a:    2105        .!      MOVS     r1,#5
        0x0000069c:    0709        ..      LSLS     r1,r1,#28
        0x0000069e:    6188        .a      STR      r0,[r1,#0x18]
        0x000006a0:    4803        .H      LDR      r0,[pc,#12] ; [0x6b0] = 0x20000634
        0x000006a2:    6800        .h      LDR      r0,[r0,#0]
        0x000006a4:    2800        .(      CMP      r0,#0
        0x000006a6:    d002        ..      BEQ      0x6ae ; BOD_IRQHandler + 34
        0x000006a8:    4801        .H      LDR      r0,[pc,#4] ; [0x6b0] = 0x20000634
        0x000006aa:    6800        .h      LDR      r0,[r0,#0]
        0x000006ac:    4780        .G      BLX      r0
        0x000006ae:    bd10        ..      POP      {r4,pc}
    $d
        0x000006b0:    20000634    4..     DCD    536872500
    $t
    i.DrvGPIO_ClrBit
    DrvGPIO_ClrBit
        0x000006b4:    b510        ..      PUSH     {r4,lr}
        0x000006b6:    4603        .F      MOV      r3,r0
        0x000006b8:    2900        .)      CMP      r1,#0
        0x000006ba:    db01        ..      BLT      0x6c0 ; DrvGPIO_ClrBit + 12
        0x000006bc:    2910        .)      CMP      r1,#0x10
        0x000006be:    dd01        ..      BLE      0x6c4 ; DrvGPIO_ClrBit + 16
        0x000006c0:    4805        .H      LDR      r0,[pc,#20] ; [0x6d8] = 0xffff8901
        0x000006c2:    bd10        ..      POP      {r4,pc}
        0x000006c4:    0198        ..      LSLS     r0,r3,#6
        0x000006c6:    4c05        .L      LDR      r4,[pc,#20] ; [0x6dc] = 0x50004000
        0x000006c8:    1902        ..      ADDS     r2,r0,r4
        0x000006ca:    6890        .h      LDR      r0,[r2,#8]
        0x000006cc:    2401        .$      MOVS     r4,#1
        0x000006ce:    408c        .@      LSLS     r4,r4,r1
        0x000006d0:    43a0        .C      BICS     r0,r0,r4
        0x000006d2:    6090        .`      STR      r0,[r2,#8]
        0x000006d4:    2000        .       MOVS     r0,#0
        0x000006d6:    e7f4        ..      B        0x6c2 ; DrvGPIO_ClrBit + 14
    $d
        0x000006d8:    ffff8901    ....    DCD    4294936833
        0x000006dc:    50004000    .@.P    DCD    1342193664
    $t
    i.DrvGPIO_EnableEINT1
    DrvGPIO_EnableEINT1
        0x000006e0:    b5f8        ..      PUSH     {r3-r7,lr}
        0x000006e2:    4605        .F      MOV      r5,r0
        0x000006e4:    460e        .F      MOV      r6,r1
        0x000006e6:    4617        .F      MOV      r7,r2
        0x000006e8:    2d02        .-      CMP      r5,#2
        0x000006ea:    d102        ..      BNE      0x6f2 ; DrvGPIO_EnableEINT1 + 18
        0x000006ec:    2e01        ..      CMP      r6,#1
        0x000006ee:    d100        ..      BNE      0x6f2 ; DrvGPIO_EnableEINT1 + 18
        0x000006f0:    bdf8        ..      POP      {r3-r7,pc}
        0x000006f2:    4c18        .L      LDR      r4,[pc,#96] ; [0x754] = 0x5000405c
        0x000006f4:    2d00        .-      CMP      r5,#0
        0x000006f6:    d104        ..      BNE      0x702 ; DrvGPIO_EnableEINT1 + 34
        0x000006f8:    6820         h      LDR      r0,[r4,#0]
        0x000006fa:    0761        a.      LSLS     r1,r4,#29
        0x000006fc:    4308        .C      ORRS     r0,r0,r1
        0x000006fe:    6020         `      STR      r0,[r4,#0]
        0x00000700:    e00c        ..      B        0x71c ; DrvGPIO_EnableEINT1 + 60
        0x00000702:    2d01        .-      CMP      r5,#1
        0x00000704:    d104        ..      BNE      0x710 ; DrvGPIO_EnableEINT1 + 48
        0x00000706:    6820         h      LDR      r0,[r4,#0]
        0x00000708:    03e9        ..      LSLS     r1,r5,#15
        0x0000070a:    4308        .C      ORRS     r0,r0,r1
        0x0000070c:    6020         `      STR      r0,[r4,#0]
        0x0000070e:    e005        ..      B        0x71c ; DrvGPIO_EnableEINT1 + 60
        0x00000710:    2d02        .-      CMP      r5,#2
        0x00000712:    d103        ..      BNE      0x71c ; DrvGPIO_EnableEINT1 + 60
        0x00000714:    6820         h      LDR      r0,[r4,#0]
        0x00000716:    4910        .I      LDR      r1,[pc,#64] ; [0x758] = 0x80008000
        0x00000718:    4308        .C      ORRS     r0,r0,r1
        0x0000071a:    6020         `      STR      r0,[r4,#0]
        0x0000071c:    4c0d        .L      LDR      r4,[pc,#52] ; [0x754] = 0x5000405c
        0x0000071e:    1f24        $.      SUBS     r4,r4,#4
        0x00000720:    2e00        ..      CMP      r6,#0
        0x00000722:    d105        ..      BNE      0x730 ; DrvGPIO_EnableEINT1 + 80
        0x00000724:    6820         h      LDR      r0,[r4,#0]
        0x00000726:    2101        .!      MOVS     r1,#1
        0x00000728:    03c9        ..      LSLS     r1,r1,#15
        0x0000072a:    4388        .C      BICS     r0,r0,r1
        0x0000072c:    6020         `      STR      r0,[r4,#0]
        0x0000072e:    e005        ..      B        0x73c ; DrvGPIO_EnableEINT1 + 92
        0x00000730:    2e01        ..      CMP      r6,#1
        0x00000732:    d103        ..      BNE      0x73c ; DrvGPIO_EnableEINT1 + 92
        0x00000734:    6820         h      LDR      r0,[r4,#0]
        0x00000736:    03f1        ..      LSLS     r1,r6,#15
        0x00000738:    4308        .C      ORRS     r0,r0,r1
        0x0000073a:    6020         `      STR      r0,[r4,#0]
        0x0000073c:    4807        .H      LDR      r0,[pc,#28] ; [0x75c] = 0x20000654
        0x0000073e:    6007        .`      STR      r7,[r0,#0]
        0x00000740:    2102        .!      MOVS     r1,#2
        0x00000742:    2003        .       MOVS     r0,#3
        0x00000744:    f000fade    ....    BL       NVIC_SetPriority ; 0xd04
        0x00000748:    2003        .       MOVS     r0,#3
        0x0000074a:    f000fad1    ....    BL       NVIC_EnableIRQ ; 0xcf0
        0x0000074e:    bf00        ..      NOP      
        0x00000750:    e7ce        ..      B        0x6f0 ; DrvGPIO_EnableEINT1 + 16
    $d
        0x00000752:    0000        ..      DCW    0
        0x00000754:    5000405c    \@.P    DCD    1342193756
        0x00000758:    80008000    ....    DCD    2147516416
        0x0000075c:    20000654    T..     DCD    536872532
    $t
    i.DrvGPIO_GetBit
    DrvGPIO_GetBit
        0x00000760:    b510        ..      PUSH     {r4,lr}
        0x00000762:    4602        .F      MOV      r2,r0
        0x00000764:    2900        .)      CMP      r1,#0
        0x00000766:    db01        ..      BLT      0x76c ; DrvGPIO_GetBit + 12
        0x00000768:    2910        .)      CMP      r1,#0x10
        0x0000076a:    dd01        ..      BLE      0x770 ; DrvGPIO_GetBit + 16
        0x0000076c:    4804        .H      LDR      r0,[pc,#16] ; [0x780] = 0xffff8901
        0x0000076e:    bd10        ..      POP      {r4,pc}
        0x00000770:    4804        .H      LDR      r0,[pc,#16] ; [0x784] = 0x50004010
        0x00000772:    0194        ..      LSLS     r4,r2,#6
        0x00000774:    1903        ..      ADDS     r3,r0,r4
        0x00000776:    6818        .h      LDR      r0,[r3,#0]
        0x00000778:    40c8        .@      LSRS     r0,r0,r1
        0x0000077a:    07c0        ..      LSLS     r0,r0,#31
        0x0000077c:    0fc0        ..      LSRS     r0,r0,#31
        0x0000077e:    e7f6        ..      B        0x76e ; DrvGPIO_GetBit + 14
    $d
        0x00000780:    ffff8901    ....    DCD    4294936833
        0x00000784:    50004010    .@.P    DCD    1342193680
    $t
    i.DrvGPIO_Open
    DrvGPIO_Open
        0x00000788:    b570        p.      PUSH     {r4-r6,lr}
        0x0000078a:    4604        .F      MOV      r4,r0
        0x0000078c:    460b        .F      MOV      r3,r1
        0x0000078e:    2b00        .+      CMP      r3,#0
        0x00000790:    db01        ..      BLT      0x796 ; DrvGPIO_Open + 14
        0x00000792:    2b10        .+      CMP      r3,#0x10
        0x00000794:    dd01        ..      BLE      0x79a ; DrvGPIO_Open + 18
        0x00000796:    4818        .H      LDR      r0,[pc,#96] ; [0x7f8] = 0xffff8901
        0x00000798:    bd70        p.      POP      {r4-r6,pc}
        0x0000079a:    01a0        ..      LSLS     r0,r4,#6
        0x0000079c:    4d17        .M      LDR      r5,[pc,#92] ; [0x7fc] = 0x50004000
        0x0000079e:    1941        A.      ADDS     r1,r0,r5
        0x000007a0:    2a00        .*      CMP      r2,#0
        0x000007a2:    d003        ..      BEQ      0x7ac ; DrvGPIO_Open + 36
        0x000007a4:    2a01        .*      CMP      r2,#1
        0x000007a6:    d001        ..      BEQ      0x7ac ; DrvGPIO_Open + 36
        0x000007a8:    2a02        .*      CMP      r2,#2
        0x000007aa:    d117        ..      BNE      0x7dc ; DrvGPIO_Open + 84
        0x000007ac:    6808        .h      LDR      r0,[r1,#0]
        0x000007ae:    005e        ^.      LSLS     r6,r3,#1
        0x000007b0:    2503        .%      MOVS     r5,#3
        0x000007b2:    40b5        .@      LSLS     r5,r5,r6
        0x000007b4:    43a8        .C      BICS     r0,r0,r5
        0x000007b6:    6008        .`      STR      r0,[r1,#0]
        0x000007b8:    2a01        .*      CMP      r2,#1
        0x000007ba:    d106        ..      BNE      0x7ca ; DrvGPIO_Open + 66
        0x000007bc:    6808        .h      LDR      r0,[r1,#0]
        0x000007be:    005e        ^.      LSLS     r6,r3,#1
        0x000007c0:    2501        .%      MOVS     r5,#1
        0x000007c2:    40b5        .@      LSLS     r5,r5,r6
        0x000007c4:    4328        (C      ORRS     r0,r0,r5
        0x000007c6:    6008        .`      STR      r0,[r1,#0]
        0x000007c8:    e013        ..      B        0x7f2 ; DrvGPIO_Open + 106
        0x000007ca:    2a02        .*      CMP      r2,#2
        0x000007cc:    d111        ..      BNE      0x7f2 ; DrvGPIO_Open + 106
        0x000007ce:    6808        .h      LDR      r0,[r1,#0]
        0x000007d0:    005e        ^.      LSLS     r6,r3,#1
        0x000007d2:    2502        .%      MOVS     r5,#2
        0x000007d4:    40b5        .@      LSLS     r5,r5,r6
        0x000007d6:    4328        (C      ORRS     r0,r0,r5
        0x000007d8:    6008        .`      STR      r0,[r1,#0]
        0x000007da:    e00a        ..      B        0x7f2 ; DrvGPIO_Open + 106
        0x000007dc:    2a03        .*      CMP      r2,#3
        0x000007de:    d106        ..      BNE      0x7ee ; DrvGPIO_Open + 102
        0x000007e0:    6808        .h      LDR      r0,[r1,#0]
        0x000007e2:    005e        ^.      LSLS     r6,r3,#1
        0x000007e4:    2503        .%      MOVS     r5,#3
        0x000007e6:    40b5        .@      LSLS     r5,r5,r6
        0x000007e8:    4328        (C      ORRS     r0,r0,r5
        0x000007ea:    6008        .`      STR      r0,[r1,#0]
        0x000007ec:    e001        ..      B        0x7f2 ; DrvGPIO_Open + 106
        0x000007ee:    4802        .H      LDR      r0,[pc,#8] ; [0x7f8] = 0xffff8901
        0x000007f0:    e7d2        ..      B        0x798 ; DrvGPIO_Open + 16
        0x000007f2:    2000        .       MOVS     r0,#0
        0x000007f4:    e7d0        ..      B        0x798 ; DrvGPIO_Open + 16
    $d
        0x000007f6:    0000        ..      DCW    0
        0x000007f8:    ffff8901    ....    DCD    4294936833
        0x000007fc:    50004000    .@.P    DCD    1342193664
    $t
    i.DrvGPIO_SetBit
    DrvGPIO_SetBit
        0x00000800:    b510        ..      PUSH     {r4,lr}
        0x00000802:    4603        .F      MOV      r3,r0
        0x00000804:    2900        .)      CMP      r1,#0
        0x00000806:    db01        ..      BLT      0x80c ; DrvGPIO_SetBit + 12
        0x00000808:    2910        .)      CMP      r1,#0x10
        0x0000080a:    dd01        ..      BLE      0x810 ; DrvGPIO_SetBit + 16
        0x0000080c:    4805        .H      LDR      r0,[pc,#20] ; [0x824] = 0xffff8901
        0x0000080e:    bd10        ..      POP      {r4,pc}
        0x00000810:    0198        ..      LSLS     r0,r3,#6
        0x00000812:    4c05        .L      LDR      r4,[pc,#20] ; [0x828] = 0x50004000
        0x00000814:    1902        ..      ADDS     r2,r0,r4
        0x00000816:    6890        .h      LDR      r0,[r2,#8]
        0x00000818:    2401        .$      MOVS     r4,#1
        0x0000081a:    408c        .@      LSLS     r4,r4,r1
        0x0000081c:    4320         C      ORRS     r0,r0,r4
        0x0000081e:    6090        .`      STR      r0,[r2,#8]
        0x00000820:    2000        .       MOVS     r0,#0
        0x00000822:    e7f4        ..      B        0x80e ; DrvGPIO_SetBit + 14
    $d
        0x00000824:    ffff8901    ....    DCD    4294936833
        0x00000828:    50004000    .@.P    DCD    1342193664
    $t
    i.DrvSYS_Delay
    DrvSYS_Delay
        0x0000082c:    4908        .I      LDR      r1,[pc,#32] ; [0x850] = 0x20000004
        0x0000082e:    6809        .h      LDR      r1,[r1,#0]
        0x00000830:    4341        AC      MULS     r1,r0,r1
        0x00000832:    4a08        .J      LDR      r2,[pc,#32] ; [0x854] = 0xe000e000
        0x00000834:    6151        Qa      STR      r1,[r2,#0x14]
        0x00000836:    2100        .!      MOVS     r1,#0
        0x00000838:    6191        .a      STR      r1,[r2,#0x18]
        0x0000083a:    2105        .!      MOVS     r1,#5
        0x0000083c:    6111        .a      STR      r1,[r2,#0x10]
        0x0000083e:    bf00        ..      NOP      
        0x00000840:    4904        .I      LDR      r1,[pc,#16] ; [0x854] = 0xe000e000
        0x00000842:    6909        .i      LDR      r1,[r1,#0x10]
        0x00000844:    2201        ."      MOVS     r2,#1
        0x00000846:    0412        ..      LSLS     r2,r2,#16
        0x00000848:    4211        .B      TST      r1,r2
        0x0000084a:    d0f9        ..      BEQ      0x840 ; DrvSYS_Delay + 20
        0x0000084c:    4770        pG      BX       lr
    $d
        0x0000084e:    0000        ..      DCW    0
        0x00000850:    20000004    ...     DCD    536870916
        0x00000854:    e000e000    ....    DCD    3758153728
    $t
    i.EINT0_IRQHandler
    EINT0_IRQHandler
        0x00000858:    b510        ..      PUSH     {r4,lr}
        0x0000085a:    2001        .       MOVS     r0,#1
        0x0000085c:    0380        ..      LSLS     r0,r0,#14
        0x0000085e:    4905        .I      LDR      r1,[pc,#20] ; [0x874] = 0x50004040
        0x00000860:    6208        .b      STR      r0,[r1,#0x20]
        0x00000862:    4805        .H      LDR      r0,[pc,#20] ; [0x878] = 0x20000650
        0x00000864:    6800        .h      LDR      r0,[r0,#0]
        0x00000866:    2800        .(      CMP      r0,#0
        0x00000868:    d002        ..      BEQ      0x870 ; EINT0_IRQHandler + 24
        0x0000086a:    4803        .H      LDR      r0,[pc,#12] ; [0x878] = 0x20000650
        0x0000086c:    6800        .h      LDR      r0,[r0,#0]
        0x0000086e:    4780        .G      BLX      r0
        0x00000870:    bd10        ..      POP      {r4,pc}
    $d
        0x00000872:    0000        ..      DCW    0
        0x00000874:    50004040    @@.P    DCD    1342193728
        0x00000878:    20000650    P..     DCD    536872528
    $t
    i.EINT1Callback
    EINT1Callback
        0x0000087c:    b510        ..      PUSH     {r4,lr}
        0x0000087e:    2059        Y       MOVS     r0,#0x59
        0x00000880:    490e        .I      LDR      r1,[pc,#56] ; [0x8bc] = 0x50000100
        0x00000882:    6008        .`      STR      r0,[r1,#0]
        0x00000884:    2016        .       MOVS     r0,#0x16
        0x00000886:    6008        .`      STR      r0,[r1,#0]
        0x00000888:    2088        .       MOVS     r0,#0x88
        0x0000088a:    6008        .`      STR      r0,[r1,#0]
        0x0000088c:    480c        .H      LDR      r0,[pc,#48] ; [0x8c0] = 0x40004000
        0x0000088e:    6800        .h      LDR      r0,[r0,#0]
        0x00000890:    2107        .!      MOVS     r1,#7
        0x00000892:    0209        ..      LSLS     r1,r1,#8
        0x00000894:    4388        .C      BICS     r0,r0,r1
        0x00000896:    1840        @.      ADDS     r0,r0,r1
        0x00000898:    4909        .I      LDR      r1,[pc,#36] ; [0x8c0] = 0x40004000
        0x0000089a:    6008        .`      STR      r0,[r1,#0]
        0x0000089c:    2000        .       MOVS     r0,#0
        0x0000089e:    4907        .I      LDR      r1,[pc,#28] ; [0x8bc] = 0x50000100
        0x000008a0:    6008        .`      STR      r0,[r1,#0]
        0x000008a2:    2002        .       MOVS     r0,#2
        0x000008a4:    4907        .I      LDR      r1,[pc,#28] ; [0x8c4] = 0x20000024
        0x000008a6:    7008        .p      STRB     r0,[r1,#0]
        0x000008a8:    a107        ..      ADR      r1,{pc}+0x20 ; 0x8c8
        0x000008aa:    2003        .       MOVS     r0,#3
        0x000008ac:    f000fe34    ..4.    BL       print_lcd ; 0x1518
        0x000008b0:    a109        ..      ADR      r1,{pc}+0x28 ; 0x8d8
        0x000008b2:    2003        .       MOVS     r0,#3
        0x000008b4:    f000fe30    ..0.    BL       print_lcd ; 0x1518
        0x000008b8:    bd10        ..      POP      {r4,pc}
    $d
        0x000008ba:    0000        ..      DCW    0
        0x000008bc:    50000100    ...P    DCD    1342177536
        0x000008c0:    40004000    .@.@    DCD    1073758208
        0x000008c4:    20000024    $..     DCD    536870948
        0x000008c8:    20202020            DCD    538976288
        0x000008cc:    20202020            DCD    538976288
        0x000008d0:    20202020            DCD    538976288
        0x000008d4:    00202020       .    DCD    2105376
        0x000008d8:    20544457    WDT     DCD    542393431
        0x000008dc:    6e616843    Chan    DCD    1851877443
        0x000008e0:    00216567    ge!.    DCD    2188647
    $t
    i.EINT1_IRQHandler
    EINT1_IRQHandler
        0x000008e4:    b510        ..      PUSH     {r4,lr}
        0x000008e6:    2001        .       MOVS     r0,#1
        0x000008e8:    03c0        ..      LSLS     r0,r0,#15
        0x000008ea:    4905        .I      LDR      r1,[pc,#20] ; [0x900] = 0x50004040
        0x000008ec:    6208        .b      STR      r0,[r1,#0x20]
        0x000008ee:    4805        .H      LDR      r0,[pc,#20] ; [0x904] = 0x20000654
        0x000008f0:    6800        .h      LDR      r0,[r0,#0]
        0x000008f2:    2800        .(      CMP      r0,#0
        0x000008f4:    d002        ..      BEQ      0x8fc ; EINT1_IRQHandler + 24
        0x000008f6:    4803        .H      LDR      r0,[pc,#12] ; [0x904] = 0x20000654
        0x000008f8:    6800        .h      LDR      r0,[r0,#0]
        0x000008fa:    4780        .G      BLX      r0
        0x000008fc:    bd10        ..      POP      {r4,pc}
    $d
        0x000008fe:    0000        ..      DCW    0
        0x00000900:    50004040    @@.P    DCD    1342193728
        0x00000904:    20000654    T..     DCD    536872532
    $t
    i.GPAB_IRQHandler
    GPAB_IRQHandler
        0x00000908:    b570        p.      PUSH     {r4-r6,lr}
        0x0000090a:    480c        .H      LDR      r0,[pc,#48] ; [0x93c] = 0x50004000
        0x0000090c:    6a05        .j      LDR      r5,[r0,#0x20]
        0x0000090e:    480b        .H      LDR      r0,[pc,#44] ; [0x93c] = 0x50004000
        0x00000910:    3040        @0      ADDS     r0,r0,#0x40
        0x00000912:    6a04        .j      LDR      r4,[r0,#0x20]
        0x00000914:    2103        .!      MOVS     r1,#3
        0x00000916:    0389        ..      LSLS     r1,r1,#14
        0x00000918:    4620         F      MOV      r0,r4
        0x0000091a:    4388        .C      BICS     r0,r0,r1
        0x0000091c:    4604        .F      MOV      r4,r0
        0x0000091e:    4807        .H      LDR      r0,[pc,#28] ; [0x93c] = 0x50004000
        0x00000920:    6205        .b      STR      r5,[r0,#0x20]
        0x00000922:    4806        .H      LDR      r0,[pc,#24] ; [0x93c] = 0x50004000
        0x00000924:    3040        @0      ADDS     r0,r0,#0x40
        0x00000926:    6204        .b      STR      r4,[r0,#0x20]
        0x00000928:    4805        .H      LDR      r0,[pc,#20] ; [0x940] = 0x20000648
        0x0000092a:    6800        .h      LDR      r0,[r0,#0]
        0x0000092c:    2800        .(      CMP      r0,#0
        0x0000092e:    d004        ..      BEQ      0x93a ; GPAB_IRQHandler + 50
        0x00000930:    4621        !F      MOV      r1,r4
        0x00000932:    4628        (F      MOV      r0,r5
        0x00000934:    4a02        .J      LDR      r2,[pc,#8] ; [0x940] = 0x20000648
        0x00000936:    6812        .h      LDR      r2,[r2,#0]
        0x00000938:    4790        .G      BLX      r2
        0x0000093a:    bd70        p.      POP      {r4-r6,pc}
    $d
        0x0000093c:    50004000    .@.P    DCD    1342193664
        0x00000940:    20000648    H..     DCD    536872520
    $t
    i.GPCDE_IRQHandler
    GPCDE_IRQHandler
        0x00000944:    b570        p.      PUSH     {r4-r6,lr}
        0x00000946:    480d        .H      LDR      r0,[pc,#52] ; [0x97c] = 0x50004080
        0x00000948:    6a04        .j      LDR      r4,[r0,#0x20]
        0x0000094a:    480c        .H      LDR      r0,[pc,#48] ; [0x97c] = 0x50004080
        0x0000094c:    3040        @0      ADDS     r0,r0,#0x40
        0x0000094e:    6a05        .j      LDR      r5,[r0,#0x20]
        0x00000950:    480a        .H      LDR      r0,[pc,#40] ; [0x97c] = 0x50004080
        0x00000952:    3080        .0      ADDS     r0,r0,#0x80
        0x00000954:    6a06        .j      LDR      r6,[r0,#0x20]
        0x00000956:    4809        .H      LDR      r0,[pc,#36] ; [0x97c] = 0x50004080
        0x00000958:    6204        .b      STR      r4,[r0,#0x20]
        0x0000095a:    4808        .H      LDR      r0,[pc,#32] ; [0x97c] = 0x50004080
        0x0000095c:    3040        @0      ADDS     r0,r0,#0x40
        0x0000095e:    6205        .b      STR      r5,[r0,#0x20]
        0x00000960:    4806        .H      LDR      r0,[pc,#24] ; [0x97c] = 0x50004080
        0x00000962:    3080        .0      ADDS     r0,r0,#0x80
        0x00000964:    6206        .b      STR      r6,[r0,#0x20]
        0x00000966:    4806        .H      LDR      r0,[pc,#24] ; [0x980] = 0x2000064c
        0x00000968:    6800        .h      LDR      r0,[r0,#0]
        0x0000096a:    2800        .(      CMP      r0,#0
        0x0000096c:    d005        ..      BEQ      0x97a ; GPCDE_IRQHandler + 54
        0x0000096e:    4632        2F      MOV      r2,r6
        0x00000970:    4629        )F      MOV      r1,r5
        0x00000972:    4620         F      MOV      r0,r4
        0x00000974:    4b02        .K      LDR      r3,[pc,#8] ; [0x980] = 0x2000064c
        0x00000976:    681b        .h      LDR      r3,[r3,#0]
        0x00000978:    4798        .G      BLX      r3
        0x0000097a:    bd70        p.      POP      {r4-r6,pc}
    $d
        0x0000097c:    50004080    .@.P    DCD    1342193792
        0x00000980:    2000064c    L..     DCD    536872524
    $t
    i.InitTIMER3
    InitTIMER3
        0x00000984:    b510        ..      PUSH     {r4,lr}
        0x00000986:    2005        .       MOVS     r0,#5
        0x00000988:    0700        ..      LSLS     r0,r0,#28
        0x0000098a:    6b40        @k      LDR      r0,[r0,#0x34]
        0x0000098c:    2101        .!      MOVS     r1,#1
        0x0000098e:    02c9        ..      LSLS     r1,r1,#11
        0x00000990:    4388        .C      BICS     r0,r0,r1
        0x00000992:    1840        @.      ADDS     r0,r0,r1
        0x00000994:    2105        .!      MOVS     r1,#5
        0x00000996:    0709        ..      LSLS     r1,r1,#28
        0x00000998:    6348        Hc      STR      r0,[r1,#0x34]
        0x0000099a:    4820         H      LDR      r0,[pc,#128] ; [0xa1c] = 0x50000200
        0x0000099c:    6940        @i      LDR      r0,[r0,#0x14]
        0x0000099e:    2107        .!      MOVS     r1,#7
        0x000009a0:    0509        ..      LSLS     r1,r1,#20
        0x000009a2:    4388        .C      BICS     r0,r0,r1
        0x000009a4:    491d        .I      LDR      r1,[pc,#116] ; [0xa1c] = 0x50000200
        0x000009a6:    6148        Ha      STR      r0,[r1,#0x14]
        0x000009a8:    4608        .F      MOV      r0,r1
        0x000009aa:    6880        .h      LDR      r0,[r0,#8]
        0x000009ac:    2120         !      MOVS     r1,#0x20
        0x000009ae:    4388        .C      BICS     r0,r0,r1
        0x000009b0:    3020         0      ADDS     r0,r0,#0x20
        0x000009b2:    491a        .I      LDR      r1,[pc,#104] ; [0xa1c] = 0x50000200
        0x000009b4:    6088        .`      STR      r0,[r1,#8]
        0x000009b6:    481a        .H      LDR      r0,[pc,#104] ; [0xa20] = 0x40110000
        0x000009b8:    6a00        .j      LDR      r0,[r0,#0x20]
        0x000009ba:    2103        .!      MOVS     r1,#3
        0x000009bc:    06c9        ..      LSLS     r1,r1,#27
        0x000009be:    4388        .C      BICS     r0,r0,r1
        0x000009c0:    2101        .!      MOVS     r1,#1
        0x000009c2:    0709        ..      LSLS     r1,r1,#28
        0x000009c4:    1840        @.      ADDS     r0,r0,r1
        0x000009c6:    4916        .I      LDR      r1,[pc,#88] ; [0xa20] = 0x40110000
        0x000009c8:    6208        .b      STR      r0,[r1,#0x20]
        0x000009ca:    4608        .F      MOV      r0,r1
        0x000009cc:    6a00        .j      LDR      r0,[r0,#0x20]
        0x000009ce:    0a00        ..      LSRS     r0,r0,#8
        0x000009d0:    0200        ..      LSLS     r0,r0,#8
        0x000009d2:    300b        .0      ADDS     r0,r0,#0xb
        0x000009d4:    6208        .b      STR      r0,[r1,#0x20]
        0x000009d6:    4813        .H      LDR      r0,[pc,#76] ; [0xa24] = 0xf4240
        0x000009d8:    6248        Hb      STR      r0,[r1,#0x24]
        0x000009da:    4608        .F      MOV      r0,r1
        0x000009dc:    6a00        .j      LDR      r0,[r0,#0x20]
        0x000009de:    0349        I.      LSLS     r1,r1,#13
        0x000009e0:    4388        .C      BICS     r0,r0,r1
        0x000009e2:    1840        @.      ADDS     r0,r0,r1
        0x000009e4:    490e        .I      LDR      r1,[pc,#56] ; [0xa20] = 0x40110000
        0x000009e6:    6208        .b      STR      r0,[r1,#0x20]
        0x000009e8:    4608        .F      MOV      r0,r1
        0x000009ea:    6a80        .j      LDR      r0,[r0,#0x28]
        0x000009ec:    0840        @.      LSRS     r0,r0,#1
        0x000009ee:    0040        @.      LSLS     r0,r0,#1
        0x000009f0:    1c40        @.      ADDS     r0,r0,#1
        0x000009f2:    6288        .b      STR      r0,[r1,#0x28]
        0x000009f4:    200b        .       MOVS     r0,#0xb
        0x000009f6:    f000f971    ..q.    BL       NVIC_EnableIRQ ; 0xcdc
        0x000009fa:    4809        .H      LDR      r0,[pc,#36] ; [0xa20] = 0x40110000
        0x000009fc:    6a00        .j      LDR      r0,[r0,#0x20]
        0x000009fe:    2101        .!      MOVS     r1,#1
        0x00000a00:    0689        ..      LSLS     r1,r1,#26
        0x00000a02:    4388        .C      BICS     r0,r0,r1
        0x00000a04:    1840        @.      ADDS     r0,r0,r1
        0x00000a06:    4906        .I      LDR      r1,[pc,#24] ; [0xa20] = 0x40110000
        0x00000a08:    6208        .b      STR      r0,[r1,#0x20]
        0x00000a0a:    4608        .F      MOV      r0,r1
        0x00000a0c:    6a00        .j      LDR      r0,[r0,#0x20]
        0x00000a0e:    0389        ..      LSLS     r1,r1,#14
        0x00000a10:    4388        .C      BICS     r0,r0,r1
        0x00000a12:    1840        @.      ADDS     r0,r0,r1
        0x00000a14:    4902        .I      LDR      r1,[pc,#8] ; [0xa20] = 0x40110000
        0x00000a16:    6208        .b      STR      r0,[r1,#0x20]
        0x00000a18:    bd10        ..      POP      {r4,pc}
    $d
        0x00000a1a:    0000        ..      DCW    0
        0x00000a1c:    50000200    ...P    DCD    1342177792
        0x00000a20:    40110000    ...@    DCD    1074855936
        0x00000a24:    000f4240    @B..    DCD    1000000
    $t
    i.InitWDT
    InitWDT
        0x00000a28:    b510        ..      PUSH     {r4,lr}
        0x00000a2a:    2059        Y       MOVS     r0,#0x59
        0x00000a2c:    4922        "I      LDR      r1,[pc,#136] ; [0xab8] = 0x50000100
        0x00000a2e:    6008        .`      STR      r0,[r1,#0]
        0x00000a30:    2016        .       MOVS     r0,#0x16
        0x00000a32:    6008        .`      STR      r0,[r1,#0]
        0x00000a34:    2088        .       MOVS     r0,#0x88
        0x00000a36:    6008        .`      STR      r0,[r1,#0]
        0x00000a38:    4820         H      LDR      r0,[pc,#128] ; [0xabc] = 0x50000200
        0x00000a3a:    6940        @i      LDR      r0,[r0,#0x14]
        0x00000a3c:    0880        ..      LSRS     r0,r0,#2
        0x00000a3e:    0080        ..      LSLS     r0,r0,#2
        0x00000a40:    1cc0        ..      ADDS     r0,r0,#3
        0x00000a42:    491e        .I      LDR      r1,[pc,#120] ; [0xabc] = 0x50000200
        0x00000a44:    6148        Ha      STR      r0,[r1,#0x14]
        0x00000a46:    4608        .F      MOV      r0,r1
        0x00000a48:    6880        .h      LDR      r0,[r0,#8]
        0x00000a4a:    0840        @.      LSRS     r0,r0,#1
        0x00000a4c:    0040        @.      LSLS     r0,r0,#1
        0x00000a4e:    1c40        @.      ADDS     r0,r0,#1
        0x00000a50:    6088        .`      STR      r0,[r1,#8]
        0x00000a52:    481b        .H      LDR      r0,[pc,#108] ; [0xac0] = 0x40004000
        0x00000a54:    6800        .h      LDR      r0,[r0,#0]
        0x00000a56:    2107        .!      MOVS     r1,#7
        0x00000a58:    0209        ..      LSLS     r1,r1,#8
        0x00000a5a:    4388        .C      BICS     r0,r0,r1
        0x00000a5c:    2103        .!      MOVS     r1,#3
        0x00000a5e:    0249        I.      LSLS     r1,r1,#9
        0x00000a60:    1840        @.      ADDS     r0,r0,r1
        0x00000a62:    4917        .I      LDR      r1,[pc,#92] ; [0xac0] = 0x40004000
        0x00000a64:    6008        .`      STR      r0,[r1,#0]
        0x00000a66:    4608        .F      MOV      r0,r1
        0x00000a68:    6800        .h      LDR      r0,[r0,#0]
        0x00000a6a:    2102        .!      MOVS     r1,#2
        0x00000a6c:    4388        .C      BICS     r0,r0,r1
        0x00000a6e:    4914        .I      LDR      r1,[pc,#80] ; [0xac0] = 0x40004000
        0x00000a70:    6008        .`      STR      r0,[r1,#0]
        0x00000a72:    4608        .F      MOV      r0,r1
        0x00000a74:    6800        .h      LDR      r0,[r0,#0]
        0x00000a76:    2108        .!      MOVS     r1,#8
        0x00000a78:    4388        .C      BICS     r0,r0,r1
        0x00000a7a:    3008        .0      ADDS     r0,r0,#8
        0x00000a7c:    4910        .I      LDR      r1,[pc,#64] ; [0xac0] = 0x40004000
        0x00000a7e:    6008        .`      STR      r0,[r1,#0]
        0x00000a80:    4608        .F      MOV      r0,r1
        0x00000a82:    6800        .h      LDR      r0,[r0,#0]
        0x00000a84:    2140        @!      MOVS     r1,#0x40
        0x00000a86:    4388        .C      BICS     r0,r0,r1
        0x00000a88:    3040        @0      ADDS     r0,r0,#0x40
        0x00000a8a:    490d        .I      LDR      r1,[pc,#52] ; [0xac0] = 0x40004000
        0x00000a8c:    6008        .`      STR      r0,[r1,#0]
        0x00000a8e:    2001        .       MOVS     r0,#1
        0x00000a90:    f000f924    ..$.    BL       NVIC_EnableIRQ ; 0xcdc
        0x00000a94:    480a        .H      LDR      r0,[pc,#40] ; [0xac0] = 0x40004000
        0x00000a96:    6800        .h      LDR      r0,[r0,#0]
        0x00000a98:    2180        .!      MOVS     r1,#0x80
        0x00000a9a:    4388        .C      BICS     r0,r0,r1
        0x00000a9c:    3080        .0      ADDS     r0,r0,#0x80
        0x00000a9e:    4908        .I      LDR      r1,[pc,#32] ; [0xac0] = 0x40004000
        0x00000aa0:    6008        .`      STR      r0,[r1,#0]
        0x00000aa2:    4608        .F      MOV      r0,r1
        0x00000aa4:    6800        .h      LDR      r0,[r0,#0]
        0x00000aa6:    0840        @.      LSRS     r0,r0,#1
        0x00000aa8:    0040        @.      LSLS     r0,r0,#1
        0x00000aaa:    1c40        @.      ADDS     r0,r0,#1
        0x00000aac:    6008        .`      STR      r0,[r1,#0]
        0x00000aae:    2000        .       MOVS     r0,#0
        0x00000ab0:    4901        .I      LDR      r1,[pc,#4] ; [0xab8] = 0x50000100
        0x00000ab2:    6008        .`      STR      r0,[r1,#0]
        0x00000ab4:    bd10        ..      POP      {r4,pc}
    $d
        0x00000ab6:    0000        ..      DCW    0
        0x00000ab8:    50000100    ...P    DCD    1342177536
        0x00000abc:    50000200    ...P    DCD    1342177792
        0x00000ac0:    40004000    .@.@    DCD    1073758208
    $t
    i.Initial_pannel
    Initial_pannel
        0x00000ac4:    4883        .H      LDR      r0,[pc,#524] ; [0xcd4] = 0x50000200
        0x00000ac6:    6880        .h      LDR      r0,[r0,#8]
        0x00000ac8:    2101        .!      MOVS     r1,#1
        0x00000aca:    03c9        ..      LSLS     r1,r1,#15
        0x00000acc:    4388        .C      BICS     r0,r0,r1
        0x00000ace:    1840        @.      ADDS     r0,r0,r1
        0x00000ad0:    4980        .I      LDR      r1,[pc,#512] ; [0xcd4] = 0x50000200
        0x00000ad2:    6088        .`      STR      r0,[r1,#8]
        0x00000ad4:    2005        .       MOVS     r0,#5
        0x00000ad6:    0700        ..      LSLS     r0,r0,#28
        0x00000ad8:    68c0        .h      LDR      r0,[r0,#0xc]
        0x00000ada:    0189        ..      LSLS     r1,r1,#6
        0x00000adc:    4388        .C      BICS     r0,r0,r1
        0x00000ade:    1840        @.      ADDS     r0,r0,r1
        0x00000ae0:    2105        .!      MOVS     r1,#5
        0x00000ae2:    0709        ..      LSLS     r1,r1,#28
        0x00000ae4:    60c8        .`      STR      r0,[r1,#0xc]
        0x00000ae6:    4608        .F      MOV      r0,r1
        0x00000ae8:    68c0        .h      LDR      r0,[r0,#0xc]
        0x00000aea:    2101        .!      MOVS     r1,#1
        0x00000aec:    03c9        ..      LSLS     r1,r1,#15
        0x00000aee:    4388        .C      BICS     r0,r0,r1
        0x00000af0:    2105        .!      MOVS     r1,#5
        0x00000af2:    0709        ..      LSLS     r1,r1,#28
        0x00000af4:    60c8        .`      STR      r0,[r1,#0xc]
        0x00000af6:    4608        .F      MOV      r0,r1
        0x00000af8:    6bc0        .k      LDR      r0,[r0,#0x3c]
        0x00000afa:    21ff        .!      MOVS     r1,#0xff
        0x00000afc:    3101        .1      ADDS     r1,#1
        0x00000afe:    4388        .C      BICS     r0,r0,r1
        0x00000b00:    1840        @.      ADDS     r0,r0,r1
        0x00000b02:    2105        .!      MOVS     r1,#5
        0x00000b04:    0709        ..      LSLS     r1,r1,#28
        0x00000b06:    63c8        .c      STR      r0,[r1,#0x3c]
        0x00000b08:    4608        .F      MOV      r0,r1
        0x00000b0a:    6bc0        .k      LDR      r0,[r0,#0x3c]
        0x00000b0c:    2101        .!      MOVS     r1,#1
        0x00000b0e:    0249        I.      LSLS     r1,r1,#9
        0x00000b10:    4388        .C      BICS     r0,r0,r1
        0x00000b12:    1840        @.      ADDS     r0,r0,r1
        0x00000b14:    2105        .!      MOVS     r1,#5
        0x00000b16:    0709        ..      LSLS     r1,r1,#28
        0x00000b18:    63c8        .c      STR      r0,[r1,#0x3c]
        0x00000b1a:    4608        .F      MOV      r0,r1
        0x00000b1c:    6bc0        .k      LDR      r0,[r0,#0x3c]
        0x00000b1e:    2101        .!      MOVS     r1,#1
        0x00000b20:    02c9        ..      LSLS     r1,r1,#11
        0x00000b22:    4388        .C      BICS     r0,r0,r1
        0x00000b24:    1840        @.      ADDS     r0,r0,r1
        0x00000b26:    2105        .!      MOVS     r1,#5
        0x00000b28:    0709        ..      LSLS     r1,r1,#28
        0x00000b2a:    63c8        .c      STR      r0,[r1,#0x3c]
        0x00000b2c:    486a        jH      LDR      r0,[pc,#424] ; [0xcd8] = 0x20000028
        0x00000b2e:    68c0        .h      LDR      r0,[r0,#0xc]
        0x00000b30:    6800        .h      LDR      r0,[r0,#0]
        0x00000b32:    2101        .!      MOVS     r1,#1
        0x00000b34:    02c9        ..      LSLS     r1,r1,#11
        0x00000b36:    4388        .C      BICS     r0,r0,r1
        0x00000b38:    1840        @.      ADDS     r0,r0,r1
        0x00000b3a:    4967        gI      LDR      r1,[pc,#412] ; [0xcd8] = 0x20000028
        0x00000b3c:    68c9        .h      LDR      r1,[r1,#0xc]
        0x00000b3e:    6008        .`      STR      r0,[r1,#0]
        0x00000b40:    4865        eH      LDR      r0,[pc,#404] ; [0xcd8] = 0x20000028
        0x00000b42:    68c0        .h      LDR      r0,[r0,#0xc]
        0x00000b44:    6800        .h      LDR      r0,[r0,#0]
        0x00000b46:    21f8        .!      MOVS     r1,#0xf8
        0x00000b48:    4388        .C      BICS     r0,r0,r1
        0x00000b4a:    3048        H0      ADDS     r0,r0,#0x48
        0x00000b4c:    4962        bI      LDR      r1,[pc,#392] ; [0xcd8] = 0x20000028
        0x00000b4e:    68c9        .h      LDR      r1,[r1,#0xc]
        0x00000b50:    6008        .`      STR      r0,[r1,#0]
        0x00000b52:    4861        aH      LDR      r0,[pc,#388] ; [0xcd8] = 0x20000028
        0x00000b54:    68c0        .h      LDR      r0,[r0,#0xc]
        0x00000b56:    6800        .h      LDR      r0,[r0,#0]
        0x00000b58:    2104        .!      MOVS     r1,#4
        0x00000b5a:    4388        .C      BICS     r0,r0,r1
        0x00000b5c:    1d00        ..      ADDS     r0,r0,#4
        0x00000b5e:    495e        ^I      LDR      r1,[pc,#376] ; [0xcd8] = 0x20000028
        0x00000b60:    68c9        .h      LDR      r1,[r1,#0xc]
        0x00000b62:    6008        .`      STR      r0,[r1,#0]
        0x00000b64:    485c        \H      LDR      r0,[pc,#368] ; [0xcd8] = 0x20000028
        0x00000b66:    68c0        .h      LDR      r0,[r0,#0xc]
        0x00000b68:    6840        @h      LDR      r0,[r0,#4]
        0x00000b6a:    0c00        ..      LSRS     r0,r0,#16
        0x00000b6c:    0400        ..      LSLS     r0,r0,#16
        0x00000b6e:    1cc0        ..      ADDS     r0,r0,#3
        0x00000b70:    4959        YI      LDR      r1,[pc,#356] ; [0xcd8] = 0x20000028
        0x00000b72:    68c9        .h      LDR      r1,[r1,#0xc]
        0x00000b74:    6048        H`      STR      r0,[r1,#4]
        0x00000b76:    4858        XH      LDR      r0,[pc,#352] ; [0xcd8] = 0x20000028
        0x00000b78:    68c0        .h      LDR      r0,[r0,#0xc]
        0x00000b7a:    6880        .h      LDR      r0,[r0,#8]
        0x00000b7c:    0880        ..      LSRS     r0,r0,#2
        0x00000b7e:    0080        ..      LSLS     r0,r0,#2
        0x00000b80:    1c40        @.      ADDS     r0,r0,#1
        0x00000b82:    4955        UI      LDR      r1,[pc,#340] ; [0xcd8] = 0x20000028
        0x00000b84:    68c9        .h      LDR      r1,[r1,#0xc]
        0x00000b86:    6088        .`      STR      r0,[r1,#8]
        0x00000b88:    20eb        .       MOVS     r0,#0xeb
        0x00000b8a:    4953        SI      LDR      r1,[pc,#332] ; [0xcd8] = 0x20000028
        0x00000b8c:    68c9        .h      LDR      r1,[r1,#0xc]
        0x00000b8e:    6208        .b      STR      r0,[r1,#0x20]
        0x00000b90:    4851        QH      LDR      r0,[pc,#324] ; [0xcd8] = 0x20000028
        0x00000b92:    68c0        .h      LDR      r0,[r0,#0xc]
        0x00000b94:    6800        .h      LDR      r0,[r0,#0]
        0x00000b96:    0840        @.      LSRS     r0,r0,#1
        0x00000b98:    0040        @.      LSLS     r0,r0,#1
        0x00000b9a:    1c40        @.      ADDS     r0,r0,#1
        0x00000b9c:    494e        NI      LDR      r1,[pc,#312] ; [0xcd8] = 0x20000028
        0x00000b9e:    68c9        .h      LDR      r1,[r1,#0xc]
        0x00000ba0:    6008        .`      STR      r0,[r1,#0]
        0x00000ba2:    bf00        ..      NOP      
        0x00000ba4:    484c        LH      LDR      r0,[pc,#304] ; [0xcd8] = 0x20000028
        0x00000ba6:    68c0        .h      LDR      r0,[r0,#0xc]
        0x00000ba8:    6800        .h      LDR      r0,[r0,#0]
        0x00000baa:    07c0        ..      LSLS     r0,r0,#31
        0x00000bac:    0fc0        ..      LSRS     r0,r0,#31
        0x00000bae:    2801        .(      CMP      r0,#1
        0x00000bb0:    d0f8        ..      BEQ      0xba4 ; Initial_pannel + 224
        0x00000bb2:    4849        IH      LDR      r0,[pc,#292] ; [0xcd8] = 0x20000028
        0x00000bb4:    68c0        .h      LDR      r0,[r0,#0xc]
        0x00000bb6:    6880        .h      LDR      r0,[r0,#8]
        0x00000bb8:    0880        ..      LSRS     r0,r0,#2
        0x00000bba:    0080        ..      LSLS     r0,r0,#2
        0x00000bbc:    4946        FI      LDR      r1,[pc,#280] ; [0xcd8] = 0x20000028
        0x00000bbe:    68c9        .h      LDR      r1,[r1,#0xc]
        0x00000bc0:    6088        .`      STR      r0,[r1,#8]
        0x00000bc2:    4845        EH      LDR      r0,[pc,#276] ; [0xcd8] = 0x20000028
        0x00000bc4:    68c0        .h      LDR      r0,[r0,#0xc]
        0x00000bc6:    6880        .h      LDR      r0,[r0,#8]
        0x00000bc8:    0880        ..      LSRS     r0,r0,#2
        0x00000bca:    0080        ..      LSLS     r0,r0,#2
        0x00000bcc:    1c40        @.      ADDS     r0,r0,#1
        0x00000bce:    4942        BI      LDR      r1,[pc,#264] ; [0xcd8] = 0x20000028
        0x00000bd0:    68c9        .h      LDR      r1,[r1,#0xc]
        0x00000bd2:    6088        .`      STR      r0,[r1,#8]
        0x00000bd4:    2081        .       MOVS     r0,#0x81
        0x00000bd6:    4940        @I      LDR      r1,[pc,#256] ; [0xcd8] = 0x20000028
        0x00000bd8:    68c9        .h      LDR      r1,[r1,#0xc]
        0x00000bda:    6208        .b      STR      r0,[r1,#0x20]
        0x00000bdc:    483e        >H      LDR      r0,[pc,#248] ; [0xcd8] = 0x20000028
        0x00000bde:    68c0        .h      LDR      r0,[r0,#0xc]
        0x00000be0:    6800        .h      LDR      r0,[r0,#0]
        0x00000be2:    0840        @.      LSRS     r0,r0,#1
        0x00000be4:    0040        @.      LSLS     r0,r0,#1
        0x00000be6:    1c40        @.      ADDS     r0,r0,#1
        0x00000be8:    493b        ;I      LDR      r1,[pc,#236] ; [0xcd8] = 0x20000028
        0x00000bea:    68c9        .h      LDR      r1,[r1,#0xc]
        0x00000bec:    6008        .`      STR      r0,[r1,#0]
        0x00000bee:    bf00        ..      NOP      
        0x00000bf0:    4839        9H      LDR      r0,[pc,#228] ; [0xcd8] = 0x20000028
        0x00000bf2:    68c0        .h      LDR      r0,[r0,#0xc]
        0x00000bf4:    6800        .h      LDR      r0,[r0,#0]
        0x00000bf6:    07c0        ..      LSLS     r0,r0,#31
        0x00000bf8:    0fc0        ..      LSRS     r0,r0,#31
        0x00000bfa:    2801        .(      CMP      r0,#1
        0x00000bfc:    d0f8        ..      BEQ      0xbf0 ; Initial_pannel + 300
        0x00000bfe:    20a0        .       MOVS     r0,#0xa0
        0x00000c00:    4935        5I      LDR      r1,[pc,#212] ; [0xcd8] = 0x20000028
        0x00000c02:    68c9        .h      LDR      r1,[r1,#0xc]
        0x00000c04:    6208        .b      STR      r0,[r1,#0x20]
        0x00000c06:    4834        4H      LDR      r0,[pc,#208] ; [0xcd8] = 0x20000028
        0x00000c08:    68c0        .h      LDR      r0,[r0,#0xc]
        0x00000c0a:    6800        .h      LDR      r0,[r0,#0]
        0x00000c0c:    0840        @.      LSRS     r0,r0,#1
        0x00000c0e:    0040        @.      LSLS     r0,r0,#1
        0x00000c10:    1c40        @.      ADDS     r0,r0,#1
        0x00000c12:    4931        1I      LDR      r1,[pc,#196] ; [0xcd8] = 0x20000028
        0x00000c14:    68c9        .h      LDR      r1,[r1,#0xc]
        0x00000c16:    6008        .`      STR      r0,[r1,#0]
        0x00000c18:    bf00        ..      NOP      
        0x00000c1a:    482f        /H      LDR      r0,[pc,#188] ; [0xcd8] = 0x20000028
        0x00000c1c:    68c0        .h      LDR      r0,[r0,#0xc]
        0x00000c1e:    6800        .h      LDR      r0,[r0,#0]
        0x00000c20:    07c0        ..      LSLS     r0,r0,#31
        0x00000c22:    0fc0        ..      LSRS     r0,r0,#31
        0x00000c24:    2801        .(      CMP      r0,#1
        0x00000c26:    d0f8        ..      BEQ      0xc1a ; Initial_pannel + 342
        0x00000c28:    482b        +H      LDR      r0,[pc,#172] ; [0xcd8] = 0x20000028
        0x00000c2a:    68c0        .h      LDR      r0,[r0,#0xc]
        0x00000c2c:    6880        .h      LDR      r0,[r0,#8]
        0x00000c2e:    0880        ..      LSRS     r0,r0,#2
        0x00000c30:    0080        ..      LSLS     r0,r0,#2
        0x00000c32:    4929        )I      LDR      r1,[pc,#164] ; [0xcd8] = 0x20000028
        0x00000c34:    68c9        .h      LDR      r1,[r1,#0xc]
        0x00000c36:    6088        .`      STR      r0,[r1,#8]
        0x00000c38:    4827        'H      LDR      r0,[pc,#156] ; [0xcd8] = 0x20000028
        0x00000c3a:    68c0        .h      LDR      r0,[r0,#0xc]
        0x00000c3c:    6880        .h      LDR      r0,[r0,#8]
        0x00000c3e:    0880        ..      LSRS     r0,r0,#2
        0x00000c40:    0080        ..      LSLS     r0,r0,#2
        0x00000c42:    1c40        @.      ADDS     r0,r0,#1
        0x00000c44:    4924        $I      LDR      r1,[pc,#144] ; [0xcd8] = 0x20000028
        0x00000c46:    68c9        .h      LDR      r1,[r1,#0xc]
        0x00000c48:    6088        .`      STR      r0,[r1,#8]
        0x00000c4a:    20c0        .       MOVS     r0,#0xc0
        0x00000c4c:    4922        "I      LDR      r1,[pc,#136] ; [0xcd8] = 0x20000028
        0x00000c4e:    68c9        .h      LDR      r1,[r1,#0xc]
        0x00000c50:    6208        .b      STR      r0,[r1,#0x20]
        0x00000c52:    4821        !H      LDR      r0,[pc,#132] ; [0xcd8] = 0x20000028
        0x00000c54:    68c0        .h      LDR      r0,[r0,#0xc]
        0x00000c56:    6800        .h      LDR      r0,[r0,#0]
        0x00000c58:    0840        @.      LSRS     r0,r0,#1
        0x00000c5a:    0040        @.      LSLS     r0,r0,#1
        0x00000c5c:    1c40        @.      ADDS     r0,r0,#1
        0x00000c5e:    491e        .I      LDR      r1,[pc,#120] ; [0xcd8] = 0x20000028
        0x00000c60:    68c9        .h      LDR      r1,[r1,#0xc]
        0x00000c62:    6008        .`      STR      r0,[r1,#0]
        0x00000c64:    bf00        ..      NOP      
        0x00000c66:    481c        .H      LDR      r0,[pc,#112] ; [0xcd8] = 0x20000028
        0x00000c68:    68c0        .h      LDR      r0,[r0,#0xc]
        0x00000c6a:    6800        .h      LDR      r0,[r0,#0]
        0x00000c6c:    07c0        ..      LSLS     r0,r0,#31
        0x00000c6e:    0fc0        ..      LSRS     r0,r0,#31
        0x00000c70:    2801        .(      CMP      r0,#1
        0x00000c72:    d0f8        ..      BEQ      0xc66 ; Initial_pannel + 418
        0x00000c74:    4818        .H      LDR      r0,[pc,#96] ; [0xcd8] = 0x20000028
        0x00000c76:    68c0        .h      LDR      r0,[r0,#0xc]
        0x00000c78:    6880        .h      LDR      r0,[r0,#8]
        0x00000c7a:    0880        ..      LSRS     r0,r0,#2
        0x00000c7c:    0080        ..      LSLS     r0,r0,#2
        0x00000c7e:    4916        .I      LDR      r1,[pc,#88] ; [0xcd8] = 0x20000028
        0x00000c80:    68c9        .h      LDR      r1,[r1,#0xc]
        0x00000c82:    6088        .`      STR      r0,[r1,#8]
        0x00000c84:    4814        .H      LDR      r0,[pc,#80] ; [0xcd8] = 0x20000028
        0x00000c86:    68c0        .h      LDR      r0,[r0,#0xc]
        0x00000c88:    6880        .h      LDR      r0,[r0,#8]
        0x00000c8a:    0880        ..      LSRS     r0,r0,#2
        0x00000c8c:    0080        ..      LSLS     r0,r0,#2
        0x00000c8e:    1c40        @.      ADDS     r0,r0,#1
        0x00000c90:    4911        .I      LDR      r1,[pc,#68] ; [0xcd8] = 0x20000028
        0x00000c92:    68c9        .h      LDR      r1,[r1,#0xc]
        0x00000c94:    6088        .`      STR      r0,[r1,#8]
        0x00000c96:    20af        .       MOVS     r0,#0xaf
        0x00000c98:    490f        .I      LDR      r1,[pc,#60] ; [0xcd8] = 0x20000028
        0x00000c9a:    68c9        .h      LDR      r1,[r1,#0xc]
        0x00000c9c:    6208        .b      STR      r0,[r1,#0x20]
        0x00000c9e:    480e        .H      LDR      r0,[pc,#56] ; [0xcd8] = 0x20000028
        0x00000ca0:    68c0        .h      LDR      r0,[r0,#0xc]
        0x00000ca2:    6800        .h      LDR      r0,[r0,#0]
        0x00000ca4:    0840        @.      LSRS     r0,r0,#1
        0x00000ca6:    0040        @.      LSLS     r0,r0,#1
        0x00000ca8:    1c40        @.      ADDS     r0,r0,#1
        0x00000caa:    490b        .I      LDR      r1,[pc,#44] ; [0xcd8] = 0x20000028
        0x00000cac:    68c9        .h      LDR      r1,[r1,#0xc]
        0x00000cae:    6008        .`      STR      r0,[r1,#0]
        0x00000cb0:    bf00        ..      NOP      
        0x00000cb2:    4809        .H      LDR      r0,[pc,#36] ; [0xcd8] = 0x20000028
        0x00000cb4:    68c0        .h      LDR      r0,[r0,#0xc]
        0x00000cb6:    6800        .h      LDR      r0,[r0,#0]
        0x00000cb8:    07c0        ..      LSLS     r0,r0,#31
        0x00000cba:    0fc0        ..      LSRS     r0,r0,#31
        0x00000cbc:    2801        .(      CMP      r0,#1
        0x00000cbe:    d0f8        ..      BEQ      0xcb2 ; Initial_pannel + 494
        0x00000cc0:    4805        .H      LDR      r0,[pc,#20] ; [0xcd8] = 0x20000028
        0x00000cc2:    68c0        .h      LDR      r0,[r0,#0xc]
        0x00000cc4:    6880        .h      LDR      r0,[r0,#8]
        0x00000cc6:    0880        ..      LSRS     r0,r0,#2
        0x00000cc8:    0080        ..      LSLS     r0,r0,#2
        0x00000cca:    4903        .I      LDR      r1,[pc,#12] ; [0xcd8] = 0x20000028
        0x00000ccc:    68c9        .h      LDR      r1,[r1,#0xc]
        0x00000cce:    6088        .`      STR      r0,[r1,#8]
        0x00000cd0:    4770        pG      BX       lr
    $d
        0x00000cd2:    0000        ..      DCW    0
        0x00000cd4:    50000200    ...P    DCD    1342177792
        0x00000cd8:    20000028    (..     DCD    536870952
    $t
    i.NVIC_EnableIRQ
    NVIC_EnableIRQ
        0x00000cdc:    06c2        ..      LSLS     r2,r0,#27
        0x00000cde:    0ed2        ..      LSRS     r2,r2,#27
        0x00000ce0:    2101        .!      MOVS     r1,#1
        0x00000ce2:    4091        .@      LSLS     r1,r1,r2
        0x00000ce4:    4a01        .J      LDR      r2,[pc,#4] ; [0xcec] = 0xe000e100
        0x00000ce6:    6011        .`      STR      r1,[r2,#0]
        0x00000ce8:    4770        pG      BX       lr
    $d
        0x00000cea:    0000        ..      DCW    0
        0x00000cec:    e000e100    ....    DCD    3758153984
    $t
    i.NVIC_EnableIRQ
    NVIC_EnableIRQ
        0x00000cf0:    06c2        ..      LSLS     r2,r0,#27
        0x00000cf2:    0ed2        ..      LSRS     r2,r2,#27
        0x00000cf4:    2101        .!      MOVS     r1,#1
        0x00000cf6:    4091        .@      LSLS     r1,r1,r2
        0x00000cf8:    4a01        .J      LDR      r2,[pc,#4] ; [0xd00] = 0xe000e100
        0x00000cfa:    6011        .`      STR      r1,[r2,#0]
        0x00000cfc:    4770        pG      BX       lr
    $d
        0x00000cfe:    0000        ..      DCW    0
        0x00000d00:    e000e100    ....    DCD    3758153984
    $t
    i.NVIC_SetPriority
    NVIC_SetPriority
        0x00000d04:    b510        ..      PUSH     {r4,lr}
        0x00000d06:    2800        .(      CMP      r0,#0
        0x00000d08:    da19        ..      BGE      0xd3e ; NVIC_SetPriority + 58
        0x00000d0a:    4a1a        .J      LDR      r2,[pc,#104] ; [0xd74] = 0xe000ed1c
        0x00000d0c:    0703        ..      LSLS     r3,r0,#28
        0x00000d0e:    0f1b        ..      LSRS     r3,r3,#28
        0x00000d10:    3b08        .;      SUBS     r3,r3,#8
        0x00000d12:    089b        ..      LSRS     r3,r3,#2
        0x00000d14:    009b        ..      LSLS     r3,r3,#2
        0x00000d16:    58d2        .X      LDR      r2,[r2,r3]
        0x00000d18:    0783        ..      LSLS     r3,r0,#30
        0x00000d1a:    0edc        ..      LSRS     r4,r3,#27
        0x00000d1c:    23ff        .#      MOVS     r3,#0xff
        0x00000d1e:    40a3        .@      LSLS     r3,r3,r4
        0x00000d20:    439a        .C      BICS     r2,r2,r3
        0x00000d22:    078b        ..      LSLS     r3,r1,#30
        0x00000d24:    0e1b        ..      LSRS     r3,r3,#24
        0x00000d26:    0784        ..      LSLS     r4,r0,#30
        0x00000d28:    0ee4        ..      LSRS     r4,r4,#27
        0x00000d2a:    40a3        .@      LSLS     r3,r3,r4
        0x00000d2c:    431a        .C      ORRS     r2,r2,r3
        0x00000d2e:    4b11        .K      LDR      r3,[pc,#68] ; [0xd74] = 0xe000ed1c
        0x00000d30:    0704        ..      LSLS     r4,r0,#28
        0x00000d32:    0f24        $.      LSRS     r4,r4,#28
        0x00000d34:    3c08        .<      SUBS     r4,r4,#8
        0x00000d36:    08a4        ..      LSRS     r4,r4,#2
        0x00000d38:    00a4        ..      LSLS     r4,r4,#2
        0x00000d3a:    511a        .Q      STR      r2,[r3,r4]
        0x00000d3c:    e018        ..      B        0xd70 ; NVIC_SetPriority + 108
        0x00000d3e:    4a0e        .J      LDR      r2,[pc,#56] ; [0xd78] = 0xe000e100
        0x00000d40:    2303        .#      MOVS     r3,#3
        0x00000d42:    021b        ..      LSLS     r3,r3,#8
        0x00000d44:    18d2        ..      ADDS     r2,r2,r3
        0x00000d46:    0883        ..      LSRS     r3,r0,#2
        0x00000d48:    009b        ..      LSLS     r3,r3,#2
        0x00000d4a:    58d2        .X      LDR      r2,[r2,r3]
        0x00000d4c:    0783        ..      LSLS     r3,r0,#30
        0x00000d4e:    0edc        ..      LSRS     r4,r3,#27
        0x00000d50:    23ff        .#      MOVS     r3,#0xff
        0x00000d52:    40a3        .@      LSLS     r3,r3,r4
        0x00000d54:    439a        .C      BICS     r2,r2,r3
        0x00000d56:    078b        ..      LSLS     r3,r1,#30
        0x00000d58:    0e1b        ..      LSRS     r3,r3,#24
        0x00000d5a:    0784        ..      LSLS     r4,r0,#30
        0x00000d5c:    0ee4        ..      LSRS     r4,r4,#27
        0x00000d5e:    40a3        .@      LSLS     r3,r3,r4
        0x00000d60:    431a        .C      ORRS     r2,r2,r3
        0x00000d62:    4b05        .K      LDR      r3,[pc,#20] ; [0xd78] = 0xe000e100
        0x00000d64:    2403        .$      MOVS     r4,#3
        0x00000d66:    0224        $.      LSLS     r4,r4,#8
        0x00000d68:    191b        ..      ADDS     r3,r3,r4
        0x00000d6a:    0884        ..      LSRS     r4,r0,#2
        0x00000d6c:    00a4        ..      LSLS     r4,r4,#2
        0x00000d6e:    511a        .Q      STR      r2,[r3,r4]
        0x00000d70:    bd10        ..      POP      {r4,pc}
    $d
        0x00000d72:    0000        ..      DCW    0
        0x00000d74:    e000ed1c    ....    DCD    3758157084
        0x00000d78:    e000e100    ....    DCD    3758153984
    $t
    i.OpenKeyPad
    OpenKeyPad
        0x00000d7c:    b510        ..      PUSH     {r4,lr}
        0x00000d7e:    2400        .$      MOVS     r4,#0
        0x00000d80:    e006        ..      B        0xd90 ; OpenKeyPad + 20
        0x00000d82:    2203        ."      MOVS     r2,#3
        0x00000d84:    4621        !F      MOV      r1,r4
        0x00000d86:    2000        .       MOVS     r0,#0
        0x00000d88:    f7fffcfe    ....    BL       DrvGPIO_Open ; 0x788
        0x00000d8c:    1c60        `.      ADDS     r0,r4,#1
        0x00000d8e:    b2c4        ..      UXTB     r4,r0
        0x00000d90:    2c06        .,      CMP      r4,#6
        0x00000d92:    dbf6        ..      BLT      0xd82 ; OpenKeyPad + 6
        0x00000d94:    bd10        ..      POP      {r4,pc}
        0x00000d96:    0000        ..      MOVS     r0,r0
    i.PWRWU_IRQHandler
    PWRWU_IRQHandler
        0x00000d98:    b510        ..      PUSH     {r4,lr}
        0x00000d9a:    4807        .H      LDR      r0,[pc,#28] ; [0xdb8] = 0x50000200
        0x00000d9c:    6800        .h      LDR      r0,[r0,#0]
        0x00000d9e:    2140        @!      MOVS     r1,#0x40
        0x00000da0:    4388        .C      BICS     r0,r0,r1
        0x00000da2:    3040        @0      ADDS     r0,r0,#0x40
        0x00000da4:    4904        .I      LDR      r1,[pc,#16] ; [0xdb8] = 0x50000200
        0x00000da6:    6008        .`      STR      r0,[r1,#0]
        0x00000da8:    4804        .H      LDR      r0,[pc,#16] ; [0xdbc] = 0x20000638
        0x00000daa:    6800        .h      LDR      r0,[r0,#0]
        0x00000dac:    2800        .(      CMP      r0,#0
        0x00000dae:    d002        ..      BEQ      0xdb6 ; PWRWU_IRQHandler + 30
        0x00000db0:    4802        .H      LDR      r0,[pc,#8] ; [0xdbc] = 0x20000638
        0x00000db2:    6800        .h      LDR      r0,[r0,#0]
        0x00000db4:    4780        .G      BLX      r0
        0x00000db6:    bd10        ..      POP      {r4,pc}
    $d
        0x00000db8:    50000200    ...P    DCD    1342177792
        0x00000dbc:    20000638    8..     DCD    536872504
    $t
    i.ResumeWDT
    ResumeWDT
        0x00000dc0:    2059        Y       MOVS     r0,#0x59
        0x00000dc2:    490b        .I      LDR      r1,[pc,#44] ; [0xdf0] = 0x50000100
        0x00000dc4:    6008        .`      STR      r0,[r1,#0]
        0x00000dc6:    2016        .       MOVS     r0,#0x16
        0x00000dc8:    6008        .`      STR      r0,[r1,#0]
        0x00000dca:    2088        .       MOVS     r0,#0x88
        0x00000dcc:    6008        .`      STR      r0,[r1,#0]
        0x00000dce:    4809        .H      LDR      r0,[pc,#36] ; [0xdf4] = 0x40004000
        0x00000dd0:    6800        .h      LDR      r0,[r0,#0]
        0x00000dd2:    2180        .!      MOVS     r1,#0x80
        0x00000dd4:    4388        .C      BICS     r0,r0,r1
        0x00000dd6:    3080        .0      ADDS     r0,r0,#0x80
        0x00000dd8:    4906        .I      LDR      r1,[pc,#24] ; [0xdf4] = 0x40004000
        0x00000dda:    6008        .`      STR      r0,[r1,#0]
        0x00000ddc:    4608        .F      MOV      r0,r1
        0x00000dde:    6800        .h      LDR      r0,[r0,#0]
        0x00000de0:    0840        @.      LSRS     r0,r0,#1
        0x00000de2:    0040        @.      LSLS     r0,r0,#1
        0x00000de4:    6008        .`      STR      r0,[r1,#0]
        0x00000de6:    2000        .       MOVS     r0,#0
        0x00000de8:    4901        .I      LDR      r1,[pc,#4] ; [0xdf0] = 0x50000100
        0x00000dea:    6008        .`      STR      r0,[r1,#0]
        0x00000dec:    4770        pG      BX       lr
    $d
        0x00000dee:    0000        ..      DCW    0
        0x00000df0:    50000100    ...P    DCD    1342177536
        0x00000df4:    40004000    .@.@    DCD    1073758208
    $t
    i.SPI0_IRQHandler
    SPI0_IRQHandler
        0x00000df8:    b510        ..      PUSH     {r4,lr}
        0x00000dfa:    4816        .H      LDR      r0,[pc,#88] ; [0xe54] = 0x40030000
        0x00000dfc:    6800        .h      LDR      r0,[r0,#0]
        0x00000dfe:    03c0        ..      LSLS     r0,r0,#15
        0x00000e00:    0fc0        ..      LSRS     r0,r0,#31
        0x00000e02:    2801        .(      CMP      r0,#1
        0x00000e04:    d10f        ..      BNE      0xe26 ; SPI0_IRQHandler + 46
        0x00000e06:    4813        .H      LDR      r0,[pc,#76] ; [0xe54] = 0x40030000
        0x00000e08:    6800        .h      LDR      r0,[r0,#0]
        0x00000e0a:    2101        .!      MOVS     r1,#1
        0x00000e0c:    0409        ..      LSLS     r1,r1,#16
        0x00000e0e:    4388        .C      BICS     r0,r0,r1
        0x00000e10:    1840        @.      ADDS     r0,r0,r1
        0x00000e12:    4910        .I      LDR      r1,[pc,#64] ; [0xe54] = 0x40030000
        0x00000e14:    6008        .`      STR      r0,[r1,#0]
        0x00000e16:    4810        .H      LDR      r0,[pc,#64] ; [0xe58] = 0x20000658
        0x00000e18:    6840        @h      LDR      r0,[r0,#4]
        0x00000e1a:    2800        .(      CMP      r0,#0
        0x00000e1c:    d003        ..      BEQ      0xe26 ; SPI0_IRQHandler + 46
        0x00000e1e:    4a0e        .J      LDR      r2,[pc,#56] ; [0xe58] = 0x20000658
        0x00000e20:    6890        .h      LDR      r0,[r2,#8]
        0x00000e22:    6851        Qh      LDR      r1,[r2,#4]
        0x00000e24:    4788        .G      BLX      r1
        0x00000e26:    480b        .H      LDR      r0,[pc,#44] ; [0xe54] = 0x40030000
        0x00000e28:    6bc0        .k      LDR      r0,[r0,#0x3c]
        0x00000e2a:    0500        ..      LSLS     r0,r0,#20
        0x00000e2c:    0fc0        ..      LSRS     r0,r0,#31
        0x00000e2e:    2801        .(      CMP      r0,#1
        0x00000e30:    d10f        ..      BNE      0xe52 ; SPI0_IRQHandler + 90
        0x00000e32:    4808        .H      LDR      r0,[pc,#32] ; [0xe54] = 0x40030000
        0x00000e34:    6bc0        .k      LDR      r0,[r0,#0x3c]
        0x00000e36:    2101        .!      MOVS     r1,#1
        0x00000e38:    02c9        ..      LSLS     r1,r1,#11
        0x00000e3a:    4388        .C      BICS     r0,r0,r1
        0x00000e3c:    1840        @.      ADDS     r0,r0,r1
        0x00000e3e:    4905        .I      LDR      r1,[pc,#20] ; [0xe54] = 0x40030000
        0x00000e40:    63c8        .c      STR      r0,[r1,#0x3c]
        0x00000e42:    4805        .H      LDR      r0,[pc,#20] ; [0xe58] = 0x20000658
        0x00000e44:    68c0        .h      LDR      r0,[r0,#0xc]
        0x00000e46:    2800        .(      CMP      r0,#0
        0x00000e48:    d003        ..      BEQ      0xe52 ; SPI0_IRQHandler + 90
        0x00000e4a:    4a03        .J      LDR      r2,[pc,#12] ; [0xe58] = 0x20000658
        0x00000e4c:    6910        .i      LDR      r0,[r2,#0x10]
        0x00000e4e:    68d1        .h      LDR      r1,[r2,#0xc]
        0x00000e50:    4788        .G      BLX      r1
        0x00000e52:    bd10        ..      POP      {r4,pc}
    $d
        0x00000e54:    40030000    ...@    DCD    1073938432
        0x00000e58:    20000658    X..     DCD    536872536
    $t
    i.SPI1_IRQHandler
    SPI1_IRQHandler
        0x00000e5c:    b510        ..      PUSH     {r4,lr}
        0x00000e5e:    4816        .H      LDR      r0,[pc,#88] ; [0xeb8] = 0x40034000
        0x00000e60:    6800        .h      LDR      r0,[r0,#0]
        0x00000e62:    03c0        ..      LSLS     r0,r0,#15
        0x00000e64:    0fc0        ..      LSRS     r0,r0,#31
        0x00000e66:    2801        .(      CMP      r0,#1
        0x00000e68:    d10f        ..      BNE      0xe8a ; SPI1_IRQHandler + 46
        0x00000e6a:    4813        .H      LDR      r0,[pc,#76] ; [0xeb8] = 0x40034000
        0x00000e6c:    6800        .h      LDR      r0,[r0,#0]
        0x00000e6e:    2101        .!      MOVS     r1,#1
        0x00000e70:    0409        ..      LSLS     r1,r1,#16
        0x00000e72:    4388        .C      BICS     r0,r0,r1
        0x00000e74:    1840        @.      ADDS     r0,r0,r1
        0x00000e76:    4910        .I      LDR      r1,[pc,#64] ; [0xeb8] = 0x40034000
        0x00000e78:    6008        .`      STR      r0,[r1,#0]
        0x00000e7a:    4810        .H      LDR      r0,[pc,#64] ; [0xebc] = 0x20000658
        0x00000e7c:    6980        .i      LDR      r0,[r0,#0x18]
        0x00000e7e:    2800        .(      CMP      r0,#0
        0x00000e80:    d003        ..      BEQ      0xe8a ; SPI1_IRQHandler + 46
        0x00000e82:    4a0e        .J      LDR      r2,[pc,#56] ; [0xebc] = 0x20000658
        0x00000e84:    69d0        .i      LDR      r0,[r2,#0x1c]
        0x00000e86:    6991        .i      LDR      r1,[r2,#0x18]
        0x00000e88:    4788        .G      BLX      r1
        0x00000e8a:    480b        .H      LDR      r0,[pc,#44] ; [0xeb8] = 0x40034000
        0x00000e8c:    6bc0        .k      LDR      r0,[r0,#0x3c]
        0x00000e8e:    0500        ..      LSLS     r0,r0,#20
        0x00000e90:    0fc0        ..      LSRS     r0,r0,#31
        0x00000e92:    2801        .(      CMP      r0,#1
        0x00000e94:    d10f        ..      BNE      0xeb6 ; SPI1_IRQHandler + 90
        0x00000e96:    4808        .H      LDR      r0,[pc,#32] ; [0xeb8] = 0x40034000
        0x00000e98:    6bc0        .k      LDR      r0,[r0,#0x3c]
        0x00000e9a:    2101        .!      MOVS     r1,#1
        0x00000e9c:    02c9        ..      LSLS     r1,r1,#11
        0x00000e9e:    4388        .C      BICS     r0,r0,r1
        0x00000ea0:    1840        @.      ADDS     r0,r0,r1
        0x00000ea2:    4905        .I      LDR      r1,[pc,#20] ; [0xeb8] = 0x40034000
        0x00000ea4:    63c8        .c      STR      r0,[r1,#0x3c]
        0x00000ea6:    4805        .H      LDR      r0,[pc,#20] ; [0xebc] = 0x20000658
        0x00000ea8:    6a00        .j      LDR      r0,[r0,#0x20]
        0x00000eaa:    2800        .(      CMP      r0,#0
        0x00000eac:    d003        ..      BEQ      0xeb6 ; SPI1_IRQHandler + 90
        0x00000eae:    4a03        .J      LDR      r2,[pc,#12] ; [0xebc] = 0x20000658
        0x00000eb0:    6a50        Pj      LDR      r0,[r2,#0x24]
        0x00000eb2:    6a11        .j      LDR      r1,[r2,#0x20]
        0x00000eb4:    4788        .G      BLX      r1
        0x00000eb6:    bd10        ..      POP      {r4,pc}
    $d
        0x00000eb8:    40034000    .@.@    DCD    1073954816
        0x00000ebc:    20000658    X..     DCD    536872536
    $t
    i.SPI2_IRQHandler
    SPI2_IRQHandler
        0x00000ec0:    b510        ..      PUSH     {r4,lr}
        0x00000ec2:    4816        .H      LDR      r0,[pc,#88] ; [0xf1c] = 0x40130000
        0x00000ec4:    6800        .h      LDR      r0,[r0,#0]
        0x00000ec6:    03c0        ..      LSLS     r0,r0,#15
        0x00000ec8:    0fc0        ..      LSRS     r0,r0,#31
        0x00000eca:    2801        .(      CMP      r0,#1
        0x00000ecc:    d10f        ..      BNE      0xeee ; SPI2_IRQHandler + 46
        0x00000ece:    4813        .H      LDR      r0,[pc,#76] ; [0xf1c] = 0x40130000
        0x00000ed0:    6800        .h      LDR      r0,[r0,#0]
        0x00000ed2:    2101        .!      MOVS     r1,#1
        0x00000ed4:    0409        ..      LSLS     r1,r1,#16
        0x00000ed6:    4388        .C      BICS     r0,r0,r1
        0x00000ed8:    1840        @.      ADDS     r0,r0,r1
        0x00000eda:    4910        .I      LDR      r1,[pc,#64] ; [0xf1c] = 0x40130000
        0x00000edc:    6008        .`      STR      r0,[r1,#0]
        0x00000ede:    4810        .H      LDR      r0,[pc,#64] ; [0xf20] = 0x20000658
        0x00000ee0:    6ac0        .j      LDR      r0,[r0,#0x2c]
        0x00000ee2:    2800        .(      CMP      r0,#0
        0x00000ee4:    d003        ..      BEQ      0xeee ; SPI2_IRQHandler + 46
        0x00000ee6:    4a0e        .J      LDR      r2,[pc,#56] ; [0xf20] = 0x20000658
        0x00000ee8:    6b10        .k      LDR      r0,[r2,#0x30]
        0x00000eea:    6ad1        .j      LDR      r1,[r2,#0x2c]
        0x00000eec:    4788        .G      BLX      r1
        0x00000eee:    480b        .H      LDR      r0,[pc,#44] ; [0xf1c] = 0x40130000
        0x00000ef0:    6bc0        .k      LDR      r0,[r0,#0x3c]
        0x00000ef2:    0500        ..      LSLS     r0,r0,#20
        0x00000ef4:    0fc0        ..      LSRS     r0,r0,#31
        0x00000ef6:    2801        .(      CMP      r0,#1
        0x00000ef8:    d10f        ..      BNE      0xf1a ; SPI2_IRQHandler + 90
        0x00000efa:    4808        .H      LDR      r0,[pc,#32] ; [0xf1c] = 0x40130000
        0x00000efc:    6bc0        .k      LDR      r0,[r0,#0x3c]
        0x00000efe:    2101        .!      MOVS     r1,#1
        0x00000f00:    02c9        ..      LSLS     r1,r1,#11
        0x00000f02:    4388        .C      BICS     r0,r0,r1
        0x00000f04:    1840        @.      ADDS     r0,r0,r1
        0x00000f06:    4905        .I      LDR      r1,[pc,#20] ; [0xf1c] = 0x40130000
        0x00000f08:    63c8        .c      STR      r0,[r1,#0x3c]
        0x00000f0a:    4805        .H      LDR      r0,[pc,#20] ; [0xf20] = 0x20000658
        0x00000f0c:    6b40        @k      LDR      r0,[r0,#0x34]
        0x00000f0e:    2800        .(      CMP      r0,#0
        0x00000f10:    d003        ..      BEQ      0xf1a ; SPI2_IRQHandler + 90
        0x00000f12:    4a03        .J      LDR      r2,[pc,#12] ; [0xf20] = 0x20000658
        0x00000f14:    6b90        .k      LDR      r0,[r2,#0x38]
        0x00000f16:    6b51        Qk      LDR      r1,[r2,#0x34]
        0x00000f18:    4788        .G      BLX      r1
        0x00000f1a:    bd10        ..      POP      {r4,pc}
    $d
        0x00000f1c:    40130000    ...@    DCD    1074987008
        0x00000f20:    20000658    X..     DCD    536872536
    $t
    i.SPI3_IRQHandler
    SPI3_IRQHandler
        0x00000f24:    b510        ..      PUSH     {r4,lr}
        0x00000f26:    4816        .H      LDR      r0,[pc,#88] ; [0xf80] = 0x40134000
        0x00000f28:    6800        .h      LDR      r0,[r0,#0]
        0x00000f2a:    03c0        ..      LSLS     r0,r0,#15
        0x00000f2c:    0fc0        ..      LSRS     r0,r0,#31
        0x00000f2e:    2801        .(      CMP      r0,#1
        0x00000f30:    d10f        ..      BNE      0xf52 ; SPI3_IRQHandler + 46
        0x00000f32:    4813        .H      LDR      r0,[pc,#76] ; [0xf80] = 0x40134000
        0x00000f34:    6800        .h      LDR      r0,[r0,#0]
        0x00000f36:    2101        .!      MOVS     r1,#1
        0x00000f38:    0409        ..      LSLS     r1,r1,#16
        0x00000f3a:    4388        .C      BICS     r0,r0,r1
        0x00000f3c:    1840        @.      ADDS     r0,r0,r1
        0x00000f3e:    4910        .I      LDR      r1,[pc,#64] ; [0xf80] = 0x40134000
        0x00000f40:    6008        .`      STR      r0,[r1,#0]
        0x00000f42:    4810        .H      LDR      r0,[pc,#64] ; [0xf84] = 0x20000658
        0x00000f44:    6c00        .l      LDR      r0,[r0,#0x40]
        0x00000f46:    2800        .(      CMP      r0,#0
        0x00000f48:    d003        ..      BEQ      0xf52 ; SPI3_IRQHandler + 46
        0x00000f4a:    4a0e        .J      LDR      r2,[pc,#56] ; [0xf84] = 0x20000658
        0x00000f4c:    6c50        Pl      LDR      r0,[r2,#0x44]
        0x00000f4e:    6c11        .l      LDR      r1,[r2,#0x40]
        0x00000f50:    4788        .G      BLX      r1
        0x00000f52:    480b        .H      LDR      r0,[pc,#44] ; [0xf80] = 0x40134000
        0x00000f54:    6bc0        .k      LDR      r0,[r0,#0x3c]
        0x00000f56:    0500        ..      LSLS     r0,r0,#20
        0x00000f58:    0fc0        ..      LSRS     r0,r0,#31
        0x00000f5a:    2801        .(      CMP      r0,#1
        0x00000f5c:    d10f        ..      BNE      0xf7e ; SPI3_IRQHandler + 90
        0x00000f5e:    4808        .H      LDR      r0,[pc,#32] ; [0xf80] = 0x40134000
        0x00000f60:    6bc0        .k      LDR      r0,[r0,#0x3c]
        0x00000f62:    2101        .!      MOVS     r1,#1
        0x00000f64:    02c9        ..      LSLS     r1,r1,#11
        0x00000f66:    4388        .C      BICS     r0,r0,r1
        0x00000f68:    1840        @.      ADDS     r0,r0,r1
        0x00000f6a:    4905        .I      LDR      r1,[pc,#20] ; [0xf80] = 0x40134000
        0x00000f6c:    63c8        .c      STR      r0,[r1,#0x3c]
        0x00000f6e:    4805        .H      LDR      r0,[pc,#20] ; [0xf84] = 0x20000658
        0x00000f70:    6c80        .l      LDR      r0,[r0,#0x48]
        0x00000f72:    2800        .(      CMP      r0,#0
        0x00000f74:    d003        ..      BEQ      0xf7e ; SPI3_IRQHandler + 90
        0x00000f76:    4a03        .J      LDR      r2,[pc,#12] ; [0xf84] = 0x20000658
        0x00000f78:    6cd0        .l      LDR      r0,[r2,#0x4c]
        0x00000f7a:    6c91        .l      LDR      r1,[r2,#0x48]
        0x00000f7c:    4788        .G      BLX      r1
        0x00000f7e:    bd10        ..      POP      {r4,pc}
    $d
        0x00000f80:    40134000    .@.@    DCD    1075003392
        0x00000f84:    20000658    X..     DCD    536872536
    $t
    i.Scankey
    Scankey
        0x00000f88:    b5f8        ..      PUSH     {r3-r7,lr}
        0x00000f8a:    481f        .H      LDR      r0,[pc,#124] ; [0x1008] = 0x15e4
        0x00000f8c:    6800        .h      LDR      r0,[r0,#0]
        0x00000f8e:    9000        ..      STR      r0,[sp,#0]
        0x00000f90:    2400        .$      MOVS     r4,#0
        0x00000f92:    e034        4.      B        0xffe ; Scankey + 118
        0x00000f94:    4668        hF      MOV      r0,sp
        0x00000f96:    5d06        .]      LDRB     r6,[r0,r4]
        0x00000f98:    2500        .%      MOVS     r5,#0
        0x00000f9a:    e00f        ..      B        0xfbc ; Scankey + 52
        0x00000f9c:    07f0        ..      LSLS     r0,r6,#31
        0x00000f9e:    0fc0        ..      LSRS     r0,r0,#31
        0x00000fa0:    2801        .(      CMP      r0,#1
        0x00000fa2:    d104        ..      BNE      0xfae ; Scankey + 38
        0x00000fa4:    4629        )F      MOV      r1,r5
        0x00000fa6:    2000        .       MOVS     r0,#0
        0x00000fa8:    f7fffc2a    ..*.    BL       DrvGPIO_SetBit ; 0x800
        0x00000fac:    e003        ..      B        0xfb6 ; Scankey + 46
        0x00000fae:    4629        )F      MOV      r1,r5
        0x00000fb0:    2000        .       MOVS     r0,#0
        0x00000fb2:    f7fffb7f    ....    BL       DrvGPIO_ClrBit ; 0x6b4
        0x00000fb6:    1076        v.      ASRS     r6,r6,#1
        0x00000fb8:    1c68        h.      ADDS     r0,r5,#1
        0x00000fba:    b2c5        ..      UXTB     r5,r0
        0x00000fbc:    2d06        .-      CMP      r5,#6
        0x00000fbe:    dbed        ..      BLT      0xf9c ; Scankey + 20
        0x00000fc0:    f000f9fa    ....    BL       delay ; 0x13b8
        0x00000fc4:    2103        .!      MOVS     r1,#3
        0x00000fc6:    2000        .       MOVS     r0,#0
        0x00000fc8:    f7fffbca    ....    BL       DrvGPIO_GetBit ; 0x760
        0x00000fcc:    2800        .(      CMP      r0,#0
        0x00000fce:    d102        ..      BNE      0xfd6 ; Scankey + 78
        0x00000fd0:    1c60        `.      ADDS     r0,r4,#1
        0x00000fd2:    b2c0        ..      UXTB     r0,r0
        0x00000fd4:    bdf8        ..      POP      {r3-r7,pc}
        0x00000fd6:    2104        .!      MOVS     r1,#4
        0x00000fd8:    2000        .       MOVS     r0,#0
        0x00000fda:    f7fffbc1    ....    BL       DrvGPIO_GetBit ; 0x760
        0x00000fde:    2800        .(      CMP      r0,#0
        0x00000fe0:    d102        ..      BNE      0xfe8 ; Scankey + 96
        0x00000fe2:    1d20         .      ADDS     r0,r4,#4
        0x00000fe4:    b2c0        ..      UXTB     r0,r0
        0x00000fe6:    e7f5        ..      B        0xfd4 ; Scankey + 76
        0x00000fe8:    2105        .!      MOVS     r1,#5
        0x00000fea:    2000        .       MOVS     r0,#0
        0x00000fec:    f7fffbb8    ....    BL       DrvGPIO_GetBit ; 0x760
        0x00000ff0:    2800        .(      CMP      r0,#0
        0x00000ff2:    d102        ..      BNE      0xffa ; Scankey + 114
        0x00000ff4:    1de0        ..      ADDS     r0,r4,#7
        0x00000ff6:    b2c0        ..      UXTB     r0,r0
        0x00000ff8:    e7ec        ..      B        0xfd4 ; Scankey + 76
        0x00000ffa:    1c60        `.      ADDS     r0,r4,#1
        0x00000ffc:    b2c4        ..      UXTB     r4,r0
        0x00000ffe:    2c03        .,      CMP      r4,#3
        0x00001000:    dbc8        ..      BLT      0xf94 ; Scankey + 12
        0x00001002:    2000        .       MOVS     r0,#0
        0x00001004:    e7e6        ..      B        0xfd4 ; Scankey + 76
    $d
        0x00001006:    0000        ..      DCW    0
        0x00001008:    000015e4    ....    DCD    5604
    $t
    i.SetPACA
    SetPACA
        0x0000100c:    4a3b        ;J      LDR      r2,[pc,#236] ; [0x10fc] = 0x20000028
        0x0000100e:    68d2        .h      LDR      r2,[r2,#0xc]
        0x00001010:    6892        .h      LDR      r2,[r2,#8]
        0x00001012:    0892        ..      LSRS     r2,r2,#2
        0x00001014:    0092        ..      LSLS     r2,r2,#2
        0x00001016:    1c52        R.      ADDS     r2,r2,#1
        0x00001018:    4b38        8K      LDR      r3,[pc,#224] ; [0x10fc] = 0x20000028
        0x0000101a:    68db        .h      LDR      r3,[r3,#0xc]
        0x0000101c:    609a        .`      STR      r2,[r3,#8]
        0x0000101e:    22b0        ."      MOVS     r2,#0xb0
        0x00001020:    4302        .C      ORRS     r2,r2,r0
        0x00001022:    4b36        6K      LDR      r3,[pc,#216] ; [0x10fc] = 0x20000028
        0x00001024:    68db        .h      LDR      r3,[r3,#0xc]
        0x00001026:    621a        .b      STR      r2,[r3,#0x20]
        0x00001028:    4a34        4J      LDR      r2,[pc,#208] ; [0x10fc] = 0x20000028
        0x0000102a:    68d2        .h      LDR      r2,[r2,#0xc]
        0x0000102c:    6812        .h      LDR      r2,[r2,#0]
        0x0000102e:    0852        R.      LSRS     r2,r2,#1
        0x00001030:    0052        R.      LSLS     r2,r2,#1
        0x00001032:    1c52        R.      ADDS     r2,r2,#1
        0x00001034:    4b31        1K      LDR      r3,[pc,#196] ; [0x10fc] = 0x20000028
        0x00001036:    68db        .h      LDR      r3,[r3,#0xc]
        0x00001038:    601a        .`      STR      r2,[r3,#0]
        0x0000103a:    bf00        ..      NOP      
        0x0000103c:    4a2f        /J      LDR      r2,[pc,#188] ; [0x10fc] = 0x20000028
        0x0000103e:    68d2        .h      LDR      r2,[r2,#0xc]
        0x00001040:    6812        .h      LDR      r2,[r2,#0]
        0x00001042:    07d2        ..      LSLS     r2,r2,#31
        0x00001044:    0fd2        ..      LSRS     r2,r2,#31
        0x00001046:    2a01        .*      CMP      r2,#1
        0x00001048:    d0f8        ..      BEQ      0x103c ; SetPACA + 48
        0x0000104a:    4a2c        ,J      LDR      r2,[pc,#176] ; [0x10fc] = 0x20000028
        0x0000104c:    68d2        .h      LDR      r2,[r2,#0xc]
        0x0000104e:    6892        .h      LDR      r2,[r2,#8]
        0x00001050:    0892        ..      LSRS     r2,r2,#2
        0x00001052:    0092        ..      LSLS     r2,r2,#2
        0x00001054:    4b29        )K      LDR      r3,[pc,#164] ; [0x10fc] = 0x20000028
        0x00001056:    68db        .h      LDR      r3,[r3,#0xc]
        0x00001058:    609a        .`      STR      r2,[r3,#8]
        0x0000105a:    4a28        (J      LDR      r2,[pc,#160] ; [0x10fc] = 0x20000028
        0x0000105c:    68d2        .h      LDR      r2,[r2,#0xc]
        0x0000105e:    6892        .h      LDR      r2,[r2,#8]
        0x00001060:    0892        ..      LSRS     r2,r2,#2
        0x00001062:    0092        ..      LSLS     r2,r2,#2
        0x00001064:    1c52        R.      ADDS     r2,r2,#1
        0x00001066:    4b25        %K      LDR      r3,[pc,#148] ; [0x10fc] = 0x20000028
        0x00001068:    68db        .h      LDR      r3,[r3,#0xc]
        0x0000106a:    609a        .`      STR      r2,[r3,#8]
        0x0000106c:    110a        ..      ASRS     r2,r1,#4
        0x0000106e:    2310        .#      MOVS     r3,#0x10
        0x00001070:    431a        .C      ORRS     r2,r2,r3
        0x00001072:    4b22        "K      LDR      r3,[pc,#136] ; [0x10fc] = 0x20000028
        0x00001074:    68db        .h      LDR      r3,[r3,#0xc]
        0x00001076:    621a        .b      STR      r2,[r3,#0x20]
        0x00001078:    4a20         J      LDR      r2,[pc,#128] ; [0x10fc] = 0x20000028
        0x0000107a:    68d2        .h      LDR      r2,[r2,#0xc]
        0x0000107c:    6812        .h      LDR      r2,[r2,#0]
        0x0000107e:    0852        R.      LSRS     r2,r2,#1
        0x00001080:    0052        R.      LSLS     r2,r2,#1
        0x00001082:    1c52        R.      ADDS     r2,r2,#1
        0x00001084:    4b1d        .K      LDR      r3,[pc,#116] ; [0x10fc] = 0x20000028
        0x00001086:    68db        .h      LDR      r3,[r3,#0xc]
        0x00001088:    601a        .`      STR      r2,[r3,#0]
        0x0000108a:    bf00        ..      NOP      
        0x0000108c:    4a1b        .J      LDR      r2,[pc,#108] ; [0x10fc] = 0x20000028
        0x0000108e:    68d2        .h      LDR      r2,[r2,#0xc]
        0x00001090:    6812        .h      LDR      r2,[r2,#0]
        0x00001092:    07d2        ..      LSLS     r2,r2,#31
        0x00001094:    0fd2        ..      LSRS     r2,r2,#31
        0x00001096:    2a01        .*      CMP      r2,#1
        0x00001098:    d0f8        ..      BEQ      0x108c ; SetPACA + 128
        0x0000109a:    4a18        .J      LDR      r2,[pc,#96] ; [0x10fc] = 0x20000028
        0x0000109c:    68d2        .h      LDR      r2,[r2,#0xc]
        0x0000109e:    6892        .h      LDR      r2,[r2,#8]
        0x000010a0:    0892        ..      LSRS     r2,r2,#2
        0x000010a2:    0092        ..      LSLS     r2,r2,#2
        0x000010a4:    4b15        .K      LDR      r3,[pc,#84] ; [0x10fc] = 0x20000028
        0x000010a6:    68db        .h      LDR      r3,[r3,#0xc]
        0x000010a8:    609a        .`      STR      r2,[r3,#8]
        0x000010aa:    4a14        .J      LDR      r2,[pc,#80] ; [0x10fc] = 0x20000028
        0x000010ac:    68d2        .h      LDR      r2,[r2,#0xc]
        0x000010ae:    6892        .h      LDR      r2,[r2,#8]
        0x000010b0:    0892        ..      LSRS     r2,r2,#2
        0x000010b2:    0092        ..      LSLS     r2,r2,#2
        0x000010b4:    1c52        R.      ADDS     r2,r2,#1
        0x000010b6:    4b11        .K      LDR      r3,[pc,#68] ; [0x10fc] = 0x20000028
        0x000010b8:    68db        .h      LDR      r3,[r3,#0xc]
        0x000010ba:    609a        .`      STR      r2,[r3,#8]
        0x000010bc:    070a        ..      LSLS     r2,r1,#28
        0x000010be:    0f12        ..      LSRS     r2,r2,#28
        0x000010c0:    4b0e        .K      LDR      r3,[pc,#56] ; [0x10fc] = 0x20000028
        0x000010c2:    68db        .h      LDR      r3,[r3,#0xc]
        0x000010c4:    621a        .b      STR      r2,[r3,#0x20]
        0x000010c6:    4a0d        .J      LDR      r2,[pc,#52] ; [0x10fc] = 0x20000028
        0x000010c8:    68d2        .h      LDR      r2,[r2,#0xc]
        0x000010ca:    6812        .h      LDR      r2,[r2,#0]
        0x000010cc:    0852        R.      LSRS     r2,r2,#1
        0x000010ce:    0052        R.      LSLS     r2,r2,#1
        0x000010d0:    1c52        R.      ADDS     r2,r2,#1
        0x000010d2:    4b0a        .K      LDR      r3,[pc,#40] ; [0x10fc] = 0x20000028
        0x000010d4:    68db        .h      LDR      r3,[r3,#0xc]
        0x000010d6:    601a        .`      STR      r2,[r3,#0]
        0x000010d8:    bf00        ..      NOP      
        0x000010da:    4a08        .J      LDR      r2,[pc,#32] ; [0x10fc] = 0x20000028
        0x000010dc:    68d2        .h      LDR      r2,[r2,#0xc]
        0x000010de:    6812        .h      LDR      r2,[r2,#0]
        0x000010e0:    07d2        ..      LSLS     r2,r2,#31
        0x000010e2:    0fd2        ..      LSRS     r2,r2,#31
        0x000010e4:    2a01        .*      CMP      r2,#1
        0x000010e6:    d0f8        ..      BEQ      0x10da ; SetPACA + 206
        0x000010e8:    4a04        .J      LDR      r2,[pc,#16] ; [0x10fc] = 0x20000028
        0x000010ea:    68d2        .h      LDR      r2,[r2,#0xc]
        0x000010ec:    6892        .h      LDR      r2,[r2,#8]
        0x000010ee:    0892        ..      LSRS     r2,r2,#2
        0x000010f0:    0092        ..      LSLS     r2,r2,#2
        0x000010f2:    4b02        .K      LDR      r3,[pc,#8] ; [0x10fc] = 0x20000028
        0x000010f4:    68db        .h      LDR      r3,[r3,#0xc]
        0x000010f6:    609a        .`      STR      r2,[r3,#8]
        0x000010f8:    4770        pG      BX       lr
    $d
        0x000010fa:    0000        ..      DCW    0
        0x000010fc:    20000028    (..     DCD    536870952
    $t
    i.Show_Word
    Show_Word
        0x00001100:    b5fc        ..      PUSH     {r2-r7,lr}
        0x00001102:    4605        .F      MOV      r5,r0
        0x00001104:    460e        .F      MOV      r6,r1
        0x00001106:    4617        .F      MOV      r7,r2
        0x00001108:    2400        .$      MOVS     r4,#0
        0x0000110a:    2000        .       MOVS     r0,#0
        0x0000110c:    9001        ..      STR      r0,[sp,#4]
        0x0000110e:    4638        8F      MOV      r0,r7
        0x00001110:    3820         8      SUBS     r0,r0,#0x20
        0x00001112:    0100        ..      LSLS     r0,r0,#4
        0x00001114:    9001        ..      STR      r0,[sp,#4]
        0x00001116:    bf00        ..      NOP      
        0x00001118:    e011        ..      B        0x113e ; Show_Word + 62
        0x0000111a:    00f2        ..      LSLS     r2,r6,#3
        0x0000111c:    2381        .#      MOVS     r3,#0x81
        0x0000111e:    1a9a        ..      SUBS     r2,r3,r2
        0x00001120:    1b12        ..      SUBS     r2,r2,r4
        0x00001122:    b2d1        ..      UXTB     r1,r2
        0x00001124:    066a        j.      LSLS     r2,r5,#25
        0x00001126:    0e10        ..      LSRS     r0,r2,#24
        0x00001128:    f7ffff70    ..p.    BL       SetPACA ; 0x100c
        0x0000112c:    9801        ..      LDR      r0,[sp,#4]
        0x0000112e:    1900        ..      ADDS     r0,r0,r4
        0x00001130:    4910        .I      LDR      r1,[pc,#64] ; [0x1174] = 0x20000038
        0x00001132:    5c08        .\      LDRB     r0,[r1,r0]
        0x00001134:    9000        ..      STR      r0,[sp,#0]
        0x00001136:    9800        ..      LDR      r0,[sp,#0]
        0x00001138:    f000f8c2    ....    BL       WriteData ; 0x12c0
        0x0000113c:    1c64        d.      ADDS     r4,r4,#1
        0x0000113e:    2c08        .,      CMP      r4,#8
        0x00001140:    dbeb        ..      BLT      0x111a ; Show_Word + 26
        0x00001142:    2400        .$      MOVS     r4,#0
        0x00001144:    e013        ..      B        0x116e ; Show_Word + 110
        0x00001146:    00f2        ..      LSLS     r2,r6,#3
        0x00001148:    2381        .#      MOVS     r3,#0x81
        0x0000114a:    1a9a        ..      SUBS     r2,r3,r2
        0x0000114c:    1b12        ..      SUBS     r2,r2,r4
        0x0000114e:    b2d1        ..      UXTB     r1,r2
        0x00001150:    006a        j.      LSLS     r2,r5,#1
        0x00001152:    1c52        R.      ADDS     r2,r2,#1
        0x00001154:    b2d0        ..      UXTB     r0,r2
        0x00001156:    f7ffff59    ..Y.    BL       SetPACA ; 0x100c
        0x0000115a:    9801        ..      LDR      r0,[sp,#4]
        0x0000115c:    1900        ..      ADDS     r0,r0,r4
        0x0000115e:    3008        .0      ADDS     r0,r0,#8
        0x00001160:    4904        .I      LDR      r1,[pc,#16] ; [0x1174] = 0x20000038
        0x00001162:    5c08        .\      LDRB     r0,[r1,r0]
        0x00001164:    9000        ..      STR      r0,[sp,#0]
        0x00001166:    9800        ..      LDR      r0,[sp,#0]
        0x00001168:    f000f8aa    ....    BL       WriteData ; 0x12c0
        0x0000116c:    1c64        d.      ADDS     r4,r4,#1
        0x0000116e:    2c08        .,      CMP      r4,#8
        0x00001170:    dbe9        ..      BLT      0x1146 ; Show_Word + 70
        0x00001172:    bdfc        ..      POP      {r2-r7,pc}
    $d
        0x00001174:    20000038    8..     DCD    536870968
    $t
    i.StopWDT
    StopWDT
        0x00001178:    2059        Y       MOVS     r0,#0x59
        0x0000117a:    490b        .I      LDR      r1,[pc,#44] ; [0x11a8] = 0x50000100
        0x0000117c:    6008        .`      STR      r0,[r1,#0]
        0x0000117e:    2016        .       MOVS     r0,#0x16
        0x00001180:    6008        .`      STR      r0,[r1,#0]
        0x00001182:    2088        .       MOVS     r0,#0x88
        0x00001184:    6008        .`      STR      r0,[r1,#0]
        0x00001186:    4809        .H      LDR      r0,[pc,#36] ; [0x11ac] = 0x40004000
        0x00001188:    6800        .h      LDR      r0,[r0,#0]
        0x0000118a:    2180        .!      MOVS     r1,#0x80
        0x0000118c:    4388        .C      BICS     r0,r0,r1
        0x0000118e:    4907        .I      LDR      r1,[pc,#28] ; [0x11ac] = 0x40004000
        0x00001190:    6008        .`      STR      r0,[r1,#0]
        0x00001192:    4608        .F      MOV      r0,r1
        0x00001194:    6800        .h      LDR      r0,[r0,#0]
        0x00001196:    0840        @.      LSRS     r0,r0,#1
        0x00001198:    0040        @.      LSLS     r0,r0,#1
        0x0000119a:    1c40        @.      ADDS     r0,r0,#1
        0x0000119c:    6008        .`      STR      r0,[r1,#0]
        0x0000119e:    2000        .       MOVS     r0,#0
        0x000011a0:    4901        .I      LDR      r1,[pc,#4] ; [0x11a8] = 0x50000100
        0x000011a2:    6008        .`      STR      r0,[r1,#0]
        0x000011a4:    4770        pG      BX       lr
    $d
        0x000011a6:    0000        ..      DCW    0
        0x000011a8:    50000100    ...P    DCD    1342177536
        0x000011ac:    40004000    .@.@    DCD    1073758208
    $t
    i.SystemInit
    SystemInit
        0x000011b0:    4770        pG      BX       lr
        0x000011b2:    0000        ..      MOVS     r0,r0
    i.TMR3_IRQHandler
    TMR3_IRQHandler
        0x000011b4:    b500        ..      PUSH     {lr}
        0x000011b6:    b085        ..      SUB      sp,sp,#0x14
        0x000011b8:    2214        ."      MOVS     r2,#0x14
        0x000011ba:    490e        .I      LDR      r1,[pc,#56] ; [0x11f4] = 0x15d0
        0x000011bc:    4668        hF      MOV      r0,sp
        0x000011be:    f7feffdb    ....    BL       __aeabi_memcpy4 ; 0x178
        0x000011c2:    480d        .H      LDR      r0,[pc,#52] ; [0x11f8] = 0x2000001c
        0x000011c4:    8800        ..      LDRH     r0,[r0,#0]
        0x000011c6:    1c40        @.      ADDS     r0,r0,#1
        0x000011c8:    490b        .I      LDR      r1,[pc,#44] ; [0x11f8] = 0x2000001c
        0x000011ca:    8008        ..      STRH     r0,[r1,#0]
        0x000011cc:    4608        .F      MOV      r0,r1
        0x000011ce:    8802        ..      LDRH     r2,[r0,#0]
        0x000011d0:    a10a        ..      ADR      r1,{pc}+0x2c ; 0x11fc
        0x000011d2:    a801        ..      ADD      r0,sp,#4
        0x000011d4:    3003        .0      ADDS     r0,#3
        0x000011d6:    f7fff81d    ....    BL       __2sprintf ; 0x214
        0x000011da:    4669        iF      MOV      r1,sp
        0x000011dc:    2002        .       MOVS     r0,#2
        0x000011de:    f000f99b    ....    BL       print_lcd ; 0x1518
        0x000011e2:    4808        .H      LDR      r0,[pc,#32] ; [0x1204] = 0x40110000
        0x000011e4:    6a80        .j      LDR      r0,[r0,#0x28]
        0x000011e6:    0840        @.      LSRS     r0,r0,#1
        0x000011e8:    0040        @.      LSLS     r0,r0,#1
        0x000011ea:    1c40        @.      ADDS     r0,r0,#1
        0x000011ec:    4905        .I      LDR      r1,[pc,#20] ; [0x1204] = 0x40110000
        0x000011ee:    6288        .b      STR      r0,[r1,#0x28]
        0x000011f0:    b005        ..      ADD      sp,sp,#0x14
        0x000011f2:    bd00        ..      POP      {pc}
    $d
        0x000011f4:    000015d0    ....    DCD    5584
        0x000011f8:    2000001c    ...     DCD    536870940
        0x000011fc:    20642520     %d     DCD    543434016
        0x00001200:    00002e73    s...    DCD    11891
        0x00001204:    40110000    ...@    DCD    1074855936
    $t
    i.UART02_IRQHandler
    UART02_IRQHandler
        0x00001208:    b570        p.      PUSH     {r4-r6,lr}
        0x0000120a:    480a        .H      LDR      r0,[pc,#40] ; [0x1234] = 0x40050000
        0x0000120c:    69c4        .i      LDR      r4,[r0,#0x1c]
        0x0000120e:    480a        .H      LDR      r0,[pc,#40] ; [0x1238] = 0x40154000
        0x00001210:    69c5        .i      LDR      r5,[r0,#0x1c]
        0x00001212:    480a        .H      LDR      r0,[pc,#40] ; [0x123c] = 0x2000063c
        0x00001214:    6800        .h      LDR      r0,[r0,#0]
        0x00001216:    2800        .(      CMP      r0,#0
        0x00001218:    d003        ..      BEQ      0x1222 ; UART02_IRQHandler + 26
        0x0000121a:    4620         F      MOV      r0,r4
        0x0000121c:    4907        .I      LDR      r1,[pc,#28] ; [0x123c] = 0x2000063c
        0x0000121e:    6809        .h      LDR      r1,[r1,#0]
        0x00001220:    4788        .G      BLX      r1
        0x00001222:    4807        .H      LDR      r0,[pc,#28] ; [0x1240] = 0x20000644
        0x00001224:    6800        .h      LDR      r0,[r0,#0]
        0x00001226:    2800        .(      CMP      r0,#0
        0x00001228:    d003        ..      BEQ      0x1232 ; UART02_IRQHandler + 42
        0x0000122a:    4628        (F      MOV      r0,r5
        0x0000122c:    4904        .I      LDR      r1,[pc,#16] ; [0x1240] = 0x20000644
        0x0000122e:    6809        .h      LDR      r1,[r1,#0]
        0x00001230:    4788        .G      BLX      r1
        0x00001232:    bd70        p.      POP      {r4-r6,pc}
    $d
        0x00001234:    40050000    ...@    DCD    1074069504
        0x00001238:    40154000    .@.@    DCD    1075134464
        0x0000123c:    2000063c    <..     DCD    536872508
        0x00001240:    20000644    D..     DCD    536872516
    $t
    i.UART1_IRQHandler
    UART1_IRQHandler
        0x00001244:    b510        ..      PUSH     {r4,lr}
        0x00001246:    4805        .H      LDR      r0,[pc,#20] ; [0x125c] = 0x40150000
        0x00001248:    69c4        .i      LDR      r4,[r0,#0x1c]
        0x0000124a:    4805        .H      LDR      r0,[pc,#20] ; [0x1260] = 0x20000640
        0x0000124c:    6800        .h      LDR      r0,[r0,#0]
        0x0000124e:    2800        .(      CMP      r0,#0
        0x00001250:    d003        ..      BEQ      0x125a ; UART1_IRQHandler + 22
        0x00001252:    4620         F      MOV      r0,r4
        0x00001254:    4902        .I      LDR      r1,[pc,#8] ; [0x1260] = 0x20000640
        0x00001256:    6809        .h      LDR      r1,[r1,#0]
        0x00001258:    4788        .G      BLX      r1
        0x0000125a:    bd10        ..      POP      {r4,pc}
    $d
        0x0000125c:    40150000    ...@    DCD    1075118080
        0x00001260:    20000640    @..     DCD    536872512
    $t
    i.WDT_IRQHandler
    WDT_IRQHandler
        0x00001264:    b510        ..      PUSH     {r4,lr}
        0x00001266:    2059        Y       MOVS     r0,#0x59
        0x00001268:    490f        .I      LDR      r1,[pc,#60] ; [0x12a8] = 0x50000100
        0x0000126a:    6008        .`      STR      r0,[r1,#0]
        0x0000126c:    2016        .       MOVS     r0,#0x16
        0x0000126e:    6008        .`      STR      r0,[r1,#0]
        0x00001270:    2088        .       MOVS     r0,#0x88
        0x00001272:    6008        .`      STR      r0,[r1,#0]
        0x00001274:    480d        .H      LDR      r0,[pc,#52] ; [0x12ac] = 0x40004000
        0x00001276:    6800        .h      LDR      r0,[r0,#0]
        0x00001278:    2108        .!      MOVS     r1,#8
        0x0000127a:    4388        .C      BICS     r0,r0,r1
        0x0000127c:    3008        .0      ADDS     r0,r0,#8
        0x0000127e:    490b        .I      LDR      r1,[pc,#44] ; [0x12ac] = 0x40004000
        0x00001280:    6008        .`      STR      r0,[r1,#0]
        0x00001282:    4608        .F      MOV      r0,r1
        0x00001284:    6800        .h      LDR      r0,[r0,#0]
        0x00001286:    0840        @.      LSRS     r0,r0,#1
        0x00001288:    0040        @.      LSLS     r0,r0,#1
        0x0000128a:    1c40        @.      ADDS     r0,r0,#1
        0x0000128c:    6008        .`      STR      r0,[r1,#0]
        0x0000128e:    2059        Y       MOVS     r0,#0x59
        0x00001290:    4905        .I      LDR      r1,[pc,#20] ; [0x12a8] = 0x50000100
        0x00001292:    6008        .`      STR      r0,[r1,#0]
        0x00001294:    2016        .       MOVS     r0,#0x16
        0x00001296:    6008        .`      STR      r0,[r1,#0]
        0x00001298:    2088        .       MOVS     r0,#0x88
        0x0000129a:    6008        .`      STR      r0,[r1,#0]
        0x0000129c:    a104        ..      ADR      r1,{pc}+0x14 ; 0x12b0
        0x0000129e:    2003        .       MOVS     r0,#3
        0x000012a0:    f000f93a    ..:.    BL       print_lcd ; 0x1518
        0x000012a4:    bd10        ..      POP      {r4,pc}
    $d
        0x000012a6:    0000        ..      DCW    0
        0x000012a8:    50000100    ...P    DCD    1342177536
        0x000012ac:    40004000    .@.@    DCD    1073758208
        0x000012b0:    20544457    WDT     DCD    542393431
        0x000012b4:    65746e69    inte    DCD    1702129257
        0x000012b8:    70757272    rrup    DCD    1886745202
        0x000012bc:    00000074    t...    DCD    116
    $t
    i.WriteData
    WriteData
        0x000012c0:    4914        .I      LDR      r1,[pc,#80] ; [0x1314] = 0x20000028
        0x000012c2:    68c9        .h      LDR      r1,[r1,#0xc]
        0x000012c4:    6889        .h      LDR      r1,[r1,#8]
        0x000012c6:    0889        ..      LSRS     r1,r1,#2
        0x000012c8:    0089        ..      LSLS     r1,r1,#2
        0x000012ca:    1c49        I.      ADDS     r1,r1,#1
        0x000012cc:    4a11        .J      LDR      r2,[pc,#68] ; [0x1314] = 0x20000028
        0x000012ce:    68d2        .h      LDR      r2,[r2,#0xc]
        0x000012d0:    6091        .`      STR      r1,[r2,#8]
        0x000012d2:    21ff        .!      MOVS     r1,#0xff
        0x000012d4:    3101        .1      ADDS     r1,#1
        0x000012d6:    4301        .C      ORRS     r1,r1,r0
        0x000012d8:    4a0e        .J      LDR      r2,[pc,#56] ; [0x1314] = 0x20000028
        0x000012da:    68d2        .h      LDR      r2,[r2,#0xc]
        0x000012dc:    6211        .b      STR      r1,[r2,#0x20]
        0x000012de:    490d        .I      LDR      r1,[pc,#52] ; [0x1314] = 0x20000028
        0x000012e0:    68c9        .h      LDR      r1,[r1,#0xc]
        0x000012e2:    6809        .h      LDR      r1,[r1,#0]
        0x000012e4:    0849        I.      LSRS     r1,r1,#1
        0x000012e6:    0049        I.      LSLS     r1,r1,#1
        0x000012e8:    1c49        I.      ADDS     r1,r1,#1
        0x000012ea:    4a0a        .J      LDR      r2,[pc,#40] ; [0x1314] = 0x20000028
        0x000012ec:    68d2        .h      LDR      r2,[r2,#0xc]
        0x000012ee:    6011        .`      STR      r1,[r2,#0]
        0x000012f0:    bf00        ..      NOP      
        0x000012f2:    4908        .I      LDR      r1,[pc,#32] ; [0x1314] = 0x20000028
        0x000012f4:    68c9        .h      LDR      r1,[r1,#0xc]
        0x000012f6:    6809        .h      LDR      r1,[r1,#0]
        0x000012f8:    07c9        ..      LSLS     r1,r1,#31
        0x000012fa:    0fc9        ..      LSRS     r1,r1,#31
        0x000012fc:    2901        .)      CMP      r1,#1
        0x000012fe:    d0f8        ..      BEQ      0x12f2 ; WriteData + 50
        0x00001300:    4904        .I      LDR      r1,[pc,#16] ; [0x1314] = 0x20000028
        0x00001302:    68c9        .h      LDR      r1,[r1,#0xc]
        0x00001304:    6889        .h      LDR      r1,[r1,#8]
        0x00001306:    0889        ..      LSRS     r1,r1,#2
        0x00001308:    0089        ..      LSLS     r1,r1,#2
        0x0000130a:    4a02        .J      LDR      r2,[pc,#8] ; [0x1314] = 0x20000028
        0x0000130c:    68d2        .h      LDR      r2,[r2,#0xc]
        0x0000130e:    6091        .`      STR      r1,[r2,#8]
        0x00001310:    4770        pG      BX       lr
    $d
        0x00001312:    0000        ..      DCW    0
        0x00001314:    20000028    (..     DCD    536870952
    $t
    i._is_digit
    _is_digit
        0x00001318:    3830        08      SUBS     r0,r0,#0x30
        0x0000131a:    280a        .(      CMP      r0,#0xa
        0x0000131c:    d201        ..      BCS      0x1322 ; _is_digit + 10
        0x0000131e:    2001        .       MOVS     r0,#1
        0x00001320:    4770        pG      BX       lr
        0x00001322:    2000        .       MOVS     r0,#0
        0x00001324:    4770        pG      BX       lr
    i.close_seven_segment
    close_seven_segment
        0x00001326:    b510        ..      PUSH     {r4,lr}
        0x00001328:    2104        .!      MOVS     r1,#4
        0x0000132a:    2002        .       MOVS     r0,#2
        0x0000132c:    f7fff9c2    ....    BL       DrvGPIO_ClrBit ; 0x6b4
        0x00001330:    2105        .!      MOVS     r1,#5
        0x00001332:    2002        .       MOVS     r0,#2
        0x00001334:    f7fff9be    ....    BL       DrvGPIO_ClrBit ; 0x6b4
        0x00001338:    2106        .!      MOVS     r1,#6
        0x0000133a:    2002        .       MOVS     r0,#2
        0x0000133c:    f7fff9ba    ....    BL       DrvGPIO_ClrBit ; 0x6b4
        0x00001340:    2107        .!      MOVS     r1,#7
        0x00001342:    2002        .       MOVS     r0,#2
        0x00001344:    f7fff9b6    ....    BL       DrvGPIO_ClrBit ; 0x6b4
        0x00001348:    bd10        ..      POP      {r4,pc}
    i.clr_all_pannal
    clr_all_pannal
        0x0000134a:    b510        ..      PUSH     {r4,lr}
        0x0000134c:    2400        .$      MOVS     r4,#0
        0x0000134e:    2100        .!      MOVS     r1,#0
        0x00001350:    4608        .F      MOV      r0,r1
        0x00001352:    f7fffe5b    ..[.    BL       SetPACA ; 0x100c
        0x00001356:    bf00        ..      NOP      
        0x00001358:    e003        ..      B        0x1362 ; clr_all_pannal + 24
        0x0000135a:    2000        .       MOVS     r0,#0
        0x0000135c:    f7ffffb0    ....    BL       WriteData ; 0x12c0
        0x00001360:    1c64        d.      ADDS     r4,r4,#1
        0x00001362:    2021        !       MOVS     r0,#0x21
        0x00001364:    0140        @.      LSLS     r0,r0,#5
        0x00001366:    4284        .B      CMP      r4,r0
        0x00001368:    dbf7        ..      BLT      0x135a ; clr_all_pannal + 16
        0x0000136a:    200f        .       MOVS     r0,#0xf
        0x0000136c:    f7ffffa8    ....    BL       WriteData ; 0x12c0
        0x00001370:    bd10        ..      POP      {r4,pc}
        0x00001372:    0000        ..      MOVS     r0,r0
    i.countDown
    countDown
        0x00001374:    4805        .H      LDR      r0,[pc,#20] ; [0x138c] = 0x20000020
        0x00001376:    6800        .h      LDR      r0,[r0,#0]
        0x00001378:    3864        d8      SUBS     r0,r0,#0x64
        0x0000137a:    4904        .I      LDR      r1,[pc,#16] ; [0x138c] = 0x20000020
        0x0000137c:    6008        .`      STR      r0,[r1,#0]
        0x0000137e:    4608        .F      MOV      r0,r1
        0x00001380:    6800        .h      LDR      r0,[r0,#0]
        0x00001382:    2800        .(      CMP      r0,#0
        0x00001384:    d101        ..      BNE      0x138a ; countDown + 22
        0x00001386:    4802        .H      LDR      r0,[pc,#8] ; [0x1390] = 0x186a0
        0x00001388:    6008        .`      STR      r0,[r1,#0]
        0x0000138a:    4770        pG      BX       lr
    $d
        0x0000138c:    20000020     ..     DCD    536870944
        0x00001390:    000186a0    ....    DCD    100000
    $t
    i.countUp
    countUp
        0x00001394:    4806        .H      LDR      r0,[pc,#24] ; [0x13b0] = 0x20000020
        0x00001396:    6800        .h      LDR      r0,[r0,#0]
        0x00001398:    3064        d0      ADDS     r0,r0,#0x64
        0x0000139a:    4905        .I      LDR      r1,[pc,#20] ; [0x13b0] = 0x20000020
        0x0000139c:    6008        .`      STR      r0,[r1,#0]
        0x0000139e:    4608        .F      MOV      r0,r1
        0x000013a0:    6800        .h      LDR      r0,[r0,#0]
        0x000013a2:    4904        .I      LDR      r1,[pc,#16] ; [0x13b4] = 0x186a0
        0x000013a4:    4288        .B      CMP      r0,r1
        0x000013a6:    d102        ..      BNE      0x13ae ; countUp + 26
        0x000013a8:    2000        .       MOVS     r0,#0
        0x000013aa:    4901        .I      LDR      r1,[pc,#4] ; [0x13b0] = 0x20000020
        0x000013ac:    6008        .`      STR      r0,[r1,#0]
        0x000013ae:    4770        pG      BX       lr
    $d
        0x000013b0:    20000020     ..     DCD    536870944
        0x000013b4:    000186a0    ....    DCD    100000
    $t
    i.delay
    delay
        0x000013b8:    2000        .       MOVS     r0,#0
        0x000013ba:    e000        ..      B        0x13be ; delay + 6
        0x000013bc:    1c40        @.      ADDS     r0,r0,#1
        0x000013be:    217d        }!      MOVS     r1,#0x7d
        0x000013c0:    00c9        ..      LSLS     r1,r1,#3
        0x000013c2:    4288        .B      CMP      r0,r1
        0x000013c4:    dbfa        ..      BLT      0x13bc ; delay + 4
        0x000013c6:    4770        pG      BX       lr
    i.main
    main
        0x000013c8:    f7fffcd8    ....    BL       OpenKeyPad ; 0xd7c
        0x000013cc:    2200        ."      MOVS     r2,#0
        0x000013ce:    210f        .!      MOVS     r1,#0xf
        0x000013d0:    2001        .       MOVS     r0,#1
        0x000013d2:    f7fff9d9    ....    BL       DrvGPIO_Open ; 0x788
        0x000013d6:    4a42        BJ      LDR      r2,[pc,#264] ; [0x14e0] = 0x87d
        0x000013d8:    2100        .!      MOVS     r1,#0
        0x000013da:    2002        .       MOVS     r0,#2
        0x000013dc:    f7fff980    ....    BL       DrvGPIO_EnableEINT1 ; 0x6e0
        0x000013e0:    2059        Y       MOVS     r0,#0x59
        0x000013e2:    4940        @I      LDR      r1,[pc,#256] ; [0x14e4] = 0x50000100
        0x000013e4:    6008        .`      STR      r0,[r1,#0]
        0x000013e6:    2016        .       MOVS     r0,#0x16
        0x000013e8:    6008        .`      STR      r0,[r1,#0]
        0x000013ea:    2088        .       MOVS     r0,#0x88
        0x000013ec:    6008        .`      STR      r0,[r1,#0]
        0x000013ee:    483e        >H      LDR      r0,[pc,#248] ; [0x14e8] = 0x50000200
        0x000013f0:    6800        .h      LDR      r0,[r0,#0]
        0x000013f2:    0840        @.      LSRS     r0,r0,#1
        0x000013f4:    0040        @.      LSLS     r0,r0,#1
        0x000013f6:    1c40        @.      ADDS     r0,r0,#1
        0x000013f8:    493b        ;I      LDR      r1,[pc,#236] ; [0x14e8] = 0x50000200
        0x000013fa:    6008        .`      STR      r0,[r1,#0]
        0x000013fc:    4608        .F      MOV      r0,r1
        0x000013fe:    6900        .i      LDR      r0,[r0,#0x10]
        0x00001400:    08c0        ..      LSRS     r0,r0,#3
        0x00001402:    00c0        ..      LSLS     r0,r0,#3
        0x00001404:    6108        .a      STR      r0,[r1,#0x10]
        0x00001406:    2000        .       MOVS     r0,#0
        0x00001408:    4936        6I      LDR      r1,[pc,#216] ; [0x14e4] = 0x50000100
        0x0000140a:    6008        .`      STR      r0,[r1,#0]
        0x0000140c:    f7fffb5a    ..Z.    BL       Initial_pannel ; 0xac4
        0x00001410:    f7ffff9b    ....    BL       clr_all_pannal ; 0x134a
        0x00001414:    f7fffab6    ....    BL       InitTIMER3 ; 0x984
        0x00001418:    f7fffb06    ....    BL       InitWDT ; 0xa28
        0x0000141c:    e05e        ^.      B        0x14dc ; main + 276
        0x0000141e:    f7fffdb3    ....    BL       Scankey ; 0xf88
        0x00001422:    b244        D.      SXTB     r4,r0
        0x00001424:    2c01        .,      CMP      r4,#1
        0x00001426:    d10d        ..      BNE      0x1444 ; main + 124
        0x00001428:    a130        0.      ADR      r1,{pc}+0xc4 ; 0x14ec
        0x0000142a:    2003        .       MOVS     r0,#3
        0x0000142c:    f000f874    ..t.    BL       print_lcd ; 0x1518
        0x00001430:    a12e        ..      ADR      r1,{pc}+0xbc ; 0x14ec
        0x00001432:    2000        .       MOVS     r0,#0
        0x00001434:    f000f870    ..p.    BL       print_lcd ; 0x1518
        0x00001438:    a130        0.      ADR      r1,{pc}+0xc4 ; 0x14fc
        0x0000143a:    2000        .       MOVS     r0,#0
        0x0000143c:    f000f86c    ..l.    BL       print_lcd ; 0x1518
        0x00001440:    f7fffe9a    ....    BL       StopWDT ; 0x1178
        0x00001444:    2c02        .,      CMP      r4,#2
        0x00001446:    d10d        ..      BNE      0x1464 ; main + 156
        0x00001448:    a128        (.      ADR      r1,{pc}+0xa4 ; 0x14ec
        0x0000144a:    2003        .       MOVS     r0,#3
        0x0000144c:    f000f864    ..d.    BL       print_lcd ; 0x1518
        0x00001450:    a126        &.      ADR      r1,{pc}+0x9c ; 0x14ec
        0x00001452:    2000        .       MOVS     r0,#0
        0x00001454:    f000f860    ..`.    BL       print_lcd ; 0x1518
        0x00001458:    a12a        *.      ADR      r1,{pc}+0xac ; 0x1504
        0x0000145a:    2000        .       MOVS     r0,#0
        0x0000145c:    f000f85c    ..\.    BL       print_lcd ; 0x1518
        0x00001460:    f7fffcae    ....    BL       ResumeWDT ; 0xdc0
        0x00001464:    2c03        .,      CMP      r4,#3
        0x00001466:    d102        ..      BNE      0x146e ; main + 166
        0x00001468:    2001        .       MOVS     r0,#1
        0x0000146a:    4928        (I      LDR      r1,[pc,#160] ; [0x150c] = 0x20000024
        0x0000146c:    7008        .p      STRB     r0,[r1,#0]
        0x0000146e:    4827        'H      LDR      r0,[pc,#156] ; [0x150c] = 0x20000024
        0x00001470:    7800        .x      LDRB     r0,[r0,#0]
        0x00001472:    2801        .(      CMP      r0,#1
        0x00001474:    d10a        ..      BNE      0x148c ; main + 196
        0x00001476:    210a        .!      MOVS     r1,#0xa
        0x00001478:    4825        %H      LDR      r0,[pc,#148] ; [0x1510] = 0x20000020
        0x0000147a:    6800        .h      LDR      r0,[r0,#0]
        0x0000147c:    f7feffa6    ....    BL       __aeabi_idiv ; 0x3cc
        0x00001480:    b205        ..      SXTH     r5,r0
        0x00001482:    4628        (F      MOV      r0,r5
        0x00001484:    f000f85c    ..\.    BL       seg_display ; 0x1540
        0x00001488:    f7ffff84    ....    BL       countUp ; 0x1394
        0x0000148c:    4821        !H      LDR      r0,[pc,#132] ; [0x1514] = 0x50004040
        0x0000148e:    6900        .i      LDR      r0,[r0,#0x10]
        0x00001490:    2101        .!      MOVS     r1,#1
        0x00001492:    03c9        ..      LSLS     r1,r1,#15
        0x00001494:    4008        .@      ANDS     r0,r0,r1
        0x00001496:    491f        .I      LDR      r1,[pc,#124] ; [0x1514] = 0x50004040
        0x00001498:    6108        .a      STR      r0,[r1,#0x10]
        0x0000149a:    481c        .H      LDR      r0,[pc,#112] ; [0x150c] = 0x20000024
        0x0000149c:    7800        .x      LDRB     r0,[r0,#0]
        0x0000149e:    2802        .(      CMP      r0,#2
        0x000014a0:    d10a        ..      BNE      0x14b8 ; main + 240
        0x000014a2:    210a        .!      MOVS     r1,#0xa
        0x000014a4:    481a        .H      LDR      r0,[pc,#104] ; [0x1510] = 0x20000020
        0x000014a6:    6800        .h      LDR      r0,[r0,#0]
        0x000014a8:    f7feff90    ....    BL       __aeabi_idiv ; 0x3cc
        0x000014ac:    b205        ..      SXTH     r5,r0
        0x000014ae:    4628        (F      MOV      r0,r5
        0x000014b0:    f000f846    ..F.    BL       seg_display ; 0x1540
        0x000014b4:    f7ffff5e    ..^.    BL       countDown ; 0x1374
        0x000014b8:    2c04        .,      CMP      r4,#4
        0x000014ba:    d102        ..      BNE      0x14c2 ; main + 250
        0x000014bc:    2003        .       MOVS     r0,#3
        0x000014be:    4913        .I      LDR      r1,[pc,#76] ; [0x150c] = 0x20000024
        0x000014c0:    7008        .p      STRB     r0,[r1,#0]
        0x000014c2:    4812        .H      LDR      r0,[pc,#72] ; [0x150c] = 0x20000024
        0x000014c4:    7800        .x      LDRB     r0,[r0,#0]
        0x000014c6:    2803        .(      CMP      r0,#3
        0x000014c8:    d108        ..      BNE      0x14dc ; main + 276
        0x000014ca:    210a        .!      MOVS     r1,#0xa
        0x000014cc:    4810        .H      LDR      r0,[pc,#64] ; [0x1510] = 0x20000020
        0x000014ce:    6800        .h      LDR      r0,[r0,#0]
        0x000014d0:    f7feff7c    ..|.    BL       __aeabi_idiv ; 0x3cc
        0x000014d4:    b205        ..      SXTH     r5,r0
        0x000014d6:    4628        (F      MOV      r0,r5
        0x000014d8:    f000f832    ..2.    BL       seg_display ; 0x1540
        0x000014dc:    e79f        ..      B        0x141e ; main + 86
    $d
        0x000014de:    0000        ..      DCW    0
        0x000014e0:    0000087d    }...    DCD    2173
        0x000014e4:    50000100    ...P    DCD    1342177536
        0x000014e8:    50000200    ...P    DCD    1342177792
        0x000014ec:    20202020            DCD    538976288
        0x000014f0:    20202020            DCD    538976288
        0x000014f4:    20202020            DCD    538976288
        0x000014f8:    00202020       .    DCD    2105376
        0x000014fc:    706f7453    Stop    DCD    1886352467
        0x00001500:    00000021    !...    DCD    33
        0x00001504:    75736552    Resu    DCD    1970496850
        0x00001508:    0021656d    me!.    DCD    2188653
        0x0000150c:    20000024    $..     DCD    536870948
        0x00001510:    20000020     ..     DCD    536870944
        0x00001514:    50004040    @@.P    DCD    1342193728
    $t
    i.print_lcd
    print_lcd
        0x00001518:    b570        p.      PUSH     {r4-r6,lr}
        0x0000151a:    4606        .F      MOV      r6,r0
        0x0000151c:    460c        .F      MOV      r4,r1
        0x0000151e:    2500        .%      MOVS     r5,#0
        0x00001520:    bf00        ..      NOP      
        0x00001522:    7822        "x      LDRB     r2,[r4,#0]
        0x00001524:    1c64        d.      ADDS     r4,r4,#1
        0x00001526:    b2e9        ..      UXTB     r1,r5
        0x00001528:    4630        0F      MOV      r0,r6
        0x0000152a:    f7fffde9    ....    BL       Show_Word ; 0x1100
        0x0000152e:    1c6d        m.      ADDS     r5,r5,#1
        0x00001530:    2d0f        .-      CMP      r5,#0xf
        0x00001532:    dd00        ..      BLE      0x1536 ; print_lcd + 30
        0x00001534:    e002        ..      B        0x153c ; print_lcd + 36
        0x00001536:    7820         x      LDRB     r0,[r4,#0]
        0x00001538:    2800        .(      CMP      r0,#0
        0x0000153a:    d1f2        ..      BNE      0x1522 ; print_lcd + 10
        0x0000153c:    bf00        ..      NOP      
        0x0000153e:    bd70        p.      POP      {r4-r6,pc}
    i.seg_display
    seg_display
        0x00001540:    b570        p.      PUSH     {r4-r6,lr}
        0x00001542:    4605        .F      MOV      r5,r0
        0x00001544:    217d        }!      MOVS     r1,#0x7d
        0x00001546:    00c9        ..      LSLS     r1,r1,#3
        0x00001548:    4628        (F      MOV      r0,r5
        0x0000154a:    f7feff3f    ..?.    BL       __aeabi_idiv ; 0x3cc
        0x0000154e:    b244        D.      SXTB     r4,r0
        0x00001550:    f7fffee9    ....    BL       close_seven_segment ; 0x1326
        0x00001554:    b2e1        ..      UXTB     r1,r4
        0x00001556:    2003        .       MOVS     r0,#3
        0x00001558:    f000f81a    ....    BL       show_seven_segment ; 0x1590
        0x0000155c:    207d        }       MOVS     r0,#0x7d
        0x0000155e:    0140        @.      LSLS     r0,r0,#5
        0x00001560:    f7fff964    ..d.    BL       DrvSYS_Delay ; 0x82c
        0x00001564:    207d        }       MOVS     r0,#0x7d
        0x00001566:    00c0        ..      LSLS     r0,r0,#3
        0x00001568:    4360        `C      MULS     r0,r4,r0
        0x0000156a:    1a28        (.      SUBS     r0,r5,r0
        0x0000156c:    b205        ..      SXTH     r5,r0
        0x0000156e:    2164        d!      MOVS     r1,#0x64
        0x00001570:    4628        (F      MOV      r0,r5
        0x00001572:    f7feff2b    ..+.    BL       __aeabi_idiv ; 0x3cc
        0x00001576:    4604        .F      MOV      r4,r0
        0x00001578:    f7fffed5    ....    BL       close_seven_segment ; 0x1326
        0x0000157c:    b2e1        ..      UXTB     r1,r4
        0x0000157e:    2002        .       MOVS     r0,#2
        0x00001580:    f000f806    ....    BL       show_seven_segment ; 0x1590
        0x00001584:    207d        }       MOVS     r0,#0x7d
        0x00001586:    0140        @.      LSLS     r0,r0,#5
        0x00001588:    f7fff950    ..P.    BL       DrvSYS_Delay ; 0x82c
        0x0000158c:    bd70        p.      POP      {r4-r6,pc}
        0x0000158e:    0000        ..      MOVS     r0,r0
    i.show_seven_segment
    show_seven_segment
        0x00001590:    b5f8        ..      PUSH     {r3-r7,lr}
        0x00001592:    4605        .F      MOV      r5,r0
        0x00001594:    460f        .F      MOV      r7,r1
        0x00001596:    480d        .H      LDR      r0,[pc,#52] ; [0x15cc] = 0x20000628
        0x00001598:    5dc6        .]      LDRB     r6,[r0,r7]
        0x0000159a:    2400        .$      MOVS     r4,#0
        0x0000159c:    e00f        ..      B        0x15be ; show_seven_segment + 46
        0x0000159e:    07f0        ..      LSLS     r0,r6,#31
        0x000015a0:    0fc0        ..      LSRS     r0,r0,#31
        0x000015a2:    2801        .(      CMP      r0,#1
        0x000015a4:    d104        ..      BNE      0x15b0 ; show_seven_segment + 32
        0x000015a6:    4621        !F      MOV      r1,r4
        0x000015a8:    2004        .       MOVS     r0,#4
        0x000015aa:    f7fff929    ..).    BL       DrvGPIO_SetBit ; 0x800
        0x000015ae:    e003        ..      B        0x15b8 ; show_seven_segment + 40
        0x000015b0:    4621        !F      MOV      r1,r4
        0x000015b2:    2004        .       MOVS     r0,#4
        0x000015b4:    f7fff87e    ..~.    BL       DrvGPIO_ClrBit ; 0x6b4
        0x000015b8:    1076        v.      ASRS     r6,r6,#1
        0x000015ba:    1c60        `.      ADDS     r0,r4,#1
        0x000015bc:    b2c4        ..      UXTB     r4,r0
        0x000015be:    2c08        .,      CMP      r4,#8
        0x000015c0:    dbed        ..      BLT      0x159e ; show_seven_segment + 14
        0x000015c2:    1d29        ).      ADDS     r1,r5,#4
        0x000015c4:    2002        .       MOVS     r0,#2
        0x000015c6:    f7fff91b    ....    BL       DrvGPIO_SetBit ; 0x800
        0x000015ca:    bdf8        ..      POP      {r3-r7,pc}
    $d
        0x000015cc:    20000628    (..     DCD    536872488
    $d.realdata
    .constdata
        0x000015d0:    454d4954    TIME    DCD    1162692948
        0x000015d4:    003a3352    R3:.    DCD    3814226
        0x000015d8:    00000000    ....    DCD    0
        0x000015dc:    00000000    ....    DCD    0
        0x000015e0:    00000000    ....    DCD    0
    .constdata
        0x000015e4:    003e3d3b    ;=>.    DCD    4078907
    Region$$Table$$Base
        0x000015e8:    00001608    ....    DCD    5640
        0x000015ec:    20000000    ...     DCD    536870912
        0x000015f0:    00000658    X...    DCD    1624
        0x000015f4:    00000104    ....    DCD    260
        0x000015f8:    00001c60    `...    DCD    7264
        0x000015fc:    20000658    X..     DCD    536872536
        0x00001600:    000004b0    ....    DCD    1200
        0x00001604:    00000120     ...    DCD    288
    Region$$Table$$Limit

** Section #2 'ER_RW' (SHT_PROGBITS) [SHF_ALLOC + SHF_WRITE]
    Size   : 1624 bytes (alignment 4)
    Address: 0x20000000


** Section #3 'ER_ZI' (SHT_NOBITS) [SHF_ALLOC + SHF_WRITE]
    Size   : 1200 bytes (alignment 8)
    Address: 0x20000658


** Section #4 '.debug_abbrev' (SHT_PROGBITS)
    Size   : 1476 bytes


** Section #5 '.debug_frame' (SHT_PROGBITS)
    Size   : 1852 bytes


** Section #6 '.debug_info' (SHT_PROGBITS)
    Size   : 124888 bytes


** Section #7 '.debug_line' (SHT_PROGBITS)
    Size   : 8516 bytes


** Section #8 '.debug_loc' (SHT_PROGBITS)
    Size   : 2464 bytes


** Section #9 '.debug_macinfo' (SHT_PROGBITS)
    Size   : 156064 bytes


** Section #10 '.debug_pubnames' (SHT_PROGBITS)
    Size   : 1675 bytes


** Section #11 '.symtab' (SHT_SYMTAB)
    Size   : 7680 bytes (alignment 4)
    String table #12 '.strtab'
    Last local symbol no. 323


** Section #12 '.strtab' (SHT_STRTAB)
    Size   : 6148 bytes


** Section #13 '.note' (SHT_NOTE)
    Size   : 28 bytes (alignment 4)


** Section #14 '.comment' (SHT_PROGBITS)
    Size   : 6560 bytes


** Section #15 '.shstrtab' (SHT_STRTAB)
    Size   : 156 bytes


