
========================================================================

** ELF Header Information

    File Name: .\obj\Smpl_Start_Kit.axf

    Machine class: ELFCLASS32 (32-bit)
    Data encoding: ELFDATA2LSB (Little endian)
    Header version: EV_CURRENT (Current version)
    Operating System ABI: none
    ABI Version: 0
    File Type: ET_EXEC (Executable) (2)
    Machine: EM_ARM (ARM)

    Image Entry point: 0x000001b9
    Flags: EF_ARM_HASENTRY (0x05000002)

    ARM ELF revision: 5 (ABI version 2)

    Built with
    ARM C/C++ Compiler, 4.1 [Build 894]
    ARM Assembler, 4.1 [Build 894]
    ARM Linker, 4.1 [Build 894] 

    Header size: 52 bytes (0x34)
    Program header entry size: 32 bytes (0x20)
    Section header entry size: 40 bytes (0x28)

    Program header entries: 1
    Section header entries: 16

    Program header offset: 316196 (0x0004d324)
    Section header offset: 316228 (0x0004d344)

    Section header string table index: 15

========================================================================

** Program header #0 (PT_LOAD) [PF_X + PF_W + PF_R + PF_ARM_ENTRY]
    Size : 9152 bytes (7948 bytes in file)
    Virtual address: 0x00000000 (Alignment 8)


========================================================================

** Section #1 'ER_RO' (SHT_PROGBITS) [SHF_ALLOC + SHF_EXECINSTR]
    Size   : 6320 bytes (alignment 4)
    Address: 0x00000000

    $d.realdata
    RESET
    __Vectors
        0x00000000:    20000b10    ...     DCD    536873744
        0x00000004:    000001b9    ....    DCD    441
        0x00000008:    000001d9    ....    DCD    473
        0x0000000c:    000001db    ....    DCD    475
        0x00000010:    00000000    ....    DCD    0
        0x00000014:    00000000    ....    DCD    0
        0x00000018:    00000000    ....    DCD    0
        0x0000001c:    00000000    ....    DCD    0
        0x00000020:    00000000    ....    DCD    0
        0x00000024:    00000000    ....    DCD    0
        0x00000028:    00000000    ....    DCD    0
        0x0000002c:    000001dd    ....    DCD    477
        0x00000030:    00000000    ....    DCD    0
        0x00000034:    00000000    ....    DCD    0
        0x00000038:    000001df    ....    DCD    479
        0x0000003c:    000001e1    ....    DCD    481
        0x00000040:    000006ed    ....    DCD    1773
        0x00000044:    000001e3    ....    DCD    483
        0x00000048:    00000839    9...    DCD    2105
        0x0000004c:    0000085d    ]...    DCD    2141
        0x00000050:    00000881    ....    DCD    2177
        0x00000054:    000008bd    ....    DCD    2237
        0x00000058:    00000f2d    -...    DCD    3885
        0x0000005c:    000001e3    ....    DCD    483
        0x00000060:    000001e3    ....    DCD    483
        0x00000064:    000001e3    ....    DCD    483
        0x00000068:    000001e3    ....    DCD    483
        0x0000006c:    00001385    ....    DCD    4997
        0x00000070:    00001505    ....    DCD    5381
        0x00000074:    00001541    A...    DCD    5441
        0x00000078:    00001001    ....    DCD    4097
        0x0000007c:    00001065    e...    DCD    4197
        0x00000080:    000010c9    ....    DCD    4297
        0x00000084:    0000112d    -...    DCD    4397
        0x00000088:    000001e3    ....    DCD    483
        0x0000008c:    000001e3    ....    DCD    483
        0x00000090:    000001e3    ....    DCD    483
        0x00000094:    000001e3    ....    DCD    483
        0x00000098:    000001e3    ....    DCD    483
        0x0000009c:    000001e3    ....    DCD    483
        0x000000a0:    000001e3    ....    DCD    483
        0x000000a4:    000001e3    ....    DCD    483
        0x000000a8:    000001e3    ....    DCD    483
        0x000000ac:    000001e3    ....    DCD    483
        0x000000b0:    00000fd9    ....    DCD    4057
        0x000000b4:    000001e3    ....    DCD    483
        0x000000b8:    000001e3    ....    DCD    483
        0x000000bc:    000001e3    ....    DCD    483
    $t
    !!!main
    __main
        0x000000c0:    f000f802    ....    BL       __scatterload ; 0xc8
        0x000000c4:    f000f84d    ..M.    BL       __rt_entry ; 0x162
    !!!scatter
    __scatterload
    __scatterload_rt2
    __scatterload_rt2_thumb_only
        0x000000c8:    a00c        ..      ADR      r0,{pc}+0x34 ; 0xfc
        0x000000ca:    c830        0.      LDM      r0!,{r4,r5}
        0x000000cc:    3808        .8      SUBS     r0,r0,#8
        0x000000ce:    1824        $.      ADDS     r4,r4,r0
        0x000000d0:    182d        -.      ADDS     r5,r5,r0
        0x000000d2:    46a2        .F      MOV      r10,r4
        0x000000d4:    1e67        g.      SUBS     r7,r4,#1
        0x000000d6:    46ab        .F      MOV      r11,r5
    __scatterload_null
        0x000000d8:    4654        TF      MOV      r4,r10
        0x000000da:    465d        ]F      MOV      r5,r11
        0x000000dc:    42ac        .B      CMP      r4,r5
        0x000000de:    d101        ..      BNE      0xe4 ; __scatterload_null + 12
        0x000000e0:    f000f83f    ..?.    BL       __rt_entry ; 0x162
        0x000000e4:    467e        ~F      MOV      r6,pc
        0x000000e6:    3e0f        .>      SUBS     r6,r6,#0xf
        0x000000e8:    cc0f        ..      LDM      r4!,{r0-r3}
        0x000000ea:    46b6        .F      MOV      lr,r6
        0x000000ec:    2601        .&      MOVS     r6,#1
        0x000000ee:    4233        3B      TST      r3,r6
        0x000000f0:    d000        ..      BEQ      0xf4 ; __scatterload_null + 28
        0x000000f2:    1afb        ..      SUBS     r3,r7,r3
        0x000000f4:    46a2        .F      MOV      r10,r4
        0x000000f6:    46ab        .F      MOV      r11,r5
        0x000000f8:    4333        3C      ORRS     r3,r3,r6
        0x000000fa:    4718        .G      BX       r3
    $d
        0x000000fc:    00001794    ....    DCD    6036
        0x00000100:    000017b4    ....    DCD    6068
    $t
    !!handler_copy
    __scatterload_copy
        0x00000104:    3a10        .:      SUBS     r2,r2,#0x10
        0x00000106:    d302        ..      BCC      0x10e ; __scatterload_copy + 10
        0x00000108:    c878        x.      LDM      r0!,{r3-r6}
        0x0000010a:    c178        x.      STM      r1!,{r3-r6}
        0x0000010c:    d8fa        ..      BHI      __scatterload_copy ; 0x104
        0x0000010e:    0752        R.      LSLS     r2,r2,#29
        0x00000110:    d301        ..      BCC      0x116 ; __scatterload_copy + 18
        0x00000112:    c830        0.      LDM      r0!,{r4,r5}
        0x00000114:    c130        0.      STM      r1!,{r4,r5}
        0x00000116:    d501        ..      BPL      0x11c ; __scatterload_copy + 24
        0x00000118:    6804        .h      LDR      r4,[r0,#0]
        0x0000011a:    600c        .`      STR      r4,[r1,#0]
        0x0000011c:    4770        pG      BX       lr
        0x0000011e:    0000        ..      MOVS     r0,r0
    !!handler_zi
    __scatterload_zeroinit
        0x00000120:    2300        .#      MOVS     r3,#0
        0x00000122:    2400        .$      MOVS     r4,#0
        0x00000124:    2500        .%      MOVS     r5,#0
        0x00000126:    2600        .&      MOVS     r6,#0
        0x00000128:    3a10        .:      SUBS     r2,r2,#0x10
        0x0000012a:    d301        ..      BCC      0x130 ; __scatterload_zeroinit + 16
        0x0000012c:    c178        x.      STM      r1!,{r3-r6}
        0x0000012e:    d8fb        ..      BHI      0x128 ; __scatterload_zeroinit + 8
        0x00000130:    0752        R.      LSLS     r2,r2,#29
        0x00000132:    d300        ..      BCC      0x136 ; __scatterload_zeroinit + 22
        0x00000134:    c130        0.      STM      r1!,{r4,r5}
        0x00000136:    d500        ..      BPL      0x13a ; __scatterload_zeroinit + 26
        0x00000138:    600b        .`      STR      r3,[r1,#0]
        0x0000013a:    4770        pG      BX       lr
    .ARM.Collect$$_printf_percent$$00000000
    _printf_percent
        0x0000013c:    b510        ..      PUSH     {r4,lr}
    .ARM.Collect$$_printf_percent$$00000009
    _printf_d
        0x0000013e:    2964        d)      CMP      r1,#0x64
        0x00000140:    d102        ..      BNE      _printf_x ; 0x148
        0x00000142:    f000f87f    ....    BL       _printf_int_dec ; 0x244
        0x00000146:    bd10        ..      POP      {r4,pc}
    .ARM.Collect$$_printf_percent$$0000000C
    _printf_x
        0x00000148:    2978        x)      CMP      r1,#0x78
        0x0000014a:    d102        ..      BNE      _printf_percent_end ; 0x152
        0x0000014c:    f000f8b0    ....    BL       _printf_int_hex ; 0x2b0
        0x00000150:    bd10        ..      POP      {r4,pc}
    .ARM.Collect$$_printf_percent$$00000017
    _printf_percent_end
        0x00000152:    2000        .       MOVS     r0,#0
        0x00000154:    bd10        ..      POP      {r4,pc}
    .ARM.Collect$$libinit$$00000000
    __rt_lib_init
        0x00000156:    b51f        ..      PUSH     {r0-r4,lr}
        0x00000158:    46c0        .F      MOV      r8,r8
        0x0000015a:    46c0        .F      MOV      r8,r8
    .ARM.Collect$$libinit$$00000006
    .ARM.Collect$$libinit$$00000008
    .ARM.Collect$$libinit$$0000000A
    .ARM.Collect$$libinit$$0000000D
    .ARM.Collect$$libinit$$0000000F
    .ARM.Collect$$libinit$$00000011
    .ARM.Collect$$libinit$$00000013
    .ARM.Collect$$libinit$$00000015
    .ARM.Collect$$libinit$$00000017
    .ARM.Collect$$libinit$$00000019
    .ARM.Collect$$libinit$$0000001B
    .ARM.Collect$$libinit$$0000001D
    .ARM.Collect$$libinit$$0000001F
    .ARM.Collect$$libinit$$00000021
    .ARM.Collect$$libinit$$00000028
    .ARM.Collect$$libinit$$0000002A
    .ARM.Collect$$libinit$$0000002C
    .ARM.Collect$$libinit$$0000002E
    .ARM.Collect$$libinit$$0000002F
    __rt_lib_init_alloca_1
    __rt_lib_init_argv_1
    __rt_lib_init_atexit_1
    __rt_lib_init_clock_1
    __rt_lib_init_cpp_1
    __rt_lib_init_exceptions_1
    __rt_lib_init_fp_trap_1
    __rt_lib_init_getenv_1
    __rt_lib_init_heap_1
    __rt_lib_init_lc_collate_1
    __rt_lib_init_lc_ctype_1
    __rt_lib_init_lc_monetary_1
    __rt_lib_init_lc_numeric_1
    __rt_lib_init_lc_time_1
    __rt_lib_init_rand_1
    __rt_lib_init_return
    __rt_lib_init_signal_1
    __rt_lib_init_stdio_1
    __rt_lib_init_user_alloc_1
        0x0000015c:    bd1f        ..      POP      {r0-r4,pc}
    .ARM.Collect$$libshutdown$$00000000
    __rt_lib_shutdown
        0x0000015e:    b510        ..      PUSH     {r4,lr}
    .ARM.Collect$$libshutdown$$00000003
    .ARM.Collect$$libshutdown$$00000006
    .ARM.Collect$$libshutdown$$00000009
    .ARM.Collect$$libshutdown$$0000000B
    .ARM.Collect$$libshutdown$$0000000E
    .ARM.Collect$$libshutdown$$0000000F
    __rt_lib_shutdown_fp_trap_1
    __rt_lib_shutdown_heap_1
    __rt_lib_shutdown_return
    __rt_lib_shutdown_signal_1
    __rt_lib_shutdown_stdio_1
    __rt_lib_shutdown_user_alloc_1
        0x00000160:    bd10        ..      POP      {r4,pc}
    .ARM.Collect$$rtentry$$00000000
    .ARM.Collect$$rtentry$$00000002
    .ARM.Collect$$rtentry$$00000004
    __rt_entry
    __rt_entry_presh_1
    __rt_entry_sh
        0x00000162:    f000fa92    ....    BL       __user_setup_stackheap ; 0x68a
        0x00000166:    4611        .F      MOV      r1,r2
    .ARM.Collect$$rtentry$$00000009
    .ARM.Collect$$rtentry$$0000000A
    __rt_entry_li
    __rt_entry_postsh_1
        0x00000168:    f7fffff5    ....    BL       __rt_lib_init ; 0x156
    .ARM.Collect$$rtentry$$0000000C
    .ARM.Collect$$rtentry$$0000000D
    __rt_entry_main
    __rt_entry_postli_1
        0x0000016c:    f001fa5a    ..Z.    BL       main ; 0x1624
        0x00000170:    f000faaa    ....    BL       exit ; 0x6c8
    .ARM.Collect$$rtexit$$00000000
    __rt_exit
        0x00000174:    b403        ..      PUSH     {r0,r1}
    .ARM.Collect$$rtexit$$00000002
    .ARM.Collect$$rtexit$$00000003
    __rt_exit_ls
    __rt_exit_prels_1
        0x00000176:    f7fffff2    ....    BL       __rt_lib_shutdown ; 0x15e
    .ARM.Collect$$rtexit$$00000004
    __rt_exit_exit
        0x0000017a:    bc03        ..      POP      {r0,r1}
        0x0000017c:    f000faae    ....    BL       _sys_exit ; 0x6dc
    .emb_text
    __aeabi_memcpy4
    __aeabi_memcpy8
        0x00000180:    b570        p.      PUSH     {r4-r6,lr}
        0x00000182:    4605        .F      MOV      r5,r0
        0x00000184:    460c        .F      MOV      r4,r1
        0x00000186:    4616        .F      MOV      r6,r2
        0x00000188:    e002        ..      B        0x190 ; __aeabi_memcpy4 + 16
        0x0000018a:    cc0f        ..      LDM      r4!,{r0-r3}
        0x0000018c:    c50f        ..      STM      r5!,{r0-r3}
        0x0000018e:    3e10        .>      SUBS     r6,r6,#0x10
        0x00000190:    2e10        ..      CMP      r6,#0x10
        0x00000192:    d2fa        ..      BCS      0x18a ; __aeabi_memcpy4 + 10
        0x00000194:    2e08        ..      CMP      r6,#8
        0x00000196:    d302        ..      BCC      0x19e ; __aeabi_memcpy4 + 30
        0x00000198:    cc03        ..      LDM      r4!,{r0,r1}
        0x0000019a:    c503        ..      STM      r5!,{r0,r1}
        0x0000019c:    3e08        .>      SUBS     r6,r6,#8
        0x0000019e:    2e04        ..      CMP      r6,#4
        0x000001a0:    d307        ..      BCC      0x1b2 ; __aeabi_memcpy4 + 50
        0x000001a2:    cc01        ..      LDM      r4!,{r0}
        0x000001a4:    c501        ..      STM      r5!,{r0}
        0x000001a6:    1f36        6.      SUBS     r6,r6,#4
        0x000001a8:    e003        ..      B        0x1b2 ; __aeabi_memcpy4 + 50
        0x000001aa:    7821        !x      LDRB     r1,[r4,#0]
        0x000001ac:    7029        )p      STRB     r1,[r5,#0]
        0x000001ae:    1c64        d.      ADDS     r4,r4,#1
        0x000001b0:    1c6d        m.      ADDS     r5,r5,#1
        0x000001b2:    1e76        v.      SUBS     r6,r6,#1
        0x000001b4:    d2f9        ..      BCS      0x1aa ; __aeabi_memcpy4 + 42
        0x000001b6:    bd70        p.      POP      {r4-r6,pc}
    .text
    Reset_Handler
        0x000001b8:    480d        .H      LDR      r0,[pc,#52] ; [0x1f0] = 0x50000100
        0x000001ba:    490e        .I      LDR      r1,[pc,#56] ; [0x1f4] = 0x59
        0x000001bc:    6001        .`      STR      r1,[r0,#0]
        0x000001be:    490e        .I      LDR      r1,[pc,#56] ; [0x1f8] = 0x16
        0x000001c0:    6001        .`      STR      r1,[r0,#0]
        0x000001c2:    490e        .I      LDR      r1,[pc,#56] ; [0x1fc] = 0x88
        0x000001c4:    6001        .`      STR      r1,[r0,#0]
        0x000001c6:    4a0e        .J      LDR      r2,[pc,#56] ; [0x200] = 0x50000024
        0x000001c8:    490e        .I      LDR      r1,[pc,#56] ; [0x204] = 0x5aa5
        0x000001ca:    6011        .`      STR      r1,[r2,#0]
        0x000001cc:    2100        .!      MOVS     r1,#0
        0x000001ce:    6001        .`      STR      r1,[r0,#0]
        0x000001d0:    480d        .H      LDR      r0,[pc,#52] ; [0x208] = 0x1381
        0x000001d2:    4780        .G      BLX      r0
        0x000001d4:    480d        .H      LDR      r0,[pc,#52] ; [0x20c] = 0xc1
        0x000001d6:    4700        .G      BX       r0
    NMI_Handler
        0x000001d8:    e7fe        ..      B        NMI_Handler ; 0x1d8
    HardFault_Handler
        0x000001da:    e7fe        ..      B        HardFault_Handler ; 0x1da
    SVC_Handler
        0x000001dc:    e7fe        ..      B        SVC_Handler ; 0x1dc
    PendSV_Handler
        0x000001de:    e7fe        ..      B        PendSV_Handler ; 0x1de
    SysTick_Handler
        0x000001e0:    e7fe        ..      B        SysTick_Handler ; 0x1e0
    Default_Handler
    ACMP_IRQHandler
    ADC_IRQHandler
    CAN0_IRQHandler
    I2C0_IRQHandler
    I2C1_IRQHandler
    I2S_IRQHandler
    PDMA_IRQHandler
    PS2_IRQHandler
    PWMB_IRQHandler
    RTC_IRQHandler
    TMR0_IRQHandler
    TMR1_IRQHandler
    TMR2_IRQHandler
    USBD_IRQHandler
    WDT_IRQHandler
        0x000001e2:    e7fe        ..      B        Default_Handler ; 0x1e2
    __user_initial_stackheap
        0x000001e4:    480a        .H      LDR      r0,[pc,#40] ; [0x210] = 0x20000710
        0x000001e6:    490b        .I      LDR      r1,[pc,#44] ; [0x214] = 0x20000b10
        0x000001e8:    4a09        .J      LDR      r2,[pc,#36] ; [0x210] = 0x20000710
        0x000001ea:    4b0b        .K      LDR      r3,[pc,#44] ; [0x218] = 0x20000710
        0x000001ec:    4770        pG      BX       lr
    $d
        0x000001ee:    0000        ..      DCW    0
        0x000001f0:    50000100    ...P    DCD    1342177536
        0x000001f4:    00000059    Y...    DCD    89
        0x000001f8:    00000016    ....    DCD    22
        0x000001fc:    00000088    ....    DCD    136
        0x00000200:    50000024    $..P    DCD    1342177316
        0x00000204:    00005aa5    .Z..    DCD    23205
        0x00000208:    00001381    ....    DCD    4993
        0x0000020c:    000000c1    ....    DCD    193
        0x00000210:    20000710    ...     DCD    536872720
        0x00000214:    20000b10    ...     DCD    536873744
        0x00000218:    20000710    ...     DCD    536872720
    $t
    .text
    __2sprintf
        0x0000021c:    b40f        ..      PUSH     {r0-r3}
        0x0000021e:    b51c        ..      PUSH     {r2-r4,lr}
        0x00000220:    4b07        .K      LDR      r3,[pc,#28] ; [0x240] = 0x431
        0x00000222:    aa06        ..      ADD      r2,sp,#0x18
        0x00000224:    447b        {D      ADD      r3,r3,pc
        0x00000226:    4669        iF      MOV      r1,sp
        0x00000228:    9000        ..      STR      r0,[sp,#0]
        0x0000022a:    9805        ..      LDR      r0,[sp,#0x14]
        0x0000022c:    f000fa01    ....    BL       _printf_char_common ; 0x632
        0x00000230:    2000        .       MOVS     r0,#0
        0x00000232:    4669        iF      MOV      r1,sp
        0x00000234:    f000fa10    ....    BL       _sputc ; 0x658
        0x00000238:    bc1c        ..      POP      {r2-r4}
        0x0000023a:    bc08        ..      POP      {r3}
        0x0000023c:    b004        ..      ADD      sp,sp,#0x10
        0x0000023e:    4718        .G      BX       r3
    $d
        0x00000240:    00000431    1...    DCD    1073
    $t
    .text
    _printf_int_dec
        0x00000244:    b5f7        ..      PUSH     {r0-r2,r4-r7,lr}
        0x00000246:    2600        .&      MOVS     r6,#0
        0x00000248:    2975        u)      CMP      r1,#0x75
        0x0000024a:    6810        .h      LDR      r0,[r2,#0]
        0x0000024c:    9900        ..      LDR      r1,[sp,#0]
        0x0000024e:    a514        ..      ADR      r5,{pc}+0x52 ; 0x2a0
        0x00000250:    d011        ..      BEQ      0x276 ; _printf_int_dec + 50
        0x00000252:    46c0        .F      MOV      r8,r8
        0x00000254:    46c0        .F      MOV      r8,r8
        0x00000256:    2800        .(      CMP      r0,#0
        0x00000258:    da02        ..      BGE      0x260 ; _printf_int_dec + 28
        0x0000025a:    4240        @B      RSBS     r0,r0,#0
        0x0000025c:    a511        ..      ADR      r5,{pc}+0x48 ; 0x2a4
        0x0000025e:    e008        ..      B        0x272 ; _printf_int_dec + 46
        0x00000260:    9900        ..      LDR      r1,[sp,#0]
        0x00000262:    6809        .h      LDR      r1,[r1,#0]
        0x00000264:    078a        ..      LSLS     r2,r1,#30
        0x00000266:    d501        ..      BPL      0x26c ; _printf_int_dec + 40
        0x00000268:    a50f        ..      ADR      r5,{pc}+0x40 ; 0x2a8
        0x0000026a:    e002        ..      B        0x272 ; _printf_int_dec + 46
        0x0000026c:    0749        I.      LSLS     r1,r1,#29
        0x0000026e:    d504        ..      BPL      0x27a ; _printf_int_dec + 54
        0x00000270:    a50e        ..      ADR      r5,{pc}+0x3c ; 0x2ac
        0x00000272:    2601        .&      MOVS     r6,#1
        0x00000274:    e001        ..      B        0x27a ; _printf_int_dec + 54
        0x00000276:    46c0        .F      MOV      r8,r8
        0x00000278:    46c0        .F      MOV      r8,r8
        0x0000027a:    9f00        ..      LDR      r7,[sp,#0]
        0x0000027c:    2400        .$      MOVS     r4,#0
        0x0000027e:    3724        $7      ADDS     r7,r7,#0x24
        0x00000280:    e004        ..      B        0x28c ; _printf_int_dec + 72
        0x00000282:    f000f9ee    ....    BL       __rt_udiv10 ; 0x662
        0x00000286:    3130        01      ADDS     r1,r1,#0x30
        0x00000288:    5539        9U      STRB     r1,[r7,r4]
        0x0000028a:    1c64        d.      ADDS     r4,r4,#1
        0x0000028c:    2800        .(      CMP      r0,#0
        0x0000028e:    d1f8        ..      BNE      0x282 ; _printf_int_dec + 62
        0x00000290:    4633        3F      MOV      r3,r6
        0x00000292:    462a        *F      MOV      r2,r5
        0x00000294:    4621        !F      MOV      r1,r4
        0x00000296:    9800        ..      LDR      r0,[sp,#0]
        0x00000298:    f000f96e    ..n.    BL       _printf_int_common ; 0x578
        0x0000029c:    bdfe        ..      POP      {r1-r7,pc}
    $d
        0x0000029e:    0000        ..      DCW    0
        0x000002a0:    00000000    ....    DCD    0
        0x000002a4:    0000002d    -...    DCD    45
        0x000002a8:    0000002b    +...    DCD    43
        0x000002ac:    00000020     ...    DCD    32
    $t
    .text
    _printf_int_hex
    _printf_longlong_hex
        0x000002b0:    b570        p.      PUSH     {r4-r6,lr}
        0x000002b2:    4604        .F      MOV      r4,r0
        0x000002b4:    460d        .F      MOV      r5,r1
        0x000002b6:    4621        !F      MOV      r1,r4
        0x000002b8:    6810        .h      LDR      r0,[r2,#0]
        0x000002ba:    46c0        .F      MOV      r8,r8
        0x000002bc:    46c0        .F      MOV      r8,r8
        0x000002be:    6821        !h      LDR      r1,[r4,#0]
        0x000002c0:    0509        ..      LSLS     r1,r1,#20
        0x000002c2:    d502        ..      BPL      0x2ca ; _printf_int_hex + 26
        0x000002c4:    4a0f        .J      LDR      r2,[pc,#60] ; [0x304] = 0x159e
        0x000002c6:    447a        zD      ADD      r2,r2,pc
        0x000002c8:    e002        ..      B        0x2d0 ; _printf_int_hex + 32
        0x000002ca:    4a0e        .J      LDR      r2,[pc,#56] ; [0x304] = 0x159e
        0x000002cc:    447a        zD      ADD      r2,r2,pc
        0x000002ce:    320e        .2      ADDS     r2,r2,#0xe
        0x000002d0:    4623        #F      MOV      r3,r4
        0x000002d2:    2100        .!      MOVS     r1,#0
        0x000002d4:    3324        $3      ADDS     r3,r3,#0x24
        0x000002d6:    e005        ..      B        0x2e4 ; _printf_int_hex + 52
        0x000002d8:    0706        ..      LSLS     r6,r0,#28
        0x000002da:    0f36        6.      LSRS     r6,r6,#28
        0x000002dc:    5d96        .]      LDRB     r6,[r2,r6]
        0x000002de:    545e        ^T      STRB     r6,[r3,r1]
        0x000002e0:    1c49        I.      ADDS     r1,r1,#1
        0x000002e2:    0900        ..      LSRS     r0,r0,#4
        0x000002e4:    2800        .(      CMP      r0,#0
        0x000002e6:    d1f7        ..      BNE      0x2d8 ; _printf_int_hex + 40
        0x000002e8:    6820         h      LDR      r0,[r4,#0]
        0x000002ea:    2300        .#      MOVS     r3,#0
        0x000002ec:    0700        ..      LSLS     r0,r0,#28
        0x000002ee:    d505        ..      BPL      0x2fc ; _printf_int_hex + 76
        0x000002f0:    2d70        p-      CMP      r5,#0x70
        0x000002f2:    d003        ..      BEQ      0x2fc ; _printf_int_hex + 76
        0x000002f4:    2900        .)      CMP      r1,#0
        0x000002f6:    d001        ..      BEQ      0x2fc ; _printf_int_hex + 76
        0x000002f8:    3211        .2      ADDS     r2,r2,#0x11
        0x000002fa:    2302        .#      MOVS     r3,#2
        0x000002fc:    4620         F      MOV      r0,r4
        0x000002fe:    f000f93b    ..;.    BL       _printf_int_common ; 0x578
        0x00000302:    bd70        p.      POP      {r4-r6,pc}
    $d
        0x00000304:    0000159e    ....    DCD    5534
    $t
    .text
    __printf
        0x00000308:    b5f3        ..      PUSH     {r0,r1,r4-r7,lr}
        0x0000030a:    4604        .F      MOV      r4,r0
        0x0000030c:    2000        .       MOVS     r0,#0
        0x0000030e:    b081        ..      SUB      sp,sp,#4
        0x00000310:    e07e        ~.      B        0x410 ; __printf + 264
        0x00000312:    68e1        .h      LDR      r1,[r4,#0xc]
        0x00000314:    4620         F      MOV      r0,r4
        0x00000316:    4788        .G      BLX      r1
        0x00000318:    2800        .(      CMP      r0,#0
        0x0000031a:    d07b        {.      BEQ      0x414 ; __printf + 268
        0x0000031c:    2825        %(      CMP      r0,#0x25
        0x0000031e:    d002        ..      BEQ      0x326 ; __printf + 30
        0x00000320:    6862        bh      LDR      r2,[r4,#4]
        0x00000322:    68a1        .h      LDR      r1,[r4,#8]
        0x00000324:    e071        q.      B        0x40a ; __printf + 258
        0x00000326:    68e1        .h      LDR      r1,[r4,#0xc]
        0x00000328:    4620         F      MOV      r0,r4
        0x0000032a:    2500        .%      MOVS     r5,#0
        0x0000032c:    4788        .G      BLX      r1
        0x0000032e:    4606        .F      MOV      r6,r0
        0x00000330:    2000        .       MOVS     r0,#0
        0x00000332:    61e0        .a      STR      r0,[r4,#0x1c]
        0x00000334:    4607        .F      MOV      r7,r0
        0x00000336:    61a0        .a      STR      r0,[r4,#0x18]
        0x00000338:    2e2a        *.      CMP      r6,#0x2a
        0x0000033a:    d00a        ..      BEQ      0x352 ; __printf + 74
        0x0000033c:    4630        0F      MOV      r0,r6
        0x0000033e:    f001f93b    ..;.    BL       _is_digit ; 0x15b8
        0x00000342:    2800        .(      CMP      r0,#0
        0x00000344:    d027        '.      BEQ      0x396 ; __printf + 142
        0x00000346:    3e30        0>      SUBS     r6,r6,#0x30
        0x00000348:    00b8        ..      LSLS     r0,r7,#2
        0x0000034a:    1900        ..      ADDS     r0,r0,r4
        0x0000034c:    9000        ..      STR      r0,[sp,#0]
        0x0000034e:    6186        .a      STR      r6,[r0,#0x18]
        0x00000350:    e019        ..      B        0x386 ; __printf + 126
        0x00000352:    9802        ..      LDR      r0,[sp,#8]
        0x00000354:    00ba        ..      LSLS     r2,r7,#2
        0x00000356:    1912        ..      ADDS     r2,r2,r4
        0x00000358:    c802        ..      LDM      r0!,{r1}
        0x0000035a:    6191        .a      STR      r1,[r2,#0x18]
        0x0000035c:    9002        ..      STR      r0,[sp,#8]
        0x0000035e:    4620         F      MOV      r0,r4
        0x00000360:    68e1        .h      LDR      r1,[r4,#0xc]
        0x00000362:    4788        .G      BLX      r1
        0x00000364:    2f01        ./      CMP      r7,#1
        0x00000366:    4606        .F      MOV      r6,r0
        0x00000368:    d117        ..      BNE      0x39a ; __printf + 146
        0x0000036a:    69e0        .i      LDR      r0,[r4,#0x1c]
        0x0000036c:    2800        .(      CMP      r0,#0
        0x0000036e:    da1f        ..      BGE      0x3b0 ; __printf + 168
        0x00000370:    2020                MOVS     r0,#0x20
        0x00000372:    4385        .C      BICS     r5,r5,r0
        0x00000374:    e01c        ..      B        0x3b0 ; __printf + 168
        0x00000376:    9800        ..      LDR      r0,[sp,#0]
        0x00000378:    210a        .!      MOVS     r1,#0xa
        0x0000037a:    6980        .i      LDR      r0,[r0,#0x18]
        0x0000037c:    4348        HC      MULS     r0,r1,r0
        0x0000037e:    9900        ..      LDR      r1,[sp,#0]
        0x00000380:    1980        ..      ADDS     r0,r0,r6
        0x00000382:    3830        08      SUBS     r0,r0,#0x30
        0x00000384:    6188        .a      STR      r0,[r1,#0x18]
        0x00000386:    4620         F      MOV      r0,r4
        0x00000388:    68e1        .h      LDR      r1,[r4,#0xc]
        0x0000038a:    4788        .G      BLX      r1
        0x0000038c:    4606        .F      MOV      r6,r0
        0x0000038e:    f001f913    ....    BL       _is_digit ; 0x15b8
        0x00000392:    2800        .(      CMP      r0,#0
        0x00000394:    d1ef        ..      BNE      0x376 ; __printf + 110
        0x00000396:    2f01        ./      CMP      r7,#1
        0x00000398:    d00a        ..      BEQ      0x3b0 ; __printf + 168
        0x0000039a:    2e2e        ..      CMP      r6,#0x2e
        0x0000039c:    d108        ..      BNE      0x3b0 ; __printf + 168
        0x0000039e:    4620         F      MOV      r0,r4
        0x000003a0:    68e1        .h      LDR      r1,[r4,#0xc]
        0x000003a2:    4788        .G      BLX      r1
        0x000003a4:    4606        .F      MOV      r6,r0
        0x000003a6:    2020                MOVS     r0,#0x20
        0x000003a8:    4305        .C      ORRS     r5,r5,r0
        0x000003aa:    1c7f        ..      ADDS     r7,r7,#1
        0x000003ac:    2f02        ./      CMP      r7,#2
        0x000003ae:    dbc3        ..      BLT      0x338 ; __printf + 48
        0x000003b0:    69a0        .i      LDR      r0,[r4,#0x18]
        0x000003b2:    2800        .(      CMP      r0,#0
        0x000003b4:    da03        ..      BGE      0x3be ; __printf + 182
        0x000003b6:    4240        @B      RSBS     r0,r0,#0
        0x000003b8:    61a0        .a      STR      r0,[r4,#0x18]
        0x000003ba:    2001        .       MOVS     r0,#1
        0x000003bc:    4305        .C      ORRS     r5,r5,r0
        0x000003be:    07e8        ..      LSLS     r0,r5,#31
        0x000003c0:    d001        ..      BEQ      0x3c6 ; __printf + 190
        0x000003c2:    2010        .       MOVS     r0,#0x10
        0x000003c4:    4385        .C      BICS     r5,r5,r0
        0x000003c6:    2e00        ..      CMP      r6,#0
        0x000003c8:    d024        $.      BEQ      0x414 ; __printf + 268
        0x000003ca:    4630        0F      MOV      r0,r6
        0x000003cc:    3841        A8      SUBS     r0,r0,#0x41
        0x000003ce:    2819        .(      CMP      r0,#0x19
        0x000003d0:    d803        ..      BHI      0x3da ; __printf + 210
        0x000003d2:    2001        .       MOVS     r0,#1
        0x000003d4:    02c0        ..      LSLS     r0,r0,#11
        0x000003d6:    4305        .C      ORRS     r5,r5,r0
        0x000003d8:    3620         6      ADDS     r6,r6,#0x20
        0x000003da:    4620         F      MOV      r0,r4
        0x000003dc:    6025        %`      STR      r5,[r4,#0]
        0x000003de:    4631        1F      MOV      r1,r6
        0x000003e0:    9a02        ..      LDR      r2,[sp,#8]
        0x000003e2:    4615        .F      MOV      r5,r2
        0x000003e4:    f7fffeaa    ....    BL       _printf_percent ; 0x13c
        0x000003e8:    2800        .(      CMP      r0,#0
        0x000003ea:    d00b        ..      BEQ      0x404 ; __printf + 252
        0x000003ec:    2801        .(      CMP      r0,#1
        0x000003ee:    d006        ..      BEQ      0x3fe ; __printf + 246
        0x000003f0:    1ded        ..      ADDS     r5,r5,#7
        0x000003f2:    08e8        ..      LSRS     r0,r5,#3
        0x000003f4:    00c0        ..      LSLS     r0,r0,#3
        0x000003f6:    3008        .0      ADDS     r0,r0,#8
        0x000003f8:    9002        ..      STR      r0,[sp,#8]
        0x000003fa:    e78a        ..      B        0x312 ; __printf + 10
        0x000003fc:    e00a        ..      B        0x414 ; __printf + 268
        0x000003fe:    1d2d        -.      ADDS     r5,r5,#4
        0x00000400:    9502        ..      STR      r5,[sp,#8]
        0x00000402:    e786        ..      B        0x312 ; __printf + 10
        0x00000404:    6862        bh      LDR      r2,[r4,#4]
        0x00000406:    4630        0F      MOV      r0,r6
        0x00000408:    68a1        .h      LDR      r1,[r4,#8]
        0x0000040a:    4790        .G      BLX      r2
        0x0000040c:    6a20         j      LDR      r0,[r4,#0x20]
        0x0000040e:    1c40        @.      ADDS     r0,r0,#1
        0x00000410:    6220         b      STR      r0,[r4,#0x20]
        0x00000412:    e77e        ~.      B        0x312 ; __printf + 10
        0x00000414:    6a20         j      LDR      r0,[r4,#0x20]
        0x00000416:    bdfe        ..      POP      {r1-r7,pc}
    .text
    __aeabi_uidiv
    __aeabi_uidivmod
        0x00000418:    2200        ."      MOVS     r2,#0
        0x0000041a:    0903        ..      LSRS     r3,r0,#4
        0x0000041c:    428b        .B      CMP      r3,r1
        0x0000041e:    d32c        ,.      BCC      0x47a ; __aeabi_idiv + 78
        0x00000420:    0a03        ..      LSRS     r3,r0,#8
        0x00000422:    428b        .B      CMP      r3,r1
        0x00000424:    d311        ..      BCC      0x44a ; __aeabi_idiv + 30
        0x00000426:    2300        .#      MOVS     r3,#0
        0x00000428:    469c        .F      MOV      r12,r3
        0x0000042a:    e04e        N.      B        0x4ca ; __aeabi_idiv + 158
    __aeabi_idiv
    __aeabi_idivmod
        0x0000042c:    4603        .F      MOV      r3,r0
        0x0000042e:    430b        .C      ORRS     r3,r3,r1
        0x00000430:    d43c        <.      BMI      0x4ac ; __aeabi_idiv + 128
        0x00000432:    2200        ."      MOVS     r2,#0
        0x00000434:    0843        C.      LSRS     r3,r0,#1
        0x00000436:    428b        .B      CMP      r3,r1
        0x00000438:    d331        1.      BCC      0x49e ; __aeabi_idiv + 114
        0x0000043a:    0903        ..      LSRS     r3,r0,#4
        0x0000043c:    428b        .B      CMP      r3,r1
        0x0000043e:    d31c        ..      BCC      0x47a ; __aeabi_idiv + 78
        0x00000440:    0a03        ..      LSRS     r3,r0,#8
        0x00000442:    428b        .B      CMP      r3,r1
        0x00000444:    d301        ..      BCC      0x44a ; __aeabi_idiv + 30
        0x00000446:    4694        .F      MOV      r12,r2
        0x00000448:    e03f        ?.      B        0x4ca ; __aeabi_idiv + 158
        0x0000044a:    09c3        ..      LSRS     r3,r0,#7
        0x0000044c:    428b        .B      CMP      r3,r1
        0x0000044e:    d301        ..      BCC      0x454 ; __aeabi_idiv + 40
        0x00000450:    01cb        ..      LSLS     r3,r1,#7
        0x00000452:    1ac0        ..      SUBS     r0,r0,r3
        0x00000454:    4152        RA      ADCS     r2,r2,r2
        0x00000456:    0983        ..      LSRS     r3,r0,#6
        0x00000458:    428b        .B      CMP      r3,r1
        0x0000045a:    d301        ..      BCC      0x460 ; __aeabi_idiv + 52
        0x0000045c:    018b        ..      LSLS     r3,r1,#6
        0x0000045e:    1ac0        ..      SUBS     r0,r0,r3
        0x00000460:    4152        RA      ADCS     r2,r2,r2
        0x00000462:    0943        C.      LSRS     r3,r0,#5
        0x00000464:    428b        .B      CMP      r3,r1
        0x00000466:    d301        ..      BCC      0x46c ; __aeabi_idiv + 64
        0x00000468:    014b        K.      LSLS     r3,r1,#5
        0x0000046a:    1ac0        ..      SUBS     r0,r0,r3
        0x0000046c:    4152        RA      ADCS     r2,r2,r2
        0x0000046e:    0903        ..      LSRS     r3,r0,#4
        0x00000470:    428b        .B      CMP      r3,r1
        0x00000472:    d301        ..      BCC      0x478 ; __aeabi_idiv + 76
        0x00000474:    010b        ..      LSLS     r3,r1,#4
        0x00000476:    1ac0        ..      SUBS     r0,r0,r3
        0x00000478:    4152        RA      ADCS     r2,r2,r2
        0x0000047a:    08c3        ..      LSRS     r3,r0,#3
        0x0000047c:    428b        .B      CMP      r3,r1
        0x0000047e:    d301        ..      BCC      0x484 ; __aeabi_idiv + 88
        0x00000480:    00cb        ..      LSLS     r3,r1,#3
        0x00000482:    1ac0        ..      SUBS     r0,r0,r3
        0x00000484:    4152        RA      ADCS     r2,r2,r2
        0x00000486:    0883        ..      LSRS     r3,r0,#2
        0x00000488:    428b        .B      CMP      r3,r1
        0x0000048a:    d301        ..      BCC      0x490 ; __aeabi_idiv + 100
        0x0000048c:    008b        ..      LSLS     r3,r1,#2
        0x0000048e:    1ac0        ..      SUBS     r0,r0,r3
        0x00000490:    4152        RA      ADCS     r2,r2,r2
        0x00000492:    0843        C.      LSRS     r3,r0,#1
        0x00000494:    428b        .B      CMP      r3,r1
        0x00000496:    d301        ..      BCC      0x49c ; __aeabi_idiv + 112
        0x00000498:    004b        K.      LSLS     r3,r1,#1
        0x0000049a:    1ac0        ..      SUBS     r0,r0,r3
        0x0000049c:    4152        RA      ADCS     r2,r2,r2
        0x0000049e:    1a41        A.      SUBS     r1,r0,r1
        0x000004a0:    d200        ..      BCS      0x4a4 ; __aeabi_idiv + 120
        0x000004a2:    4601        .F      MOV      r1,r0
        0x000004a4:    4152        RA      ADCS     r2,r2,r2
        0x000004a6:    4610        .F      MOV      r0,r2
        0x000004a8:    4770        pG      BX       lr
        0x000004aa:    e05d        ].      B        0x568 ; __aeabi_idiv + 316
        0x000004ac:    0fca        ..      LSRS     r2,r1,#31
        0x000004ae:    d000        ..      BEQ      0x4b2 ; __aeabi_idiv + 134
        0x000004b0:    4249        IB      RSBS     r1,r1,#0
        0x000004b2:    1003        ..      ASRS     r3,r0,#32
        0x000004b4:    d300        ..      BCC      0x4b8 ; __aeabi_idiv + 140
        0x000004b6:    4240        @B      RSBS     r0,r0,#0
        0x000004b8:    4053        S@      EORS     r3,r3,r2
        0x000004ba:    2200        ."      MOVS     r2,#0
        0x000004bc:    469c        .F      MOV      r12,r3
        0x000004be:    0903        ..      LSRS     r3,r0,#4
        0x000004c0:    428b        .B      CMP      r3,r1
        0x000004c2:    d32d        -.      BCC      0x520 ; __aeabi_idiv + 244
        0x000004c4:    0a03        ..      LSRS     r3,r0,#8
        0x000004c6:    428b        .B      CMP      r3,r1
        0x000004c8:    d312        ..      BCC      0x4f0 ; __aeabi_idiv + 196
        0x000004ca:    22fc        ."      MOVS     r2,#0xfc
        0x000004cc:    0189        ..      LSLS     r1,r1,#6
        0x000004ce:    ba12        ..      REV      r2,r2
        0x000004d0:    0a03        ..      LSRS     r3,r0,#8
        0x000004d2:    428b        .B      CMP      r3,r1
        0x000004d4:    d30c        ..      BCC      0x4f0 ; __aeabi_idiv + 196
        0x000004d6:    0189        ..      LSLS     r1,r1,#6
        0x000004d8:    1192        ..      ASRS     r2,r2,#6
        0x000004da:    428b        .B      CMP      r3,r1
        0x000004dc:    d308        ..      BCC      0x4f0 ; __aeabi_idiv + 196
        0x000004de:    0189        ..      LSLS     r1,r1,#6
        0x000004e0:    1192        ..      ASRS     r2,r2,#6
        0x000004e2:    428b        .B      CMP      r3,r1
        0x000004e4:    d304        ..      BCC      0x4f0 ; __aeabi_idiv + 196
        0x000004e6:    0189        ..      LSLS     r1,r1,#6
        0x000004e8:    d03a        :.      BEQ      0x560 ; __aeabi_idiv + 308
        0x000004ea:    1192        ..      ASRS     r2,r2,#6
        0x000004ec:    e000        ..      B        0x4f0 ; __aeabi_idiv + 196
        0x000004ee:    0989        ..      LSRS     r1,r1,#6
        0x000004f0:    09c3        ..      LSRS     r3,r0,#7
        0x000004f2:    428b        .B      CMP      r3,r1
        0x000004f4:    d301        ..      BCC      0x4fa ; __aeabi_idiv + 206
        0x000004f6:    01cb        ..      LSLS     r3,r1,#7
        0x000004f8:    1ac0        ..      SUBS     r0,r0,r3
        0x000004fa:    4152        RA      ADCS     r2,r2,r2
        0x000004fc:    0983        ..      LSRS     r3,r0,#6
        0x000004fe:    428b        .B      CMP      r3,r1
        0x00000500:    d301        ..      BCC      0x506 ; __aeabi_idiv + 218
        0x00000502:    018b        ..      LSLS     r3,r1,#6
        0x00000504:    1ac0        ..      SUBS     r0,r0,r3
        0x00000506:    4152        RA      ADCS     r2,r2,r2
        0x00000508:    0943        C.      LSRS     r3,r0,#5
        0x0000050a:    428b        .B      CMP      r3,r1
        0x0000050c:    d301        ..      BCC      0x512 ; __aeabi_idiv + 230
        0x0000050e:    014b        K.      LSLS     r3,r1,#5
        0x00000510:    1ac0        ..      SUBS     r0,r0,r3
        0x00000512:    4152        RA      ADCS     r2,r2,r2
        0x00000514:    0903        ..      LSRS     r3,r0,#4
        0x00000516:    428b        .B      CMP      r3,r1
        0x00000518:    d301        ..      BCC      0x51e ; __aeabi_idiv + 242
        0x0000051a:    010b        ..      LSLS     r3,r1,#4
        0x0000051c:    1ac0        ..      SUBS     r0,r0,r3
        0x0000051e:    4152        RA      ADCS     r2,r2,r2
        0x00000520:    08c3        ..      LSRS     r3,r0,#3
        0x00000522:    428b        .B      CMP      r3,r1
        0x00000524:    d301        ..      BCC      0x52a ; __aeabi_idiv + 254
        0x00000526:    00cb        ..      LSLS     r3,r1,#3
        0x00000528:    1ac0        ..      SUBS     r0,r0,r3
        0x0000052a:    4152        RA      ADCS     r2,r2,r2
        0x0000052c:    0883        ..      LSRS     r3,r0,#2
        0x0000052e:    428b        .B      CMP      r3,r1
        0x00000530:    d301        ..      BCC      0x536 ; __aeabi_idiv + 266
        0x00000532:    008b        ..      LSLS     r3,r1,#2
        0x00000534:    1ac0        ..      SUBS     r0,r0,r3
        0x00000536:    4152        RA      ADCS     r2,r2,r2
        0x00000538:    d2d9        ..      BCS      0x4ee ; __aeabi_idiv + 194
        0x0000053a:    0843        C.      LSRS     r3,r0,#1
        0x0000053c:    428b        .B      CMP      r3,r1
        0x0000053e:    d301        ..      BCC      0x544 ; __aeabi_idiv + 280
        0x00000540:    004b        K.      LSLS     r3,r1,#1
        0x00000542:    1ac0        ..      SUBS     r0,r0,r3
        0x00000544:    4152        RA      ADCS     r2,r2,r2
        0x00000546:    1a41        A.      SUBS     r1,r0,r1
        0x00000548:    d200        ..      BCS      0x54c ; __aeabi_idiv + 288
        0x0000054a:    4601        .F      MOV      r1,r0
        0x0000054c:    4663        cF      MOV      r3,r12
        0x0000054e:    4152        RA      ADCS     r2,r2,r2
        0x00000550:    105b        [.      ASRS     r3,r3,#1
        0x00000552:    4610        .F      MOV      r0,r2
        0x00000554:    d301        ..      BCC      0x55a ; __aeabi_idiv + 302
        0x00000556:    4240        @B      RSBS     r0,r0,#0
        0x00000558:    2b00        .+      CMP      r3,#0
        0x0000055a:    d500        ..      BPL      0x55e ; __aeabi_idiv + 306
        0x0000055c:    4249        IB      RSBS     r1,r1,#0
        0x0000055e:    4770        pG      BX       lr
        0x00000560:    4663        cF      MOV      r3,r12
        0x00000562:    105b        [.      ASRS     r3,r3,#1
        0x00000564:    d300        ..      BCC      0x568 ; __aeabi_idiv + 316
        0x00000566:    4240        @B      RSBS     r0,r0,#0
        0x00000568:    b501        ..      PUSH     {r0,lr}
        0x0000056a:    2000        .       MOVS     r0,#0
        0x0000056c:    46c0        .F      MOV      r8,r8
        0x0000056e:    46c0        .F      MOV      r8,r8
        0x00000570:    bd02        ..      POP      {r1,pc}
    .text
    __use_two_region_memory
        0x00000572:    4770        pG      BX       lr
    __rt_heap_escrow$2region
        0x00000574:    4770        pG      BX       lr
    __rt_heap_expand$2region
        0x00000576:    4770        pG      BX       lr
    .text
    _printf_int_common
        0x00000578:    b5ff        ..      PUSH     {r0-r7,lr}
        0x0000057a:    4604        .F      MOV      r4,r0
        0x0000057c:    460d        .F      MOV      r5,r1
        0x0000057e:    b081        ..      SUB      sp,sp,#4
        0x00000580:    3024        $0      ADDS     r0,r0,#0x24
        0x00000582:    9000        ..      STR      r0,[sp,#0]
        0x00000584:    6821        !h      LDR      r1,[r4,#0]
        0x00000586:    0688        ..      LSLS     r0,r1,#26
        0x00000588:    d504        ..      BPL      0x594 ; _printf_int_common + 28
        0x0000058a:    2210        ."      MOVS     r2,#0x10
        0x0000058c:    69e0        .i      LDR      r0,[r4,#0x1c]
        0x0000058e:    4391        .C      BICS     r1,r1,r2
        0x00000590:    6021        !`      STR      r1,[r4,#0]
        0x00000592:    e000        ..      B        0x596 ; _printf_int_common + 30
        0x00000594:    2001        .       MOVS     r0,#1
        0x00000596:    42a8        .B      CMP      r0,r5
        0x00000598:    dd01        ..      BLE      0x59e ; _printf_int_common + 38
        0x0000059a:    1b47        G.      SUBS     r7,r0,r5
        0x0000059c:    e000        ..      B        0x5a0 ; _printf_int_common + 40
        0x0000059e:    2700        .'      MOVS     r7,#0
        0x000005a0:    9804        ..      LDR      r0,[sp,#0x10]
        0x000005a2:    69a1        .i      LDR      r1,[r4,#0x18]
        0x000005a4:    197a        z.      ADDS     r2,r7,r5
        0x000005a6:    1810        ..      ADDS     r0,r2,r0
        0x000005a8:    1a08        ..      SUBS     r0,r1,r0
        0x000005aa:    61a0        .a      STR      r0,[r4,#0x18]
        0x000005ac:    6820         h      LDR      r0,[r4,#0]
        0x000005ae:    06c0        ..      LSLS     r0,r0,#27
        0x000005b0:    d402        ..      BMI      0x5b8 ; _printf_int_common + 64
        0x000005b2:    4620         F      MOV      r0,r4
        0x000005b4:    46c0        .F      MOV      r8,r8
        0x000005b6:    46c0        .F      MOV      r8,r8
        0x000005b8:    2600        .&      MOVS     r6,#0
        0x000005ba:    e008        ..      B        0x5ce ; _printf_int_common + 86
        0x000005bc:    9803        ..      LDR      r0,[sp,#0xc]
        0x000005be:    6862        bh      LDR      r2,[r4,#4]
        0x000005c0:    68a1        .h      LDR      r1,[r4,#8]
        0x000005c2:    5d80        .]      LDRB     r0,[r0,r6]
        0x000005c4:    4790        .G      BLX      r2
        0x000005c6:    6a20         j      LDR      r0,[r4,#0x20]
        0x000005c8:    1c40        @.      ADDS     r0,r0,#1
        0x000005ca:    1c76        v.      ADDS     r6,r6,#1
        0x000005cc:    6220         b      STR      r0,[r4,#0x20]
        0x000005ce:    9804        ..      LDR      r0,[sp,#0x10]
        0x000005d0:    4286        .B      CMP      r6,r0
        0x000005d2:    dbf3        ..      BLT      0x5bc ; _printf_int_common + 68
        0x000005d4:    6820         h      LDR      r0,[r4,#0]
        0x000005d6:    06c0        ..      LSLS     r0,r0,#27
        0x000005d8:    d50a        ..      BPL      0x5f0 ; _printf_int_common + 120
        0x000005da:    4620         F      MOV      r0,r4
        0x000005dc:    46c0        .F      MOV      r8,r8
        0x000005de:    46c0        .F      MOV      r8,r8
        0x000005e0:    e006        ..      B        0x5f0 ; _printf_int_common + 120
        0x000005e2:    6862        bh      LDR      r2,[r4,#4]
        0x000005e4:    68a1        .h      LDR      r1,[r4,#8]
        0x000005e6:    2030        0       MOVS     r0,#0x30
        0x000005e8:    4790        .G      BLX      r2
        0x000005ea:    6a20         j      LDR      r0,[r4,#0x20]
        0x000005ec:    1c40        @.      ADDS     r0,r0,#1
        0x000005ee:    6220         b      STR      r0,[r4,#0x20]
        0x000005f0:    4638        8F      MOV      r0,r7
        0x000005f2:    1e7f        ..      SUBS     r7,r7,#1
        0x000005f4:    2800        .(      CMP      r0,#0
        0x000005f6:    dcf4        ..      BGT      0x5e2 ; _printf_int_common + 106
        0x000005f8:    e007        ..      B        0x60a ; _printf_int_common + 146
        0x000005fa:    9800        ..      LDR      r0,[sp,#0]
        0x000005fc:    6862        bh      LDR      r2,[r4,#4]
        0x000005fe:    68a1        .h      LDR      r1,[r4,#8]
        0x00000600:    5d40        @]      LDRB     r0,[r0,r5]
        0x00000602:    4790        .G      BLX      r2
        0x00000604:    6a20         j      LDR      r0,[r4,#0x20]
        0x00000606:    1c40        @.      ADDS     r0,r0,#1
        0x00000608:    6220         b      STR      r0,[r4,#0x20]
        0x0000060a:    4628        (F      MOV      r0,r5
        0x0000060c:    1e6d        m.      SUBS     r5,r5,#1
        0x0000060e:    2800        .(      CMP      r0,#0
        0x00000610:    dcf3        ..      BGT      0x5fa ; _printf_int_common + 130
        0x00000612:    4620         F      MOV      r0,r4
        0x00000614:    46c0        .F      MOV      r8,r8
        0x00000616:    46c0        .F      MOV      r8,r8
        0x00000618:    6820         h      LDR      r0,[r4,#0]
        0x0000061a:    0600        ..      LSLS     r0,r0,#24
        0x0000061c:    d502        ..      BPL      0x624 ; _printf_int_common + 172
        0x0000061e:    2002        .       MOVS     r0,#2
        0x00000620:    b005        ..      ADD      sp,sp,#0x14
        0x00000622:    bdf0        ..      POP      {r4-r7,pc}
        0x00000624:    2001        .       MOVS     r0,#1
        0x00000626:    e7fb        ..      B        0x620 ; _printf_int_common + 168
    .text
    _printf_input_char
        0x00000628:    6901        .i      LDR      r1,[r0,#0x10]
        0x0000062a:    1c4a        J.      ADDS     r2,r1,#1
        0x0000062c:    6102        .a      STR      r2,[r0,#0x10]
        0x0000062e:    7808        .x      LDRB     r0,[r1,#0]
        0x00000630:    4770        pG      BX       lr
    _printf_char_common
        0x00000632:    b500        ..      PUSH     {lr}
        0x00000634:    b08f        ..      SUB      sp,sp,#0x3c
        0x00000636:    9102        ..      STR      r1,[sp,#8]
        0x00000638:    2100        .!      MOVS     r1,#0
        0x0000063a:    9105        ..      STR      r1,[sp,#0x14]
        0x0000063c:    4905        .I      LDR      r1,[pc,#20] ; [0x654] = 0xffffffe5
        0x0000063e:    9301        ..      STR      r3,[sp,#4]
        0x00000640:    4479        yD      ADD      r1,r1,pc
        0x00000642:    9103        ..      STR      r1,[sp,#0xc]
        0x00000644:    4611        .F      MOV      r1,r2
        0x00000646:    9004        ..      STR      r0,[sp,#0x10]
        0x00000648:    4668        hF      MOV      r0,sp
        0x0000064a:    f7fffe5d    ..].    BL       __printf ; 0x308
        0x0000064e:    b00f        ..      ADD      sp,sp,#0x3c
        0x00000650:    bd00        ..      POP      {pc}
    $d
        0x00000652:    0000        ..      DCW    0
        0x00000654:    ffffffe5    ....    DCD    4294967269
    $t
    .text
    _sputc
        0x00000658:    680a        .h      LDR      r2,[r1,#0]
        0x0000065a:    7010        .p      STRB     r0,[r2,#0]
        0x0000065c:    1c52        R.      ADDS     r2,r2,#1
        0x0000065e:    600a        .`      STR      r2,[r1,#0]
        0x00000660:    4770        pG      BX       lr
    .text
    __rt_udiv10
        0x00000662:    4601        .F      MOV      r1,r0
        0x00000664:    0880        ..      LSRS     r0,r0,#2
        0x00000666:    1a08        ..      SUBS     r0,r1,r0
        0x00000668:    0902        ..      LSRS     r2,r0,#4
        0x0000066a:    1810        ..      ADDS     r0,r2,r0
        0x0000066c:    0a02        ..      LSRS     r2,r0,#8
        0x0000066e:    1810        ..      ADDS     r0,r2,r0
        0x00000670:    0c02        ..      LSRS     r2,r0,#16
        0x00000672:    1810        ..      ADDS     r0,r2,r0
        0x00000674:    08c0        ..      LSRS     r0,r0,#3
        0x00000676:    0082        ..      LSLS     r2,r0,#2
        0x00000678:    1812        ..      ADDS     r2,r2,r0
        0x0000067a:    0052        R.      LSLS     r2,r2,#1
        0x0000067c:    1a89        ..      SUBS     r1,r1,r2
        0x0000067e:    e001        ..      B        0x684 ; __rt_udiv10 + 34
        0x00000680:    390a        .9      SUBS     r1,r1,#0xa
        0x00000682:    1c40        @.      ADDS     r0,r0,#1
        0x00000684:    290a        .)      CMP      r1,#0xa
        0x00000686:    d2fb        ..      BCS      0x680 ; __rt_udiv10 + 30
        0x00000688:    4770        pG      BX       lr
    .text
    __user_setup_stackheap
        0x0000068a:    4675        uF      MOV      r5,lr
        0x0000068c:    f000f822    ..".    BL       __user_libspace ; 0x6d4
        0x00000690:    46ae        .F      MOV      lr,r5
        0x00000692:    0005        ..      MOVS     r5,r0
        0x00000694:    4669        iF      MOV      r1,sp
        0x00000696:    4653        SF      MOV      r3,r10
        0x00000698:    08c0        ..      LSRS     r0,r0,#3
        0x0000069a:    00c0        ..      LSLS     r0,r0,#3
        0x0000069c:    4685        .F      MOV      sp,r0
        0x0000069e:    b018        ..      ADD      sp,sp,#0x60
        0x000006a0:    b520         .      PUSH     {r5,lr}
        0x000006a2:    f7fffd9f    ....    BL       __user_initial_stackheap ; 0x1e4
        0x000006a6:    bc60        `.      POP      {r5,r6}
        0x000006a8:    2700        .'      MOVS     r7,#0
        0x000006aa:    0849        I.      LSRS     r1,r1,#1
        0x000006ac:    46b6        .F      MOV      lr,r6
        0x000006ae:    2600        .&      MOVS     r6,#0
        0x000006b0:    c5c0        ..      STM      r5!,{r6,r7}
        0x000006b2:    c5c0        ..      STM      r5!,{r6,r7}
        0x000006b4:    c5c0        ..      STM      r5!,{r6,r7}
        0x000006b6:    c5c0        ..      STM      r5!,{r6,r7}
        0x000006b8:    c5c0        ..      STM      r5!,{r6,r7}
        0x000006ba:    c5c0        ..      STM      r5!,{r6,r7}
        0x000006bc:    c5c0        ..      STM      r5!,{r6,r7}
        0x000006be:    c5c0        ..      STM      r5!,{r6,r7}
        0x000006c0:    3d40        @=      SUBS     r5,r5,#0x40
        0x000006c2:    0049        I.      LSLS     r1,r1,#1
        0x000006c4:    468d        .F      MOV      sp,r1
        0x000006c6:    4770        pG      BX       lr
    .text
    exit
        0x000006c8:    4604        .F      MOV      r4,r0
        0x000006ca:    46c0        .F      MOV      r8,r8
        0x000006cc:    46c0        .F      MOV      r8,r8
        0x000006ce:    4620         F      MOV      r0,r4
        0x000006d0:    f7fffd50    ..P.    BL       __rt_exit ; 0x174
    .text
    __user_libspace
    __user_perproc_libspace
    __user_perthread_libspace
        0x000006d4:    4800        .H      LDR      r0,[pc,#0] ; [0x6d8] = 0x200006ac
        0x000006d6:    4770        pG      BX       lr
    $d
        0x000006d8:    200006ac    ...     DCD    536872620
    $t
    .text
    _sys_exit
        0x000006dc:    4901        .I      LDR      r1,[pc,#4] ; [0x6e4] = 0x20026
        0x000006de:    2018        .       MOVS     r0,#0x18
        0x000006e0:    beab        ..      BKPT     #0xab
        0x000006e2:    e7fe        ..      B        0x6e2 ; _sys_exit + 6
    $d
        0x000006e4:    00020026    &...    DCD    131110
    $t
    .text
    __I$use$semihosting
    __use_no_semihosting_swi
        0x000006e8:    4770        pG      BX       lr
    .text
    __semihosting_library_function
        0x000006ea:    0000        ..      MOVS     r0,r0
    i.BOD_IRQHandler
    BOD_IRQHandler
        0x000006ec:    b510        ..      PUSH     {r4,lr}
        0x000006ee:    2005        .       MOVS     r0,#5
        0x000006f0:    0700        ..      LSLS     r0,r0,#28
        0x000006f2:    6980        .i      LDR      r0,[r0,#0x18]
        0x000006f4:    2110        .!      MOVS     r1,#0x10
        0x000006f6:    4388        .C      BICS     r0,r0,r1
        0x000006f8:    3010        .0      ADDS     r0,r0,#0x10
        0x000006fa:    2105        .!      MOVS     r1,#5
        0x000006fc:    0709        ..      LSLS     r1,r1,#28
        0x000006fe:    6188        .a      STR      r0,[r1,#0x18]
        0x00000700:    4803        .H      LDR      r0,[pc,#12] ; [0x710] = 0x20000638
        0x00000702:    6800        .h      LDR      r0,[r0,#0]
        0x00000704:    2800        .(      CMP      r0,#0
        0x00000706:    d002        ..      BEQ      0x70e ; BOD_IRQHandler + 34
        0x00000708:    4801        .H      LDR      r0,[pc,#4] ; [0x710] = 0x20000638
        0x0000070a:    6800        .h      LDR      r0,[r0,#0]
        0x0000070c:    4780        .G      BLX      r0
        0x0000070e:    bd10        ..      POP      {r4,pc}
    $d
        0x00000710:    20000638    8..     DCD    536872504
    $t
    i.DrvGPIO_ClrBit
    DrvGPIO_ClrBit
        0x00000714:    b510        ..      PUSH     {r4,lr}
        0x00000716:    4603        .F      MOV      r3,r0
        0x00000718:    2900        .)      CMP      r1,#0
        0x0000071a:    db01        ..      BLT      0x720 ; DrvGPIO_ClrBit + 12
        0x0000071c:    2910        .)      CMP      r1,#0x10
        0x0000071e:    dd01        ..      BLE      0x724 ; DrvGPIO_ClrBit + 16
        0x00000720:    4805        .H      LDR      r0,[pc,#20] ; [0x738] = 0xffff8901
        0x00000722:    bd10        ..      POP      {r4,pc}
        0x00000724:    0198        ..      LSLS     r0,r3,#6
        0x00000726:    4c05        .L      LDR      r4,[pc,#20] ; [0x73c] = 0x50004000
        0x00000728:    1902        ..      ADDS     r2,r0,r4
        0x0000072a:    6890        .h      LDR      r0,[r2,#8]
        0x0000072c:    2401        .$      MOVS     r4,#1
        0x0000072e:    408c        .@      LSLS     r4,r4,r1
        0x00000730:    43a0        .C      BICS     r0,r0,r4
        0x00000732:    6090        .`      STR      r0,[r2,#8]
        0x00000734:    2000        .       MOVS     r0,#0
        0x00000736:    e7f4        ..      B        0x722 ; DrvGPIO_ClrBit + 14
    $d
        0x00000738:    ffff8901    ....    DCD    4294936833
        0x0000073c:    50004000    .@.P    DCD    1342193664
    $t
    i.DrvGPIO_GetBit
    DrvGPIO_GetBit
        0x00000740:    b510        ..      PUSH     {r4,lr}
        0x00000742:    4602        .F      MOV      r2,r0
        0x00000744:    2900        .)      CMP      r1,#0
        0x00000746:    db01        ..      BLT      0x74c ; DrvGPIO_GetBit + 12
        0x00000748:    2910        .)      CMP      r1,#0x10
        0x0000074a:    dd01        ..      BLE      0x750 ; DrvGPIO_GetBit + 16
        0x0000074c:    4804        .H      LDR      r0,[pc,#16] ; [0x760] = 0xffff8901
        0x0000074e:    bd10        ..      POP      {r4,pc}
        0x00000750:    4804        .H      LDR      r0,[pc,#16] ; [0x764] = 0x50004010
        0x00000752:    0194        ..      LSLS     r4,r2,#6
        0x00000754:    1903        ..      ADDS     r3,r0,r4
        0x00000756:    6818        .h      LDR      r0,[r3,#0]
        0x00000758:    40c8        .@      LSRS     r0,r0,r1
        0x0000075a:    07c0        ..      LSLS     r0,r0,#31
        0x0000075c:    0fc0        ..      LSRS     r0,r0,#31
        0x0000075e:    e7f6        ..      B        0x74e ; DrvGPIO_GetBit + 14
    $d
        0x00000760:    ffff8901    ....    DCD    4294936833
        0x00000764:    50004010    .@.P    DCD    1342193680
    $t
    i.DrvGPIO_Open
    DrvGPIO_Open
        0x00000768:    b570        p.      PUSH     {r4-r6,lr}
        0x0000076a:    4604        .F      MOV      r4,r0
        0x0000076c:    460b        .F      MOV      r3,r1
        0x0000076e:    2b00        .+      CMP      r3,#0
        0x00000770:    db01        ..      BLT      0x776 ; DrvGPIO_Open + 14
        0x00000772:    2b10        .+      CMP      r3,#0x10
        0x00000774:    dd01        ..      BLE      0x77a ; DrvGPIO_Open + 18
        0x00000776:    4818        .H      LDR      r0,[pc,#96] ; [0x7d8] = 0xffff8901
        0x00000778:    bd70        p.      POP      {r4-r6,pc}
        0x0000077a:    01a0        ..      LSLS     r0,r4,#6
        0x0000077c:    4d17        .M      LDR      r5,[pc,#92] ; [0x7dc] = 0x50004000
        0x0000077e:    1941        A.      ADDS     r1,r0,r5
        0x00000780:    2a00        .*      CMP      r2,#0
        0x00000782:    d003        ..      BEQ      0x78c ; DrvGPIO_Open + 36
        0x00000784:    2a01        .*      CMP      r2,#1
        0x00000786:    d001        ..      BEQ      0x78c ; DrvGPIO_Open + 36
        0x00000788:    2a02        .*      CMP      r2,#2
        0x0000078a:    d117        ..      BNE      0x7bc ; DrvGPIO_Open + 84
        0x0000078c:    6808        .h      LDR      r0,[r1,#0]
        0x0000078e:    005e        ^.      LSLS     r6,r3,#1
        0x00000790:    2503        .%      MOVS     r5,#3
        0x00000792:    40b5        .@      LSLS     r5,r5,r6
        0x00000794:    43a8        .C      BICS     r0,r0,r5
        0x00000796:    6008        .`      STR      r0,[r1,#0]
        0x00000798:    2a01        .*      CMP      r2,#1
        0x0000079a:    d106        ..      BNE      0x7aa ; DrvGPIO_Open + 66
        0x0000079c:    6808        .h      LDR      r0,[r1,#0]
        0x0000079e:    005e        ^.      LSLS     r6,r3,#1
        0x000007a0:    2501        .%      MOVS     r5,#1
        0x000007a2:    40b5        .@      LSLS     r5,r5,r6
        0x000007a4:    4328        (C      ORRS     r0,r0,r5
        0x000007a6:    6008        .`      STR      r0,[r1,#0]
        0x000007a8:    e013        ..      B        0x7d2 ; DrvGPIO_Open + 106
        0x000007aa:    2a02        .*      CMP      r2,#2
        0x000007ac:    d111        ..      BNE      0x7d2 ; DrvGPIO_Open + 106
        0x000007ae:    6808        .h      LDR      r0,[r1,#0]
        0x000007b0:    005e        ^.      LSLS     r6,r3,#1
        0x000007b2:    2502        .%      MOVS     r5,#2
        0x000007b4:    40b5        .@      LSLS     r5,r5,r6
        0x000007b6:    4328        (C      ORRS     r0,r0,r5
        0x000007b8:    6008        .`      STR      r0,[r1,#0]
        0x000007ba:    e00a        ..      B        0x7d2 ; DrvGPIO_Open + 106
        0x000007bc:    2a03        .*      CMP      r2,#3
        0x000007be:    d106        ..      BNE      0x7ce ; DrvGPIO_Open + 102
        0x000007c0:    6808        .h      LDR      r0,[r1,#0]
        0x000007c2:    005e        ^.      LSLS     r6,r3,#1
        0x000007c4:    2503        .%      MOVS     r5,#3
        0x000007c6:    40b5        .@      LSLS     r5,r5,r6
        0x000007c8:    4328        (C      ORRS     r0,r0,r5
        0x000007ca:    6008        .`      STR      r0,[r1,#0]
        0x000007cc:    e001        ..      B        0x7d2 ; DrvGPIO_Open + 106
        0x000007ce:    4802        .H      LDR      r0,[pc,#8] ; [0x7d8] = 0xffff8901
        0x000007d0:    e7d2        ..      B        0x778 ; DrvGPIO_Open + 16
        0x000007d2:    2000        .       MOVS     r0,#0
        0x000007d4:    e7d0        ..      B        0x778 ; DrvGPIO_Open + 16
    $d
        0x000007d6:    0000        ..      DCW    0
        0x000007d8:    ffff8901    ....    DCD    4294936833
        0x000007dc:    50004000    .@.P    DCD    1342193664
    $t
    i.DrvGPIO_SetBit
    DrvGPIO_SetBit
        0x000007e0:    b510        ..      PUSH     {r4,lr}
        0x000007e2:    4603        .F      MOV      r3,r0
        0x000007e4:    2900        .)      CMP      r1,#0
        0x000007e6:    db01        ..      BLT      0x7ec ; DrvGPIO_SetBit + 12
        0x000007e8:    2910        .)      CMP      r1,#0x10
        0x000007ea:    dd01        ..      BLE      0x7f0 ; DrvGPIO_SetBit + 16
        0x000007ec:    4805        .H      LDR      r0,[pc,#20] ; [0x804] = 0xffff8901
        0x000007ee:    bd10        ..      POP      {r4,pc}
        0x000007f0:    0198        ..      LSLS     r0,r3,#6
        0x000007f2:    4c05        .L      LDR      r4,[pc,#20] ; [0x808] = 0x50004000
        0x000007f4:    1902        ..      ADDS     r2,r0,r4
        0x000007f6:    6890        .h      LDR      r0,[r2,#8]
        0x000007f8:    2401        .$      MOVS     r4,#1
        0x000007fa:    408c        .@      LSLS     r4,r4,r1
        0x000007fc:    4320         C      ORRS     r0,r0,r4
        0x000007fe:    6090        .`      STR      r0,[r2,#8]
        0x00000800:    2000        .       MOVS     r0,#0
        0x00000802:    e7f4        ..      B        0x7ee ; DrvGPIO_SetBit + 14
    $d
        0x00000804:    ffff8901    ....    DCD    4294936833
        0x00000808:    50004000    .@.P    DCD    1342193664
    $t
    i.DrvSYS_Delay
    DrvSYS_Delay
        0x0000080c:    4908        .I      LDR      r1,[pc,#32] ; [0x830] = 0x20000004
        0x0000080e:    6809        .h      LDR      r1,[r1,#0]
        0x00000810:    4341        AC      MULS     r1,r0,r1
        0x00000812:    4a08        .J      LDR      r2,[pc,#32] ; [0x834] = 0xe000e000
        0x00000814:    6151        Qa      STR      r1,[r2,#0x14]
        0x00000816:    2100        .!      MOVS     r1,#0
        0x00000818:    6191        .a      STR      r1,[r2,#0x18]
        0x0000081a:    2105        .!      MOVS     r1,#5
        0x0000081c:    6111        .a      STR      r1,[r2,#0x10]
        0x0000081e:    bf00        ..      NOP      
        0x00000820:    4904        .I      LDR      r1,[pc,#16] ; [0x834] = 0xe000e000
        0x00000822:    6909        .i      LDR      r1,[r1,#0x10]
        0x00000824:    2201        ."      MOVS     r2,#1
        0x00000826:    0412        ..      LSLS     r2,r2,#16
        0x00000828:    4211        .B      TST      r1,r2
        0x0000082a:    d0f9        ..      BEQ      0x820 ; DrvSYS_Delay + 20
        0x0000082c:    4770        pG      BX       lr
    $d
        0x0000082e:    0000        ..      DCW    0
        0x00000830:    20000004    ...     DCD    536870916
        0x00000834:    e000e000    ....    DCD    3758153728
    $t
    i.EINT0_IRQHandler
    EINT0_IRQHandler
        0x00000838:    b510        ..      PUSH     {r4,lr}
        0x0000083a:    2001        .       MOVS     r0,#1
        0x0000083c:    0380        ..      LSLS     r0,r0,#14
        0x0000083e:    4905        .I      LDR      r1,[pc,#20] ; [0x854] = 0x50004040
        0x00000840:    6208        .b      STR      r0,[r1,#0x20]
        0x00000842:    4805        .H      LDR      r0,[pc,#20] ; [0x858] = 0x20000654
        0x00000844:    6800        .h      LDR      r0,[r0,#0]
        0x00000846:    2800        .(      CMP      r0,#0
        0x00000848:    d002        ..      BEQ      0x850 ; EINT0_IRQHandler + 24
        0x0000084a:    4803        .H      LDR      r0,[pc,#12] ; [0x858] = 0x20000654
        0x0000084c:    6800        .h      LDR      r0,[r0,#0]
        0x0000084e:    4780        .G      BLX      r0
        0x00000850:    bd10        ..      POP      {r4,pc}
    $d
        0x00000852:    0000        ..      DCW    0
        0x00000854:    50004040    @@.P    DCD    1342193728
        0x00000858:    20000654    T..     DCD    536872532
    $t
    i.EINT1_IRQHandler
    EINT1_IRQHandler
        0x0000085c:    b510        ..      PUSH     {r4,lr}
        0x0000085e:    2001        .       MOVS     r0,#1
        0x00000860:    03c0        ..      LSLS     r0,r0,#15
        0x00000862:    4905        .I      LDR      r1,[pc,#20] ; [0x878] = 0x50004040
        0x00000864:    6208        .b      STR      r0,[r1,#0x20]
        0x00000866:    4805        .H      LDR      r0,[pc,#20] ; [0x87c] = 0x20000658
        0x00000868:    6800        .h      LDR      r0,[r0,#0]
        0x0000086a:    2800        .(      CMP      r0,#0
        0x0000086c:    d002        ..      BEQ      0x874 ; EINT1_IRQHandler + 24
        0x0000086e:    4803        .H      LDR      r0,[pc,#12] ; [0x87c] = 0x20000658
        0x00000870:    6800        .h      LDR      r0,[r0,#0]
        0x00000872:    4780        .G      BLX      r0
        0x00000874:    bd10        ..      POP      {r4,pc}
    $d
        0x00000876:    0000        ..      DCW    0
        0x00000878:    50004040    @@.P    DCD    1342193728
        0x0000087c:    20000658    X..     DCD    536872536
    $t
    i.GPAB_IRQHandler
    GPAB_IRQHandler
        0x00000880:    b570        p.      PUSH     {r4-r6,lr}
        0x00000882:    480c        .H      LDR      r0,[pc,#48] ; [0x8b4] = 0x50004000
        0x00000884:    6a05        .j      LDR      r5,[r0,#0x20]
        0x00000886:    480b        .H      LDR      r0,[pc,#44] ; [0x8b4] = 0x50004000
        0x00000888:    3040        @0      ADDS     r0,r0,#0x40
        0x0000088a:    6a04        .j      LDR      r4,[r0,#0x20]
        0x0000088c:    2103        .!      MOVS     r1,#3
        0x0000088e:    0389        ..      LSLS     r1,r1,#14
        0x00000890:    4620         F      MOV      r0,r4
        0x00000892:    4388        .C      BICS     r0,r0,r1
        0x00000894:    4604        .F      MOV      r4,r0
        0x00000896:    4807        .H      LDR      r0,[pc,#28] ; [0x8b4] = 0x50004000
        0x00000898:    6205        .b      STR      r5,[r0,#0x20]
        0x0000089a:    4806        .H      LDR      r0,[pc,#24] ; [0x8b4] = 0x50004000
        0x0000089c:    3040        @0      ADDS     r0,r0,#0x40
        0x0000089e:    6204        .b      STR      r4,[r0,#0x20]
        0x000008a0:    4805        .H      LDR      r0,[pc,#20] ; [0x8b8] = 0x2000064c
        0x000008a2:    6800        .h      LDR      r0,[r0,#0]
        0x000008a4:    2800        .(      CMP      r0,#0
        0x000008a6:    d004        ..      BEQ      0x8b2 ; GPAB_IRQHandler + 50
        0x000008a8:    4621        !F      MOV      r1,r4
        0x000008aa:    4628        (F      MOV      r0,r5
        0x000008ac:    4a02        .J      LDR      r2,[pc,#8] ; [0x8b8] = 0x2000064c
        0x000008ae:    6812        .h      LDR      r2,[r2,#0]
        0x000008b0:    4790        .G      BLX      r2
        0x000008b2:    bd70        p.      POP      {r4-r6,pc}
    $d
        0x000008b4:    50004000    .@.P    DCD    1342193664
        0x000008b8:    2000064c    L..     DCD    536872524
    $t
    i.GPCDE_IRQHandler
    GPCDE_IRQHandler
        0x000008bc:    b570        p.      PUSH     {r4-r6,lr}
        0x000008be:    480d        .H      LDR      r0,[pc,#52] ; [0x8f4] = 0x50004080
        0x000008c0:    6a04        .j      LDR      r4,[r0,#0x20]
        0x000008c2:    480c        .H      LDR      r0,[pc,#48] ; [0x8f4] = 0x50004080
        0x000008c4:    3040        @0      ADDS     r0,r0,#0x40
        0x000008c6:    6a05        .j      LDR      r5,[r0,#0x20]
        0x000008c8:    480a        .H      LDR      r0,[pc,#40] ; [0x8f4] = 0x50004080
        0x000008ca:    3080        .0      ADDS     r0,r0,#0x80
        0x000008cc:    6a06        .j      LDR      r6,[r0,#0x20]
        0x000008ce:    4809        .H      LDR      r0,[pc,#36] ; [0x8f4] = 0x50004080
        0x000008d0:    6204        .b      STR      r4,[r0,#0x20]
        0x000008d2:    4808        .H      LDR      r0,[pc,#32] ; [0x8f4] = 0x50004080
        0x000008d4:    3040        @0      ADDS     r0,r0,#0x40
        0x000008d6:    6205        .b      STR      r5,[r0,#0x20]
        0x000008d8:    4806        .H      LDR      r0,[pc,#24] ; [0x8f4] = 0x50004080
        0x000008da:    3080        .0      ADDS     r0,r0,#0x80
        0x000008dc:    6206        .b      STR      r6,[r0,#0x20]
        0x000008de:    4806        .H      LDR      r0,[pc,#24] ; [0x8f8] = 0x20000650
        0x000008e0:    6800        .h      LDR      r0,[r0,#0]
        0x000008e2:    2800        .(      CMP      r0,#0
        0x000008e4:    d005        ..      BEQ      0x8f2 ; GPCDE_IRQHandler + 54
        0x000008e6:    4632        2F      MOV      r2,r6
        0x000008e8:    4629        )F      MOV      r1,r5
        0x000008ea:    4620         F      MOV      r0,r4
        0x000008ec:    4b02        .K      LDR      r3,[pc,#8] ; [0x8f8] = 0x20000650
        0x000008ee:    681b        .h      LDR      r3,[r3,#0]
        0x000008f0:    4798        .G      BLX      r3
        0x000008f2:    bd70        p.      POP      {r4-r6,pc}
    $d
        0x000008f4:    50004080    .@.P    DCD    1342193792
        0x000008f8:    20000650    P..     DCD    536872528
    $t
    i.InitCapture0
    InitCapture0
        0x000008fc:    b510        ..      PUSH     {r4,lr}
        0x000008fe:    2005        .       MOVS     r0,#5
        0x00000900:    0700        ..      LSLS     r0,r0,#28
        0x00000902:    6b00        .k      LDR      r0,[r0,#0x30]
        0x00000904:    2101        .!      MOVS     r1,#1
        0x00000906:    0309        ..      LSLS     r1,r1,#12
        0x00000908:    4388        .C      BICS     r0,r0,r1
        0x0000090a:    1840        @.      ADDS     r0,r0,r1
        0x0000090c:    2105        .!      MOVS     r1,#5
        0x0000090e:    0709        ..      LSLS     r1,r1,#28
        0x00000910:    6308        .c      STR      r0,[r1,#0x30]
        0x00000912:    4829        )H      LDR      r0,[pc,#164] ; [0x9b8] = 0x50000200
        0x00000914:    6880        .h      LDR      r0,[r0,#8]
        0x00000916:    2101        .!      MOVS     r1,#1
        0x00000918:    0509        ..      LSLS     r1,r1,#20
        0x0000091a:    4388        .C      BICS     r0,r0,r1
        0x0000091c:    1840        @.      ADDS     r0,r0,r1
        0x0000091e:    4926        &I      LDR      r1,[pc,#152] ; [0x9b8] = 0x50000200
        0x00000920:    6088        .`      STR      r0,[r1,#8]
        0x00000922:    4608        .F      MOV      r0,r1
        0x00000924:    6940        @i      LDR      r0,[r0,#0x14]
        0x00000926:    2103        .!      MOVS     r1,#3
        0x00000928:    0709        ..      LSLS     r1,r1,#28
        0x0000092a:    4388        .C      BICS     r0,r0,r1
        0x0000092c:    4922        "I      LDR      r1,[pc,#136] ; [0x9b8] = 0x50000200
        0x0000092e:    6148        Ha      STR      r0,[r1,#0x14]
        0x00000930:    4822        "H      LDR      r0,[pc,#136] ; [0x9bc] = 0x40040000
        0x00000932:    6800        .h      LDR      r0,[r0,#0]
        0x00000934:    0a00        ..      LSRS     r0,r0,#8
        0x00000936:    0200        ..      LSLS     r0,r0,#8
        0x00000938:    300b        .0      ADDS     r0,r0,#0xb
        0x0000093a:    4920         I      LDR      r1,[pc,#128] ; [0x9bc] = 0x40040000
        0x0000093c:    6008        .`      STR      r0,[r1,#0]
        0x0000093e:    4608        .F      MOV      r0,r1
        0x00000940:    6840        @h      LDR      r0,[r0,#4]
        0x00000942:    08c0        ..      LSRS     r0,r0,#3
        0x00000944:    00c0        ..      LSLS     r0,r0,#3
        0x00000946:    1d00        ..      ADDS     r0,r0,#4
        0x00000948:    6048        H`      STR      r0,[r1,#4]
        0x0000094a:    4608        .F      MOV      r0,r1
        0x0000094c:    6880        .h      LDR      r0,[r0,#8]
        0x0000094e:    2108        .!      MOVS     r1,#8
        0x00000950:    4388        .C      BICS     r0,r0,r1
        0x00000952:    3008        .0      ADDS     r0,r0,#8
        0x00000954:    4919        .I      LDR      r1,[pc,#100] ; [0x9bc] = 0x40040000
        0x00000956:    6088        .`      STR      r0,[r1,#8]
        0x00000958:    4819        .H      LDR      r0,[pc,#100] ; [0x9c0] = 0xffff
        0x0000095a:    60c8        .`      STR      r0,[r1,#0xc]
        0x0000095c:    2001        .       MOVS     r0,#1
        0x0000095e:    4917        .I      LDR      r1,[pc,#92] ; [0x9bc] = 0x40040000
        0x00000960:    3140        @1      ADDS     r1,r1,#0x40
        0x00000962:    6388        .c      STR      r0,[r1,#0x38]
        0x00000964:    4608        .F      MOV      r0,r1
        0x00000966:    6900        .i      LDR      r0,[r0,#0x10]
        0x00000968:    2108        .!      MOVS     r1,#8
        0x0000096a:    4388        .C      BICS     r0,r0,r1
        0x0000096c:    3008        .0      ADDS     r0,r0,#8
        0x0000096e:    4913        .I      LDR      r1,[pc,#76] ; [0x9bc] = 0x40040000
        0x00000970:    3140        @1      ADDS     r1,r1,#0x40
        0x00000972:    6108        .a      STR      r0,[r1,#0x10]
        0x00000974:    4608        .F      MOV      r0,r1
        0x00000976:    6900        .i      LDR      r0,[r0,#0x10]
        0x00000978:    2102        .!      MOVS     r1,#2
        0x0000097a:    4388        .C      BICS     r0,r0,r1
        0x0000097c:    1c80        ..      ADDS     r0,r0,#2
        0x0000097e:    490f        .I      LDR      r1,[pc,#60] ; [0x9bc] = 0x40040000
        0x00000980:    3140        @1      ADDS     r1,r1,#0x40
        0x00000982:    6108        .a      STR      r0,[r1,#0x10]
        0x00000984:    4608        .F      MOV      r0,r1
        0x00000986:    6900        .i      LDR      r0,[r0,#0x10]
        0x00000988:    2104        .!      MOVS     r1,#4
        0x0000098a:    4388        .C      BICS     r0,r0,r1
        0x0000098c:    1d00        ..      ADDS     r0,r0,#4
        0x0000098e:    490b        .I      LDR      r1,[pc,#44] ; [0x9bc] = 0x40040000
        0x00000990:    3140        @1      ADDS     r1,r1,#0x40
        0x00000992:    6108        .a      STR      r0,[r1,#0x10]
        0x00000994:    4608        .F      MOV      r0,r1
        0x00000996:    6800        .h      LDR      r0,[r0,#0]
        0x00000998:    0840        @.      LSRS     r0,r0,#1
        0x0000099a:    0040        @.      LSLS     r0,r0,#1
        0x0000099c:    1c40        @.      ADDS     r0,r0,#1
        0x0000099e:    6008        .`      STR      r0,[r1,#0]
        0x000009a0:    2006        .       MOVS     r0,#6
        0x000009a2:    f000faab    ....    BL       NVIC_EnableIRQ ; 0xefc
        0x000009a6:    4805        .H      LDR      r0,[pc,#20] ; [0x9bc] = 0x40040000
        0x000009a8:    6880        .h      LDR      r0,[r0,#8]
        0x000009aa:    0840        @.      LSRS     r0,r0,#1
        0x000009ac:    0040        @.      LSLS     r0,r0,#1
        0x000009ae:    1c40        @.      ADDS     r0,r0,#1
        0x000009b0:    4902        .I      LDR      r1,[pc,#8] ; [0x9bc] = 0x40040000
        0x000009b2:    6088        .`      STR      r0,[r1,#8]
        0x000009b4:    bd10        ..      POP      {r4,pc}
    $d
        0x000009b6:    0000        ..      DCW    0
        0x000009b8:    50000200    ...P    DCD    1342177792
        0x000009bc:    40040000    ...@    DCD    1074003968
        0x000009c0:    0000ffff    ....    DCD    65535
    $t
    i.InitPWM1
    InitPWM1
        0x000009c4:    2005        .       MOVS     r0,#5
        0x000009c6:    0700        ..      LSLS     r0,r0,#28
        0x000009c8:    6b00        .k      LDR      r0,[r0,#0x30]
        0x000009ca:    2101        .!      MOVS     r1,#1
        0x000009cc:    0349        I.      LSLS     r1,r1,#13
        0x000009ce:    4388        .C      BICS     r0,r0,r1
        0x000009d0:    1840        @.      ADDS     r0,r0,r1
        0x000009d2:    2105        .!      MOVS     r1,#5
        0x000009d4:    0709        ..      LSLS     r1,r1,#28
        0x000009d6:    6308        .c      STR      r0,[r1,#0x30]
        0x000009d8:    481f        .H      LDR      r0,[pc,#124] ; [0xa58] = 0x50000200
        0x000009da:    6880        .h      LDR      r0,[r0,#8]
        0x000009dc:    2101        .!      MOVS     r1,#1
        0x000009de:    0509        ..      LSLS     r1,r1,#20
        0x000009e0:    4388        .C      BICS     r0,r0,r1
        0x000009e2:    1840        @.      ADDS     r0,r0,r1
        0x000009e4:    491c        .I      LDR      r1,[pc,#112] ; [0xa58] = 0x50000200
        0x000009e6:    6088        .`      STR      r0,[r1,#8]
        0x000009e8:    4608        .F      MOV      r0,r1
        0x000009ea:    6940        @i      LDR      r0,[r0,#0x14]
        0x000009ec:    2103        .!      MOVS     r1,#3
        0x000009ee:    0709        ..      LSLS     r1,r1,#28
        0x000009f0:    4388        .C      BICS     r0,r0,r1
        0x000009f2:    4919        .I      LDR      r1,[pc,#100] ; [0xa58] = 0x50000200
        0x000009f4:    6148        Ha      STR      r0,[r1,#0x14]
        0x000009f6:    4819        .H      LDR      r0,[pc,#100] ; [0xa5c] = 0x40040000
        0x000009f8:    6800        .h      LDR      r0,[r0,#0]
        0x000009fa:    0a00        ..      LSRS     r0,r0,#8
        0x000009fc:    0200        ..      LSLS     r0,r0,#8
        0x000009fe:    300b        .0      ADDS     r0,r0,#0xb
        0x00000a00:    4916        .I      LDR      r1,[pc,#88] ; [0xa5c] = 0x40040000
        0x00000a02:    6008        .`      STR      r0,[r1,#0]
        0x00000a04:    4608        .F      MOV      r0,r1
        0x00000a06:    6840        @h      LDR      r0,[r0,#4]
        0x00000a08:    2170        p!      MOVS     r1,#0x70
        0x00000a0a:    4388        .C      BICS     r0,r0,r1
        0x00000a0c:    3030        00      ADDS     r0,r0,#0x30
        0x00000a0e:    4913        .I      LDR      r1,[pc,#76] ; [0xa5c] = 0x40040000
        0x00000a10:    6048        H`      STR      r0,[r1,#4]
        0x00000a12:    4608        .F      MOV      r0,r1
        0x00000a14:    6880        .h      LDR      r0,[r0,#8]
        0x00000a16:    14c9        ..      ASRS     r1,r1,#19
        0x00000a18:    4388        .C      BICS     r0,r0,r1
        0x00000a1a:    1840        @.      ADDS     r0,r0,r1
        0x00000a1c:    490f        .I      LDR      r1,[pc,#60] ; [0xa5c] = 0x40040000
        0x00000a1e:    6088        .`      STR      r0,[r1,#8]
        0x00000a20:    480f        .H      LDR      r0,[pc,#60] ; [0xa60] = 0xffff
        0x00000a22:    6188        .a      STR      r0,[r1,#0x18]
        0x00000a24:    1080        ..      ASRS     r0,r0,#2
        0x00000a26:    61c8        .a      STR      r0,[r1,#0x1c]
        0x00000a28:    4608        .F      MOV      r0,r1
        0x00000a2a:    6880        .h      LDR      r0,[r0,#8]
        0x00000a2c:    1509        ..      ASRS     r1,r1,#20
        0x00000a2e:    4388        .C      BICS     r0,r0,r1
        0x00000a30:    490a        .I      LDR      r1,[pc,#40] ; [0xa5c] = 0x40040000
        0x00000a32:    6088        .`      STR      r0,[r1,#8]
        0x00000a34:    4608        .F      MOV      r0,r1
        0x00000a36:    6880        .h      LDR      r0,[r0,#8]
        0x00000a38:    1589        ..      ASRS     r1,r1,#22
        0x00000a3a:    4388        .C      BICS     r0,r0,r1
        0x00000a3c:    1840        @.      ADDS     r0,r0,r1
        0x00000a3e:    4907        .I      LDR      r1,[pc,#28] ; [0xa5c] = 0x40040000
        0x00000a40:    6088        .`      STR      r0,[r1,#8]
        0x00000a42:    4806        .H      LDR      r0,[pc,#24] ; [0xa5c] = 0x40040000
        0x00000a44:    3040        @0      ADDS     r0,r0,#0x40
        0x00000a46:    6bc0        .k      LDR      r0,[r0,#0x3c]
        0x00000a48:    2102        .!      MOVS     r1,#2
        0x00000a4a:    4388        .C      BICS     r0,r0,r1
        0x00000a4c:    1c80        ..      ADDS     r0,r0,#2
        0x00000a4e:    4903        .I      LDR      r1,[pc,#12] ; [0xa5c] = 0x40040000
        0x00000a50:    3140        @1      ADDS     r1,r1,#0x40
        0x00000a52:    63c8        .c      STR      r0,[r1,#0x3c]
        0x00000a54:    4770        pG      BX       lr
    $d
        0x00000a56:    0000        ..      DCW    0
        0x00000a58:    50000200    ...P    DCD    1342177792
        0x00000a5c:    40040000    ...@    DCD    1074003968
        0x00000a60:    0000ffff    ....    DCD    65535
    $t
    i.InitPWM2
    InitPWM2
        0x00000a64:    2005        .       MOVS     r0,#5
        0x00000a66:    0700        ..      LSLS     r0,r0,#28
        0x00000a68:    6b00        .k      LDR      r0,[r0,#0x30]
        0x00000a6a:    2101        .!      MOVS     r1,#1
        0x00000a6c:    0389        ..      LSLS     r1,r1,#14
        0x00000a6e:    4388        .C      BICS     r0,r0,r1
        0x00000a70:    1840        @.      ADDS     r0,r0,r1
        0x00000a72:    2105        .!      MOVS     r1,#5
        0x00000a74:    0709        ..      LSLS     r1,r1,#28
        0x00000a76:    6308        .c      STR      r0,[r1,#0x30]
        0x00000a78:    4822        "H      LDR      r0,[pc,#136] ; [0xb04] = 0x50000200
        0x00000a7a:    6880        .h      LDR      r0,[r0,#8]
        0x00000a7c:    2101        .!      MOVS     r1,#1
        0x00000a7e:    0549        I.      LSLS     r1,r1,#21
        0x00000a80:    4388        .C      BICS     r0,r0,r1
        0x00000a82:    1840        @.      ADDS     r0,r0,r1
        0x00000a84:    491f        .I      LDR      r1,[pc,#124] ; [0xb04] = 0x50000200
        0x00000a86:    6088        .`      STR      r0,[r1,#8]
        0x00000a88:    4608        .F      MOV      r0,r1
        0x00000a8a:    6940        @i      LDR      r0,[r0,#0x14]
        0x00000a8c:    0080        ..      LSLS     r0,r0,#2
        0x00000a8e:    0880        ..      LSRS     r0,r0,#2
        0x00000a90:    6148        Ha      STR      r0,[r1,#0x14]
        0x00000a92:    481d        .H      LDR      r0,[pc,#116] ; [0xb08] = 0x40040000
        0x00000a94:    6800        .h      LDR      r0,[r0,#0]
        0x00000a96:    21ff        .!      MOVS     r1,#0xff
        0x00000a98:    0209        ..      LSLS     r1,r1,#8
        0x00000a9a:    4388        .C      BICS     r0,r0,r1
        0x00000a9c:    30ff        .0      ADDS     r0,r0,#0xff
        0x00000a9e:    3001        .0      ADDS     r0,#1
        0x00000aa0:    4919        .I      LDR      r1,[pc,#100] ; [0xb08] = 0x40040000
        0x00000aa2:    6008        .`      STR      r0,[r1,#0]
        0x00000aa4:    4608        .F      MOV      r0,r1
        0x00000aa6:    6840        @h      LDR      r0,[r0,#4]
        0x00000aa8:    2107        .!      MOVS     r1,#7
        0x00000aaa:    0209        ..      LSLS     r1,r1,#8
        0x00000aac:    4388        .C      BICS     r0,r0,r1
        0x00000aae:    2101        .!      MOVS     r1,#1
        0x00000ab0:    0289        ..      LSLS     r1,r1,#10
        0x00000ab2:    1840        @.      ADDS     r0,r0,r1
        0x00000ab4:    4914        .I      LDR      r1,[pc,#80] ; [0xb08] = 0x40040000
        0x00000ab6:    6048        H`      STR      r0,[r1,#4]
        0x00000ab8:    4608        .F      MOV      r0,r1
        0x00000aba:    6880        .h      LDR      r0,[r0,#8]
        0x00000abc:    2101        .!      MOVS     r1,#1
        0x00000abe:    04c9        ..      LSLS     r1,r1,#19
        0x00000ac0:    4388        .C      BICS     r0,r0,r1
        0x00000ac2:    1840        @.      ADDS     r0,r0,r1
        0x00000ac4:    4910        .I      LDR      r1,[pc,#64] ; [0xb08] = 0x40040000
        0x00000ac6:    6088        .`      STR      r0,[r1,#8]
        0x00000ac8:    4810        .H      LDR      r0,[pc,#64] ; [0xb0c] = 0x1fff
        0x00000aca:    6248        Hb      STR      r0,[r1,#0x24]
        0x00000acc:    1040        @.      ASRS     r0,r0,#1
        0x00000ace:    6288        .b      STR      r0,[r1,#0x28]
        0x00000ad0:    4608        .F      MOV      r0,r1
        0x00000ad2:    6880        .h      LDR      r0,[r0,#8]
        0x00000ad4:    2101        .!      MOVS     r1,#1
        0x00000ad6:    0489        ..      LSLS     r1,r1,#18
        0x00000ad8:    4388        .C      BICS     r0,r0,r1
        0x00000ada:    490b        .I      LDR      r1,[pc,#44] ; [0xb08] = 0x40040000
        0x00000adc:    6088        .`      STR      r0,[r1,#8]
        0x00000ade:    4608        .F      MOV      r0,r1
        0x00000ae0:    6880        .h      LDR      r0,[r0,#8]
        0x00000ae2:    2101        .!      MOVS     r1,#1
        0x00000ae4:    0409        ..      LSLS     r1,r1,#16
        0x00000ae6:    4388        .C      BICS     r0,r0,r1
        0x00000ae8:    1840        @.      ADDS     r0,r0,r1
        0x00000aea:    4907        .I      LDR      r1,[pc,#28] ; [0xb08] = 0x40040000
        0x00000aec:    6088        .`      STR      r0,[r1,#8]
        0x00000aee:    4806        .H      LDR      r0,[pc,#24] ; [0xb08] = 0x40040000
        0x00000af0:    3040        @0      ADDS     r0,r0,#0x40
        0x00000af2:    6bc0        .k      LDR      r0,[r0,#0x3c]
        0x00000af4:    2104        .!      MOVS     r1,#4
        0x00000af6:    4388        .C      BICS     r0,r0,r1
        0x00000af8:    1d00        ..      ADDS     r0,r0,#4
        0x00000afa:    4903        .I      LDR      r1,[pc,#12] ; [0xb08] = 0x40040000
        0x00000afc:    3140        @1      ADDS     r1,r1,#0x40
        0x00000afe:    63c8        .c      STR      r0,[r1,#0x3c]
        0x00000b00:    4770        pG      BX       lr
    $d
        0x00000b02:    0000        ..      DCW    0
        0x00000b04:    50000200    ...P    DCD    1342177792
        0x00000b08:    40040000    ...@    DCD    1074003968
        0x00000b0c:    00001fff    ....    DCD    8191
    $t
    i.InitPWM4fromPWM2
    InitPWM4fromPWM2
        0x00000b10:    2005        .       MOVS     r0,#5
        0x00000b12:    0700        ..      LSLS     r0,r0,#28
        0x00000b14:    6b40        @k      LDR      r0,[r0,#0x34]
        0x00000b16:    2101        .!      MOVS     r1,#1
        0x00000b18:    02c9        ..      LSLS     r1,r1,#11
        0x00000b1a:    4388        .C      BICS     r0,r0,r1
        0x00000b1c:    1840        @.      ADDS     r0,r0,r1
        0x00000b1e:    2105        .!      MOVS     r1,#5
        0x00000b20:    0709        ..      LSLS     r1,r1,#28
        0x00000b22:    6348        Hc      STR      r0,[r1,#0x34]
        0x00000b24:    4820         H      LDR      r0,[pc,#128] ; [0xba8] = 0x50000040
        0x00000b26:    6900        .i      LDR      r0,[r0,#0x10]
        0x00000b28:    2110        .!      MOVS     r1,#0x10
        0x00000b2a:    4388        .C      BICS     r0,r0,r1
        0x00000b2c:    3010        .0      ADDS     r0,r0,#0x10
        0x00000b2e:    491e        .I      LDR      r1,[pc,#120] ; [0xba8] = 0x50000040
        0x00000b30:    6108        .a      STR      r0,[r1,#0x10]
        0x00000b32:    481e        .H      LDR      r0,[pc,#120] ; [0xbac] = 0x50000200
        0x00000b34:    6880        .h      LDR      r0,[r0,#8]
        0x00000b36:    0409        ..      LSLS     r1,r1,#16
        0x00000b38:    4388        .C      BICS     r0,r0,r1
        0x00000b3a:    1840        @.      ADDS     r0,r0,r1
        0x00000b3c:    491b        .I      LDR      r1,[pc,#108] ; [0xbac] = 0x50000200
        0x00000b3e:    6088        .`      STR      r0,[r1,#8]
        0x00000b40:    4608        .F      MOV      r0,r1
        0x00000b42:    69c0        .i      LDR      r0,[r0,#0x1c]
        0x00000b44:    2130        0!      MOVS     r1,#0x30
        0x00000b46:    4388        .C      BICS     r0,r0,r1
        0x00000b48:    4918        .I      LDR      r1,[pc,#96] ; [0xbac] = 0x50000200
        0x00000b4a:    61c8        .a      STR      r0,[r1,#0x1c]
        0x00000b4c:    4818        .H      LDR      r0,[pc,#96] ; [0xbb0] = 0x40140000
        0x00000b4e:    6800        .h      LDR      r0,[r0,#0]
        0x00000b50:    0a00        ..      LSRS     r0,r0,#8
        0x00000b52:    0200        ..      LSLS     r0,r0,#8
        0x00000b54:    1c40        @.      ADDS     r0,r0,#1
        0x00000b56:    4916        .I      LDR      r1,[pc,#88] ; [0xbb0] = 0x40140000
        0x00000b58:    6008        .`      STR      r0,[r1,#0]
        0x00000b5a:    4608        .F      MOV      r0,r1
        0x00000b5c:    6840        @h      LDR      r0,[r0,#4]
        0x00000b5e:    08c0        ..      LSRS     r0,r0,#3
        0x00000b60:    00c0        ..      LSLS     r0,r0,#3
        0x00000b62:    1d00        ..      ADDS     r0,r0,#4
        0x00000b64:    6048        H`      STR      r0,[r1,#4]
        0x00000b66:    4608        .F      MOV      r0,r1
        0x00000b68:    6880        .h      LDR      r0,[r0,#8]
        0x00000b6a:    2108        .!      MOVS     r1,#8
        0x00000b6c:    4388        .C      BICS     r0,r0,r1
        0x00000b6e:    3008        .0      ADDS     r0,r0,#8
        0x00000b70:    490f        .I      LDR      r1,[pc,#60] ; [0xbb0] = 0x40140000
        0x00000b72:    6088        .`      STR      r0,[r1,#8]
        0x00000b74:    480f        .H      LDR      r0,[pc,#60] ; [0xbb4] = 0x1fff
        0x00000b76:    60c8        .`      STR      r0,[r1,#0xc]
        0x00000b78:    1040        @.      ASRS     r0,r0,#1
        0x00000b7a:    6108        .a      STR      r0,[r1,#0x10]
        0x00000b7c:    4608        .F      MOV      r0,r1
        0x00000b7e:    6880        .h      LDR      r0,[r0,#8]
        0x00000b80:    2104        .!      MOVS     r1,#4
        0x00000b82:    4388        .C      BICS     r0,r0,r1
        0x00000b84:    490a        .I      LDR      r1,[pc,#40] ; [0xbb0] = 0x40140000
        0x00000b86:    6088        .`      STR      r0,[r1,#8]
        0x00000b88:    4608        .F      MOV      r0,r1
        0x00000b8a:    6880        .h      LDR      r0,[r0,#8]
        0x00000b8c:    0840        @.      LSRS     r0,r0,#1
        0x00000b8e:    0040        @.      LSLS     r0,r0,#1
        0x00000b90:    1c40        @.      ADDS     r0,r0,#1
        0x00000b92:    6088        .`      STR      r0,[r1,#8]
        0x00000b94:    4806        .H      LDR      r0,[pc,#24] ; [0xbb0] = 0x40140000
        0x00000b96:    3040        @0      ADDS     r0,r0,#0x40
        0x00000b98:    6bc0        .k      LDR      r0,[r0,#0x3c]
        0x00000b9a:    0840        @.      LSRS     r0,r0,#1
        0x00000b9c:    0040        @.      LSLS     r0,r0,#1
        0x00000b9e:    1c40        @.      ADDS     r0,r0,#1
        0x00000ba0:    4903        .I      LDR      r1,[pc,#12] ; [0xbb0] = 0x40140000
        0x00000ba2:    3140        @1      ADDS     r1,r1,#0x40
        0x00000ba4:    63c8        .c      STR      r0,[r1,#0x3c]
        0x00000ba6:    4770        pG      BX       lr
    $d
        0x00000ba8:    50000040    @..P    DCD    1342177344
        0x00000bac:    50000200    ...P    DCD    1342177792
        0x00000bb0:    40140000    ...@    DCD    1075052544
        0x00000bb4:    00001fff    ....    DCD    8191
    $t
    i.InitPWM5
    InitPWM5
        0x00000bb8:    4822        "H      LDR      r0,[pc,#136] ; [0xc44] = 0x50000040
        0x00000bba:    6800        .h      LDR      r0,[r0,#0]
        0x00000bbc:    2120         !      MOVS     r1,#0x20
        0x00000bbe:    4388        .C      BICS     r0,r0,r1
        0x00000bc0:    3020         0      ADDS     r0,r0,#0x20
        0x00000bc2:    4920         I      LDR      r1,[pc,#128] ; [0xc44] = 0x50000040
        0x00000bc4:    6008        .`      STR      r0,[r1,#0]
        0x00000bc6:    4820         H      LDR      r0,[pc,#128] ; [0xc48] = 0x50000200
        0x00000bc8:    6880        .h      LDR      r0,[r0,#8]
        0x00000bca:    0409        ..      LSLS     r1,r1,#16
        0x00000bcc:    4388        .C      BICS     r0,r0,r1
        0x00000bce:    1840        @.      ADDS     r0,r0,r1
        0x00000bd0:    491d        .I      LDR      r1,[pc,#116] ; [0xc48] = 0x50000200
        0x00000bd2:    6088        .`      STR      r0,[r1,#8]
        0x00000bd4:    4608        .F      MOV      r0,r1
        0x00000bd6:    69c0        .i      LDR      r0,[r0,#0x1c]
        0x00000bd8:    2130        0!      MOVS     r1,#0x30
        0x00000bda:    4388        .C      BICS     r0,r0,r1
        0x00000bdc:    491a        .I      LDR      r1,[pc,#104] ; [0xc48] = 0x50000200
        0x00000bde:    61c8        .a      STR      r0,[r1,#0x1c]
        0x00000be0:    481a        .H      LDR      r0,[pc,#104] ; [0xc4c] = 0x40140000
        0x00000be2:    6800        .h      LDR      r0,[r0,#0]
        0x00000be4:    0a00        ..      LSRS     r0,r0,#8
        0x00000be6:    0200        ..      LSLS     r0,r0,#8
        0x00000be8:    300b        .0      ADDS     r0,r0,#0xb
        0x00000bea:    4918        .I      LDR      r1,[pc,#96] ; [0xc4c] = 0x40140000
        0x00000bec:    6008        .`      STR      r0,[r1,#0]
        0x00000bee:    4608        .F      MOV      r0,r1
        0x00000bf0:    6840        @h      LDR      r0,[r0,#4]
        0x00000bf2:    2170        p!      MOVS     r1,#0x70
        0x00000bf4:    4388        .C      BICS     r0,r0,r1
        0x00000bf6:    3030        00      ADDS     r0,r0,#0x30
        0x00000bf8:    4914        .I      LDR      r1,[pc,#80] ; [0xc4c] = 0x40140000
        0x00000bfa:    6048        H`      STR      r0,[r1,#4]
        0x00000bfc:    4608        .F      MOV      r0,r1
        0x00000bfe:    6880        .h      LDR      r0,[r0,#8]
        0x00000c00:    2101        .!      MOVS     r1,#1
        0x00000c02:    02c9        ..      LSLS     r1,r1,#11
        0x00000c04:    4388        .C      BICS     r0,r0,r1
        0x00000c06:    1840        @.      ADDS     r0,r0,r1
        0x00000c08:    4910        .I      LDR      r1,[pc,#64] ; [0xc4c] = 0x40140000
        0x00000c0a:    6088        .`      STR      r0,[r1,#8]
        0x00000c0c:    4810        .H      LDR      r0,[pc,#64] ; [0xc50] = 0xffff
        0x00000c0e:    6188        .a      STR      r0,[r1,#0x18]
        0x00000c10:    1080        ..      ASRS     r0,r0,#2
        0x00000c12:    61c8        .a      STR      r0,[r1,#0x1c]
        0x00000c14:    4608        .F      MOV      r0,r1
        0x00000c16:    6880        .h      LDR      r0,[r0,#8]
        0x00000c18:    2101        .!      MOVS     r1,#1
        0x00000c1a:    0289        ..      LSLS     r1,r1,#10
        0x00000c1c:    4388        .C      BICS     r0,r0,r1
        0x00000c1e:    490b        .I      LDR      r1,[pc,#44] ; [0xc4c] = 0x40140000
        0x00000c20:    6088        .`      STR      r0,[r1,#8]
        0x00000c22:    4608        .F      MOV      r0,r1
        0x00000c24:    6880        .h      LDR      r0,[r0,#8]
        0x00000c26:    1589        ..      ASRS     r1,r1,#22
        0x00000c28:    4388        .C      BICS     r0,r0,r1
        0x00000c2a:    1840        @.      ADDS     r0,r0,r1
        0x00000c2c:    4907        .I      LDR      r1,[pc,#28] ; [0xc4c] = 0x40140000
        0x00000c2e:    6088        .`      STR      r0,[r1,#8]
        0x00000c30:    4806        .H      LDR      r0,[pc,#24] ; [0xc4c] = 0x40140000
        0x00000c32:    3040        @0      ADDS     r0,r0,#0x40
        0x00000c34:    6bc0        .k      LDR      r0,[r0,#0x3c]
        0x00000c36:    2102        .!      MOVS     r1,#2
        0x00000c38:    4388        .C      BICS     r0,r0,r1
        0x00000c3a:    1c80        ..      ADDS     r0,r0,#2
        0x00000c3c:    4903        .I      LDR      r1,[pc,#12] ; [0xc4c] = 0x40140000
        0x00000c3e:    3140        @1      ADDS     r1,r1,#0x40
        0x00000c40:    63c8        .c      STR      r0,[r1,#0x3c]
        0x00000c42:    4770        pG      BX       lr
    $d
        0x00000c44:    50000040    @..P    DCD    1342177344
        0x00000c48:    50000200    ...P    DCD    1342177792
        0x00000c4c:    40140000    ...@    DCD    1075052544
        0x00000c50:    0000ffff    ....    DCD    65535
    $t
    i.InitTIMER3
    InitTIMER3
        0x00000c54:    b510        ..      PUSH     {r4,lr}
        0x00000c56:    4820         H      LDR      r0,[pc,#128] ; [0xcd8] = 0x50000200
        0x00000c58:    6940        @i      LDR      r0,[r0,#0x14]
        0x00000c5a:    2107        .!      MOVS     r1,#7
        0x00000c5c:    0509        ..      LSLS     r1,r1,#20
        0x00000c5e:    4388        .C      BICS     r0,r0,r1
        0x00000c60:    491d        .I      LDR      r1,[pc,#116] ; [0xcd8] = 0x50000200
        0x00000c62:    6148        Ha      STR      r0,[r1,#0x14]
        0x00000c64:    4608        .F      MOV      r0,r1
        0x00000c66:    6880        .h      LDR      r0,[r0,#8]
        0x00000c68:    2120         !      MOVS     r1,#0x20
        0x00000c6a:    4388        .C      BICS     r0,r0,r1
        0x00000c6c:    3020         0      ADDS     r0,r0,#0x20
        0x00000c6e:    491a        .I      LDR      r1,[pc,#104] ; [0xcd8] = 0x50000200
        0x00000c70:    6088        .`      STR      r0,[r1,#8]
        0x00000c72:    481a        .H      LDR      r0,[pc,#104] ; [0xcdc] = 0x40110000
        0x00000c74:    6a00        .j      LDR      r0,[r0,#0x20]
        0x00000c76:    2103        .!      MOVS     r1,#3
        0x00000c78:    06c9        ..      LSLS     r1,r1,#27
        0x00000c7a:    4388        .C      BICS     r0,r0,r1
        0x00000c7c:    2101        .!      MOVS     r1,#1
        0x00000c7e:    06c9        ..      LSLS     r1,r1,#27
        0x00000c80:    1840        @.      ADDS     r0,r0,r1
        0x00000c82:    4916        .I      LDR      r1,[pc,#88] ; [0xcdc] = 0x40110000
        0x00000c84:    6208        .b      STR      r0,[r1,#0x20]
        0x00000c86:    4608        .F      MOV      r0,r1
        0x00000c88:    6a00        .j      LDR      r0,[r0,#0x20]
        0x00000c8a:    0a00        ..      LSRS     r0,r0,#8
        0x00000c8c:    0200        ..      LSLS     r0,r0,#8
        0x00000c8e:    300b        .0      ADDS     r0,r0,#0xb
        0x00000c90:    6208        .b      STR      r0,[r1,#0x20]
        0x00000c92:    4813        .H      LDR      r0,[pc,#76] ; [0xce0] = 0xf4240
        0x00000c94:    6248        Hb      STR      r0,[r1,#0x24]
        0x00000c96:    4608        .F      MOV      r0,r1
        0x00000c98:    6a00        .j      LDR      r0,[r0,#0x20]
        0x00000c9a:    0349        I.      LSLS     r1,r1,#13
        0x00000c9c:    4388        .C      BICS     r0,r0,r1
        0x00000c9e:    1840        @.      ADDS     r0,r0,r1
        0x00000ca0:    490e        .I      LDR      r1,[pc,#56] ; [0xcdc] = 0x40110000
        0x00000ca2:    6208        .b      STR      r0,[r1,#0x20]
        0x00000ca4:    4608        .F      MOV      r0,r1
        0x00000ca6:    6a80        .j      LDR      r0,[r0,#0x28]
        0x00000ca8:    0840        @.      LSRS     r0,r0,#1
        0x00000caa:    0040        @.      LSLS     r0,r0,#1
        0x00000cac:    1c40        @.      ADDS     r0,r0,#1
        0x00000cae:    6288        .b      STR      r0,[r1,#0x28]
        0x00000cb0:    200b        .       MOVS     r0,#0xb
        0x00000cb2:    f000f923    ..#.    BL       NVIC_EnableIRQ ; 0xefc
        0x00000cb6:    4809        .H      LDR      r0,[pc,#36] ; [0xcdc] = 0x40110000
        0x00000cb8:    6a00        .j      LDR      r0,[r0,#0x20]
        0x00000cba:    2101        .!      MOVS     r1,#1
        0x00000cbc:    0689        ..      LSLS     r1,r1,#26
        0x00000cbe:    4388        .C      BICS     r0,r0,r1
        0x00000cc0:    1840        @.      ADDS     r0,r0,r1
        0x00000cc2:    4906        .I      LDR      r1,[pc,#24] ; [0xcdc] = 0x40110000
        0x00000cc4:    6208        .b      STR      r0,[r1,#0x20]
        0x00000cc6:    4608        .F      MOV      r0,r1
        0x00000cc8:    6a00        .j      LDR      r0,[r0,#0x20]
        0x00000cca:    0389        ..      LSLS     r1,r1,#14
        0x00000ccc:    4388        .C      BICS     r0,r0,r1
        0x00000cce:    1840        @.      ADDS     r0,r0,r1
        0x00000cd0:    4902        .I      LDR      r1,[pc,#8] ; [0xcdc] = 0x40110000
        0x00000cd2:    6208        .b      STR      r0,[r1,#0x20]
        0x00000cd4:    bd10        ..      POP      {r4,pc}
    $d
        0x00000cd6:    0000        ..      DCW    0
        0x00000cd8:    50000200    ...P    DCD    1342177792
        0x00000cdc:    40110000    ...@    DCD    1074855936
        0x00000ce0:    000f4240    @B..    DCD    1000000
    $t
    i.Initial_pannel
    Initial_pannel
        0x00000ce4:    4883        .H      LDR      r0,[pc,#524] ; [0xef4] = 0x50000200
        0x00000ce6:    6880        .h      LDR      r0,[r0,#8]
        0x00000ce8:    2101        .!      MOVS     r1,#1
        0x00000cea:    03c9        ..      LSLS     r1,r1,#15
        0x00000cec:    4388        .C      BICS     r0,r0,r1
        0x00000cee:    1840        @.      ADDS     r0,r0,r1
        0x00000cf0:    4980        .I      LDR      r1,[pc,#512] ; [0xef4] = 0x50000200
        0x00000cf2:    6088        .`      STR      r0,[r1,#8]
        0x00000cf4:    2005        .       MOVS     r0,#5
        0x00000cf6:    0700        ..      LSLS     r0,r0,#28
        0x00000cf8:    68c0        .h      LDR      r0,[r0,#0xc]
        0x00000cfa:    0189        ..      LSLS     r1,r1,#6
        0x00000cfc:    4388        .C      BICS     r0,r0,r1
        0x00000cfe:    1840        @.      ADDS     r0,r0,r1
        0x00000d00:    2105        .!      MOVS     r1,#5
        0x00000d02:    0709        ..      LSLS     r1,r1,#28
        0x00000d04:    60c8        .`      STR      r0,[r1,#0xc]
        0x00000d06:    4608        .F      MOV      r0,r1
        0x00000d08:    68c0        .h      LDR      r0,[r0,#0xc]
        0x00000d0a:    2101        .!      MOVS     r1,#1
        0x00000d0c:    03c9        ..      LSLS     r1,r1,#15
        0x00000d0e:    4388        .C      BICS     r0,r0,r1
        0x00000d10:    2105        .!      MOVS     r1,#5
        0x00000d12:    0709        ..      LSLS     r1,r1,#28
        0x00000d14:    60c8        .`      STR      r0,[r1,#0xc]
        0x00000d16:    4608        .F      MOV      r0,r1
        0x00000d18:    6bc0        .k      LDR      r0,[r0,#0x3c]
        0x00000d1a:    21ff        .!      MOVS     r1,#0xff
        0x00000d1c:    3101        .1      ADDS     r1,#1
        0x00000d1e:    4388        .C      BICS     r0,r0,r1
        0x00000d20:    1840        @.      ADDS     r0,r0,r1
        0x00000d22:    2105        .!      MOVS     r1,#5
        0x00000d24:    0709        ..      LSLS     r1,r1,#28
        0x00000d26:    63c8        .c      STR      r0,[r1,#0x3c]
        0x00000d28:    4608        .F      MOV      r0,r1
        0x00000d2a:    6bc0        .k      LDR      r0,[r0,#0x3c]
        0x00000d2c:    2101        .!      MOVS     r1,#1
        0x00000d2e:    0249        I.      LSLS     r1,r1,#9
        0x00000d30:    4388        .C      BICS     r0,r0,r1
        0x00000d32:    1840        @.      ADDS     r0,r0,r1
        0x00000d34:    2105        .!      MOVS     r1,#5
        0x00000d36:    0709        ..      LSLS     r1,r1,#28
        0x00000d38:    63c8        .c      STR      r0,[r1,#0x3c]
        0x00000d3a:    4608        .F      MOV      r0,r1
        0x00000d3c:    6bc0        .k      LDR      r0,[r0,#0x3c]
        0x00000d3e:    2101        .!      MOVS     r1,#1
        0x00000d40:    02c9        ..      LSLS     r1,r1,#11
        0x00000d42:    4388        .C      BICS     r0,r0,r1
        0x00000d44:    1840        @.      ADDS     r0,r0,r1
        0x00000d46:    2105        .!      MOVS     r1,#5
        0x00000d48:    0709        ..      LSLS     r1,r1,#28
        0x00000d4a:    63c8        .c      STR      r0,[r1,#0x3c]
        0x00000d4c:    486a        jH      LDR      r0,[pc,#424] ; [0xef8] = 0x2000002c
        0x00000d4e:    68c0        .h      LDR      r0,[r0,#0xc]
        0x00000d50:    6800        .h      LDR      r0,[r0,#0]
        0x00000d52:    2101        .!      MOVS     r1,#1
        0x00000d54:    02c9        ..      LSLS     r1,r1,#11
        0x00000d56:    4388        .C      BICS     r0,r0,r1
        0x00000d58:    1840        @.      ADDS     r0,r0,r1
        0x00000d5a:    4967        gI      LDR      r1,[pc,#412] ; [0xef8] = 0x2000002c
        0x00000d5c:    68c9        .h      LDR      r1,[r1,#0xc]
        0x00000d5e:    6008        .`      STR      r0,[r1,#0]
        0x00000d60:    4865        eH      LDR      r0,[pc,#404] ; [0xef8] = 0x2000002c
        0x00000d62:    68c0        .h      LDR      r0,[r0,#0xc]
        0x00000d64:    6800        .h      LDR      r0,[r0,#0]
        0x00000d66:    21f8        .!      MOVS     r1,#0xf8
        0x00000d68:    4388        .C      BICS     r0,r0,r1
        0x00000d6a:    3048        H0      ADDS     r0,r0,#0x48
        0x00000d6c:    4962        bI      LDR      r1,[pc,#392] ; [0xef8] = 0x2000002c
        0x00000d6e:    68c9        .h      LDR      r1,[r1,#0xc]
        0x00000d70:    6008        .`      STR      r0,[r1,#0]
        0x00000d72:    4861        aH      LDR      r0,[pc,#388] ; [0xef8] = 0x2000002c
        0x00000d74:    68c0        .h      LDR      r0,[r0,#0xc]
        0x00000d76:    6800        .h      LDR      r0,[r0,#0]
        0x00000d78:    2104        .!      MOVS     r1,#4
        0x00000d7a:    4388        .C      BICS     r0,r0,r1
        0x00000d7c:    1d00        ..      ADDS     r0,r0,#4
        0x00000d7e:    495e        ^I      LDR      r1,[pc,#376] ; [0xef8] = 0x2000002c
        0x00000d80:    68c9        .h      LDR      r1,[r1,#0xc]
        0x00000d82:    6008        .`      STR      r0,[r1,#0]
        0x00000d84:    485c        \H      LDR      r0,[pc,#368] ; [0xef8] = 0x2000002c
        0x00000d86:    68c0        .h      LDR      r0,[r0,#0xc]
        0x00000d88:    6840        @h      LDR      r0,[r0,#4]
        0x00000d8a:    0c00        ..      LSRS     r0,r0,#16
        0x00000d8c:    0400        ..      LSLS     r0,r0,#16
        0x00000d8e:    1cc0        ..      ADDS     r0,r0,#3
        0x00000d90:    4959        YI      LDR      r1,[pc,#356] ; [0xef8] = 0x2000002c
        0x00000d92:    68c9        .h      LDR      r1,[r1,#0xc]
        0x00000d94:    6048        H`      STR      r0,[r1,#4]
        0x00000d96:    4858        XH      LDR      r0,[pc,#352] ; [0xef8] = 0x2000002c
        0x00000d98:    68c0        .h      LDR      r0,[r0,#0xc]
        0x00000d9a:    6880        .h      LDR      r0,[r0,#8]
        0x00000d9c:    0880        ..      LSRS     r0,r0,#2
        0x00000d9e:    0080        ..      LSLS     r0,r0,#2
        0x00000da0:    1c40        @.      ADDS     r0,r0,#1
        0x00000da2:    4955        UI      LDR      r1,[pc,#340] ; [0xef8] = 0x2000002c
        0x00000da4:    68c9        .h      LDR      r1,[r1,#0xc]
        0x00000da6:    6088        .`      STR      r0,[r1,#8]
        0x00000da8:    20eb        .       MOVS     r0,#0xeb
        0x00000daa:    4953        SI      LDR      r1,[pc,#332] ; [0xef8] = 0x2000002c
        0x00000dac:    68c9        .h      LDR      r1,[r1,#0xc]
        0x00000dae:    6208        .b      STR      r0,[r1,#0x20]
        0x00000db0:    4851        QH      LDR      r0,[pc,#324] ; [0xef8] = 0x2000002c
        0x00000db2:    68c0        .h      LDR      r0,[r0,#0xc]
        0x00000db4:    6800        .h      LDR      r0,[r0,#0]
        0x00000db6:    0840        @.      LSRS     r0,r0,#1
        0x00000db8:    0040        @.      LSLS     r0,r0,#1
        0x00000dba:    1c40        @.      ADDS     r0,r0,#1
        0x00000dbc:    494e        NI      LDR      r1,[pc,#312] ; [0xef8] = 0x2000002c
        0x00000dbe:    68c9        .h      LDR      r1,[r1,#0xc]
        0x00000dc0:    6008        .`      STR      r0,[r1,#0]
        0x00000dc2:    bf00        ..      NOP      
        0x00000dc4:    484c        LH      LDR      r0,[pc,#304] ; [0xef8] = 0x2000002c
        0x00000dc6:    68c0        .h      LDR      r0,[r0,#0xc]
        0x00000dc8:    6800        .h      LDR      r0,[r0,#0]
        0x00000dca:    07c0        ..      LSLS     r0,r0,#31
        0x00000dcc:    0fc0        ..      LSRS     r0,r0,#31
        0x00000dce:    2801        .(      CMP      r0,#1
        0x00000dd0:    d0f8        ..      BEQ      0xdc4 ; Initial_pannel + 224
        0x00000dd2:    4849        IH      LDR      r0,[pc,#292] ; [0xef8] = 0x2000002c
        0x00000dd4:    68c0        .h      LDR      r0,[r0,#0xc]
        0x00000dd6:    6880        .h      LDR      r0,[r0,#8]
        0x00000dd8:    0880        ..      LSRS     r0,r0,#2
        0x00000dda:    0080        ..      LSLS     r0,r0,#2
        0x00000ddc:    4946        FI      LDR      r1,[pc,#280] ; [0xef8] = 0x2000002c
        0x00000dde:    68c9        .h      LDR      r1,[r1,#0xc]
        0x00000de0:    6088        .`      STR      r0,[r1,#8]
        0x00000de2:    4845        EH      LDR      r0,[pc,#276] ; [0xef8] = 0x2000002c
        0x00000de4:    68c0        .h      LDR      r0,[r0,#0xc]
        0x00000de6:    6880        .h      LDR      r0,[r0,#8]
        0x00000de8:    0880        ..      LSRS     r0,r0,#2
        0x00000dea:    0080        ..      LSLS     r0,r0,#2
        0x00000dec:    1c40        @.      ADDS     r0,r0,#1
        0x00000dee:    4942        BI      LDR      r1,[pc,#264] ; [0xef8] = 0x2000002c
        0x00000df0:    68c9        .h      LDR      r1,[r1,#0xc]
        0x00000df2:    6088        .`      STR      r0,[r1,#8]
        0x00000df4:    2081        .       MOVS     r0,#0x81
        0x00000df6:    4940        @I      LDR      r1,[pc,#256] ; [0xef8] = 0x2000002c
        0x00000df8:    68c9        .h      LDR      r1,[r1,#0xc]
        0x00000dfa:    6208        .b      STR      r0,[r1,#0x20]
        0x00000dfc:    483e        >H      LDR      r0,[pc,#248] ; [0xef8] = 0x2000002c
        0x00000dfe:    68c0        .h      LDR      r0,[r0,#0xc]
        0x00000e00:    6800        .h      LDR      r0,[r0,#0]
        0x00000e02:    0840        @.      LSRS     r0,r0,#1
        0x00000e04:    0040        @.      LSLS     r0,r0,#1
        0x00000e06:    1c40        @.      ADDS     r0,r0,#1
        0x00000e08:    493b        ;I      LDR      r1,[pc,#236] ; [0xef8] = 0x2000002c
        0x00000e0a:    68c9        .h      LDR      r1,[r1,#0xc]
        0x00000e0c:    6008        .`      STR      r0,[r1,#0]
        0x00000e0e:    bf00        ..      NOP      
        0x00000e10:    4839        9H      LDR      r0,[pc,#228] ; [0xef8] = 0x2000002c
        0x00000e12:    68c0        .h      LDR      r0,[r0,#0xc]
        0x00000e14:    6800        .h      LDR      r0,[r0,#0]
        0x00000e16:    07c0        ..      LSLS     r0,r0,#31
        0x00000e18:    0fc0        ..      LSRS     r0,r0,#31
        0x00000e1a:    2801        .(      CMP      r0,#1
        0x00000e1c:    d0f8        ..      BEQ      0xe10 ; Initial_pannel + 300
        0x00000e1e:    20a0        .       MOVS     r0,#0xa0
        0x00000e20:    4935        5I      LDR      r1,[pc,#212] ; [0xef8] = 0x2000002c
        0x00000e22:    68c9        .h      LDR      r1,[r1,#0xc]
        0x00000e24:    6208        .b      STR      r0,[r1,#0x20]
        0x00000e26:    4834        4H      LDR      r0,[pc,#208] ; [0xef8] = 0x2000002c
        0x00000e28:    68c0        .h      LDR      r0,[r0,#0xc]
        0x00000e2a:    6800        .h      LDR      r0,[r0,#0]
        0x00000e2c:    0840        @.      LSRS     r0,r0,#1
        0x00000e2e:    0040        @.      LSLS     r0,r0,#1
        0x00000e30:    1c40        @.      ADDS     r0,r0,#1
        0x00000e32:    4931        1I      LDR      r1,[pc,#196] ; [0xef8] = 0x2000002c
        0x00000e34:    68c9        .h      LDR      r1,[r1,#0xc]
        0x00000e36:    6008        .`      STR      r0,[r1,#0]
        0x00000e38:    bf00        ..      NOP      
        0x00000e3a:    482f        /H      LDR      r0,[pc,#188] ; [0xef8] = 0x2000002c
        0x00000e3c:    68c0        .h      LDR      r0,[r0,#0xc]
        0x00000e3e:    6800        .h      LDR      r0,[r0,#0]
        0x00000e40:    07c0        ..      LSLS     r0,r0,#31
        0x00000e42:    0fc0        ..      LSRS     r0,r0,#31
        0x00000e44:    2801        .(      CMP      r0,#1
        0x00000e46:    d0f8        ..      BEQ      0xe3a ; Initial_pannel + 342
        0x00000e48:    482b        +H      LDR      r0,[pc,#172] ; [0xef8] = 0x2000002c
        0x00000e4a:    68c0        .h      LDR      r0,[r0,#0xc]
        0x00000e4c:    6880        .h      LDR      r0,[r0,#8]
        0x00000e4e:    0880        ..      LSRS     r0,r0,#2
        0x00000e50:    0080        ..      LSLS     r0,r0,#2
        0x00000e52:    4929        )I      LDR      r1,[pc,#164] ; [0xef8] = 0x2000002c
        0x00000e54:    68c9        .h      LDR      r1,[r1,#0xc]
        0x00000e56:    6088        .`      STR      r0,[r1,#8]
        0x00000e58:    4827        'H      LDR      r0,[pc,#156] ; [0xef8] = 0x2000002c
        0x00000e5a:    68c0        .h      LDR      r0,[r0,#0xc]
        0x00000e5c:    6880        .h      LDR      r0,[r0,#8]
        0x00000e5e:    0880        ..      LSRS     r0,r0,#2
        0x00000e60:    0080        ..      LSLS     r0,r0,#2
        0x00000e62:    1c40        @.      ADDS     r0,r0,#1
        0x00000e64:    4924        $I      LDR      r1,[pc,#144] ; [0xef8] = 0x2000002c
        0x00000e66:    68c9        .h      LDR      r1,[r1,#0xc]
        0x00000e68:    6088        .`      STR      r0,[r1,#8]
        0x00000e6a:    20c0        .       MOVS     r0,#0xc0
        0x00000e6c:    4922        "I      LDR      r1,[pc,#136] ; [0xef8] = 0x2000002c
        0x00000e6e:    68c9        .h      LDR      r1,[r1,#0xc]
        0x00000e70:    6208        .b      STR      r0,[r1,#0x20]
        0x00000e72:    4821        !H      LDR      r0,[pc,#132] ; [0xef8] = 0x2000002c
        0x00000e74:    68c0        .h      LDR      r0,[r0,#0xc]
        0x00000e76:    6800        .h      LDR      r0,[r0,#0]
        0x00000e78:    0840        @.      LSRS     r0,r0,#1
        0x00000e7a:    0040        @.      LSLS     r0,r0,#1
        0x00000e7c:    1c40        @.      ADDS     r0,r0,#1
        0x00000e7e:    491e        .I      LDR      r1,[pc,#120] ; [0xef8] = 0x2000002c
        0x00000e80:    68c9        .h      LDR      r1,[r1,#0xc]
        0x00000e82:    6008        .`      STR      r0,[r1,#0]
        0x00000e84:    bf00        ..      NOP      
        0x00000e86:    481c        .H      LDR      r0,[pc,#112] ; [0xef8] = 0x2000002c
        0x00000e88:    68c0        .h      LDR      r0,[r0,#0xc]
        0x00000e8a:    6800        .h      LDR      r0,[r0,#0]
        0x00000e8c:    07c0        ..      LSLS     r0,r0,#31
        0x00000e8e:    0fc0        ..      LSRS     r0,r0,#31
        0x00000e90:    2801        .(      CMP      r0,#1
        0x00000e92:    d0f8        ..      BEQ      0xe86 ; Initial_pannel + 418
        0x00000e94:    4818        .H      LDR      r0,[pc,#96] ; [0xef8] = 0x2000002c
        0x00000e96:    68c0        .h      LDR      r0,[r0,#0xc]
        0x00000e98:    6880        .h      LDR      r0,[r0,#8]
        0x00000e9a:    0880        ..      LSRS     r0,r0,#2
        0x00000e9c:    0080        ..      LSLS     r0,r0,#2
        0x00000e9e:    4916        .I      LDR      r1,[pc,#88] ; [0xef8] = 0x2000002c
        0x00000ea0:    68c9        .h      LDR      r1,[r1,#0xc]
        0x00000ea2:    6088        .`      STR      r0,[r1,#8]
        0x00000ea4:    4814        .H      LDR      r0,[pc,#80] ; [0xef8] = 0x2000002c
        0x00000ea6:    68c0        .h      LDR      r0,[r0,#0xc]
        0x00000ea8:    6880        .h      LDR      r0,[r0,#8]
        0x00000eaa:    0880        ..      LSRS     r0,r0,#2
        0x00000eac:    0080        ..      LSLS     r0,r0,#2
        0x00000eae:    1c40        @.      ADDS     r0,r0,#1
        0x00000eb0:    4911        .I      LDR      r1,[pc,#68] ; [0xef8] = 0x2000002c
        0x00000eb2:    68c9        .h      LDR      r1,[r1,#0xc]
        0x00000eb4:    6088        .`      STR      r0,[r1,#8]
        0x00000eb6:    20af        .       MOVS     r0,#0xaf
        0x00000eb8:    490f        .I      LDR      r1,[pc,#60] ; [0xef8] = 0x2000002c
        0x00000eba:    68c9        .h      LDR      r1,[r1,#0xc]
        0x00000ebc:    6208        .b      STR      r0,[r1,#0x20]
        0x00000ebe:    480e        .H      LDR      r0,[pc,#56] ; [0xef8] = 0x2000002c
        0x00000ec0:    68c0        .h      LDR      r0,[r0,#0xc]
        0x00000ec2:    6800        .h      LDR      r0,[r0,#0]
        0x00000ec4:    0840        @.      LSRS     r0,r0,#1
        0x00000ec6:    0040        @.      LSLS     r0,r0,#1
        0x00000ec8:    1c40        @.      ADDS     r0,r0,#1
        0x00000eca:    490b        .I      LDR      r1,[pc,#44] ; [0xef8] = 0x2000002c
        0x00000ecc:    68c9        .h      LDR      r1,[r1,#0xc]
        0x00000ece:    6008        .`      STR      r0,[r1,#0]
        0x00000ed0:    bf00        ..      NOP      
        0x00000ed2:    4809        .H      LDR      r0,[pc,#36] ; [0xef8] = 0x2000002c
        0x00000ed4:    68c0        .h      LDR      r0,[r0,#0xc]
        0x00000ed6:    6800        .h      LDR      r0,[r0,#0]
        0x00000ed8:    07c0        ..      LSLS     r0,r0,#31
        0x00000eda:    0fc0        ..      LSRS     r0,r0,#31
        0x00000edc:    2801        .(      CMP      r0,#1
        0x00000ede:    d0f8        ..      BEQ      0xed2 ; Initial_pannel + 494
        0x00000ee0:    4805        .H      LDR      r0,[pc,#20] ; [0xef8] = 0x2000002c
        0x00000ee2:    68c0        .h      LDR      r0,[r0,#0xc]
        0x00000ee4:    6880        .h      LDR      r0,[r0,#8]
        0x00000ee6:    0880        ..      LSRS     r0,r0,#2
        0x00000ee8:    0080        ..      LSLS     r0,r0,#2
        0x00000eea:    4903        .I      LDR      r1,[pc,#12] ; [0xef8] = 0x2000002c
        0x00000eec:    68c9        .h      LDR      r1,[r1,#0xc]
        0x00000eee:    6088        .`      STR      r0,[r1,#8]
        0x00000ef0:    4770        pG      BX       lr
    $d
        0x00000ef2:    0000        ..      DCW    0
        0x00000ef4:    50000200    ...P    DCD    1342177792
        0x00000ef8:    2000002c    ,..     DCD    536870956
    $t
    i.NVIC_EnableIRQ
    NVIC_EnableIRQ
        0x00000efc:    06c2        ..      LSLS     r2,r0,#27
        0x00000efe:    0ed2        ..      LSRS     r2,r2,#27
        0x00000f00:    2101        .!      MOVS     r1,#1
        0x00000f02:    4091        .@      LSLS     r1,r1,r2
        0x00000f04:    4a01        .J      LDR      r2,[pc,#4] ; [0xf0c] = 0xe000e100
        0x00000f06:    6011        .`      STR      r1,[r2,#0]
        0x00000f08:    4770        pG      BX       lr
    $d
        0x00000f0a:    0000        ..      DCW    0
        0x00000f0c:    e000e100    ....    DCD    3758153984
    $t
    i.OpenKeyPad
    OpenKeyPad
        0x00000f10:    b510        ..      PUSH     {r4,lr}
        0x00000f12:    2400        .$      MOVS     r4,#0
        0x00000f14:    e006        ..      B        0xf24 ; OpenKeyPad + 20
        0x00000f16:    2203        ."      MOVS     r2,#3
        0x00000f18:    4621        !F      MOV      r1,r4
        0x00000f1a:    2000        .       MOVS     r0,#0
        0x00000f1c:    f7fffc24    ..$.    BL       DrvGPIO_Open ; 0x768
        0x00000f20:    1c60        `.      ADDS     r0,r4,#1
        0x00000f22:    b2c4        ..      UXTB     r4,r0
        0x00000f24:    2c06        .,      CMP      r4,#6
        0x00000f26:    dbf6        ..      BLT      0xf16 ; OpenKeyPad + 6
        0x00000f28:    bd10        ..      POP      {r4,pc}
        0x00000f2a:    0000        ..      MOVS     r0,r0
    i.PWMA_IRQHandler
    PWMA_IRQHandler
        0x00000f2c:    4826        &H      LDR      r0,[pc,#152] ; [0xfc8] = 0x40040040
        0x00000f2e:    6840        @h      LDR      r0,[r0,#4]
        0x00000f30:    07c0        ..      LSLS     r0,r0,#31
        0x00000f32:    0fc0        ..      LSRS     r0,r0,#31
        0x00000f34:    d00b        ..      BEQ      0xf4e ; PWMA_IRQHandler + 34
        0x00000f36:    4825        %H      LDR      r0,[pc,#148] ; [0xfcc] = 0x20000020
        0x00000f38:    8800        ..      LDRH     r0,[r0,#0]
        0x00000f3a:    1c40        @.      ADDS     r0,r0,#1
        0x00000f3c:    4923        #I      LDR      r1,[pc,#140] ; [0xfcc] = 0x20000020
        0x00000f3e:    8008        ..      STRH     r0,[r1,#0]
        0x00000f40:    4821        !H      LDR      r0,[pc,#132] ; [0xfc8] = 0x40040040
        0x00000f42:    6840        @h      LDR      r0,[r0,#4]
        0x00000f44:    0840        @.      LSRS     r0,r0,#1
        0x00000f46:    0040        @.      LSLS     r0,r0,#1
        0x00000f48:    1c40        @.      ADDS     r0,r0,#1
        0x00000f4a:    491f        .I      LDR      r1,[pc,#124] ; [0xfc8] = 0x40040040
        0x00000f4c:    6048        H`      STR      r0,[r1,#4]
        0x00000f4e:    481e        .H      LDR      r0,[pc,#120] ; [0xfc8] = 0x40040040
        0x00000f50:    6900        .i      LDR      r0,[r0,#0x10]
        0x00000f52:    06c0        ..      LSLS     r0,r0,#27
        0x00000f54:    0fc0        ..      LSRS     r0,r0,#31
        0x00000f56:    d036        6.      BEQ      0xfc6 ; PWMA_IRQHandler + 154
        0x00000f58:    481b        .H      LDR      r0,[pc,#108] ; [0xfc8] = 0x40040040
        0x00000f5a:    6900        .i      LDR      r0,[r0,#0x10]
        0x00000f5c:    0600        ..      LSLS     r0,r0,#24
        0x00000f5e:    0fc0        ..      LSRS     r0,r0,#31
        0x00000f60:    d012        ..      BEQ      0xf88 ; PWMA_IRQHandler + 92
        0x00000f62:    481a        .H      LDR      r0,[pc,#104] ; [0xfcc] = 0x20000020
        0x00000f64:    8800        ..      LDRH     r0,[r0,#0]
        0x00000f66:    0400        ..      LSLS     r0,r0,#16
        0x00000f68:    4917        .I      LDR      r1,[pc,#92] ; [0xfc8] = 0x40040040
        0x00000f6a:    69c9        .i      LDR      r1,[r1,#0x1c]
        0x00000f6c:    4a18        .J      LDR      r2,[pc,#96] ; [0xfd0] = 0xffff
        0x00000f6e:    1a51        Q.      SUBS     r1,r2,r1
        0x00000f70:    1840        @.      ADDS     r0,r0,r1
        0x00000f72:    4918        .I      LDR      r1,[pc,#96] ; [0xfd4] = 0x20000024
        0x00000f74:    6008        .`      STR      r0,[r1,#0]
        0x00000f76:    2000        .       MOVS     r0,#0
        0x00000f78:    4914        .I      LDR      r1,[pc,#80] ; [0xfcc] = 0x20000020
        0x00000f7a:    8008        ..      STRH     r0,[r1,#0]
        0x00000f7c:    4812        .H      LDR      r0,[pc,#72] ; [0xfc8] = 0x40040040
        0x00000f7e:    6900        .i      LDR      r0,[r0,#0x10]
        0x00000f80:    2180        .!      MOVS     r1,#0x80
        0x00000f82:    4388        .C      BICS     r0,r0,r1
        0x00000f84:    4910        .I      LDR      r1,[pc,#64] ; [0xfc8] = 0x40040040
        0x00000f86:    6108        .a      STR      r0,[r1,#0x10]
        0x00000f88:    480f        .H      LDR      r0,[pc,#60] ; [0xfc8] = 0x40040040
        0x00000f8a:    6900        .i      LDR      r0,[r0,#0x10]
        0x00000f8c:    0640        @.      LSLS     r0,r0,#25
        0x00000f8e:    0fc0        ..      LSRS     r0,r0,#31
        0x00000f90:    d012        ..      BEQ      0xfb8 ; PWMA_IRQHandler + 140
        0x00000f92:    480e        .H      LDR      r0,[pc,#56] ; [0xfcc] = 0x20000020
        0x00000f94:    8800        ..      LDRH     r0,[r0,#0]
        0x00000f96:    0400        ..      LSLS     r0,r0,#16
        0x00000f98:    490b        .I      LDR      r1,[pc,#44] ; [0xfc8] = 0x40040040
        0x00000f9a:    6989        .i      LDR      r1,[r1,#0x18]
        0x00000f9c:    4a0c        .J      LDR      r2,[pc,#48] ; [0xfd0] = 0xffff
        0x00000f9e:    1a51        Q.      SUBS     r1,r2,r1
        0x00000fa0:    1840        @.      ADDS     r0,r0,r1
        0x00000fa2:    490c        .I      LDR      r1,[pc,#48] ; [0xfd4] = 0x20000024
        0x00000fa4:    6048        H`      STR      r0,[r1,#4]
        0x00000fa6:    2000        .       MOVS     r0,#0
        0x00000fa8:    4908        .I      LDR      r1,[pc,#32] ; [0xfcc] = 0x20000020
        0x00000faa:    8008        ..      STRH     r0,[r1,#0]
        0x00000fac:    4806        .H      LDR      r0,[pc,#24] ; [0xfc8] = 0x40040040
        0x00000fae:    6900        .i      LDR      r0,[r0,#0x10]
        0x00000fb0:    2140        @!      MOVS     r1,#0x40
        0x00000fb2:    4388        .C      BICS     r0,r0,r1
        0x00000fb4:    4904        .I      LDR      r1,[pc,#16] ; [0xfc8] = 0x40040040
        0x00000fb6:    6108        .a      STR      r0,[r1,#0x10]
        0x00000fb8:    4803        .H      LDR      r0,[pc,#12] ; [0xfc8] = 0x40040040
        0x00000fba:    6900        .i      LDR      r0,[r0,#0x10]
        0x00000fbc:    2110        .!      MOVS     r1,#0x10
        0x00000fbe:    4388        .C      BICS     r0,r0,r1
        0x00000fc0:    3010        .0      ADDS     r0,r0,#0x10
        0x00000fc2:    4901        .I      LDR      r1,[pc,#4] ; [0xfc8] = 0x40040040
        0x00000fc4:    6108        .a      STR      r0,[r1,#0x10]
        0x00000fc6:    4770        pG      BX       lr
    $d
        0x00000fc8:    40040040    @..@    DCD    1074004032
        0x00000fcc:    20000020     ..     DCD    536870944
        0x00000fd0:    0000ffff    ....    DCD    65535
        0x00000fd4:    20000024    $..     DCD    536870948
    $t
    i.PWRWU_IRQHandler
    PWRWU_IRQHandler
        0x00000fd8:    b510        ..      PUSH     {r4,lr}
        0x00000fda:    4807        .H      LDR      r0,[pc,#28] ; [0xff8] = 0x50000200
        0x00000fdc:    6800        .h      LDR      r0,[r0,#0]
        0x00000fde:    2140        @!      MOVS     r1,#0x40
        0x00000fe0:    4388        .C      BICS     r0,r0,r1
        0x00000fe2:    3040        @0      ADDS     r0,r0,#0x40
        0x00000fe4:    4904        .I      LDR      r1,[pc,#16] ; [0xff8] = 0x50000200
        0x00000fe6:    6008        .`      STR      r0,[r1,#0]
        0x00000fe8:    4804        .H      LDR      r0,[pc,#16] ; [0xffc] = 0x2000063c
        0x00000fea:    6800        .h      LDR      r0,[r0,#0]
        0x00000fec:    2800        .(      CMP      r0,#0
        0x00000fee:    d002        ..      BEQ      0xff6 ; PWRWU_IRQHandler + 30
        0x00000ff0:    4802        .H      LDR      r0,[pc,#8] ; [0xffc] = 0x2000063c
        0x00000ff2:    6800        .h      LDR      r0,[r0,#0]
        0x00000ff4:    4780        .G      BLX      r0
        0x00000ff6:    bd10        ..      POP      {r4,pc}
    $d
        0x00000ff8:    50000200    ...P    DCD    1342177792
        0x00000ffc:    2000063c    <..     DCD    536872508
    $t
    i.SPI0_IRQHandler
    SPI0_IRQHandler
        0x00001000:    b510        ..      PUSH     {r4,lr}
        0x00001002:    4816        .H      LDR      r0,[pc,#88] ; [0x105c] = 0x40030000
        0x00001004:    6800        .h      LDR      r0,[r0,#0]
        0x00001006:    03c0        ..      LSLS     r0,r0,#15
        0x00001008:    0fc0        ..      LSRS     r0,r0,#31
        0x0000100a:    2801        .(      CMP      r0,#1
        0x0000100c:    d10f        ..      BNE      0x102e ; SPI0_IRQHandler + 46
        0x0000100e:    4813        .H      LDR      r0,[pc,#76] ; [0x105c] = 0x40030000
        0x00001010:    6800        .h      LDR      r0,[r0,#0]
        0x00001012:    2101        .!      MOVS     r1,#1
        0x00001014:    0409        ..      LSLS     r1,r1,#16
        0x00001016:    4388        .C      BICS     r0,r0,r1
        0x00001018:    1840        @.      ADDS     r0,r0,r1
        0x0000101a:    4910        .I      LDR      r1,[pc,#64] ; [0x105c] = 0x40030000
        0x0000101c:    6008        .`      STR      r0,[r1,#0]
        0x0000101e:    4810        .H      LDR      r0,[pc,#64] ; [0x1060] = 0x2000065c
        0x00001020:    6840        @h      LDR      r0,[r0,#4]
        0x00001022:    2800        .(      CMP      r0,#0
        0x00001024:    d003        ..      BEQ      0x102e ; SPI0_IRQHandler + 46
        0x00001026:    4a0e        .J      LDR      r2,[pc,#56] ; [0x1060] = 0x2000065c
        0x00001028:    6890        .h      LDR      r0,[r2,#8]
        0x0000102a:    6851        Qh      LDR      r1,[r2,#4]
        0x0000102c:    4788        .G      BLX      r1
        0x0000102e:    480b        .H      LDR      r0,[pc,#44] ; [0x105c] = 0x40030000
        0x00001030:    6bc0        .k      LDR      r0,[r0,#0x3c]
        0x00001032:    0500        ..      LSLS     r0,r0,#20
        0x00001034:    0fc0        ..      LSRS     r0,r0,#31
        0x00001036:    2801        .(      CMP      r0,#1
        0x00001038:    d10f        ..      BNE      0x105a ; SPI0_IRQHandler + 90
        0x0000103a:    4808        .H      LDR      r0,[pc,#32] ; [0x105c] = 0x40030000
        0x0000103c:    6bc0        .k      LDR      r0,[r0,#0x3c]
        0x0000103e:    2101        .!      MOVS     r1,#1
        0x00001040:    02c9        ..      LSLS     r1,r1,#11
        0x00001042:    4388        .C      BICS     r0,r0,r1
        0x00001044:    1840        @.      ADDS     r0,r0,r1
        0x00001046:    4905        .I      LDR      r1,[pc,#20] ; [0x105c] = 0x40030000
        0x00001048:    63c8        .c      STR      r0,[r1,#0x3c]
        0x0000104a:    4805        .H      LDR      r0,[pc,#20] ; [0x1060] = 0x2000065c
        0x0000104c:    68c0        .h      LDR      r0,[r0,#0xc]
        0x0000104e:    2800        .(      CMP      r0,#0
        0x00001050:    d003        ..      BEQ      0x105a ; SPI0_IRQHandler + 90
        0x00001052:    4a03        .J      LDR      r2,[pc,#12] ; [0x1060] = 0x2000065c
        0x00001054:    6910        .i      LDR      r0,[r2,#0x10]
        0x00001056:    68d1        .h      LDR      r1,[r2,#0xc]
        0x00001058:    4788        .G      BLX      r1
        0x0000105a:    bd10        ..      POP      {r4,pc}
    $d
        0x0000105c:    40030000    ...@    DCD    1073938432
        0x00001060:    2000065c    \..     DCD    536872540
    $t
    i.SPI1_IRQHandler
    SPI1_IRQHandler
        0x00001064:    b510        ..      PUSH     {r4,lr}
        0x00001066:    4816        .H      LDR      r0,[pc,#88] ; [0x10c0] = 0x40034000
        0x00001068:    6800        .h      LDR      r0,[r0,#0]
        0x0000106a:    03c0        ..      LSLS     r0,r0,#15
        0x0000106c:    0fc0        ..      LSRS     r0,r0,#31
        0x0000106e:    2801        .(      CMP      r0,#1
        0x00001070:    d10f        ..      BNE      0x1092 ; SPI1_IRQHandler + 46
        0x00001072:    4813        .H      LDR      r0,[pc,#76] ; [0x10c0] = 0x40034000
        0x00001074:    6800        .h      LDR      r0,[r0,#0]
        0x00001076:    2101        .!      MOVS     r1,#1
        0x00001078:    0409        ..      LSLS     r1,r1,#16
        0x0000107a:    4388        .C      BICS     r0,r0,r1
        0x0000107c:    1840        @.      ADDS     r0,r0,r1
        0x0000107e:    4910        .I      LDR      r1,[pc,#64] ; [0x10c0] = 0x40034000
        0x00001080:    6008        .`      STR      r0,[r1,#0]
        0x00001082:    4810        .H      LDR      r0,[pc,#64] ; [0x10c4] = 0x2000065c
        0x00001084:    6980        .i      LDR      r0,[r0,#0x18]
        0x00001086:    2800        .(      CMP      r0,#0
        0x00001088:    d003        ..      BEQ      0x1092 ; SPI1_IRQHandler + 46
        0x0000108a:    4a0e        .J      LDR      r2,[pc,#56] ; [0x10c4] = 0x2000065c
        0x0000108c:    69d0        .i      LDR      r0,[r2,#0x1c]
        0x0000108e:    6991        .i      LDR      r1,[r2,#0x18]
        0x00001090:    4788        .G      BLX      r1
        0x00001092:    480b        .H      LDR      r0,[pc,#44] ; [0x10c0] = 0x40034000
        0x00001094:    6bc0        .k      LDR      r0,[r0,#0x3c]
        0x00001096:    0500        ..      LSLS     r0,r0,#20
        0x00001098:    0fc0        ..      LSRS     r0,r0,#31
        0x0000109a:    2801        .(      CMP      r0,#1
        0x0000109c:    d10f        ..      BNE      0x10be ; SPI1_IRQHandler + 90
        0x0000109e:    4808        .H      LDR      r0,[pc,#32] ; [0x10c0] = 0x40034000
        0x000010a0:    6bc0        .k      LDR      r0,[r0,#0x3c]
        0x000010a2:    2101        .!      MOVS     r1,#1
        0x000010a4:    02c9        ..      LSLS     r1,r1,#11
        0x000010a6:    4388        .C      BICS     r0,r0,r1
        0x000010a8:    1840        @.      ADDS     r0,r0,r1
        0x000010aa:    4905        .I      LDR      r1,[pc,#20] ; [0x10c0] = 0x40034000
        0x000010ac:    63c8        .c      STR      r0,[r1,#0x3c]
        0x000010ae:    4805        .H      LDR      r0,[pc,#20] ; [0x10c4] = 0x2000065c
        0x000010b0:    6a00        .j      LDR      r0,[r0,#0x20]
        0x000010b2:    2800        .(      CMP      r0,#0
        0x000010b4:    d003        ..      BEQ      0x10be ; SPI1_IRQHandler + 90
        0x000010b6:    4a03        .J      LDR      r2,[pc,#12] ; [0x10c4] = 0x2000065c
        0x000010b8:    6a50        Pj      LDR      r0,[r2,#0x24]
        0x000010ba:    6a11        .j      LDR      r1,[r2,#0x20]
        0x000010bc:    4788        .G      BLX      r1
        0x000010be:    bd10        ..      POP      {r4,pc}
    $d
        0x000010c0:    40034000    .@.@    DCD    1073954816
        0x000010c4:    2000065c    \..     DCD    536872540
    $t
    i.SPI2_IRQHandler
    SPI2_IRQHandler
        0x000010c8:    b510        ..      PUSH     {r4,lr}
        0x000010ca:    4816        .H      LDR      r0,[pc,#88] ; [0x1124] = 0x40130000
        0x000010cc:    6800        .h      LDR      r0,[r0,#0]
        0x000010ce:    03c0        ..      LSLS     r0,r0,#15
        0x000010d0:    0fc0        ..      LSRS     r0,r0,#31
        0x000010d2:    2801        .(      CMP      r0,#1
        0x000010d4:    d10f        ..      BNE      0x10f6 ; SPI2_IRQHandler + 46
        0x000010d6:    4813        .H      LDR      r0,[pc,#76] ; [0x1124] = 0x40130000
        0x000010d8:    6800        .h      LDR      r0,[r0,#0]
        0x000010da:    2101        .!      MOVS     r1,#1
        0x000010dc:    0409        ..      LSLS     r1,r1,#16
        0x000010de:    4388        .C      BICS     r0,r0,r1
        0x000010e0:    1840        @.      ADDS     r0,r0,r1
        0x000010e2:    4910        .I      LDR      r1,[pc,#64] ; [0x1124] = 0x40130000
        0x000010e4:    6008        .`      STR      r0,[r1,#0]
        0x000010e6:    4810        .H      LDR      r0,[pc,#64] ; [0x1128] = 0x2000065c
        0x000010e8:    6ac0        .j      LDR      r0,[r0,#0x2c]
        0x000010ea:    2800        .(      CMP      r0,#0
        0x000010ec:    d003        ..      BEQ      0x10f6 ; SPI2_IRQHandler + 46
        0x000010ee:    4a0e        .J      LDR      r2,[pc,#56] ; [0x1128] = 0x2000065c
        0x000010f0:    6b10        .k      LDR      r0,[r2,#0x30]
        0x000010f2:    6ad1        .j      LDR      r1,[r2,#0x2c]
        0x000010f4:    4788        .G      BLX      r1
        0x000010f6:    480b        .H      LDR      r0,[pc,#44] ; [0x1124] = 0x40130000
        0x000010f8:    6bc0        .k      LDR      r0,[r0,#0x3c]
        0x000010fa:    0500        ..      LSLS     r0,r0,#20
        0x000010fc:    0fc0        ..      LSRS     r0,r0,#31
        0x000010fe:    2801        .(      CMP      r0,#1
        0x00001100:    d10f        ..      BNE      0x1122 ; SPI2_IRQHandler + 90
        0x00001102:    4808        .H      LDR      r0,[pc,#32] ; [0x1124] = 0x40130000
        0x00001104:    6bc0        .k      LDR      r0,[r0,#0x3c]
        0x00001106:    2101        .!      MOVS     r1,#1
        0x00001108:    02c9        ..      LSLS     r1,r1,#11
        0x0000110a:    4388        .C      BICS     r0,r0,r1
        0x0000110c:    1840        @.      ADDS     r0,r0,r1
        0x0000110e:    4905        .I      LDR      r1,[pc,#20] ; [0x1124] = 0x40130000
        0x00001110:    63c8        .c      STR      r0,[r1,#0x3c]
        0x00001112:    4805        .H      LDR      r0,[pc,#20] ; [0x1128] = 0x2000065c
        0x00001114:    6b40        @k      LDR      r0,[r0,#0x34]
        0x00001116:    2800        .(      CMP      r0,#0
        0x00001118:    d003        ..      BEQ      0x1122 ; SPI2_IRQHandler + 90
        0x0000111a:    4a03        .J      LDR      r2,[pc,#12] ; [0x1128] = 0x2000065c
        0x0000111c:    6b90        .k      LDR      r0,[r2,#0x38]
        0x0000111e:    6b51        Qk      LDR      r1,[r2,#0x34]
        0x00001120:    4788        .G      BLX      r1
        0x00001122:    bd10        ..      POP      {r4,pc}
    $d
        0x00001124:    40130000    ...@    DCD    1074987008
        0x00001128:    2000065c    \..     DCD    536872540
    $t
    i.SPI3_IRQHandler
    SPI3_IRQHandler
        0x0000112c:    b510        ..      PUSH     {r4,lr}
        0x0000112e:    4816        .H      LDR      r0,[pc,#88] ; [0x1188] = 0x40134000
        0x00001130:    6800        .h      LDR      r0,[r0,#0]
        0x00001132:    03c0        ..      LSLS     r0,r0,#15
        0x00001134:    0fc0        ..      LSRS     r0,r0,#31
        0x00001136:    2801        .(      CMP      r0,#1
        0x00001138:    d10f        ..      BNE      0x115a ; SPI3_IRQHandler + 46
        0x0000113a:    4813        .H      LDR      r0,[pc,#76] ; [0x1188] = 0x40134000
        0x0000113c:    6800        .h      LDR      r0,[r0,#0]
        0x0000113e:    2101        .!      MOVS     r1,#1
        0x00001140:    0409        ..      LSLS     r1,r1,#16
        0x00001142:    4388        .C      BICS     r0,r0,r1
        0x00001144:    1840        @.      ADDS     r0,r0,r1
        0x00001146:    4910        .I      LDR      r1,[pc,#64] ; [0x1188] = 0x40134000
        0x00001148:    6008        .`      STR      r0,[r1,#0]
        0x0000114a:    4810        .H      LDR      r0,[pc,#64] ; [0x118c] = 0x2000065c
        0x0000114c:    6c00        .l      LDR      r0,[r0,#0x40]
        0x0000114e:    2800        .(      CMP      r0,#0
        0x00001150:    d003        ..      BEQ      0x115a ; SPI3_IRQHandler + 46
        0x00001152:    4a0e        .J      LDR      r2,[pc,#56] ; [0x118c] = 0x2000065c
        0x00001154:    6c50        Pl      LDR      r0,[r2,#0x44]
        0x00001156:    6c11        .l      LDR      r1,[r2,#0x40]
        0x00001158:    4788        .G      BLX      r1
        0x0000115a:    480b        .H      LDR      r0,[pc,#44] ; [0x1188] = 0x40134000
        0x0000115c:    6bc0        .k      LDR      r0,[r0,#0x3c]
        0x0000115e:    0500        ..      LSLS     r0,r0,#20
        0x00001160:    0fc0        ..      LSRS     r0,r0,#31
        0x00001162:    2801        .(      CMP      r0,#1
        0x00001164:    d10f        ..      BNE      0x1186 ; SPI3_IRQHandler + 90
        0x00001166:    4808        .H      LDR      r0,[pc,#32] ; [0x1188] = 0x40134000
        0x00001168:    6bc0        .k      LDR      r0,[r0,#0x3c]
        0x0000116a:    2101        .!      MOVS     r1,#1
        0x0000116c:    02c9        ..      LSLS     r1,r1,#11
        0x0000116e:    4388        .C      BICS     r0,r0,r1
        0x00001170:    1840        @.      ADDS     r0,r0,r1
        0x00001172:    4905        .I      LDR      r1,[pc,#20] ; [0x1188] = 0x40134000
        0x00001174:    63c8        .c      STR      r0,[r1,#0x3c]
        0x00001176:    4805        .H      LDR      r0,[pc,#20] ; [0x118c] = 0x2000065c
        0x00001178:    6c80        .l      LDR      r0,[r0,#0x48]
        0x0000117a:    2800        .(      CMP      r0,#0
        0x0000117c:    d003        ..      BEQ      0x1186 ; SPI3_IRQHandler + 90
        0x0000117e:    4a03        .J      LDR      r2,[pc,#12] ; [0x118c] = 0x2000065c
        0x00001180:    6cd0        .l      LDR      r0,[r2,#0x4c]
        0x00001182:    6c91        .l      LDR      r1,[r2,#0x48]
        0x00001184:    4788        .G      BLX      r1
        0x00001186:    bd10        ..      POP      {r4,pc}
    $d
        0x00001188:    40134000    .@.@    DCD    1075003392
        0x0000118c:    2000065c    \..     DCD    536872540
    $t
    i.Scankey
    Scankey
        0x00001190:    b5f8        ..      PUSH     {r3-r7,lr}
        0x00001192:    481f        .H      LDR      r0,[pc,#124] ; [0x1210] = 0x1864
        0x00001194:    6800        .h      LDR      r0,[r0,#0]
        0x00001196:    9000        ..      STR      r0,[sp,#0]
        0x00001198:    2400        .$      MOVS     r4,#0
        0x0000119a:    e034        4.      B        0x1206 ; Scankey + 118
        0x0000119c:    4668        hF      MOV      r0,sp
        0x0000119e:    5d06        .]      LDRB     r6,[r0,r4]
        0x000011a0:    2500        .%      MOVS     r5,#0
        0x000011a2:    e00f        ..      B        0x11c4 ; Scankey + 52
        0x000011a4:    07f0        ..      LSLS     r0,r6,#31
        0x000011a6:    0fc0        ..      LSRS     r0,r0,#31
        0x000011a8:    2801        .(      CMP      r0,#1
        0x000011aa:    d104        ..      BNE      0x11b6 ; Scankey + 38
        0x000011ac:    4629        )F      MOV      r1,r5
        0x000011ae:    2000        .       MOVS     r0,#0
        0x000011b0:    f7fffb16    ....    BL       DrvGPIO_SetBit ; 0x7e0
        0x000011b4:    e003        ..      B        0x11be ; Scankey + 46
        0x000011b6:    4629        )F      MOV      r1,r5
        0x000011b8:    2000        .       MOVS     r0,#0
        0x000011ba:    f7fffaab    ....    BL       DrvGPIO_ClrBit ; 0x714
        0x000011be:    1076        v.      ASRS     r6,r6,#1
        0x000011c0:    1c68        h.      ADDS     r0,r5,#1
        0x000011c2:    b2c5        ..      UXTB     r5,r0
        0x000011c4:    2d06        .-      CMP      r5,#6
        0x000011c6:    dbed        ..      BLT      0x11a4 ; Scankey + 20
        0x000011c8:    f000fa23    ..#.    BL       delay ; 0x1612
        0x000011cc:    2103        .!      MOVS     r1,#3
        0x000011ce:    2000        .       MOVS     r0,#0
        0x000011d0:    f7fffab6    ....    BL       DrvGPIO_GetBit ; 0x740
        0x000011d4:    2800        .(      CMP      r0,#0
        0x000011d6:    d102        ..      BNE      0x11de ; Scankey + 78
        0x000011d8:    1c60        `.      ADDS     r0,r4,#1
        0x000011da:    b2c0        ..      UXTB     r0,r0
        0x000011dc:    bdf8        ..      POP      {r3-r7,pc}
        0x000011de:    2104        .!      MOVS     r1,#4
        0x000011e0:    2000        .       MOVS     r0,#0
        0x000011e2:    f7fffaad    ....    BL       DrvGPIO_GetBit ; 0x740
        0x000011e6:    2800        .(      CMP      r0,#0
        0x000011e8:    d102        ..      BNE      0x11f0 ; Scankey + 96
        0x000011ea:    1d20         .      ADDS     r0,r4,#4
        0x000011ec:    b2c0        ..      UXTB     r0,r0
        0x000011ee:    e7f5        ..      B        0x11dc ; Scankey + 76
        0x000011f0:    2105        .!      MOVS     r1,#5
        0x000011f2:    2000        .       MOVS     r0,#0
        0x000011f4:    f7fffaa4    ....    BL       DrvGPIO_GetBit ; 0x740
        0x000011f8:    2800        .(      CMP      r0,#0
        0x000011fa:    d102        ..      BNE      0x1202 ; Scankey + 114
        0x000011fc:    1de0        ..      ADDS     r0,r4,#7
        0x000011fe:    b2c0        ..      UXTB     r0,r0
        0x00001200:    e7ec        ..      B        0x11dc ; Scankey + 76
        0x00001202:    1c60        `.      ADDS     r0,r4,#1
        0x00001204:    b2c4        ..      UXTB     r4,r0
        0x00001206:    2c03        .,      CMP      r4,#3
        0x00001208:    dbc8        ..      BLT      0x119c ; Scankey + 12
        0x0000120a:    2000        .       MOVS     r0,#0
        0x0000120c:    e7e6        ..      B        0x11dc ; Scankey + 76
    $d
        0x0000120e:    0000        ..      DCW    0
        0x00001210:    00001864    d...    DCD    6244
    $t
    i.SetPACA
    SetPACA
        0x00001214:    4a3b        ;J      LDR      r2,[pc,#236] ; [0x1304] = 0x2000002c
        0x00001216:    68d2        .h      LDR      r2,[r2,#0xc]
        0x00001218:    6892        .h      LDR      r2,[r2,#8]
        0x0000121a:    0892        ..      LSRS     r2,r2,#2
        0x0000121c:    0092        ..      LSLS     r2,r2,#2
        0x0000121e:    1c52        R.      ADDS     r2,r2,#1
        0x00001220:    4b38        8K      LDR      r3,[pc,#224] ; [0x1304] = 0x2000002c
        0x00001222:    68db        .h      LDR      r3,[r3,#0xc]
        0x00001224:    609a        .`      STR      r2,[r3,#8]
        0x00001226:    22b0        ."      MOVS     r2,#0xb0
        0x00001228:    4302        .C      ORRS     r2,r2,r0
        0x0000122a:    4b36        6K      LDR      r3,[pc,#216] ; [0x1304] = 0x2000002c
        0x0000122c:    68db        .h      LDR      r3,[r3,#0xc]
        0x0000122e:    621a        .b      STR      r2,[r3,#0x20]
        0x00001230:    4a34        4J      LDR      r2,[pc,#208] ; [0x1304] = 0x2000002c
        0x00001232:    68d2        .h      LDR      r2,[r2,#0xc]
        0x00001234:    6812        .h      LDR      r2,[r2,#0]
        0x00001236:    0852        R.      LSRS     r2,r2,#1
        0x00001238:    0052        R.      LSLS     r2,r2,#1
        0x0000123a:    1c52        R.      ADDS     r2,r2,#1
        0x0000123c:    4b31        1K      LDR      r3,[pc,#196] ; [0x1304] = 0x2000002c
        0x0000123e:    68db        .h      LDR      r3,[r3,#0xc]
        0x00001240:    601a        .`      STR      r2,[r3,#0]
        0x00001242:    bf00        ..      NOP      
        0x00001244:    4a2f        /J      LDR      r2,[pc,#188] ; [0x1304] = 0x2000002c
        0x00001246:    68d2        .h      LDR      r2,[r2,#0xc]
        0x00001248:    6812        .h      LDR      r2,[r2,#0]
        0x0000124a:    07d2        ..      LSLS     r2,r2,#31
        0x0000124c:    0fd2        ..      LSRS     r2,r2,#31
        0x0000124e:    2a01        .*      CMP      r2,#1
        0x00001250:    d0f8        ..      BEQ      0x1244 ; SetPACA + 48
        0x00001252:    4a2c        ,J      LDR      r2,[pc,#176] ; [0x1304] = 0x2000002c
        0x00001254:    68d2        .h      LDR      r2,[r2,#0xc]
        0x00001256:    6892        .h      LDR      r2,[r2,#8]
        0x00001258:    0892        ..      LSRS     r2,r2,#2
        0x0000125a:    0092        ..      LSLS     r2,r2,#2
        0x0000125c:    4b29        )K      LDR      r3,[pc,#164] ; [0x1304] = 0x2000002c
        0x0000125e:    68db        .h      LDR      r3,[r3,#0xc]
        0x00001260:    609a        .`      STR      r2,[r3,#8]
        0x00001262:    4a28        (J      LDR      r2,[pc,#160] ; [0x1304] = 0x2000002c
        0x00001264:    68d2        .h      LDR      r2,[r2,#0xc]
        0x00001266:    6892        .h      LDR      r2,[r2,#8]
        0x00001268:    0892        ..      LSRS     r2,r2,#2
        0x0000126a:    0092        ..      LSLS     r2,r2,#2
        0x0000126c:    1c52        R.      ADDS     r2,r2,#1
        0x0000126e:    4b25        %K      LDR      r3,[pc,#148] ; [0x1304] = 0x2000002c
        0x00001270:    68db        .h      LDR      r3,[r3,#0xc]
        0x00001272:    609a        .`      STR      r2,[r3,#8]
        0x00001274:    110a        ..      ASRS     r2,r1,#4
        0x00001276:    2310        .#      MOVS     r3,#0x10
        0x00001278:    431a        .C      ORRS     r2,r2,r3
        0x0000127a:    4b22        "K      LDR      r3,[pc,#136] ; [0x1304] = 0x2000002c
        0x0000127c:    68db        .h      LDR      r3,[r3,#0xc]
        0x0000127e:    621a        .b      STR      r2,[r3,#0x20]
        0x00001280:    4a20         J      LDR      r2,[pc,#128] ; [0x1304] = 0x2000002c
        0x00001282:    68d2        .h      LDR      r2,[r2,#0xc]
        0x00001284:    6812        .h      LDR      r2,[r2,#0]
        0x00001286:    0852        R.      LSRS     r2,r2,#1
        0x00001288:    0052        R.      LSLS     r2,r2,#1
        0x0000128a:    1c52        R.      ADDS     r2,r2,#1
        0x0000128c:    4b1d        .K      LDR      r3,[pc,#116] ; [0x1304] = 0x2000002c
        0x0000128e:    68db        .h      LDR      r3,[r3,#0xc]
        0x00001290:    601a        .`      STR      r2,[r3,#0]
        0x00001292:    bf00        ..      NOP      
        0x00001294:    4a1b        .J      LDR      r2,[pc,#108] ; [0x1304] = 0x2000002c
        0x00001296:    68d2        .h      LDR      r2,[r2,#0xc]
        0x00001298:    6812        .h      LDR      r2,[r2,#0]
        0x0000129a:    07d2        ..      LSLS     r2,r2,#31
        0x0000129c:    0fd2        ..      LSRS     r2,r2,#31
        0x0000129e:    2a01        .*      CMP      r2,#1
        0x000012a0:    d0f8        ..      BEQ      0x1294 ; SetPACA + 128
        0x000012a2:    4a18        .J      LDR      r2,[pc,#96] ; [0x1304] = 0x2000002c
        0x000012a4:    68d2        .h      LDR      r2,[r2,#0xc]
        0x000012a6:    6892        .h      LDR      r2,[r2,#8]
        0x000012a8:    0892        ..      LSRS     r2,r2,#2
        0x000012aa:    0092        ..      LSLS     r2,r2,#2
        0x000012ac:    4b15        .K      LDR      r3,[pc,#84] ; [0x1304] = 0x2000002c
        0x000012ae:    68db        .h      LDR      r3,[r3,#0xc]
        0x000012b0:    609a        .`      STR      r2,[r3,#8]
        0x000012b2:    4a14        .J      LDR      r2,[pc,#80] ; [0x1304] = 0x2000002c
        0x000012b4:    68d2        .h      LDR      r2,[r2,#0xc]
        0x000012b6:    6892        .h      LDR      r2,[r2,#8]
        0x000012b8:    0892        ..      LSRS     r2,r2,#2
        0x000012ba:    0092        ..      LSLS     r2,r2,#2
        0x000012bc:    1c52        R.      ADDS     r2,r2,#1
        0x000012be:    4b11        .K      LDR      r3,[pc,#68] ; [0x1304] = 0x2000002c
        0x000012c0:    68db        .h      LDR      r3,[r3,#0xc]
        0x000012c2:    609a        .`      STR      r2,[r3,#8]
        0x000012c4:    070a        ..      LSLS     r2,r1,#28
        0x000012c6:    0f12        ..      LSRS     r2,r2,#28
        0x000012c8:    4b0e        .K      LDR      r3,[pc,#56] ; [0x1304] = 0x2000002c
        0x000012ca:    68db        .h      LDR      r3,[r3,#0xc]
        0x000012cc:    621a        .b      STR      r2,[r3,#0x20]
        0x000012ce:    4a0d        .J      LDR      r2,[pc,#52] ; [0x1304] = 0x2000002c
        0x000012d0:    68d2        .h      LDR      r2,[r2,#0xc]
        0x000012d2:    6812        .h      LDR      r2,[r2,#0]
        0x000012d4:    0852        R.      LSRS     r2,r2,#1
        0x000012d6:    0052        R.      LSLS     r2,r2,#1
        0x000012d8:    1c52        R.      ADDS     r2,r2,#1
        0x000012da:    4b0a        .K      LDR      r3,[pc,#40] ; [0x1304] = 0x2000002c
        0x000012dc:    68db        .h      LDR      r3,[r3,#0xc]
        0x000012de:    601a        .`      STR      r2,[r3,#0]
        0x000012e0:    bf00        ..      NOP      
        0x000012e2:    4a08        .J      LDR      r2,[pc,#32] ; [0x1304] = 0x2000002c
        0x000012e4:    68d2        .h      LDR      r2,[r2,#0xc]
        0x000012e6:    6812        .h      LDR      r2,[r2,#0]
        0x000012e8:    07d2        ..      LSLS     r2,r2,#31
        0x000012ea:    0fd2        ..      LSRS     r2,r2,#31
        0x000012ec:    2a01        .*      CMP      r2,#1
        0x000012ee:    d0f8        ..      BEQ      0x12e2 ; SetPACA + 206
        0x000012f0:    4a04        .J      LDR      r2,[pc,#16] ; [0x1304] = 0x2000002c
        0x000012f2:    68d2        .h      LDR      r2,[r2,#0xc]
        0x000012f4:    6892        .h      LDR      r2,[r2,#8]
        0x000012f6:    0892        ..      LSRS     r2,r2,#2
        0x000012f8:    0092        ..      LSLS     r2,r2,#2
        0x000012fa:    4b02        .K      LDR      r3,[pc,#8] ; [0x1304] = 0x2000002c
        0x000012fc:    68db        .h      LDR      r3,[r3,#0xc]
        0x000012fe:    609a        .`      STR      r2,[r3,#8]
        0x00001300:    4770        pG      BX       lr
    $d
        0x00001302:    0000        ..      DCW    0
        0x00001304:    2000002c    ,..     DCD    536870956
    $t
    i.Show_Word
    Show_Word
        0x00001308:    b5fc        ..      PUSH     {r2-r7,lr}
        0x0000130a:    4605        .F      MOV      r5,r0
        0x0000130c:    460e        .F      MOV      r6,r1
        0x0000130e:    4617        .F      MOV      r7,r2
        0x00001310:    2400        .$      MOVS     r4,#0
        0x00001312:    2000        .       MOVS     r0,#0
        0x00001314:    9001        ..      STR      r0,[sp,#4]
        0x00001316:    4638        8F      MOV      r0,r7
        0x00001318:    3820         8      SUBS     r0,r0,#0x20
        0x0000131a:    0100        ..      LSLS     r0,r0,#4
        0x0000131c:    9001        ..      STR      r0,[sp,#4]
        0x0000131e:    bf00        ..      NOP      
        0x00001320:    e011        ..      B        0x1346 ; Show_Word + 62
        0x00001322:    00f2        ..      LSLS     r2,r6,#3
        0x00001324:    2381        .#      MOVS     r3,#0x81
        0x00001326:    1a9a        ..      SUBS     r2,r3,r2
        0x00001328:    1b12        ..      SUBS     r2,r2,r4
        0x0000132a:    b2d1        ..      UXTB     r1,r2
        0x0000132c:    066a        j.      LSLS     r2,r5,#25
        0x0000132e:    0e10        ..      LSRS     r0,r2,#24
        0x00001330:    f7ffff70    ..p.    BL       SetPACA ; 0x1214
        0x00001334:    9801        ..      LDR      r0,[sp,#4]
        0x00001336:    1900        ..      ADDS     r0,r0,r4
        0x00001338:    4910        .I      LDR      r1,[pc,#64] ; [0x137c] = 0x2000003c
        0x0000133a:    5c08        .\      LDRB     r0,[r1,r0]
        0x0000133c:    9000        ..      STR      r0,[sp,#0]
        0x0000133e:    9800        ..      LDR      r0,[sp,#0]
        0x00001340:    f000f90e    ....    BL       WriteData ; 0x1560
        0x00001344:    1c64        d.      ADDS     r4,r4,#1
        0x00001346:    2c08        .,      CMP      r4,#8
        0x00001348:    dbeb        ..      BLT      0x1322 ; Show_Word + 26
        0x0000134a:    2400        .$      MOVS     r4,#0
        0x0000134c:    e013        ..      B        0x1376 ; Show_Word + 110
        0x0000134e:    00f2        ..      LSLS     r2,r6,#3
        0x00001350:    2381        .#      MOVS     r3,#0x81
        0x00001352:    1a9a        ..      SUBS     r2,r3,r2
        0x00001354:    1b12        ..      SUBS     r2,r2,r4
        0x00001356:    b2d1        ..      UXTB     r1,r2
        0x00001358:    006a        j.      LSLS     r2,r5,#1
        0x0000135a:    1c52        R.      ADDS     r2,r2,#1
        0x0000135c:    b2d0        ..      UXTB     r0,r2
        0x0000135e:    f7ffff59    ..Y.    BL       SetPACA ; 0x1214
        0x00001362:    9801        ..      LDR      r0,[sp,#4]
        0x00001364:    1900        ..      ADDS     r0,r0,r4
        0x00001366:    3008        .0      ADDS     r0,r0,#8
        0x00001368:    4904        .I      LDR      r1,[pc,#16] ; [0x137c] = 0x2000003c
        0x0000136a:    5c08        .\      LDRB     r0,[r1,r0]
        0x0000136c:    9000        ..      STR      r0,[sp,#0]
        0x0000136e:    9800        ..      LDR      r0,[sp,#0]
        0x00001370:    f000f8f6    ....    BL       WriteData ; 0x1560
        0x00001374:    1c64        d.      ADDS     r4,r4,#1
        0x00001376:    2c08        .,      CMP      r4,#8
        0x00001378:    dbe9        ..      BLT      0x134e ; Show_Word + 70
        0x0000137a:    bdfc        ..      POP      {r2-r7,pc}
    $d
        0x0000137c:    2000003c    <..     DCD    536870972
    $t
    i.SystemInit
    SystemInit
        0x00001380:    4770        pG      BX       lr
        0x00001382:    0000        ..      MOVS     r0,r0
    i.TMR3_IRQHandler
    TMR3_IRQHandler
        0x00001384:    b510        ..      PUSH     {r4,lr}
        0x00001386:    b094        ..      SUB      sp,sp,#0x50
        0x00001388:    2214        ."      MOVS     r2,#0x14
        0x0000138a:    494f        OI      LDR      r1,[pc,#316] ; [0x14c8] = 0x1814
        0x0000138c:    a80f        ..      ADD      r0,sp,#0x3c
        0x0000138e:    f7fefef7    ....    BL       __aeabi_memcpy4 ; 0x180
        0x00001392:    2214        ."      MOVS     r2,#0x14
        0x00001394:    494c        LI      LDR      r1,[pc,#304] ; [0x14c8] = 0x1814
        0x00001396:    3114        .1      ADDS     r1,r1,#0x14
        0x00001398:    a80a        ..      ADD      r0,sp,#0x28
        0x0000139a:    f7fefef1    ....    BL       __aeabi_memcpy4 ; 0x180
        0x0000139e:    2214        ."      MOVS     r2,#0x14
        0x000013a0:    4949        II      LDR      r1,[pc,#292] ; [0x14c8] = 0x1814
        0x000013a2:    3128        (1      ADDS     r1,r1,#0x28
        0x000013a4:    a805        ..      ADD      r0,sp,#0x14
        0x000013a6:    f7fefeeb    ....    BL       __aeabi_memcpy4 ; 0x180
        0x000013aa:    2214        ."      MOVS     r2,#0x14
        0x000013ac:    4946        FI      LDR      r1,[pc,#280] ; [0x14c8] = 0x1814
        0x000013ae:    313c        <1      ADDS     r1,r1,#0x3c
        0x000013b0:    4668        hF      MOV      r0,sp
        0x000013b2:    f7fefee5    ....    BL       __aeabi_memcpy4 ; 0x180
        0x000013b6:    f000f918    ....    BL       clr_all_pannal ; 0x15ea
        0x000013ba:    4844        DH      LDR      r0,[pc,#272] ; [0x14cc] = 0x40140000
        0x000013bc:    68c2        .h      LDR      r2,[r0,#0xc]
        0x000013be:    a144        D.      ADR      r1,{pc}+0x112 ; 0x14d0
        0x000013c0:    a810        ..      ADD      r0,sp,#0x40
        0x000013c2:    3002        .0      ADDS     r0,#2
        0x000013c4:    f7feff2a    ..*.    BL       __2sprintf ; 0x21c
        0x000013c8:    a90f        ..      ADD      r1,sp,#0x3c
        0x000013ca:    2000        .       MOVS     r0,#0
        0x000013cc:    f000f9ee    ....    BL       print_lcd ; 0x17ac
        0x000013d0:    4840        @H      LDR      r0,[pc,#256] ; [0x14d4] = 0x2000001e
        0x000013d2:    8800        ..      LDRH     r0,[r0,#0]
        0x000013d4:    1c40        @.      ADDS     r0,r0,#1
        0x000013d6:    493f        ?I      LDR      r1,[pc,#252] ; [0x14d4] = 0x2000001e
        0x000013d8:    8008        ..      STRH     r0,[r1,#0]
        0x000013da:    4608        .F      MOV      r0,r1
        0x000013dc:    8802        ..      LDRH     r2,[r0,#0]
        0x000013de:    a13e        >.      ADR      r1,{pc}+0xfa ; 0x14d8
        0x000013e0:    a80b        ..      ADD      r0,sp,#0x2c
        0x000013e2:    3003        .0      ADDS     r0,#3
        0x000013e4:    f7feff1a    ....    BL       __2sprintf ; 0x21c
        0x000013e8:    a90a        ..      ADD      r1,sp,#0x28
        0x000013ea:    2001        .       MOVS     r0,#1
        0x000013ec:    f000f9de    ....    BL       print_lcd ; 0x17ac
        0x000013f0:    483b        ;H      LDR      r0,[pc,#236] ; [0x14e0] = 0x20000024
        0x000013f2:    6800        .h      LDR      r0,[r0,#0]
        0x000013f4:    493b        ;I      LDR      r1,[pc,#236] ; [0x14e4] = 0xf4240
        0x000013f6:    4288        .B      CMP      r0,r1
        0x000013f8:    d30c        ..      BCC      0x1414 ; TMR3_IRQHandler + 144
        0x000013fa:    4939        9I      LDR      r1,[pc,#228] ; [0x14e0] = 0x20000024
        0x000013fc:    6808        .h      LDR      r0,[r1,#0]
        0x000013fe:    4939        9I      LDR      r1,[pc,#228] ; [0x14e4] = 0xf4240
        0x00001400:    f7fff80a    ....    BL       __aeabi_uidiv ; 0x418
        0x00001404:    4604        .F      MOV      r4,r0
        0x00001406:    4622        "F      MOV      r2,r4
        0x00001408:    a137        7.      ADR      r1,{pc}+0xe0 ; 0x14e8
        0x0000140a:    a806        ..      ADD      r0,sp,#0x18
        0x0000140c:    3001        .0      ADDS     r0,#1
        0x0000140e:    f7feff05    ....    BL       __2sprintf ; 0x21c
        0x00001412:    e01a        ..      B        0x144a ; TMR3_IRQHandler + 198
        0x00001414:    4832        2H      LDR      r0,[pc,#200] ; [0x14e0] = 0x20000024
        0x00001416:    6800        .h      LDR      r0,[r0,#0]
        0x00001418:    217d        }!      MOVS     r1,#0x7d
        0x0000141a:    00c9        ..      LSLS     r1,r1,#3
        0x0000141c:    4288        .B      CMP      r0,r1
        0x0000141e:    d30d        ..      BCC      0x143c ; TMR3_IRQHandler + 184
        0x00001420:    492f        /I      LDR      r1,[pc,#188] ; [0x14e0] = 0x20000024
        0x00001422:    6808        .h      LDR      r0,[r1,#0]
        0x00001424:    217d        }!      MOVS     r1,#0x7d
        0x00001426:    00c9        ..      LSLS     r1,r1,#3
        0x00001428:    f7fefff6    ....    BL       __aeabi_uidiv ; 0x418
        0x0000142c:    4604        .F      MOV      r4,r0
        0x0000142e:    4622        "F      MOV      r2,r4
        0x00001430:    a12f        /.      ADR      r1,{pc}+0xc0 ; 0x14f0
        0x00001432:    a806        ..      ADD      r0,sp,#0x18
        0x00001434:    3001        .0      ADDS     r0,#1
        0x00001436:    f7fefef1    ....    BL       __2sprintf ; 0x21c
        0x0000143a:    e006        ..      B        0x144a ; TMR3_IRQHandler + 198
        0x0000143c:    4828        (H      LDR      r0,[pc,#160] ; [0x14e0] = 0x20000024
        0x0000143e:    a12e        ..      ADR      r1,{pc}+0xba ; 0x14f8
        0x00001440:    6802        .h      LDR      r2,[r0,#0]
        0x00001442:    a806        ..      ADD      r0,sp,#0x18
        0x00001444:    3001        .0      ADDS     r0,#1
        0x00001446:    f7fefee9    ....    BL       __2sprintf ; 0x21c
        0x0000144a:    a905        ..      ADD      r1,sp,#0x14
        0x0000144c:    2002        .       MOVS     r0,#2
        0x0000144e:    f000f9ad    ....    BL       print_lcd ; 0x17ac
        0x00001452:    4823        #H      LDR      r0,[pc,#140] ; [0x14e0] = 0x20000024
        0x00001454:    6840        @h      LDR      r0,[r0,#4]
        0x00001456:    4923        #I      LDR      r1,[pc,#140] ; [0x14e4] = 0xf4240
        0x00001458:    4288        .B      CMP      r0,r1
        0x0000145a:    d30c        ..      BCC      0x1476 ; TMR3_IRQHandler + 242
        0x0000145c:    4920         I      LDR      r1,[pc,#128] ; [0x14e0] = 0x20000024
        0x0000145e:    6848        Hh      LDR      r0,[r1,#4]
        0x00001460:    4920         I      LDR      r1,[pc,#128] ; [0x14e4] = 0xf4240
        0x00001462:    f7feffd9    ....    BL       __aeabi_uidiv ; 0x418
        0x00001466:    4604        .F      MOV      r4,r0
        0x00001468:    4622        "F      MOV      r2,r4
        0x0000146a:    a11f        ..      ADR      r1,{pc}+0x7e ; 0x14e8
        0x0000146c:    a801        ..      ADD      r0,sp,#4
        0x0000146e:    3001        .0      ADDS     r0,#1
        0x00001470:    f7fefed4    ....    BL       __2sprintf ; 0x21c
        0x00001474:    e01a        ..      B        0x14ac ; TMR3_IRQHandler + 296
        0x00001476:    481a        .H      LDR      r0,[pc,#104] ; [0x14e0] = 0x20000024
        0x00001478:    6840        @h      LDR      r0,[r0,#4]
        0x0000147a:    217d        }!      MOVS     r1,#0x7d
        0x0000147c:    00c9        ..      LSLS     r1,r1,#3
        0x0000147e:    4288        .B      CMP      r0,r1
        0x00001480:    d30d        ..      BCC      0x149e ; TMR3_IRQHandler + 282
        0x00001482:    4917        .I      LDR      r1,[pc,#92] ; [0x14e0] = 0x20000024
        0x00001484:    6848        Hh      LDR      r0,[r1,#4]
        0x00001486:    217d        }!      MOVS     r1,#0x7d
        0x00001488:    00c9        ..      LSLS     r1,r1,#3
        0x0000148a:    f7feffc5    ....    BL       __aeabi_uidiv ; 0x418
        0x0000148e:    4604        .F      MOV      r4,r0
        0x00001490:    4622        "F      MOV      r2,r4
        0x00001492:    a117        ..      ADR      r1,{pc}+0x5e ; 0x14f0
        0x00001494:    a801        ..      ADD      r0,sp,#4
        0x00001496:    3001        .0      ADDS     r0,#1
        0x00001498:    f7fefec0    ....    BL       __2sprintf ; 0x21c
        0x0000149c:    e006        ..      B        0x14ac ; TMR3_IRQHandler + 296
        0x0000149e:    4810        .H      LDR      r0,[pc,#64] ; [0x14e0] = 0x20000024
        0x000014a0:    a115        ..      ADR      r1,{pc}+0x58 ; 0x14f8
        0x000014a2:    6842        Bh      LDR      r2,[r0,#4]
        0x000014a4:    a801        ..      ADD      r0,sp,#4
        0x000014a6:    3001        .0      ADDS     r0,#1
        0x000014a8:    f7fefeb8    ....    BL       __2sprintf ; 0x21c
        0x000014ac:    4669        iF      MOV      r1,sp
        0x000014ae:    2003        .       MOVS     r0,#3
        0x000014b0:    f000f97c    ..|.    BL       print_lcd ; 0x17ac
        0x000014b4:    4812        .H      LDR      r0,[pc,#72] ; [0x1500] = 0x40110000
        0x000014b6:    6a80        .j      LDR      r0,[r0,#0x28]
        0x000014b8:    0840        @.      LSRS     r0,r0,#1
        0x000014ba:    0040        @.      LSLS     r0,r0,#1
        0x000014bc:    1c40        @.      ADDS     r0,r0,#1
        0x000014be:    4910        .I      LDR      r1,[pc,#64] ; [0x1500] = 0x40110000
        0x000014c0:    6288        .b      STR      r0,[r1,#0x28]
        0x000014c2:    b014        ..      ADD      sp,sp,#0x50
        0x000014c4:    bd10        ..      POP      {r4,pc}
    $d
        0x000014c6:    0000        ..      DCW    0
        0x000014c8:    00001814    ....    DCD    6164
        0x000014cc:    40140000    ...@    DCD    1075052544
        0x000014d0:    00582520     %X.    DCD    5776672
        0x000014d4:    2000001e    ...     DCD    536870942
        0x000014d8:    20642520     %d     DCD    543434016
        0x000014dc:    00002e73    s...    DCD    11891
        0x000014e0:    20000024    $..     DCD    536870948
        0x000014e4:    000f4240    @B..    DCD    1000000
        0x000014e8:    65736425    %dse    DCD    1702061093
        0x000014ec:    00000063    c...    DCD    99
        0x000014f0:    736d6425    %dms    DCD    1936548901
        0x000014f4:    00006365    ec..    DCD    25445
        0x000014f8:    73756425    %dus    DCD    1937073189
        0x000014fc:    00006365    ec..    DCD    25445
        0x00001500:    40110000    ...@    DCD    1074855936
    $t
    i.UART02_IRQHandler
    UART02_IRQHandler
        0x00001504:    b570        p.      PUSH     {r4-r6,lr}
        0x00001506:    480a        .H      LDR      r0,[pc,#40] ; [0x1530] = 0x40050000
        0x00001508:    69c4        .i      LDR      r4,[r0,#0x1c]
        0x0000150a:    480a        .H      LDR      r0,[pc,#40] ; [0x1534] = 0x40154000
        0x0000150c:    69c5        .i      LDR      r5,[r0,#0x1c]
        0x0000150e:    480a        .H      LDR      r0,[pc,#40] ; [0x1538] = 0x20000640
        0x00001510:    6800        .h      LDR      r0,[r0,#0]
        0x00001512:    2800        .(      CMP      r0,#0
        0x00001514:    d003        ..      BEQ      0x151e ; UART02_IRQHandler + 26
        0x00001516:    4620         F      MOV      r0,r4
        0x00001518:    4907        .I      LDR      r1,[pc,#28] ; [0x1538] = 0x20000640
        0x0000151a:    6809        .h      LDR      r1,[r1,#0]
        0x0000151c:    4788        .G      BLX      r1
        0x0000151e:    4807        .H      LDR      r0,[pc,#28] ; [0x153c] = 0x20000648
        0x00001520:    6800        .h      LDR      r0,[r0,#0]
        0x00001522:    2800        .(      CMP      r0,#0
        0x00001524:    d003        ..      BEQ      0x152e ; UART02_IRQHandler + 42
        0x00001526:    4628        (F      MOV      r0,r5
        0x00001528:    4904        .I      LDR      r1,[pc,#16] ; [0x153c] = 0x20000648
        0x0000152a:    6809        .h      LDR      r1,[r1,#0]
        0x0000152c:    4788        .G      BLX      r1
        0x0000152e:    bd70        p.      POP      {r4-r6,pc}
    $d
        0x00001530:    40050000    ...@    DCD    1074069504
        0x00001534:    40154000    .@.@    DCD    1075134464
        0x00001538:    20000640    @..     DCD    536872512
        0x0000153c:    20000648    H..     DCD    536872520
    $t
    i.UART1_IRQHandler
    UART1_IRQHandler
        0x00001540:    b510        ..      PUSH     {r4,lr}
        0x00001542:    4805        .H      LDR      r0,[pc,#20] ; [0x1558] = 0x40150000
        0x00001544:    69c4        .i      LDR      r4,[r0,#0x1c]
        0x00001546:    4805        .H      LDR      r0,[pc,#20] ; [0x155c] = 0x20000644
        0x00001548:    6800        .h      LDR      r0,[r0,#0]
        0x0000154a:    2800        .(      CMP      r0,#0
        0x0000154c:    d003        ..      BEQ      0x1556 ; UART1_IRQHandler + 22
        0x0000154e:    4620         F      MOV      r0,r4
        0x00001550:    4902        .I      LDR      r1,[pc,#8] ; [0x155c] = 0x20000644
        0x00001552:    6809        .h      LDR      r1,[r1,#0]
        0x00001554:    4788        .G      BLX      r1
        0x00001556:    bd10        ..      POP      {r4,pc}
    $d
        0x00001558:    40150000    ...@    DCD    1075118080
        0x0000155c:    20000644    D..     DCD    536872516
    $t
    i.WriteData
    WriteData
        0x00001560:    4914        .I      LDR      r1,[pc,#80] ; [0x15b4] = 0x2000002c
        0x00001562:    68c9        .h      LDR      r1,[r1,#0xc]
        0x00001564:    6889        .h      LDR      r1,[r1,#8]
        0x00001566:    0889        ..      LSRS     r1,r1,#2
        0x00001568:    0089        ..      LSLS     r1,r1,#2
        0x0000156a:    1c49        I.      ADDS     r1,r1,#1
        0x0000156c:    4a11        .J      LDR      r2,[pc,#68] ; [0x15b4] = 0x2000002c
        0x0000156e:    68d2        .h      LDR      r2,[r2,#0xc]
        0x00001570:    6091        .`      STR      r1,[r2,#8]
        0x00001572:    21ff        .!      MOVS     r1,#0xff
        0x00001574:    3101        .1      ADDS     r1,#1
        0x00001576:    4301        .C      ORRS     r1,r1,r0
        0x00001578:    4a0e        .J      LDR      r2,[pc,#56] ; [0x15b4] = 0x2000002c
        0x0000157a:    68d2        .h      LDR      r2,[r2,#0xc]
        0x0000157c:    6211        .b      STR      r1,[r2,#0x20]
        0x0000157e:    490d        .I      LDR      r1,[pc,#52] ; [0x15b4] = 0x2000002c
        0x00001580:    68c9        .h      LDR      r1,[r1,#0xc]
        0x00001582:    6809        .h      LDR      r1,[r1,#0]
        0x00001584:    0849        I.      LSRS     r1,r1,#1
        0x00001586:    0049        I.      LSLS     r1,r1,#1
        0x00001588:    1c49        I.      ADDS     r1,r1,#1
        0x0000158a:    4a0a        .J      LDR      r2,[pc,#40] ; [0x15b4] = 0x2000002c
        0x0000158c:    68d2        .h      LDR      r2,[r2,#0xc]
        0x0000158e:    6011        .`      STR      r1,[r2,#0]
        0x00001590:    bf00        ..      NOP      
        0x00001592:    4908        .I      LDR      r1,[pc,#32] ; [0x15b4] = 0x2000002c
        0x00001594:    68c9        .h      LDR      r1,[r1,#0xc]
        0x00001596:    6809        .h      LDR      r1,[r1,#0]
        0x00001598:    07c9        ..      LSLS     r1,r1,#31
        0x0000159a:    0fc9        ..      LSRS     r1,r1,#31
        0x0000159c:    2901        .)      CMP      r1,#1
        0x0000159e:    d0f8        ..      BEQ      0x1592 ; WriteData + 50
        0x000015a0:    4904        .I      LDR      r1,[pc,#16] ; [0x15b4] = 0x2000002c
        0x000015a2:    68c9        .h      LDR      r1,[r1,#0xc]
        0x000015a4:    6889        .h      LDR      r1,[r1,#8]
        0x000015a6:    0889        ..      LSRS     r1,r1,#2
        0x000015a8:    0089        ..      LSLS     r1,r1,#2
        0x000015aa:    4a02        .J      LDR      r2,[pc,#8] ; [0x15b4] = 0x2000002c
        0x000015ac:    68d2        .h      LDR      r2,[r2,#0xc]
        0x000015ae:    6091        .`      STR      r1,[r2,#8]
        0x000015b0:    4770        pG      BX       lr
    $d
        0x000015b2:    0000        ..      DCW    0
        0x000015b4:    2000002c    ,..     DCD    536870956
    $t
    i._is_digit
    _is_digit
        0x000015b8:    3830        08      SUBS     r0,r0,#0x30
        0x000015ba:    280a        .(      CMP      r0,#0xa
        0x000015bc:    d201        ..      BCS      0x15c2 ; _is_digit + 10
        0x000015be:    2001        .       MOVS     r0,#1
        0x000015c0:    4770        pG      BX       lr
        0x000015c2:    2000        .       MOVS     r0,#0
        0x000015c4:    4770        pG      BX       lr
    i.close_seven_segment
    close_seven_segment
        0x000015c6:    b510        ..      PUSH     {r4,lr}
        0x000015c8:    2104        .!      MOVS     r1,#4
        0x000015ca:    2002        .       MOVS     r0,#2
        0x000015cc:    f7fff8a2    ....    BL       DrvGPIO_ClrBit ; 0x714
        0x000015d0:    2105        .!      MOVS     r1,#5
        0x000015d2:    2002        .       MOVS     r0,#2
        0x000015d4:    f7fff89e    ....    BL       DrvGPIO_ClrBit ; 0x714
        0x000015d8:    2106        .!      MOVS     r1,#6
        0x000015da:    2002        .       MOVS     r0,#2
        0x000015dc:    f7fff89a    ....    BL       DrvGPIO_ClrBit ; 0x714
        0x000015e0:    2107        .!      MOVS     r1,#7
        0x000015e2:    2002        .       MOVS     r0,#2
        0x000015e4:    f7fff896    ....    BL       DrvGPIO_ClrBit ; 0x714
        0x000015e8:    bd10        ..      POP      {r4,pc}
    i.clr_all_pannal
    clr_all_pannal
        0x000015ea:    b510        ..      PUSH     {r4,lr}
        0x000015ec:    2400        .$      MOVS     r4,#0
        0x000015ee:    2100        .!      MOVS     r1,#0
        0x000015f0:    4608        .F      MOV      r0,r1
        0x000015f2:    f7fffe0f    ....    BL       SetPACA ; 0x1214
        0x000015f6:    bf00        ..      NOP      
        0x000015f8:    e003        ..      B        0x1602 ; clr_all_pannal + 24
        0x000015fa:    2000        .       MOVS     r0,#0
        0x000015fc:    f7ffffb0    ....    BL       WriteData ; 0x1560
        0x00001600:    1c64        d.      ADDS     r4,r4,#1
        0x00001602:    2021        !       MOVS     r0,#0x21
        0x00001604:    0140        @.      LSLS     r0,r0,#5
        0x00001606:    4284        .B      CMP      r4,r0
        0x00001608:    dbf7        ..      BLT      0x15fa ; clr_all_pannal + 16
        0x0000160a:    200f        .       MOVS     r0,#0xf
        0x0000160c:    f7ffffa8    ....    BL       WriteData ; 0x1560
        0x00001610:    bd10        ..      POP      {r4,pc}
    i.delay
    delay
        0x00001612:    2000        .       MOVS     r0,#0
        0x00001614:    e000        ..      B        0x1618 ; delay + 6
        0x00001616:    1c40        @.      ADDS     r0,r0,#1
        0x00001618:    217d        }!      MOVS     r1,#0x7d
        0x0000161a:    00c9        ..      LSLS     r1,r1,#3
        0x0000161c:    4288        .B      CMP      r0,r1
        0x0000161e:    dbfa        ..      BLT      0x1616 ; delay + 4
        0x00001620:    4770        pG      BX       lr
        0x00001622:    0000        ..      MOVS     r0,r0
    i.main
    main
        0x00001624:    2059        Y       MOVS     r0,#0x59
        0x00001626:    494b        KI      LDR      r1,[pc,#300] ; [0x1754] = 0x50000100
        0x00001628:    6008        .`      STR      r0,[r1,#0]
        0x0000162a:    2016        .       MOVS     r0,#0x16
        0x0000162c:    6008        .`      STR      r0,[r1,#0]
        0x0000162e:    2088        .       MOVS     r0,#0x88
        0x00001630:    6008        .`      STR      r0,[r1,#0]
        0x00001632:    4849        IH      LDR      r0,[pc,#292] ; [0x1758] = 0x50000200
        0x00001634:    6800        .h      LDR      r0,[r0,#0]
        0x00001636:    0840        @.      LSRS     r0,r0,#1
        0x00001638:    0040        @.      LSLS     r0,r0,#1
        0x0000163a:    1c40        @.      ADDS     r0,r0,#1
        0x0000163c:    4946        FI      LDR      r1,[pc,#280] ; [0x1758] = 0x50000200
        0x0000163e:    6008        .`      STR      r0,[r1,#0]
        0x00001640:    4608        .F      MOV      r0,r1
        0x00001642:    6900        .i      LDR      r0,[r0,#0x10]
        0x00001644:    08c0        ..      LSRS     r0,r0,#3
        0x00001646:    00c0        ..      LSLS     r0,r0,#3
        0x00001648:    6108        .a      STR      r0,[r1,#0x10]
        0x0000164a:    2000        .       MOVS     r0,#0
        0x0000164c:    4941        AI      LDR      r1,[pc,#260] ; [0x1754] = 0x50000100
        0x0000164e:    6008        .`      STR      r0,[r1,#0]
        0x00001650:    f7fffc5e    ..^.    BL       OpenKeyPad ; 0xf10
        0x00001654:    f7fffb46    ..F.    BL       Initial_pannel ; 0xce4
        0x00001658:    f7ffffc7    ....    BL       clr_all_pannal ; 0x15ea
        0x0000165c:    f7fff9b2    ....    BL       InitPWM1 ; 0x9c4
        0x00001660:    f7fffa00    ....    BL       InitPWM2 ; 0xa64
        0x00001664:    f7fffaa8    ....    BL       InitPWM5 ; 0xbb8
        0x00001668:    f7fffa52    ..R.    BL       InitPWM4fromPWM2 ; 0xb10
        0x0000166c:    f7fff946    ..F.    BL       InitCapture0 ; 0x8fc
        0x00001670:    f7fffaf0    ....    BL       InitTIMER3 ; 0xc54
        0x00001674:    a139        9.      ADR      r1,{pc}+0xe8 ; 0x175c
        0x00001676:    2000        .       MOVS     r0,#0
        0x00001678:    f000f898    ....    BL       print_lcd ; 0x17ac
        0x0000167c:    a13b        ;.      ADR      r1,{pc}+0xf0 ; 0x176c
        0x0000167e:    2001        .       MOVS     r0,#1
        0x00001680:    f000f894    ....    BL       print_lcd ; 0x17ac
        0x00001684:    e065        e.      B        0x1752 ; main + 302
        0x00001686:    f7fffd83    ....    BL       Scankey ; 0x1190
        0x0000168a:    4604        .F      MOV      r4,r0
        0x0000168c:    4621        !F      MOV      r1,r4
        0x0000168e:    2000        .       MOVS     r0,#0
        0x00001690:    f000f8a0    ....    BL       show_seven_segment ; 0x17d4
        0x00001694:    4837        7H      LDR      r0,[pc,#220] ; [0x1774] = 0x1388
        0x00001696:    f7fff8b9    ....    BL       DrvSYS_Delay ; 0x80c
        0x0000169a:    f7ffff94    ....    BL       close_seven_segment ; 0x15c6
        0x0000169e:    f7fffd77    ..w.    BL       Scankey ; 0x1190
        0x000016a2:    2801        .(      CMP      r0,#1
        0x000016a4:    d10f        ..      BNE      0x16c6 ; main + 162
        0x000016a6:    4834        4H      LDR      r0,[pc,#208] ; [0x1778] = 0x40040040
        0x000016a8:    6bc0        .k      LDR      r0,[r0,#0x3c]
        0x000016aa:    2102        .!      MOVS     r1,#2
        0x000016ac:    4388        .C      BICS     r0,r0,r1
        0x000016ae:    4932        2I      LDR      r1,[pc,#200] ; [0x1778] = 0x40040040
        0x000016b0:    63c8        .c      STR      r0,[r1,#0x3c]
        0x000016b2:    4608        .F      MOV      r0,r1
        0x000016b4:    6bc0        .k      LDR      r0,[r0,#0x3c]
        0x000016b6:    2104        .!      MOVS     r1,#4
        0x000016b8:    4388        .C      BICS     r0,r0,r1
        0x000016ba:    492f        /I      LDR      r1,[pc,#188] ; [0x1778] = 0x40040040
        0x000016bc:    63c8        .c      STR      r0,[r1,#0x3c]
        0x000016be:    a12f        /.      ADR      r1,{pc}+0xbe ; 0x177c
        0x000016c0:    2000        .       MOVS     r0,#0
        0x000016c2:    f000f873    ..s.    BL       print_lcd ; 0x17ac
        0x000016c6:    f7fffd63    ..c.    BL       Scankey ; 0x1190
        0x000016ca:    2802        .(      CMP      r0,#2
        0x000016cc:    d109        ..      BNE      0x16e2 ; main + 190
        0x000016ce:    482e        .H      LDR      r0,[pc,#184] ; [0x1788] = 0x40140040
        0x000016d0:    6bc0        .k      LDR      r0,[r0,#0x3c]
        0x000016d2:    0840        @.      LSRS     r0,r0,#1
        0x000016d4:    0040        @.      LSLS     r0,r0,#1
        0x000016d6:    492c        ,I      LDR      r1,[pc,#176] ; [0x1788] = 0x40140040
        0x000016d8:    63c8        .c      STR      r0,[r1,#0x3c]
        0x000016da:    a12c        ,.      ADR      r1,{pc}+0xb2 ; 0x178c
        0x000016dc:    2000        .       MOVS     r0,#0
        0x000016de:    f000f865    ..e.    BL       print_lcd ; 0x17ac
        0x000016e2:    f7fffd55    ..U.    BL       Scankey ; 0x1190
        0x000016e6:    2803        .(      CMP      r0,#3
        0x000016e8:    d10a        ..      BNE      0x1700 ; main + 220
        0x000016ea:    4827        'H      LDR      r0,[pc,#156] ; [0x1788] = 0x40140040
        0x000016ec:    6bc0        .k      LDR      r0,[r0,#0x3c]
        0x000016ee:    0840        @.      LSRS     r0,r0,#1
        0x000016f0:    0040        @.      LSLS     r0,r0,#1
        0x000016f2:    1c40        @.      ADDS     r0,r0,#1
        0x000016f4:    4924        $I      LDR      r1,[pc,#144] ; [0x1788] = 0x40140040
        0x000016f6:    63c8        .c      STR      r0,[r1,#0x3c]
        0x000016f8:    a127        '.      ADR      r1,{pc}+0xa0 ; 0x1798
        0x000016fa:    2000        .       MOVS     r0,#0
        0x000016fc:    f000f856    ..V.    BL       print_lcd ; 0x17ac
        0x00001700:    f7fffd46    ..F.    BL       Scankey ; 0x1190
        0x00001704:    2804        .(      CMP      r0,#4
        0x00001706:    d10a        ..      BNE      0x171e ; main + 250
        0x00001708:    481f        .H      LDR      r0,[pc,#124] ; [0x1788] = 0x40140040
        0x0000170a:    3840        @8      SUBS     r0,r0,#0x40
        0x0000170c:    68c0        .h      LDR      r0,[r0,#0xc]
        0x0000170e:    30ff        .0      ADDS     r0,r0,#0xff
        0x00001710:    3001        .0      ADDS     r0,#1
        0x00001712:    491d        .I      LDR      r1,[pc,#116] ; [0x1788] = 0x40140040
        0x00001714:    3940        @9      SUBS     r1,r1,#0x40
        0x00001716:    60c8        .`      STR      r0,[r1,#0xc]
        0x00001718:    4822        "H      LDR      r0,[pc,#136] ; [0x17a4] = 0x493e0
        0x0000171a:    f7fff877    ..w.    BL       DrvSYS_Delay ; 0x80c
        0x0000171e:    f7fffd37    ..7.    BL       Scankey ; 0x1190
        0x00001722:    2805        .(      CMP      r0,#5
        0x00001724:    d10a        ..      BNE      0x173c ; main + 280
        0x00001726:    4818        .H      LDR      r0,[pc,#96] ; [0x1788] = 0x40140040
        0x00001728:    3840        @8      SUBS     r0,r0,#0x40
        0x0000172a:    68c0        .h      LDR      r0,[r0,#0xc]
        0x0000172c:    38ff        .8      SUBS     r0,r0,#0xff
        0x0000172e:    3801        .8      SUBS     r0,#1
        0x00001730:    4915        .I      LDR      r1,[pc,#84] ; [0x1788] = 0x40140040
        0x00001732:    3940        @9      SUBS     r1,r1,#0x40
        0x00001734:    60c8        .`      STR      r0,[r1,#0xc]
        0x00001736:    481b        .H      LDR      r0,[pc,#108] ; [0x17a4] = 0x493e0
        0x00001738:    f7fff868    ..h.    BL       DrvSYS_Delay ; 0x80c
        0x0000173c:    f7fffd28    ..(.    BL       Scankey ; 0x1190
        0x00001740:    2806        .(      CMP      r0,#6
        0x00001742:    d106        ..      BNE      0x1752 ; main + 302
        0x00001744:    4818        .H      LDR      r0,[pc,#96] ; [0x17a8] = 0x1fff
        0x00001746:    4910        .I      LDR      r1,[pc,#64] ; [0x1788] = 0x40140040
        0x00001748:    3940        @9      SUBS     r1,r1,#0x40
        0x0000174a:    60c8        .`      STR      r0,[r1,#0xc]
        0x0000174c:    4815        .H      LDR      r0,[pc,#84] ; [0x17a4] = 0x493e0
        0x0000174e:    f7fff85d    ..].    BL       DrvSYS_Delay ; 0x80c
        0x00001752:    e798        ..      B        0x1686 ; main + 98
    $d
        0x00001754:    50000100    ...P    DCD    1342177536
        0x00001758:    50000200    ...P    DCD    1342177792
        0x0000175c:    74706143    Capt    DCD    1953521987
        0x00001760:    20657275    ure     DCD    543519349
        0x00001764:    6f6d6564    demo    DCD    1869440356
        0x00001768:    00000000    ....    DCD    0
        0x0000176c:    50473e3e    >>GP    DCD    1346846270
        0x00001770:    00323141    A12.    DCD    3289409
        0x00001774:    00001388    ....    DCD    5000
        0x00001778:    40040040    @..@    DCD    1074004032
        0x0000177c:    706f7453    Stop    DCD    1886352467
        0x00001780:    4d575020     PWM    DCD    1297567776
        0x00001784:    00322631    1&2.    DCD    3286577
        0x00001788:    40140040    @..@    DCD    1075052608
        0x0000178c:    706f7453    Stop    DCD    1886352467
        0x00001790:    4d575020     PWM    DCD    1297567776
        0x00001794:    00000030    0...    DCD    48
        0x00001798:    206e7552    Run     DCD    544109906
        0x0000179c:    304d5750    PWM0    DCD    810374992
        0x000017a0:    00000000    ....    DCD    0
        0x000017a4:    000493e0    ....    DCD    300000
        0x000017a8:    00001fff    ....    DCD    8191
    $t
    i.print_lcd
    print_lcd
        0x000017ac:    b570        p.      PUSH     {r4-r6,lr}
        0x000017ae:    4606        .F      MOV      r6,r0
        0x000017b0:    460c        .F      MOV      r4,r1
        0x000017b2:    2500        .%      MOVS     r5,#0
        0x000017b4:    bf00        ..      NOP      
        0x000017b6:    7822        "x      LDRB     r2,[r4,#0]
        0x000017b8:    1c64        d.      ADDS     r4,r4,#1
        0x000017ba:    b2e9        ..      UXTB     r1,r5
        0x000017bc:    4630        0F      MOV      r0,r6
        0x000017be:    f7fffda3    ....    BL       Show_Word ; 0x1308
        0x000017c2:    1c6d        m.      ADDS     r5,r5,#1
        0x000017c4:    2d0f        .-      CMP      r5,#0xf
        0x000017c6:    dd00        ..      BLE      0x17ca ; print_lcd + 30
        0x000017c8:    e002        ..      B        0x17d0 ; print_lcd + 36
        0x000017ca:    7820         x      LDRB     r0,[r4,#0]
        0x000017cc:    2800        .(      CMP      r0,#0
        0x000017ce:    d1f2        ..      BNE      0x17b6 ; print_lcd + 10
        0x000017d0:    bf00        ..      NOP      
        0x000017d2:    bd70        p.      POP      {r4-r6,pc}
    i.show_seven_segment
    show_seven_segment
        0x000017d4:    b5f8        ..      PUSH     {r3-r7,lr}
        0x000017d6:    4605        .F      MOV      r5,r0
        0x000017d8:    460f        .F      MOV      r7,r1
        0x000017da:    480d        .H      LDR      r0,[pc,#52] ; [0x1810] = 0x2000062c
        0x000017dc:    5dc6        .]      LDRB     r6,[r0,r7]
        0x000017de:    2400        .$      MOVS     r4,#0
        0x000017e0:    e00f        ..      B        0x1802 ; show_seven_segment + 46
        0x000017e2:    07f0        ..      LSLS     r0,r6,#31
        0x000017e4:    0fc0        ..      LSRS     r0,r0,#31
        0x000017e6:    2801        .(      CMP      r0,#1
        0x000017e8:    d104        ..      BNE      0x17f4 ; show_seven_segment + 32
        0x000017ea:    4621        !F      MOV      r1,r4
        0x000017ec:    2004        .       MOVS     r0,#4
        0x000017ee:    f7fefff7    ....    BL       DrvGPIO_SetBit ; 0x7e0
        0x000017f2:    e003        ..      B        0x17fc ; show_seven_segment + 40
        0x000017f4:    4621        !F      MOV      r1,r4
        0x000017f6:    2004        .       MOVS     r0,#4
        0x000017f8:    f7feff8c    ....    BL       DrvGPIO_ClrBit ; 0x714
        0x000017fc:    1076        v.      ASRS     r6,r6,#1
        0x000017fe:    1c60        `.      ADDS     r0,r4,#1
        0x00001800:    b2c4        ..      UXTB     r4,r0
        0x00001802:    2c08        .,      CMP      r4,#8
        0x00001804:    dbed        ..      BLT      0x17e2 ; show_seven_segment + 14
        0x00001806:    1d29        ).      ADDS     r1,r5,#4
        0x00001808:    2002        .       MOVS     r0,#2
        0x0000180a:    f7feffe9    ....    BL       DrvGPIO_SetBit ; 0x7e0
        0x0000180e:    bdf8        ..      POP      {r3-r7,pc}
    $d
        0x00001810:    2000062c    ,..     DCD    536872492
    $d.realdata
    .constdata
        0x00001814:    3d524e43    CNR=    DCD    1028804163
        0x00001818:    48487830    0xHH    DCD    1212708912
        0x0000181c:    00004848    HH..    DCD    18504
        0x00001820:    00000000    ....    DCD    0
        0x00001824:    00000000    ....    DCD    0
        0x00001828:    656d6954    Time    DCD    1701669204
        0x0000182c:    003a3372    r3:.    DCD    3814258
        0x00001830:    00000000    ....    DCD    0
        0x00001834:    00000000    ....    DCD    0
        0x00001838:    00000000    ....    DCD    0
        0x0000183c:    68676948    High    DCD    1751607624
        0x00001840:    0000003a    :...    DCD    58
        0x00001844:    00000000    ....    DCD    0
        0x00001848:    00000000    ....    DCD    0
        0x0000184c:    00000000    ....    DCD    0
        0x00001850:    3a776f4c    Low:    DCD    980905804
        0x00001854:    00000020     ...    DCD    32
        0x00001858:    00000000    ....    DCD    0
        0x0000185c:    00000000    ....    DCD    0
        0x00001860:    00000000    ....    DCD    0
    .constdata
        0x00001864:    003e3d3b    ;=>.    DCD    4078907
    .constdata
    uc_hextab
        0x00001868:    33323130    0123    DCD    858927408
        0x0000186c:    37363534    4567    DCD    926299444
        0x00001870:    42413938    89AB    DCD    1111570744
        0x00001874:    46454443    CDEF    DCD    1178944579
        0x00001878:    00583040    @0X.    DCD    5779520
    lc_hextab
        0x0000187c:    33323130    0123    DCD    858927408
        0x00001880:    37363534    4567    DCD    926299444
        0x00001884:    62613938    89ab    DCD    1650538808
        0x00001888:    66656463    cdef    DCD    1717920867
        0x0000188c:    00783040    @0x.    DCD    7876672
    Region$$Table$$Base
        0x00001890:    000018b0    ....    DCD    6320
        0x00001894:    20000000    ...     DCD    536870912
        0x00001898:    0000065c    \...    DCD    1628
        0x0000189c:    00000104    ....    DCD    260
        0x000018a0:    00001f0c    ....    DCD    7948
        0x000018a4:    2000065c    \..     DCD    536872540
        0x000018a8:    000004b4    ....    DCD    1204
        0x000018ac:    00000120     ...    DCD    288
    Region$$Table$$Limit

** Section #2 'ER_RW' (SHT_PROGBITS) [SHF_ALLOC + SHF_WRITE]
    Size   : 1628 bytes (alignment 4)
    Address: 0x20000000


** Section #3 'ER_ZI' (SHT_NOBITS) [SHF_ALLOC + SHF_WRITE]
    Size   : 1204 bytes (alignment 8)
    Address: 0x2000065c


** Section #4 '.debug_abbrev' (SHT_PROGBITS)
    Size   : 1476 bytes


** Section #5 '.debug_frame' (SHT_PROGBITS)
    Size   : 1752 bytes


** Section #6 '.debug_info' (SHT_PROGBITS)
    Size   : 122408 bytes


** Section #7 '.debug_line' (SHT_PROGBITS)
    Size   : 8284 bytes


** Section #8 '.debug_loc' (SHT_PROGBITS)
    Size   : 2084 bytes


** Section #9 '.debug_macinfo' (SHT_PROGBITS)
    Size   : 149968 bytes


** Section #10 '.debug_pubnames' (SHT_PROGBITS)
    Size   : 1607 bytes


** Section #11 '.symtab' (SHT_SYMTAB)
    Size   : 7696 bytes (alignment 4)
    String table #12 '.strtab'
    Last local symbol no. 323


** Section #12 '.strtab' (SHT_STRTAB)
    Size   : 6176 bytes


** Section #13 '.note' (SHT_NOTE)
    Size   : 28 bytes (alignment 4)


** Section #14 '.comment' (SHT_PROGBITS)
    Size   : 6560 bytes


** Section #15 '.shstrtab' (SHT_STRTAB)
    Size   : 156 bytes


