
========================================================================

** ELF Header Information

    File Name: .\obj\Smpl_Start_Kit.axf

    Machine class: ELFCLASS32 (32-bit)
    Data encoding: ELFDATA2LSB (Little endian)
    Header version: EV_CURRENT (Current version)
    Operating System ABI: none
    ABI Version: 0
    File Type: ET_EXEC (Executable) (2)
    Machine: EM_ARM (ARM)

    Image Entry point: 0x00000181
    Flags: EF_ARM_HASENTRY (0x05000002)

    ARM ELF revision: 5 (ABI version 2)

    Built with
    ARM C/C++ Compiler, 4.1 [Build 894]
    ARM Assembler, 4.1 [Build 894]
    ARM Linker, 4.1 [Build 894] 

    Header size: 52 bytes (0x34)
    Program header entry size: 32 bytes (0x20)
    Section header entry size: 40 bytes (0x28)

    Program header entries: 1
    Section header entries: 16

    Program header offset: 312452 (0x0004c484)
    Section header offset: 312484 (0x0004c4a4)

    Section header string table index: 15

========================================================================

** Program header #0 (PT_LOAD) [PF_X + PF_W + PF_R + PF_ARM_ENTRY]
    Size : 7948 bytes (6716 bytes in file)
    Virtual address: 0x00000000 (Alignment 8)


========================================================================

** Section #1 'ER_RO' (SHT_PROGBITS) [SHF_ALLOC + SHF_EXECINSTR]
    Size   : 5100 bytes (alignment 4)
    Address: 0x00000000

    $d.realdata
    RESET
    __Vectors
        0x00000000:    20000b20     ..     DCD    536873760
        0x00000004:    00000181    ....    DCD    385
        0x00000008:    000001a1    ....    DCD    417
        0x0000000c:    000001a3    ....    DCD    419
        0x00000010:    00000000    ....    DCD    0
        0x00000014:    00000000    ....    DCD    0
        0x00000018:    00000000    ....    DCD    0
        0x0000001c:    00000000    ....    DCD    0
        0x00000020:    00000000    ....    DCD    0
        0x00000024:    00000000    ....    DCD    0
        0x00000028:    00000000    ....    DCD    0
        0x0000002c:    000001a5    ....    DCD    421
        0x00000030:    00000000    ....    DCD    0
        0x00000034:    00000000    ....    DCD    0
        0x00000038:    000001a7    ....    DCD    423
        0x0000003c:    000001a9    ....    DCD    425
        0x00000040:    000005b1    ....    DCD    1457
        0x00000044:    000001ab    ....    DCD    427
        0x00000048:    0000065d    ]...    DCD    1629
        0x0000004c:    00000681    ....    DCD    1665
        0x00000050:    000006a5    ....    DCD    1701
        0x00000054:    000006e1    ....    DCD    1761
        0x00000058:    000001ab    ....    DCD    427
        0x0000005c:    000001ab    ....    DCD    427
        0x00000060:    00000fdd    ....    DCD    4061
        0x00000064:    000001ab    ....    DCD    427
        0x00000068:    000001ab    ....    DCD    427
        0x0000006c:    000001ab    ....    DCD    427
        0x00000070:    00001179    y...    DCD    4473
        0x00000074:    000011b5    ....    DCD    4533
        0x00000078:    00000cdd    ....    DCD    3293
        0x0000007c:    00000d41    A...    DCD    3393
        0x00000080:    00000da5    ....    DCD    3493
        0x00000084:    00000e09    ....    DCD    3593
        0x00000088:    00000721    !...    DCD    1825
        0x0000008c:    00000799    ....    DCD    1945
        0x00000090:    000001ab    ....    DCD    427
        0x00000094:    000001ab    ....    DCD    427
        0x00000098:    000001ab    ....    DCD    427
        0x0000009c:    000001ab    ....    DCD    427
        0x000000a0:    000001ab    ....    DCD    427
        0x000000a4:    000001ab    ....    DCD    427
        0x000000a8:    000001ab    ....    DCD    427
        0x000000ac:    000001ab    ....    DCD    427
        0x000000b0:    00000cb5    ....    DCD    3253
        0x000000b4:    0000055d    ]...    DCD    1373
        0x000000b8:    000001ab    ....    DCD    427
        0x000000bc:    000001ab    ....    DCD    427
    $t
    !!!main
    __main
        0x000000c0:    f000f802    ....    BL       __scatterload ; 0xc8
        0x000000c4:    f000f84d    ..M.    BL       __rt_entry ; 0x162
    !!!scatter
    __scatterload
    __scatterload_rt2
    __scatterload_rt2_thumb_only
        0x000000c8:    a00c        ..      ADR      r0,{pc}+0x34 ; 0xfc
        0x000000ca:    c830        0.      LDM      r0!,{r4,r5}
        0x000000cc:    3808        .8      SUBS     r0,r0,#8
        0x000000ce:    1824        $.      ADDS     r4,r4,r0
        0x000000d0:    182d        -.      ADDS     r5,r5,r0
        0x000000d2:    46a2        .F      MOV      r10,r4
        0x000000d4:    1e67        g.      SUBS     r7,r4,#1
        0x000000d6:    46ab        .F      MOV      r11,r5
    __scatterload_null
        0x000000d8:    4654        TF      MOV      r4,r10
        0x000000da:    465d        ]F      MOV      r5,r11
        0x000000dc:    42ac        .B      CMP      r4,r5
        0x000000de:    d101        ..      BNE      0xe4 ; __scatterload_null + 12
        0x000000e0:    f000f83f    ..?.    BL       __rt_entry ; 0x162
        0x000000e4:    467e        ~F      MOV      r6,pc
        0x000000e6:    3e0f        .>      SUBS     r6,r6,#0xf
        0x000000e8:    cc0f        ..      LDM      r4!,{r0-r3}
        0x000000ea:    46b6        .F      MOV      lr,r6
        0x000000ec:    2601        .&      MOVS     r6,#1
        0x000000ee:    4233        3B      TST      r3,r6
        0x000000f0:    d000        ..      BEQ      0xf4 ; __scatterload_null + 28
        0x000000f2:    1afb        ..      SUBS     r3,r7,r3
        0x000000f4:    46a2        .F      MOV      r10,r4
        0x000000f6:    46ab        .F      MOV      r11,r5
        0x000000f8:    4333        3C      ORRS     r3,r3,r6
        0x000000fa:    4718        .G      BX       r3
    $d
        0x000000fc:    000012d0    ....    DCD    4816
        0x00000100:    000012f0    ....    DCD    4848
    $t
    !!handler_copy
    __scatterload_copy
        0x00000104:    3a10        .:      SUBS     r2,r2,#0x10
        0x00000106:    d302        ..      BCC      0x10e ; __scatterload_copy + 10
        0x00000108:    c878        x.      LDM      r0!,{r3-r6}
        0x0000010a:    c178        x.      STM      r1!,{r3-r6}
        0x0000010c:    d8fa        ..      BHI      __scatterload_copy ; 0x104
        0x0000010e:    0752        R.      LSLS     r2,r2,#29
        0x00000110:    d301        ..      BCC      0x116 ; __scatterload_copy + 18
        0x00000112:    c830        0.      LDM      r0!,{r4,r5}
        0x00000114:    c130        0.      STM      r1!,{r4,r5}
        0x00000116:    d501        ..      BPL      0x11c ; __scatterload_copy + 24
        0x00000118:    6804        .h      LDR      r4,[r0,#0]
        0x0000011a:    600c        .`      STR      r4,[r1,#0]
        0x0000011c:    4770        pG      BX       lr
        0x0000011e:    0000        ..      MOVS     r0,r0
    !!handler_zi
    __scatterload_zeroinit
        0x00000120:    2300        .#      MOVS     r3,#0
        0x00000122:    2400        .$      MOVS     r4,#0
        0x00000124:    2500        .%      MOVS     r5,#0
        0x00000126:    2600        .&      MOVS     r6,#0
        0x00000128:    3a10        .:      SUBS     r2,r2,#0x10
        0x0000012a:    d301        ..      BCC      0x130 ; __scatterload_zeroinit + 16
        0x0000012c:    c178        x.      STM      r1!,{r3-r6}
        0x0000012e:    d8fb        ..      BHI      0x128 ; __scatterload_zeroinit + 8
        0x00000130:    0752        R.      LSLS     r2,r2,#29
        0x00000132:    d300        ..      BCC      0x136 ; __scatterload_zeroinit + 22
        0x00000134:    c130        0.      STM      r1!,{r4,r5}
        0x00000136:    d500        ..      BPL      0x13a ; __scatterload_zeroinit + 26
        0x00000138:    600b        .`      STR      r3,[r1,#0]
        0x0000013a:    4770        pG      BX       lr
    .ARM.Collect$$_printf_percent$$00000000
    _printf_percent
        0x0000013c:    b510        ..      PUSH     {r4,lr}
    .ARM.Collect$$_printf_percent$$00000009
    _printf_d
        0x0000013e:    2964        d)      CMP      r1,#0x64
        0x00000140:    d102        ..      BNE      _printf_x ; 0x148
        0x00000142:    f000f863    ..c.    BL       _printf_int_dec ; 0x20c
        0x00000146:    bd10        ..      POP      {r4,pc}
    .ARM.Collect$$_printf_percent$$0000000C
    _printf_x
        0x00000148:    2978        x)      CMP      r1,#0x78
        0x0000014a:    d102        ..      BNE      _printf_percent_end ; 0x152
        0x0000014c:    f000f894    ....    BL       _printf_int_hex ; 0x278
        0x00000150:    bd10        ..      POP      {r4,pc}
    .ARM.Collect$$_printf_percent$$00000017
    _printf_percent_end
        0x00000152:    2000        .       MOVS     r0,#0
        0x00000154:    bd10        ..      POP      {r4,pc}
    .ARM.Collect$$libinit$$00000000
    __rt_lib_init
        0x00000156:    b51f        ..      PUSH     {r0-r4,lr}
        0x00000158:    46c0        .F      MOV      r8,r8
        0x0000015a:    46c0        .F      MOV      r8,r8
    .ARM.Collect$$libinit$$00000006
    .ARM.Collect$$libinit$$00000008
    .ARM.Collect$$libinit$$0000000A
    .ARM.Collect$$libinit$$0000000D
    .ARM.Collect$$libinit$$0000000F
    .ARM.Collect$$libinit$$00000011
    .ARM.Collect$$libinit$$00000013
    .ARM.Collect$$libinit$$00000015
    .ARM.Collect$$libinit$$00000017
    .ARM.Collect$$libinit$$00000019
    .ARM.Collect$$libinit$$0000001B
    .ARM.Collect$$libinit$$0000001D
    .ARM.Collect$$libinit$$0000001F
    .ARM.Collect$$libinit$$00000021
    .ARM.Collect$$libinit$$00000028
    .ARM.Collect$$libinit$$0000002A
    .ARM.Collect$$libinit$$0000002C
    .ARM.Collect$$libinit$$0000002E
    .ARM.Collect$$libinit$$0000002F
    __rt_lib_init_alloca_1
    __rt_lib_init_argv_1
    __rt_lib_init_atexit_1
    __rt_lib_init_clock_1
    __rt_lib_init_cpp_1
    __rt_lib_init_exceptions_1
    __rt_lib_init_fp_trap_1
    __rt_lib_init_getenv_1
    __rt_lib_init_heap_1
    __rt_lib_init_lc_collate_1
    __rt_lib_init_lc_ctype_1
    __rt_lib_init_lc_monetary_1
    __rt_lib_init_lc_numeric_1
    __rt_lib_init_lc_time_1
    __rt_lib_init_rand_1
    __rt_lib_init_return
    __rt_lib_init_signal_1
    __rt_lib_init_stdio_1
    __rt_lib_init_user_alloc_1
        0x0000015c:    bd1f        ..      POP      {r0-r4,pc}
    .ARM.Collect$$libshutdown$$00000000
    __rt_lib_shutdown
        0x0000015e:    b510        ..      PUSH     {r4,lr}
    .ARM.Collect$$libshutdown$$00000003
    .ARM.Collect$$libshutdown$$00000006
    .ARM.Collect$$libshutdown$$00000009
    .ARM.Collect$$libshutdown$$0000000B
    .ARM.Collect$$libshutdown$$0000000E
    .ARM.Collect$$libshutdown$$0000000F
    __rt_lib_shutdown_fp_trap_1
    __rt_lib_shutdown_heap_1
    __rt_lib_shutdown_return
    __rt_lib_shutdown_signal_1
    __rt_lib_shutdown_stdio_1
    __rt_lib_shutdown_user_alloc_1
        0x00000160:    bd10        ..      POP      {r4,pc}
    .ARM.Collect$$rtentry$$00000000
    .ARM.Collect$$rtentry$$00000002
    .ARM.Collect$$rtentry$$00000004
    __rt_entry
    __rt_entry_presh_1
    __rt_entry_sh
        0x00000162:    f000f9ca    ....    BL       __user_setup_stackheap ; 0x4fa
        0x00000166:    4611        .F      MOV      r1,r2
    .ARM.Collect$$rtentry$$00000009
    .ARM.Collect$$rtentry$$0000000A
    __rt_entry_li
    __rt_entry_postsh_1
        0x00000168:    f7fffff5    ....    BL       __rt_lib_init ; 0x156
    .ARM.Collect$$rtentry$$0000000C
    .ARM.Collect$$rtentry$$0000000D
    __rt_entry_main
    __rt_entry_postli_1
        0x0000016c:    f001f88c    ....    BL       main ; 0x1288
        0x00000170:    f000f9e2    ....    BL       exit ; 0x538
    .ARM.Collect$$rtexit$$00000000
    __rt_exit
        0x00000174:    b403        ..      PUSH     {r0,r1}
    .ARM.Collect$$rtexit$$00000002
    .ARM.Collect$$rtexit$$00000003
    __rt_exit_ls
    __rt_exit_prels_1
        0x00000176:    f7fffff2    ....    BL       __rt_lib_shutdown ; 0x15e
    .ARM.Collect$$rtexit$$00000004
    __rt_exit_exit
        0x0000017a:    bc03        ..      POP      {r0,r1}
        0x0000017c:    f000f9e6    ....    BL       _sys_exit ; 0x54c
    .text
    Reset_Handler
        0x00000180:    480d        .H      LDR      r0,[pc,#52] ; [0x1b8] = 0x50000100
        0x00000182:    490e        .I      LDR      r1,[pc,#56] ; [0x1bc] = 0x59
        0x00000184:    6001        .`      STR      r1,[r0,#0]
        0x00000186:    490e        .I      LDR      r1,[pc,#56] ; [0x1c0] = 0x16
        0x00000188:    6001        .`      STR      r1,[r0,#0]
        0x0000018a:    490e        .I      LDR      r1,[pc,#56] ; [0x1c4] = 0x88
        0x0000018c:    6001        .`      STR      r1,[r0,#0]
        0x0000018e:    4a0e        .J      LDR      r2,[pc,#56] ; [0x1c8] = 0x50000024
        0x00000190:    490e        .I      LDR      r1,[pc,#56] ; [0x1cc] = 0x5aa5
        0x00000192:    6011        .`      STR      r1,[r2,#0]
        0x00000194:    2100        .!      MOVS     r1,#0
        0x00000196:    6001        .`      STR      r1,[r0,#0]
        0x00000198:    480d        .H      LDR      r0,[pc,#52] ; [0x1d0] = 0xfd9
        0x0000019a:    4780        .G      BLX      r0
        0x0000019c:    480d        .H      LDR      r0,[pc,#52] ; [0x1d4] = 0xc1
        0x0000019e:    4700        .G      BX       r0
    NMI_Handler
        0x000001a0:    e7fe        ..      B        NMI_Handler ; 0x1a0
    HardFault_Handler
        0x000001a2:    e7fe        ..      B        HardFault_Handler ; 0x1a2
    SVC_Handler
        0x000001a4:    e7fe        ..      B        SVC_Handler ; 0x1a4
    PendSV_Handler
        0x000001a6:    e7fe        ..      B        PendSV_Handler ; 0x1a6
    SysTick_Handler
        0x000001a8:    e7fe        ..      B        SysTick_Handler ; 0x1a8
    Default_Handler
    ACMP_IRQHandler
    CAN0_IRQHandler
    I2S_IRQHandler
    PDMA_IRQHandler
    PS2_IRQHandler
    PWMA_IRQHandler
    PWMB_IRQHandler
    RTC_IRQHandler
    TMR1_IRQHandler
    TMR2_IRQHandler
    TMR3_IRQHandler
    USBD_IRQHandler
    WDT_IRQHandler
        0x000001aa:    e7fe        ..      B        Default_Handler ; 0x1aa
    __user_initial_stackheap
        0x000001ac:    480a        .H      LDR      r0,[pc,#40] ; [0x1d8] = 0x20000720
        0x000001ae:    490b        .I      LDR      r1,[pc,#44] ; [0x1dc] = 0x20000b20
        0x000001b0:    4a09        .J      LDR      r2,[pc,#36] ; [0x1d8] = 0x20000720
        0x000001b2:    4b0b        .K      LDR      r3,[pc,#44] ; [0x1e0] = 0x20000720
        0x000001b4:    4770        pG      BX       lr
    $d
        0x000001b6:    0000        ..      DCW    0
        0x000001b8:    50000100    ...P    DCD    1342177536
        0x000001bc:    00000059    Y...    DCD    89
        0x000001c0:    00000016    ....    DCD    22
        0x000001c4:    00000088    ....    DCD    136
        0x000001c8:    50000024    $..P    DCD    1342177316
        0x000001cc:    00005aa5    .Z..    DCD    23205
        0x000001d0:    00000fd9    ....    DCD    4057
        0x000001d4:    000000c1    ....    DCD    193
        0x000001d8:    20000720     ..     DCD    536872736
        0x000001dc:    20000b20     ..     DCD    536873760
        0x000001e0:    20000720     ..     DCD    536872736
    $t
    .text
    __2sprintf
        0x000001e4:    b40f        ..      PUSH     {r0-r3}
        0x000001e6:    b51c        ..      PUSH     {r2-r4,lr}
        0x000001e8:    4b07        .K      LDR      r3,[pc,#28] ; [0x208] = 0x2d9
        0x000001ea:    aa06        ..      ADD      r2,sp,#0x18
        0x000001ec:    447b        {D      ADD      r3,r3,pc
        0x000001ee:    4669        iF      MOV      r1,sp
        0x000001f0:    9000        ..      STR      r0,[sp,#0]
        0x000001f2:    9805        ..      LDR      r0,[sp,#0x14]
        0x000001f4:    f000f955    ..U.    BL       _printf_char_common ; 0x4a2
        0x000001f8:    2000        .       MOVS     r0,#0
        0x000001fa:    4669        iF      MOV      r1,sp
        0x000001fc:    f000f964    ..d.    BL       _sputc ; 0x4c8
        0x00000200:    bc1c        ..      POP      {r2-r4}
        0x00000202:    bc08        ..      POP      {r3}
        0x00000204:    b004        ..      ADD      sp,sp,#0x10
        0x00000206:    4718        .G      BX       r3
    $d
        0x00000208:    000002d9    ....    DCD    729
    $t
    .text
    _printf_int_dec
        0x0000020c:    b5f7        ..      PUSH     {r0-r2,r4-r7,lr}
        0x0000020e:    2600        .&      MOVS     r6,#0
        0x00000210:    2975        u)      CMP      r1,#0x75
        0x00000212:    6810        .h      LDR      r0,[r2,#0]
        0x00000214:    9900        ..      LDR      r1,[sp,#0]
        0x00000216:    a514        ..      ADR      r5,{pc}+0x52 ; 0x268
        0x00000218:    d011        ..      BEQ      0x23e ; _printf_int_dec + 50
        0x0000021a:    46c0        .F      MOV      r8,r8
        0x0000021c:    46c0        .F      MOV      r8,r8
        0x0000021e:    2800        .(      CMP      r0,#0
        0x00000220:    da02        ..      BGE      0x228 ; _printf_int_dec + 28
        0x00000222:    4240        @B      RSBS     r0,r0,#0
        0x00000224:    a511        ..      ADR      r5,{pc}+0x48 ; 0x26c
        0x00000226:    e008        ..      B        0x23a ; _printf_int_dec + 46
        0x00000228:    9900        ..      LDR      r1,[sp,#0]
        0x0000022a:    6809        .h      LDR      r1,[r1,#0]
        0x0000022c:    078a        ..      LSLS     r2,r1,#30
        0x0000022e:    d501        ..      BPL      0x234 ; _printf_int_dec + 40
        0x00000230:    a50f        ..      ADR      r5,{pc}+0x40 ; 0x270
        0x00000232:    e002        ..      B        0x23a ; _printf_int_dec + 46
        0x00000234:    0749        I.      LSLS     r1,r1,#29
        0x00000236:    d504        ..      BPL      0x242 ; _printf_int_dec + 54
        0x00000238:    a50e        ..      ADR      r5,{pc}+0x3c ; 0x274
        0x0000023a:    2601        .&      MOVS     r6,#1
        0x0000023c:    e001        ..      B        0x242 ; _printf_int_dec + 54
        0x0000023e:    46c0        .F      MOV      r8,r8
        0x00000240:    46c0        .F      MOV      r8,r8
        0x00000242:    9f00        ..      LDR      r7,[sp,#0]
        0x00000244:    2400        .$      MOVS     r4,#0
        0x00000246:    3724        $7      ADDS     r7,r7,#0x24
        0x00000248:    e004        ..      B        0x254 ; _printf_int_dec + 72
        0x0000024a:    f000f942    ..B.    BL       __rt_udiv10 ; 0x4d2
        0x0000024e:    3130        01      ADDS     r1,r1,#0x30
        0x00000250:    5539        9U      STRB     r1,[r7,r4]
        0x00000252:    1c64        d.      ADDS     r4,r4,#1
        0x00000254:    2800        .(      CMP      r0,#0
        0x00000256:    d1f8        ..      BNE      0x24a ; _printf_int_dec + 62
        0x00000258:    4633        3F      MOV      r3,r6
        0x0000025a:    462a        *F      MOV      r2,r5
        0x0000025c:    4621        !F      MOV      r1,r4
        0x0000025e:    9800        ..      LDR      r0,[sp,#0]
        0x00000260:    f000f8c1    ....    BL       _printf_int_common ; 0x3e6
        0x00000264:    bdfe        ..      POP      {r1-r7,pc}
    $d
        0x00000266:    0000        ..      DCW    0
        0x00000268:    00000000    ....    DCD    0
        0x0000026c:    0000002d    -...    DCD    45
        0x00000270:    0000002b    +...    DCD    43
        0x00000274:    00000020     ...    DCD    32
    $t
    .text
    _printf_int_hex
    _printf_longlong_hex
        0x00000278:    b570        p.      PUSH     {r4-r6,lr}
        0x0000027a:    4604        .F      MOV      r4,r0
        0x0000027c:    460d        .F      MOV      r5,r1
        0x0000027e:    4621        !F      MOV      r1,r4
        0x00000280:    6810        .h      LDR      r0,[r2,#0]
        0x00000282:    46c0        .F      MOV      r8,r8
        0x00000284:    46c0        .F      MOV      r8,r8
        0x00000286:    6821        !h      LDR      r1,[r4,#0]
        0x00000288:    0509        ..      LSLS     r1,r1,#20
        0x0000028a:    d502        ..      BPL      0x292 ; _printf_int_hex + 26
        0x0000028c:    4a0f        .J      LDR      r2,[pc,#60] ; [0x2cc] = 0x1112
        0x0000028e:    447a        zD      ADD      r2,r2,pc
        0x00000290:    e002        ..      B        0x298 ; _printf_int_hex + 32
        0x00000292:    4a0e        .J      LDR      r2,[pc,#56] ; [0x2cc] = 0x1112
        0x00000294:    447a        zD      ADD      r2,r2,pc
        0x00000296:    320e        .2      ADDS     r2,r2,#0xe
        0x00000298:    4623        #F      MOV      r3,r4
        0x0000029a:    2100        .!      MOVS     r1,#0
        0x0000029c:    3324        $3      ADDS     r3,r3,#0x24
        0x0000029e:    e005        ..      B        0x2ac ; _printf_int_hex + 52
        0x000002a0:    0706        ..      LSLS     r6,r0,#28
        0x000002a2:    0f36        6.      LSRS     r6,r6,#28
        0x000002a4:    5d96        .]      LDRB     r6,[r2,r6]
        0x000002a6:    545e        ^T      STRB     r6,[r3,r1]
        0x000002a8:    1c49        I.      ADDS     r1,r1,#1
        0x000002aa:    0900        ..      LSRS     r0,r0,#4
        0x000002ac:    2800        .(      CMP      r0,#0
        0x000002ae:    d1f7        ..      BNE      0x2a0 ; _printf_int_hex + 40
        0x000002b0:    6820         h      LDR      r0,[r4,#0]
        0x000002b2:    2300        .#      MOVS     r3,#0
        0x000002b4:    0700        ..      LSLS     r0,r0,#28
        0x000002b6:    d505        ..      BPL      0x2c4 ; _printf_int_hex + 76
        0x000002b8:    2d70        p-      CMP      r5,#0x70
        0x000002ba:    d003        ..      BEQ      0x2c4 ; _printf_int_hex + 76
        0x000002bc:    2900        .)      CMP      r1,#0
        0x000002be:    d001        ..      BEQ      0x2c4 ; _printf_int_hex + 76
        0x000002c0:    3211        .2      ADDS     r2,r2,#0x11
        0x000002c2:    2302        .#      MOVS     r3,#2
        0x000002c4:    4620         F      MOV      r0,r4
        0x000002c6:    f000f88e    ....    BL       _printf_int_common ; 0x3e6
        0x000002ca:    bd70        p.      POP      {r4-r6,pc}
    $d
        0x000002cc:    00001112    ....    DCD    4370
    $t
    .text
    __printf
        0x000002d0:    b5f3        ..      PUSH     {r0,r1,r4-r7,lr}
        0x000002d2:    4604        .F      MOV      r4,r0
        0x000002d4:    2000        .       MOVS     r0,#0
        0x000002d6:    b081        ..      SUB      sp,sp,#4
        0x000002d8:    e07e        ~.      B        0x3d8 ; __printf + 264
        0x000002da:    68e1        .h      LDR      r1,[r4,#0xc]
        0x000002dc:    4620         F      MOV      r0,r4
        0x000002de:    4788        .G      BLX      r1
        0x000002e0:    2800        .(      CMP      r0,#0
        0x000002e2:    d07b        {.      BEQ      0x3dc ; __printf + 268
        0x000002e4:    2825        %(      CMP      r0,#0x25
        0x000002e6:    d002        ..      BEQ      0x2ee ; __printf + 30
        0x000002e8:    6862        bh      LDR      r2,[r4,#4]
        0x000002ea:    68a1        .h      LDR      r1,[r4,#8]
        0x000002ec:    e071        q.      B        0x3d2 ; __printf + 258
        0x000002ee:    68e1        .h      LDR      r1,[r4,#0xc]
        0x000002f0:    4620         F      MOV      r0,r4
        0x000002f2:    2500        .%      MOVS     r5,#0
        0x000002f4:    4788        .G      BLX      r1
        0x000002f6:    4606        .F      MOV      r6,r0
        0x000002f8:    2000        .       MOVS     r0,#0
        0x000002fa:    61e0        .a      STR      r0,[r4,#0x1c]
        0x000002fc:    4607        .F      MOV      r7,r0
        0x000002fe:    61a0        .a      STR      r0,[r4,#0x18]
        0x00000300:    2e2a        *.      CMP      r6,#0x2a
        0x00000302:    d00a        ..      BEQ      0x31a ; __printf + 74
        0x00000304:    4630        0F      MOV      r0,r6
        0x00000306:    f000ff91    ....    BL       _is_digit ; 0x122c
        0x0000030a:    2800        .(      CMP      r0,#0
        0x0000030c:    d027        '.      BEQ      0x35e ; __printf + 142
        0x0000030e:    3e30        0>      SUBS     r6,r6,#0x30
        0x00000310:    00b8        ..      LSLS     r0,r7,#2
        0x00000312:    1900        ..      ADDS     r0,r0,r4
        0x00000314:    9000        ..      STR      r0,[sp,#0]
        0x00000316:    6186        .a      STR      r6,[r0,#0x18]
        0x00000318:    e019        ..      B        0x34e ; __printf + 126
        0x0000031a:    9802        ..      LDR      r0,[sp,#8]
        0x0000031c:    00ba        ..      LSLS     r2,r7,#2
        0x0000031e:    1912        ..      ADDS     r2,r2,r4
        0x00000320:    c802        ..      LDM      r0!,{r1}
        0x00000322:    6191        .a      STR      r1,[r2,#0x18]
        0x00000324:    9002        ..      STR      r0,[sp,#8]
        0x00000326:    4620         F      MOV      r0,r4
        0x00000328:    68e1        .h      LDR      r1,[r4,#0xc]
        0x0000032a:    4788        .G      BLX      r1
        0x0000032c:    2f01        ./      CMP      r7,#1
        0x0000032e:    4606        .F      MOV      r6,r0
        0x00000330:    d117        ..      BNE      0x362 ; __printf + 146
        0x00000332:    69e0        .i      LDR      r0,[r4,#0x1c]
        0x00000334:    2800        .(      CMP      r0,#0
        0x00000336:    da1f        ..      BGE      0x378 ; __printf + 168
        0x00000338:    2020                MOVS     r0,#0x20
        0x0000033a:    4385        .C      BICS     r5,r5,r0
        0x0000033c:    e01c        ..      B        0x378 ; __printf + 168
        0x0000033e:    9800        ..      LDR      r0,[sp,#0]
        0x00000340:    210a        .!      MOVS     r1,#0xa
        0x00000342:    6980        .i      LDR      r0,[r0,#0x18]
        0x00000344:    4348        HC      MULS     r0,r1,r0
        0x00000346:    9900        ..      LDR      r1,[sp,#0]
        0x00000348:    1980        ..      ADDS     r0,r0,r6
        0x0000034a:    3830        08      SUBS     r0,r0,#0x30
        0x0000034c:    6188        .a      STR      r0,[r1,#0x18]
        0x0000034e:    4620         F      MOV      r0,r4
        0x00000350:    68e1        .h      LDR      r1,[r4,#0xc]
        0x00000352:    4788        .G      BLX      r1
        0x00000354:    4606        .F      MOV      r6,r0
        0x00000356:    f000ff69    ..i.    BL       _is_digit ; 0x122c
        0x0000035a:    2800        .(      CMP      r0,#0
        0x0000035c:    d1ef        ..      BNE      0x33e ; __printf + 110
        0x0000035e:    2f01        ./      CMP      r7,#1
        0x00000360:    d00a        ..      BEQ      0x378 ; __printf + 168
        0x00000362:    2e2e        ..      CMP      r6,#0x2e
        0x00000364:    d108        ..      BNE      0x378 ; __printf + 168
        0x00000366:    4620         F      MOV      r0,r4
        0x00000368:    68e1        .h      LDR      r1,[r4,#0xc]
        0x0000036a:    4788        .G      BLX      r1
        0x0000036c:    4606        .F      MOV      r6,r0
        0x0000036e:    2020                MOVS     r0,#0x20
        0x00000370:    4305        .C      ORRS     r5,r5,r0
        0x00000372:    1c7f        ..      ADDS     r7,r7,#1
        0x00000374:    2f02        ./      CMP      r7,#2
        0x00000376:    dbc3        ..      BLT      0x300 ; __printf + 48
        0x00000378:    69a0        .i      LDR      r0,[r4,#0x18]
        0x0000037a:    2800        .(      CMP      r0,#0
        0x0000037c:    da03        ..      BGE      0x386 ; __printf + 182
        0x0000037e:    4240        @B      RSBS     r0,r0,#0
        0x00000380:    61a0        .a      STR      r0,[r4,#0x18]
        0x00000382:    2001        .       MOVS     r0,#1
        0x00000384:    4305        .C      ORRS     r5,r5,r0
        0x00000386:    07e8        ..      LSLS     r0,r5,#31
        0x00000388:    d001        ..      BEQ      0x38e ; __printf + 190
        0x0000038a:    2010        .       MOVS     r0,#0x10
        0x0000038c:    4385        .C      BICS     r5,r5,r0
        0x0000038e:    2e00        ..      CMP      r6,#0
        0x00000390:    d024        $.      BEQ      0x3dc ; __printf + 268
        0x00000392:    4630        0F      MOV      r0,r6
        0x00000394:    3841        A8      SUBS     r0,r0,#0x41
        0x00000396:    2819        .(      CMP      r0,#0x19
        0x00000398:    d803        ..      BHI      0x3a2 ; __printf + 210
        0x0000039a:    2001        .       MOVS     r0,#1
        0x0000039c:    02c0        ..      LSLS     r0,r0,#11
        0x0000039e:    4305        .C      ORRS     r5,r5,r0
        0x000003a0:    3620         6      ADDS     r6,r6,#0x20
        0x000003a2:    4620         F      MOV      r0,r4
        0x000003a4:    6025        %`      STR      r5,[r4,#0]
        0x000003a6:    4631        1F      MOV      r1,r6
        0x000003a8:    9a02        ..      LDR      r2,[sp,#8]
        0x000003aa:    4615        .F      MOV      r5,r2
        0x000003ac:    f7fffec6    ....    BL       _printf_percent ; 0x13c
        0x000003b0:    2800        .(      CMP      r0,#0
        0x000003b2:    d00b        ..      BEQ      0x3cc ; __printf + 252
        0x000003b4:    2801        .(      CMP      r0,#1
        0x000003b6:    d006        ..      BEQ      0x3c6 ; __printf + 246
        0x000003b8:    1ded        ..      ADDS     r5,r5,#7
        0x000003ba:    08e8        ..      LSRS     r0,r5,#3
        0x000003bc:    00c0        ..      LSLS     r0,r0,#3
        0x000003be:    3008        .0      ADDS     r0,r0,#8
        0x000003c0:    9002        ..      STR      r0,[sp,#8]
        0x000003c2:    e78a        ..      B        0x2da ; __printf + 10
        0x000003c4:    e00a        ..      B        0x3dc ; __printf + 268
        0x000003c6:    1d2d        -.      ADDS     r5,r5,#4
        0x000003c8:    9502        ..      STR      r5,[sp,#8]
        0x000003ca:    e786        ..      B        0x2da ; __printf + 10
        0x000003cc:    6862        bh      LDR      r2,[r4,#4]
        0x000003ce:    4630        0F      MOV      r0,r6
        0x000003d0:    68a1        .h      LDR      r1,[r4,#8]
        0x000003d2:    4790        .G      BLX      r2
        0x000003d4:    6a20         j      LDR      r0,[r4,#0x20]
        0x000003d6:    1c40        @.      ADDS     r0,r0,#1
        0x000003d8:    6220         b      STR      r0,[r4,#0x20]
        0x000003da:    e77e        ~.      B        0x2da ; __printf + 10
        0x000003dc:    6a20         j      LDR      r0,[r4,#0x20]
        0x000003de:    bdfe        ..      POP      {r1-r7,pc}
    .text
    __use_two_region_memory
        0x000003e0:    4770        pG      BX       lr
    __rt_heap_escrow$2region
        0x000003e2:    4770        pG      BX       lr
    __rt_heap_expand$2region
        0x000003e4:    4770        pG      BX       lr
    .text
    _printf_int_common
        0x000003e6:    b5ff        ..      PUSH     {r0-r7,lr}
        0x000003e8:    4604        .F      MOV      r4,r0
        0x000003ea:    460d        .F      MOV      r5,r1
        0x000003ec:    b081        ..      SUB      sp,sp,#4
        0x000003ee:    3024        $0      ADDS     r0,r0,#0x24
        0x000003f0:    9000        ..      STR      r0,[sp,#0]
        0x000003f2:    6821        !h      LDR      r1,[r4,#0]
        0x000003f4:    0688        ..      LSLS     r0,r1,#26
        0x000003f6:    d504        ..      BPL      0x402 ; _printf_int_common + 28
        0x000003f8:    2210        ."      MOVS     r2,#0x10
        0x000003fa:    69e0        .i      LDR      r0,[r4,#0x1c]
        0x000003fc:    4391        .C      BICS     r1,r1,r2
        0x000003fe:    6021        !`      STR      r1,[r4,#0]
        0x00000400:    e000        ..      B        0x404 ; _printf_int_common + 30
        0x00000402:    2001        .       MOVS     r0,#1
        0x00000404:    42a8        .B      CMP      r0,r5
        0x00000406:    dd01        ..      BLE      0x40c ; _printf_int_common + 38
        0x00000408:    1b47        G.      SUBS     r7,r0,r5
        0x0000040a:    e000        ..      B        0x40e ; _printf_int_common + 40
        0x0000040c:    2700        .'      MOVS     r7,#0
        0x0000040e:    9804        ..      LDR      r0,[sp,#0x10]
        0x00000410:    69a1        .i      LDR      r1,[r4,#0x18]
        0x00000412:    197a        z.      ADDS     r2,r7,r5
        0x00000414:    1810        ..      ADDS     r0,r2,r0
        0x00000416:    1a08        ..      SUBS     r0,r1,r0
        0x00000418:    61a0        .a      STR      r0,[r4,#0x18]
        0x0000041a:    6820         h      LDR      r0,[r4,#0]
        0x0000041c:    06c0        ..      LSLS     r0,r0,#27
        0x0000041e:    d402        ..      BMI      0x426 ; _printf_int_common + 64
        0x00000420:    4620         F      MOV      r0,r4
        0x00000422:    46c0        .F      MOV      r8,r8
        0x00000424:    46c0        .F      MOV      r8,r8
        0x00000426:    2600        .&      MOVS     r6,#0
        0x00000428:    e008        ..      B        0x43c ; _printf_int_common + 86
        0x0000042a:    9803        ..      LDR      r0,[sp,#0xc]
        0x0000042c:    6862        bh      LDR      r2,[r4,#4]
        0x0000042e:    68a1        .h      LDR      r1,[r4,#8]
        0x00000430:    5d80        .]      LDRB     r0,[r0,r6]
        0x00000432:    4790        .G      BLX      r2
        0x00000434:    6a20         j      LDR      r0,[r4,#0x20]
        0x00000436:    1c40        @.      ADDS     r0,r0,#1
        0x00000438:    1c76        v.      ADDS     r6,r6,#1
        0x0000043a:    6220         b      STR      r0,[r4,#0x20]
        0x0000043c:    9804        ..      LDR      r0,[sp,#0x10]
        0x0000043e:    4286        .B      CMP      r6,r0
        0x00000440:    dbf3        ..      BLT      0x42a ; _printf_int_common + 68
        0x00000442:    6820         h      LDR      r0,[r4,#0]
        0x00000444:    06c0        ..      LSLS     r0,r0,#27
        0x00000446:    d50a        ..      BPL      0x45e ; _printf_int_common + 120
        0x00000448:    4620         F      MOV      r0,r4
        0x0000044a:    46c0        .F      MOV      r8,r8
        0x0000044c:    46c0        .F      MOV      r8,r8
        0x0000044e:    e006        ..      B        0x45e ; _printf_int_common + 120
        0x00000450:    6862        bh      LDR      r2,[r4,#4]
        0x00000452:    68a1        .h      LDR      r1,[r4,#8]
        0x00000454:    2030        0       MOVS     r0,#0x30
        0x00000456:    4790        .G      BLX      r2
        0x00000458:    6a20         j      LDR      r0,[r4,#0x20]
        0x0000045a:    1c40        @.      ADDS     r0,r0,#1
        0x0000045c:    6220         b      STR      r0,[r4,#0x20]
        0x0000045e:    4638        8F      MOV      r0,r7
        0x00000460:    1e7f        ..      SUBS     r7,r7,#1
        0x00000462:    2800        .(      CMP      r0,#0
        0x00000464:    dcf4        ..      BGT      0x450 ; _printf_int_common + 106
        0x00000466:    e007        ..      B        0x478 ; _printf_int_common + 146
        0x00000468:    9800        ..      LDR      r0,[sp,#0]
        0x0000046a:    6862        bh      LDR      r2,[r4,#4]
        0x0000046c:    68a1        .h      LDR      r1,[r4,#8]
        0x0000046e:    5d40        @]      LDRB     r0,[r0,r5]
        0x00000470:    4790        .G      BLX      r2
        0x00000472:    6a20         j      LDR      r0,[r4,#0x20]
        0x00000474:    1c40        @.      ADDS     r0,r0,#1
        0x00000476:    6220         b      STR      r0,[r4,#0x20]
        0x00000478:    4628        (F      MOV      r0,r5
        0x0000047a:    1e6d        m.      SUBS     r5,r5,#1
        0x0000047c:    2800        .(      CMP      r0,#0
        0x0000047e:    dcf3        ..      BGT      0x468 ; _printf_int_common + 130
        0x00000480:    4620         F      MOV      r0,r4
        0x00000482:    46c0        .F      MOV      r8,r8
        0x00000484:    46c0        .F      MOV      r8,r8
        0x00000486:    6820         h      LDR      r0,[r4,#0]
        0x00000488:    0600        ..      LSLS     r0,r0,#24
        0x0000048a:    d502        ..      BPL      0x492 ; _printf_int_common + 172
        0x0000048c:    2002        .       MOVS     r0,#2
        0x0000048e:    b005        ..      ADD      sp,sp,#0x14
        0x00000490:    bdf0        ..      POP      {r4-r7,pc}
        0x00000492:    2001        .       MOVS     r0,#1
        0x00000494:    e7fb        ..      B        0x48e ; _printf_int_common + 168
        0x00000496:    0000        ..      MOVS     r0,r0
    .text
    _printf_input_char
        0x00000498:    6901        .i      LDR      r1,[r0,#0x10]
        0x0000049a:    1c4a        J.      ADDS     r2,r1,#1
        0x0000049c:    6102        .a      STR      r2,[r0,#0x10]
        0x0000049e:    7808        .x      LDRB     r0,[r1,#0]
        0x000004a0:    4770        pG      BX       lr
    _printf_char_common
        0x000004a2:    b500        ..      PUSH     {lr}
        0x000004a4:    b08f        ..      SUB      sp,sp,#0x3c
        0x000004a6:    9102        ..      STR      r1,[sp,#8]
        0x000004a8:    2100        .!      MOVS     r1,#0
        0x000004aa:    9105        ..      STR      r1,[sp,#0x14]
        0x000004ac:    4905        .I      LDR      r1,[pc,#20] ; [0x4c4] = 0xffffffe5
        0x000004ae:    9301        ..      STR      r3,[sp,#4]
        0x000004b0:    4479        yD      ADD      r1,r1,pc
        0x000004b2:    9103        ..      STR      r1,[sp,#0xc]
        0x000004b4:    4611        .F      MOV      r1,r2
        0x000004b6:    9004        ..      STR      r0,[sp,#0x10]
        0x000004b8:    4668        hF      MOV      r0,sp
        0x000004ba:    f7ffff09    ....    BL       __printf ; 0x2d0
        0x000004be:    b00f        ..      ADD      sp,sp,#0x3c
        0x000004c0:    bd00        ..      POP      {pc}
    $d
        0x000004c2:    0000        ..      DCW    0
        0x000004c4:    ffffffe5    ....    DCD    4294967269
    $t
    .text
    _sputc
        0x000004c8:    680a        .h      LDR      r2,[r1,#0]
        0x000004ca:    7010        .p      STRB     r0,[r2,#0]
        0x000004cc:    1c52        R.      ADDS     r2,r2,#1
        0x000004ce:    600a        .`      STR      r2,[r1,#0]
        0x000004d0:    4770        pG      BX       lr
    .text
    __rt_udiv10
        0x000004d2:    4601        .F      MOV      r1,r0
        0x000004d4:    0880        ..      LSRS     r0,r0,#2
        0x000004d6:    1a08        ..      SUBS     r0,r1,r0
        0x000004d8:    0902        ..      LSRS     r2,r0,#4
        0x000004da:    1810        ..      ADDS     r0,r2,r0
        0x000004dc:    0a02        ..      LSRS     r2,r0,#8
        0x000004de:    1810        ..      ADDS     r0,r2,r0
        0x000004e0:    0c02        ..      LSRS     r2,r0,#16
        0x000004e2:    1810        ..      ADDS     r0,r2,r0
        0x000004e4:    08c0        ..      LSRS     r0,r0,#3
        0x000004e6:    0082        ..      LSLS     r2,r0,#2
        0x000004e8:    1812        ..      ADDS     r2,r2,r0
        0x000004ea:    0052        R.      LSLS     r2,r2,#1
        0x000004ec:    1a89        ..      SUBS     r1,r1,r2
        0x000004ee:    e001        ..      B        0x4f4 ; __rt_udiv10 + 34
        0x000004f0:    390a        .9      SUBS     r1,r1,#0xa
        0x000004f2:    1c40        @.      ADDS     r0,r0,#1
        0x000004f4:    290a        .)      CMP      r1,#0xa
        0x000004f6:    d2fb        ..      BCS      0x4f0 ; __rt_udiv10 + 30
        0x000004f8:    4770        pG      BX       lr
    .text
    __user_setup_stackheap
        0x000004fa:    4675        uF      MOV      r5,lr
        0x000004fc:    f000f822    ..".    BL       __user_libspace ; 0x544
        0x00000500:    46ae        .F      MOV      lr,r5
        0x00000502:    0005        ..      MOVS     r5,r0
        0x00000504:    4669        iF      MOV      r1,sp
        0x00000506:    4653        SF      MOV      r3,r10
        0x00000508:    08c0        ..      LSRS     r0,r0,#3
        0x0000050a:    00c0        ..      LSLS     r0,r0,#3
        0x0000050c:    4685        .F      MOV      sp,r0
        0x0000050e:    b018        ..      ADD      sp,sp,#0x60
        0x00000510:    b520         .      PUSH     {r5,lr}
        0x00000512:    f7fffe4b    ..K.    BL       __user_initial_stackheap ; 0x1ac
        0x00000516:    bc60        `.      POP      {r5,r6}
        0x00000518:    2700        .'      MOVS     r7,#0
        0x0000051a:    0849        I.      LSRS     r1,r1,#1
        0x0000051c:    46b6        .F      MOV      lr,r6
        0x0000051e:    2600        .&      MOVS     r6,#0
        0x00000520:    c5c0        ..      STM      r5!,{r6,r7}
        0x00000522:    c5c0        ..      STM      r5!,{r6,r7}
        0x00000524:    c5c0        ..      STM      r5!,{r6,r7}
        0x00000526:    c5c0        ..      STM      r5!,{r6,r7}
        0x00000528:    c5c0        ..      STM      r5!,{r6,r7}
        0x0000052a:    c5c0        ..      STM      r5!,{r6,r7}
        0x0000052c:    c5c0        ..      STM      r5!,{r6,r7}
        0x0000052e:    c5c0        ..      STM      r5!,{r6,r7}
        0x00000530:    3d40        @=      SUBS     r5,r5,#0x40
        0x00000532:    0049        I.      LSLS     r1,r1,#1
        0x00000534:    468d        .F      MOV      sp,r1
        0x00000536:    4770        pG      BX       lr
    .text
    exit
        0x00000538:    4604        .F      MOV      r4,r0
        0x0000053a:    46c0        .F      MOV      r8,r8
        0x0000053c:    46c0        .F      MOV      r8,r8
        0x0000053e:    4620         F      MOV      r0,r4
        0x00000540:    f7fffe18    ....    BL       __rt_exit ; 0x174
    .text
    __user_libspace
    __user_perproc_libspace
    __user_perthread_libspace
        0x00000544:    4800        .H      LDR      r0,[pc,#0] ; [0x548] = 0x200006c0
        0x00000546:    4770        pG      BX       lr
    $d
        0x00000548:    200006c0    ...     DCD    536872640
    $t
    .text
    _sys_exit
        0x0000054c:    4901        .I      LDR      r1,[pc,#4] ; [0x554] = 0x20026
        0x0000054e:    2018        .       MOVS     r0,#0x18
        0x00000550:    beab        ..      BKPT     #0xab
        0x00000552:    e7fe        ..      B        0x552 ; _sys_exit + 6
    $d
        0x00000554:    00020026    &...    DCD    131110
    $t
    .text
    __I$use$semihosting
    __use_no_semihosting_swi
        0x00000558:    4770        pG      BX       lr
    .text
    __semihosting_library_function
        0x0000055a:    0000        ..      MOVS     r0,r0
    i.ADC_IRQHandler
    ADC_IRQHandler
        0x0000055c:    b510        ..      PUSH     {r4,lr}
        0x0000055e:    a10e        ..      ADR      r1,{pc}+0x3a ; 0x598
        0x00000560:    2003        .       MOVS     r0,#3
        0x00000562:    f000fec5    ....    BL       print_lcd ; 0x12f0
        0x00000566:    4810        .H      LDR      r0,[pc,#64] ; [0x5a8] = 0x400e0000
        0x00000568:    69c0        .i      LDR      r0,[r0,#0x1c]
        0x0000056a:    b280        ..      UXTH     r0,r0
        0x0000056c:    28ff        .(      CMP      r0,#0xff
        0x0000056e:    dc02        ..      BGT      0x576 ; ADC_IRQHandler + 26
        0x00000570:    2000        .       MOVS     r0,#0
        0x00000572:    490e        .I      LDR      r1,[pc,#56] ; [0x5ac] = 0x50004280
        0x00000574:    6308        .c      STR      r0,[r1,#0x30]
        0x00000576:    480c        .H      LDR      r0,[pc,#48] ; [0x5a8] = 0x400e0000
        0x00000578:    69c0        .i      LDR      r0,[r0,#0x1c]
        0x0000057a:    b280        ..      UXTH     r0,r0
        0x0000057c:    210d        .!      MOVS     r1,#0xd
        0x0000057e:    0209        ..      LSLS     r1,r1,#8
        0x00000580:    4288        .B      CMP      r0,r1
        0x00000582:    dd02        ..      BLE      0x58a ; ADC_IRQHandler + 46
        0x00000584:    2000        .       MOVS     r0,#0
        0x00000586:    4909        .I      LDR      r1,[pc,#36] ; [0x5ac] = 0x50004280
        0x00000588:    63c8        .c      STR      r0,[r1,#0x3c]
        0x0000058a:    4807        .H      LDR      r0,[pc,#28] ; [0x5a8] = 0x400e0000
        0x0000058c:    6a80        .j      LDR      r0,[r0,#0x28]
        0x0000058e:    2102        .!      MOVS     r1,#2
        0x00000590:    4388        .C      BICS     r0,r0,r1
        0x00000592:    4905        .I      LDR      r1,[pc,#20] ; [0x5a8] = 0x400e0000
        0x00000594:    6288        .b      STR      r0,[r1,#0x28]
        0x00000596:    bd10        ..      POP      {r4,pc}
    $d
        0x00000598:    20434441    ADC     DCD    541279297
        0x0000059c:    65746e69    inte    DCD    1702129257
        0x000005a0:    70757272    rrup    DCD    1886745202
        0x000005a4:    00000074    t...    DCD    116
        0x000005a8:    400e0000    ...@    DCD    1074659328
        0x000005ac:    50004280    .B.P    DCD    1342194304
    $t
    i.BOD_IRQHandler
    BOD_IRQHandler
        0x000005b0:    b510        ..      PUSH     {r4,lr}
        0x000005b2:    2005        .       MOVS     r0,#5
        0x000005b4:    0700        ..      LSLS     r0,r0,#28
        0x000005b6:    6980        .i      LDR      r0,[r0,#0x18]
        0x000005b8:    2110        .!      MOVS     r1,#0x10
        0x000005ba:    4388        .C      BICS     r0,r0,r1
        0x000005bc:    3010        .0      ADDS     r0,r0,#0x10
        0x000005be:    2105        .!      MOVS     r1,#5
        0x000005c0:    0709        ..      LSLS     r1,r1,#28
        0x000005c2:    6188        .a      STR      r0,[r1,#0x18]
        0x000005c4:    4803        .H      LDR      r0,[pc,#12] ; [0x5d4] = 0x2000062c
        0x000005c6:    6800        .h      LDR      r0,[r0,#0]
        0x000005c8:    2800        .(      CMP      r0,#0
        0x000005ca:    d002        ..      BEQ      0x5d2 ; BOD_IRQHandler + 34
        0x000005cc:    4801        .H      LDR      r0,[pc,#4] ; [0x5d4] = 0x2000062c
        0x000005ce:    6800        .h      LDR      r0,[r0,#0]
        0x000005d0:    4780        .G      BLX      r0
        0x000005d2:    bd10        ..      POP      {r4,pc}
    $d
        0x000005d4:    2000062c    ,..     DCD    536872492
    $t
    i.DrvGPIO_ClrBit
    DrvGPIO_ClrBit
        0x000005d8:    b510        ..      PUSH     {r4,lr}
        0x000005da:    4603        .F      MOV      r3,r0
        0x000005dc:    2900        .)      CMP      r1,#0
        0x000005de:    db01        ..      BLT      0x5e4 ; DrvGPIO_ClrBit + 12
        0x000005e0:    2910        .)      CMP      r1,#0x10
        0x000005e2:    dd01        ..      BLE      0x5e8 ; DrvGPIO_ClrBit + 16
        0x000005e4:    4805        .H      LDR      r0,[pc,#20] ; [0x5fc] = 0xffff8901
        0x000005e6:    bd10        ..      POP      {r4,pc}
        0x000005e8:    0198        ..      LSLS     r0,r3,#6
        0x000005ea:    4c05        .L      LDR      r4,[pc,#20] ; [0x600] = 0x50004000
        0x000005ec:    1902        ..      ADDS     r2,r0,r4
        0x000005ee:    6890        .h      LDR      r0,[r2,#8]
        0x000005f0:    2401        .$      MOVS     r4,#1
        0x000005f2:    408c        .@      LSLS     r4,r4,r1
        0x000005f4:    43a0        .C      BICS     r0,r0,r4
        0x000005f6:    6090        .`      STR      r0,[r2,#8]
        0x000005f8:    2000        .       MOVS     r0,#0
        0x000005fa:    e7f4        ..      B        0x5e6 ; DrvGPIO_ClrBit + 14
    $d
        0x000005fc:    ffff8901    ....    DCD    4294936833
        0x00000600:    50004000    .@.P    DCD    1342193664
    $t
    i.DrvGPIO_SetBit
    DrvGPIO_SetBit
        0x00000604:    b510        ..      PUSH     {r4,lr}
        0x00000606:    4603        .F      MOV      r3,r0
        0x00000608:    2900        .)      CMP      r1,#0
        0x0000060a:    db01        ..      BLT      0x610 ; DrvGPIO_SetBit + 12
        0x0000060c:    2910        .)      CMP      r1,#0x10
        0x0000060e:    dd01        ..      BLE      0x614 ; DrvGPIO_SetBit + 16
        0x00000610:    4805        .H      LDR      r0,[pc,#20] ; [0x628] = 0xffff8901
        0x00000612:    bd10        ..      POP      {r4,pc}
        0x00000614:    0198        ..      LSLS     r0,r3,#6
        0x00000616:    4c05        .L      LDR      r4,[pc,#20] ; [0x62c] = 0x50004000
        0x00000618:    1902        ..      ADDS     r2,r0,r4
        0x0000061a:    6890        .h      LDR      r0,[r2,#8]
        0x0000061c:    2401        .$      MOVS     r4,#1
        0x0000061e:    408c        .@      LSLS     r4,r4,r1
        0x00000620:    4320         C      ORRS     r0,r0,r4
        0x00000622:    6090        .`      STR      r0,[r2,#8]
        0x00000624:    2000        .       MOVS     r0,#0
        0x00000626:    e7f4        ..      B        0x612 ; DrvGPIO_SetBit + 14
    $d
        0x00000628:    ffff8901    ....    DCD    4294936833
        0x0000062c:    50004000    .@.P    DCD    1342193664
    $t
    i.DrvSYS_Delay
    DrvSYS_Delay
        0x00000630:    4908        .I      LDR      r1,[pc,#32] ; [0x654] = 0x20000004
        0x00000632:    6809        .h      LDR      r1,[r1,#0]
        0x00000634:    4341        AC      MULS     r1,r0,r1
        0x00000636:    4a08        .J      LDR      r2,[pc,#32] ; [0x658] = 0xe000e000
        0x00000638:    6151        Qa      STR      r1,[r2,#0x14]
        0x0000063a:    2100        .!      MOVS     r1,#0
        0x0000063c:    6191        .a      STR      r1,[r2,#0x18]
        0x0000063e:    2105        .!      MOVS     r1,#5
        0x00000640:    6111        .a      STR      r1,[r2,#0x10]
        0x00000642:    bf00        ..      NOP      
        0x00000644:    4904        .I      LDR      r1,[pc,#16] ; [0x658] = 0xe000e000
        0x00000646:    6909        .i      LDR      r1,[r1,#0x10]
        0x00000648:    2201        ."      MOVS     r2,#1
        0x0000064a:    0412        ..      LSLS     r2,r2,#16
        0x0000064c:    4211        .B      TST      r1,r2
        0x0000064e:    d0f9        ..      BEQ      0x644 ; DrvSYS_Delay + 20
        0x00000650:    4770        pG      BX       lr
    $d
        0x00000652:    0000        ..      DCW    0
        0x00000654:    20000004    ...     DCD    536870916
        0x00000658:    e000e000    ....    DCD    3758153728
    $t
    i.EINT0_IRQHandler
    EINT0_IRQHandler
        0x0000065c:    b510        ..      PUSH     {r4,lr}
        0x0000065e:    2001        .       MOVS     r0,#1
        0x00000660:    0380        ..      LSLS     r0,r0,#14
        0x00000662:    4905        .I      LDR      r1,[pc,#20] ; [0x678] = 0x50004040
        0x00000664:    6208        .b      STR      r0,[r1,#0x20]
        0x00000666:    4805        .H      LDR      r0,[pc,#20] ; [0x67c] = 0x20000648
        0x00000668:    6800        .h      LDR      r0,[r0,#0]
        0x0000066a:    2800        .(      CMP      r0,#0
        0x0000066c:    d002        ..      BEQ      0x674 ; EINT0_IRQHandler + 24
        0x0000066e:    4803        .H      LDR      r0,[pc,#12] ; [0x67c] = 0x20000648
        0x00000670:    6800        .h      LDR      r0,[r0,#0]
        0x00000672:    4780        .G      BLX      r0
        0x00000674:    bd10        ..      POP      {r4,pc}
    $d
        0x00000676:    0000        ..      DCW    0
        0x00000678:    50004040    @@.P    DCD    1342193728
        0x0000067c:    20000648    H..     DCD    536872520
    $t
    i.EINT1_IRQHandler
    EINT1_IRQHandler
        0x00000680:    b510        ..      PUSH     {r4,lr}
        0x00000682:    2001        .       MOVS     r0,#1
        0x00000684:    03c0        ..      LSLS     r0,r0,#15
        0x00000686:    4905        .I      LDR      r1,[pc,#20] ; [0x69c] = 0x50004040
        0x00000688:    6208        .b      STR      r0,[r1,#0x20]
        0x0000068a:    4805        .H      LDR      r0,[pc,#20] ; [0x6a0] = 0x2000064c
        0x0000068c:    6800        .h      LDR      r0,[r0,#0]
        0x0000068e:    2800        .(      CMP      r0,#0
        0x00000690:    d002        ..      BEQ      0x698 ; EINT1_IRQHandler + 24
        0x00000692:    4803        .H      LDR      r0,[pc,#12] ; [0x6a0] = 0x2000064c
        0x00000694:    6800        .h      LDR      r0,[r0,#0]
        0x00000696:    4780        .G      BLX      r0
        0x00000698:    bd10        ..      POP      {r4,pc}
    $d
        0x0000069a:    0000        ..      DCW    0
        0x0000069c:    50004040    @@.P    DCD    1342193728
        0x000006a0:    2000064c    L..     DCD    536872524
    $t
    i.GPAB_IRQHandler
    GPAB_IRQHandler
        0x000006a4:    b570        p.      PUSH     {r4-r6,lr}
        0x000006a6:    480c        .H      LDR      r0,[pc,#48] ; [0x6d8] = 0x50004000
        0x000006a8:    6a05        .j      LDR      r5,[r0,#0x20]
        0x000006aa:    480b        .H      LDR      r0,[pc,#44] ; [0x6d8] = 0x50004000
        0x000006ac:    3040        @0      ADDS     r0,r0,#0x40
        0x000006ae:    6a04        .j      LDR      r4,[r0,#0x20]
        0x000006b0:    2103        .!      MOVS     r1,#3
        0x000006b2:    0389        ..      LSLS     r1,r1,#14
        0x000006b4:    4620         F      MOV      r0,r4
        0x000006b6:    4388        .C      BICS     r0,r0,r1
        0x000006b8:    4604        .F      MOV      r4,r0
        0x000006ba:    4807        .H      LDR      r0,[pc,#28] ; [0x6d8] = 0x50004000
        0x000006bc:    6205        .b      STR      r5,[r0,#0x20]
        0x000006be:    4806        .H      LDR      r0,[pc,#24] ; [0x6d8] = 0x50004000
        0x000006c0:    3040        @0      ADDS     r0,r0,#0x40
        0x000006c2:    6204        .b      STR      r4,[r0,#0x20]
        0x000006c4:    4805        .H      LDR      r0,[pc,#20] ; [0x6dc] = 0x20000640
        0x000006c6:    6800        .h      LDR      r0,[r0,#0]
        0x000006c8:    2800        .(      CMP      r0,#0
        0x000006ca:    d004        ..      BEQ      0x6d6 ; GPAB_IRQHandler + 50
        0x000006cc:    4621        !F      MOV      r1,r4
        0x000006ce:    4628        (F      MOV      r0,r5
        0x000006d0:    4a02        .J      LDR      r2,[pc,#8] ; [0x6dc] = 0x20000640
        0x000006d2:    6812        .h      LDR      r2,[r2,#0]
        0x000006d4:    4790        .G      BLX      r2
        0x000006d6:    bd70        p.      POP      {r4-r6,pc}
    $d
        0x000006d8:    50004000    .@.P    DCD    1342193664
        0x000006dc:    20000640    @..     DCD    536872512
    $t
    i.GPCDE_IRQHandler
    GPCDE_IRQHandler
        0x000006e0:    b570        p.      PUSH     {r4-r6,lr}
        0x000006e2:    480d        .H      LDR      r0,[pc,#52] ; [0x718] = 0x50004080
        0x000006e4:    6a04        .j      LDR      r4,[r0,#0x20]
        0x000006e6:    480c        .H      LDR      r0,[pc,#48] ; [0x718] = 0x50004080
        0x000006e8:    3040        @0      ADDS     r0,r0,#0x40
        0x000006ea:    6a05        .j      LDR      r5,[r0,#0x20]
        0x000006ec:    480a        .H      LDR      r0,[pc,#40] ; [0x718] = 0x50004080
        0x000006ee:    3080        .0      ADDS     r0,r0,#0x80
        0x000006f0:    6a06        .j      LDR      r6,[r0,#0x20]
        0x000006f2:    4809        .H      LDR      r0,[pc,#36] ; [0x718] = 0x50004080
        0x000006f4:    6204        .b      STR      r4,[r0,#0x20]
        0x000006f6:    4808        .H      LDR      r0,[pc,#32] ; [0x718] = 0x50004080
        0x000006f8:    3040        @0      ADDS     r0,r0,#0x40
        0x000006fa:    6205        .b      STR      r5,[r0,#0x20]
        0x000006fc:    4806        .H      LDR      r0,[pc,#24] ; [0x718] = 0x50004080
        0x000006fe:    3080        .0      ADDS     r0,r0,#0x80
        0x00000700:    6206        .b      STR      r6,[r0,#0x20]
        0x00000702:    4806        .H      LDR      r0,[pc,#24] ; [0x71c] = 0x20000644
        0x00000704:    6800        .h      LDR      r0,[r0,#0]
        0x00000706:    2800        .(      CMP      r0,#0
        0x00000708:    d005        ..      BEQ      0x716 ; GPCDE_IRQHandler + 54
        0x0000070a:    4632        2F      MOV      r2,r6
        0x0000070c:    4629        )F      MOV      r1,r5
        0x0000070e:    4620         F      MOV      r0,r4
        0x00000710:    4b02        .K      LDR      r3,[pc,#8] ; [0x71c] = 0x20000644
        0x00000712:    681b        .h      LDR      r3,[r3,#0]
        0x00000714:    4798        .G      BLX      r3
        0x00000716:    bd70        p.      POP      {r4-r6,pc}
    $d
        0x00000718:    50004080    .@.P    DCD    1342193792
        0x0000071c:    20000644    D..     DCD    536872516
    $t
    i.I2C0_IRQHandler
    I2C0_IRQHandler
        0x00000720:    b510        ..      PUSH     {r4,lr}
        0x00000722:    481b        .H      LDR      r0,[pc,#108] ; [0x790] = 0x40020000
        0x00000724:    68c4        .h      LDR      r4,[r0,#0xc]
        0x00000726:    6940        @i      LDR      r0,[r0,#0x14]
        0x00000728:    07c0        ..      LSLS     r0,r0,#31
        0x0000072a:    0fc0        ..      LSRS     r0,r0,#31
        0x0000072c:    d00f        ..      BEQ      0x74e ; I2C0_IRQHandler + 46
        0x0000072e:    4818        .H      LDR      r0,[pc,#96] ; [0x790] = 0x40020000
        0x00000730:    6940        @i      LDR      r0,[r0,#0x14]
        0x00000732:    0840        @.      LSRS     r0,r0,#1
        0x00000734:    0040        @.      LSLS     r0,r0,#1
        0x00000736:    1c40        @.      ADDS     r0,r0,#1
        0x00000738:    4915        .I      LDR      r1,[pc,#84] ; [0x790] = 0x40020000
        0x0000073a:    6148        Ha      STR      r0,[r1,#0x14]
        0x0000073c:    4815        .H      LDR      r0,[pc,#84] ; [0x794] = 0x20000650
        0x0000073e:    68c0        .h      LDR      r0,[r0,#0xc]
        0x00000740:    2800        .(      CMP      r0,#0
        0x00000742:    d024        $.      BEQ      0x78e ; I2C0_IRQHandler + 110
        0x00000744:    4813        .H      LDR      r0,[pc,#76] ; [0x794] = 0x20000650
        0x00000746:    68c1        .h      LDR      r1,[r0,#0xc]
        0x00000748:    4620         F      MOV      r0,r4
        0x0000074a:    4788        .G      BLX      r1
        0x0000074c:    e01f        ..      B        0x78e ; I2C0_IRQHandler + 110
        0x0000074e:    2c00        .,      CMP      r4,#0
        0x00000750:    d00a        ..      BEQ      0x768 ; I2C0_IRQHandler + 72
        0x00000752:    2c38        8,      CMP      r4,#0x38
        0x00000754:    d111        ..      BNE      0x77a ; I2C0_IRQHandler + 90
        0x00000756:    480f        .H      LDR      r0,[pc,#60] ; [0x794] = 0x20000650
        0x00000758:    6840        @h      LDR      r0,[r0,#4]
        0x0000075a:    2800        .(      CMP      r0,#0
        0x0000075c:    d003        ..      BEQ      0x766 ; I2C0_IRQHandler + 70
        0x0000075e:    480d        .H      LDR      r0,[pc,#52] ; [0x794] = 0x20000650
        0x00000760:    6841        Ah      LDR      r1,[r0,#4]
        0x00000762:    4620         F      MOV      r0,r4
        0x00000764:    4788        .G      BLX      r1
        0x00000766:    e011        ..      B        0x78c ; I2C0_IRQHandler + 108
        0x00000768:    480a        .H      LDR      r0,[pc,#40] ; [0x794] = 0x20000650
        0x0000076a:    6880        .h      LDR      r0,[r0,#8]
        0x0000076c:    2800        .(      CMP      r0,#0
        0x0000076e:    d003        ..      BEQ      0x778 ; I2C0_IRQHandler + 88
        0x00000770:    4808        .H      LDR      r0,[pc,#32] ; [0x794] = 0x20000650
        0x00000772:    6881        .h      LDR      r1,[r0,#8]
        0x00000774:    4620         F      MOV      r0,r4
        0x00000776:    4788        .G      BLX      r1
        0x00000778:    e008        ..      B        0x78c ; I2C0_IRQHandler + 108
        0x0000077a:    4806        .H      LDR      r0,[pc,#24] ; [0x794] = 0x20000650
        0x0000077c:    6800        .h      LDR      r0,[r0,#0]
        0x0000077e:    2800        .(      CMP      r0,#0
        0x00000780:    d003        ..      BEQ      0x78a ; I2C0_IRQHandler + 106
        0x00000782:    4804        .H      LDR      r0,[pc,#16] ; [0x794] = 0x20000650
        0x00000784:    6801        .h      LDR      r1,[r0,#0]
        0x00000786:    4620         F      MOV      r0,r4
        0x00000788:    4788        .G      BLX      r1
        0x0000078a:    bf00        ..      NOP      
        0x0000078c:    bf00        ..      NOP      
        0x0000078e:    bd10        ..      POP      {r4,pc}
    $d
        0x00000790:    40020000    ...@    DCD    1073872896
        0x00000794:    20000650    P..     DCD    536872528
    $t
    i.I2C1_IRQHandler
    I2C1_IRQHandler
        0x00000798:    b510        ..      PUSH     {r4,lr}
        0x0000079a:    481b        .H      LDR      r0,[pc,#108] ; [0x808] = 0x40120000
        0x0000079c:    68c4        .h      LDR      r4,[r0,#0xc]
        0x0000079e:    6940        @i      LDR      r0,[r0,#0x14]
        0x000007a0:    07c0        ..      LSLS     r0,r0,#31
        0x000007a2:    0fc0        ..      LSRS     r0,r0,#31
        0x000007a4:    d00f        ..      BEQ      0x7c6 ; I2C1_IRQHandler + 46
        0x000007a6:    4818        .H      LDR      r0,[pc,#96] ; [0x808] = 0x40120000
        0x000007a8:    6940        @i      LDR      r0,[r0,#0x14]
        0x000007aa:    0840        @.      LSRS     r0,r0,#1
        0x000007ac:    0040        @.      LSLS     r0,r0,#1
        0x000007ae:    1c40        @.      ADDS     r0,r0,#1
        0x000007b0:    4915        .I      LDR      r1,[pc,#84] ; [0x808] = 0x40120000
        0x000007b2:    6148        Ha      STR      r0,[r1,#0x14]
        0x000007b4:    4815        .H      LDR      r0,[pc,#84] ; [0x80c] = 0x20000660
        0x000007b6:    68c0        .h      LDR      r0,[r0,#0xc]
        0x000007b8:    2800        .(      CMP      r0,#0
        0x000007ba:    d024        $.      BEQ      0x806 ; I2C1_IRQHandler + 110
        0x000007bc:    4813        .H      LDR      r0,[pc,#76] ; [0x80c] = 0x20000660
        0x000007be:    68c1        .h      LDR      r1,[r0,#0xc]
        0x000007c0:    4620         F      MOV      r0,r4
        0x000007c2:    4788        .G      BLX      r1
        0x000007c4:    e01f        ..      B        0x806 ; I2C1_IRQHandler + 110
        0x000007c6:    2c00        .,      CMP      r4,#0
        0x000007c8:    d00a        ..      BEQ      0x7e0 ; I2C1_IRQHandler + 72
        0x000007ca:    2c38        8,      CMP      r4,#0x38
        0x000007cc:    d111        ..      BNE      0x7f2 ; I2C1_IRQHandler + 90
        0x000007ce:    480f        .H      LDR      r0,[pc,#60] ; [0x80c] = 0x20000660
        0x000007d0:    6840        @h      LDR      r0,[r0,#4]
        0x000007d2:    2800        .(      CMP      r0,#0
        0x000007d4:    d003        ..      BEQ      0x7de ; I2C1_IRQHandler + 70
        0x000007d6:    480d        .H      LDR      r0,[pc,#52] ; [0x80c] = 0x20000660
        0x000007d8:    6841        Ah      LDR      r1,[r0,#4]
        0x000007da:    4620         F      MOV      r0,r4
        0x000007dc:    4788        .G      BLX      r1
        0x000007de:    e011        ..      B        0x804 ; I2C1_IRQHandler + 108
        0x000007e0:    480a        .H      LDR      r0,[pc,#40] ; [0x80c] = 0x20000660
        0x000007e2:    6880        .h      LDR      r0,[r0,#8]
        0x000007e4:    2800        .(      CMP      r0,#0
        0x000007e6:    d003        ..      BEQ      0x7f0 ; I2C1_IRQHandler + 88
        0x000007e8:    4808        .H      LDR      r0,[pc,#32] ; [0x80c] = 0x20000660
        0x000007ea:    6881        .h      LDR      r1,[r0,#8]
        0x000007ec:    4620         F      MOV      r0,r4
        0x000007ee:    4788        .G      BLX      r1
        0x000007f0:    e008        ..      B        0x804 ; I2C1_IRQHandler + 108
        0x000007f2:    4806        .H      LDR      r0,[pc,#24] ; [0x80c] = 0x20000660
        0x000007f4:    6800        .h      LDR      r0,[r0,#0]
        0x000007f6:    2800        .(      CMP      r0,#0
        0x000007f8:    d003        ..      BEQ      0x802 ; I2C1_IRQHandler + 106
        0x000007fa:    4804        .H      LDR      r0,[pc,#16] ; [0x80c] = 0x20000660
        0x000007fc:    6801        .h      LDR      r1,[r0,#0]
        0x000007fe:    4620         F      MOV      r0,r4
        0x00000800:    4788        .G      BLX      r1
        0x00000802:    bf00        ..      NOP      
        0x00000804:    bf00        ..      NOP      
        0x00000806:    bd10        ..      POP      {r4,pc}
    $d
        0x00000808:    40120000    ...@    DCD    1074921472
        0x0000080c:    20000660    `..     DCD    536872544
    $t
    i.InitADC_LESSTHAN_100
    InitADC_LESSTHAN_100
        0x00000810:    b510        ..      PUSH     {r4,lr}
        0x00000812:    4838        8H      LDR      r0,[pc,#224] ; [0x8f4] = 0x50004000
        0x00000814:    6840        @h      LDR      r0,[r0,#4]
        0x00000816:    2101        .!      MOVS     r1,#1
        0x00000818:    05c9        ..      LSLS     r1,r1,#23
        0x0000081a:    4308        .C      ORRS     r0,r0,r1
        0x0000081c:    4935        5I      LDR      r1,[pc,#212] ; [0x8f4] = 0x50004000
        0x0000081e:    6048        H`      STR      r0,[r1,#4]
        0x00000820:    2005        .       MOVS     r0,#5
        0x00000822:    0700        ..      LSLS     r0,r0,#28
        0x00000824:    6b00        .k      LDR      r0,[r0,#0x30]
        0x00000826:    2180        .!      MOVS     r1,#0x80
        0x00000828:    4388        .C      BICS     r0,r0,r1
        0x0000082a:    3080        .0      ADDS     r0,r0,#0x80
        0x0000082c:    2105        .!      MOVS     r1,#5
        0x0000082e:    0709        ..      LSLS     r1,r1,#28
        0x00000830:    6308        .c      STR      r0,[r1,#0x30]
        0x00000832:    4831        1H      LDR      r0,[pc,#196] ; [0x8f8] = 0x50000200
        0x00000834:    6940        @i      LDR      r0,[r0,#0x14]
        0x00000836:    210c        .!      MOVS     r1,#0xc
        0x00000838:    4388        .C      BICS     r0,r0,r1
        0x0000083a:    300c        .0      ADDS     r0,r0,#0xc
        0x0000083c:    492e        .I      LDR      r1,[pc,#184] ; [0x8f8] = 0x50000200
        0x0000083e:    6148        Ha      STR      r0,[r1,#0x14]
        0x00000840:    4608        .F      MOV      r0,r1
        0x00000842:    6980        .i      LDR      r0,[r0,#0x18]
        0x00000844:    21ff        .!      MOVS     r1,#0xff
        0x00000846:    0409        ..      LSLS     r1,r1,#16
        0x00000848:    4388        .C      BICS     r0,r0,r1
        0x0000084a:    2101        .!      MOVS     r1,#1
        0x0000084c:    0409        ..      LSLS     r1,r1,#16
        0x0000084e:    1840        @.      ADDS     r0,r0,r1
        0x00000850:    4929        )I      LDR      r1,[pc,#164] ; [0x8f8] = 0x50000200
        0x00000852:    6188        .a      STR      r0,[r1,#0x18]
        0x00000854:    4608        .F      MOV      r0,r1
        0x00000856:    6880        .h      LDR      r0,[r0,#8]
        0x00000858:    04c9        ..      LSLS     r1,r1,#19
        0x0000085a:    4388        .C      BICS     r0,r0,r1
        0x0000085c:    1840        @.      ADDS     r0,r0,r1
        0x0000085e:    4926        &I      LDR      r1,[pc,#152] ; [0x8f8] = 0x50000200
        0x00000860:    6088        .`      STR      r0,[r1,#8]
        0x00000862:    4826        &H      LDR      r0,[pc,#152] ; [0x8fc] = 0x400e0000
        0x00000864:    6a00        .j      LDR      r0,[r0,#0x20]
        0x00000866:    0840        @.      LSRS     r0,r0,#1
        0x00000868:    0040        @.      LSLS     r0,r0,#1
        0x0000086a:    1c40        @.      ADDS     r0,r0,#1
        0x0000086c:    4923        #I      LDR      r1,[pc,#140] ; [0x8fc] = 0x400e0000
        0x0000086e:    6208        .b      STR      r0,[r1,#0x20]
        0x00000870:    4608        .F      MOV      r0,r1
        0x00000872:    6a00        .j      LDR      r0,[r0,#0x20]
        0x00000874:    1509        ..      ASRS     r1,r1,#20
        0x00000876:    4388        .C      BICS     r0,r0,r1
        0x00000878:    4920         I      LDR      r1,[pc,#128] ; [0x8fc] = 0x400e0000
        0x0000087a:    6208        .b      STR      r0,[r1,#0x20]
        0x0000087c:    4608        .F      MOV      r0,r1
        0x0000087e:    6a00        .j      LDR      r0,[r0,#0x20]
        0x00000880:    210c        .!      MOVS     r1,#0xc
        0x00000882:    4388        .C      BICS     r0,r0,r1
        0x00000884:    491d        .I      LDR      r1,[pc,#116] ; [0x8fc] = 0x400e0000
        0x00000886:    6208        .b      STR      r0,[r1,#0x20]
        0x00000888:    4608        .F      MOV      r0,r1
        0x0000088a:    6a40        @j      LDR      r0,[r0,#0x24]
        0x0000088c:    0a00        ..      LSRS     r0,r0,#8
        0x0000088e:    0200        ..      LSLS     r0,r0,#8
        0x00000890:    3080        .0      ADDS     r0,r0,#0x80
        0x00000892:    6248        Hb      STR      r0,[r1,#0x24]
        0x00000894:    4608        .F      MOV      r0,r1
        0x00000896:    6a80        .j      LDR      r0,[r0,#0x28]
        0x00000898:    4919        .I      LDR      r1,[pc,#100] ; [0x900] = 0xf000ffff
        0x0000089a:    4008        .@      ANDS     r0,r0,r1
        0x0000089c:    2101        .!      MOVS     r1,#1
        0x0000089e:    0609        ..      LSLS     r1,r1,#24
        0x000008a0:    1840        @.      ADDS     r0,r0,r1
        0x000008a2:    4916        .I      LDR      r1,[pc,#88] ; [0x8fc] = 0x400e0000
        0x000008a4:    6288        .b      STR      r0,[r1,#0x28]
        0x000008a6:    4608        .F      MOV      r0,r1
        0x000008a8:    6a80        .j      LDR      r0,[r0,#0x28]
        0x000008aa:    2138        8!      MOVS     r1,#0x38
        0x000008ac:    4388        .C      BICS     r0,r0,r1
        0x000008ae:    3038        80      ADDS     r0,r0,#0x38
        0x000008b0:    4912        .I      LDR      r1,[pc,#72] ; [0x8fc] = 0x400e0000
        0x000008b2:    6288        .b      STR      r0,[r1,#0x28]
        0x000008b4:    4608        .F      MOV      r0,r1
        0x000008b6:    6a80        .j      LDR      r0,[r0,#0x28]
        0x000008b8:    2104        .!      MOVS     r1,#4
        0x000008ba:    4388        .C      BICS     r0,r0,r1
        0x000008bc:    490f        .I      LDR      r1,[pc,#60] ; [0x8fc] = 0x400e0000
        0x000008be:    6288        .b      STR      r0,[r1,#0x28]
        0x000008c0:    4608        .F      MOV      r0,r1
        0x000008c2:    6a80        .j      LDR      r0,[r0,#0x28]
        0x000008c4:    2102        .!      MOVS     r1,#2
        0x000008c6:    4388        .C      BICS     r0,r0,r1
        0x000008c8:    1c80        ..      ADDS     r0,r0,#2
        0x000008ca:    490c        .I      LDR      r1,[pc,#48] ; [0x8fc] = 0x400e0000
        0x000008cc:    6288        .b      STR      r0,[r1,#0x28]
        0x000008ce:    4608        .F      MOV      r0,r1
        0x000008d0:    6a80        .j      LDR      r0,[r0,#0x28]
        0x000008d2:    0840        @.      LSRS     r0,r0,#1
        0x000008d4:    0040        @.      LSLS     r0,r0,#1
        0x000008d6:    1c40        @.      ADDS     r0,r0,#1
        0x000008d8:    6288        .b      STR      r0,[r1,#0x28]
        0x000008da:    201d        .       MOVS     r0,#0x1d
        0x000008dc:    f000f9e0    ....    BL       NVIC_EnableIRQ ; 0xca0
        0x000008e0:    4806        .H      LDR      r0,[pc,#24] ; [0x8fc] = 0x400e0000
        0x000008e2:    6a00        .j      LDR      r0,[r0,#0x20]
        0x000008e4:    2101        .!      MOVS     r1,#1
        0x000008e6:    02c9        ..      LSLS     r1,r1,#11
        0x000008e8:    4388        .C      BICS     r0,r0,r1
        0x000008ea:    1840        @.      ADDS     r0,r0,r1
        0x000008ec:    4903        .I      LDR      r1,[pc,#12] ; [0x8fc] = 0x400e0000
        0x000008ee:    6208        .b      STR      r0,[r1,#0x20]
        0x000008f0:    bd10        ..      POP      {r4,pc}
    $d
        0x000008f2:    0000        ..      DCW    0
        0x000008f4:    50004000    .@.P    DCD    1342193664
        0x000008f8:    50000200    ...P    DCD    1342177792
        0x000008fc:    400e0000    ...@    DCD    1074659328
        0x00000900:    f000ffff    ....    DCD    4026597375
    $t
    i.InitADC_MORETHAN_D00
    InitADC_MORETHAN_D00
        0x00000904:    b510        ..      PUSH     {r4,lr}
        0x00000906:    4838        8H      LDR      r0,[pc,#224] ; [0x9e8] = 0x50004000
        0x00000908:    6840        @h      LDR      r0,[r0,#4]
        0x0000090a:    2101        .!      MOVS     r1,#1
        0x0000090c:    05c9        ..      LSLS     r1,r1,#23
        0x0000090e:    4308        .C      ORRS     r0,r0,r1
        0x00000910:    4935        5I      LDR      r1,[pc,#212] ; [0x9e8] = 0x50004000
        0x00000912:    6048        H`      STR      r0,[r1,#4]
        0x00000914:    2005        .       MOVS     r0,#5
        0x00000916:    0700        ..      LSLS     r0,r0,#28
        0x00000918:    6b00        .k      LDR      r0,[r0,#0x30]
        0x0000091a:    2180        .!      MOVS     r1,#0x80
        0x0000091c:    4388        .C      BICS     r0,r0,r1
        0x0000091e:    3080        .0      ADDS     r0,r0,#0x80
        0x00000920:    2105        .!      MOVS     r1,#5
        0x00000922:    0709        ..      LSLS     r1,r1,#28
        0x00000924:    6308        .c      STR      r0,[r1,#0x30]
        0x00000926:    4831        1H      LDR      r0,[pc,#196] ; [0x9ec] = 0x50000200
        0x00000928:    6940        @i      LDR      r0,[r0,#0x14]
        0x0000092a:    210c        .!      MOVS     r1,#0xc
        0x0000092c:    4388        .C      BICS     r0,r0,r1
        0x0000092e:    300c        .0      ADDS     r0,r0,#0xc
        0x00000930:    492e        .I      LDR      r1,[pc,#184] ; [0x9ec] = 0x50000200
        0x00000932:    6148        Ha      STR      r0,[r1,#0x14]
        0x00000934:    4608        .F      MOV      r0,r1
        0x00000936:    6980        .i      LDR      r0,[r0,#0x18]
        0x00000938:    21ff        .!      MOVS     r1,#0xff
        0x0000093a:    0409        ..      LSLS     r1,r1,#16
        0x0000093c:    4388        .C      BICS     r0,r0,r1
        0x0000093e:    2101        .!      MOVS     r1,#1
        0x00000940:    0409        ..      LSLS     r1,r1,#16
        0x00000942:    1840        @.      ADDS     r0,r0,r1
        0x00000944:    4929        )I      LDR      r1,[pc,#164] ; [0x9ec] = 0x50000200
        0x00000946:    6188        .a      STR      r0,[r1,#0x18]
        0x00000948:    4608        .F      MOV      r0,r1
        0x0000094a:    6880        .h      LDR      r0,[r0,#8]
        0x0000094c:    04c9        ..      LSLS     r1,r1,#19
        0x0000094e:    4388        .C      BICS     r0,r0,r1
        0x00000950:    1840        @.      ADDS     r0,r0,r1
        0x00000952:    4926        &I      LDR      r1,[pc,#152] ; [0x9ec] = 0x50000200
        0x00000954:    6088        .`      STR      r0,[r1,#8]
        0x00000956:    4826        &H      LDR      r0,[pc,#152] ; [0x9f0] = 0x400e0000
        0x00000958:    6a00        .j      LDR      r0,[r0,#0x20]
        0x0000095a:    0840        @.      LSRS     r0,r0,#1
        0x0000095c:    0040        @.      LSLS     r0,r0,#1
        0x0000095e:    1c40        @.      ADDS     r0,r0,#1
        0x00000960:    4923        #I      LDR      r1,[pc,#140] ; [0x9f0] = 0x400e0000
        0x00000962:    6208        .b      STR      r0,[r1,#0x20]
        0x00000964:    4608        .F      MOV      r0,r1
        0x00000966:    6a00        .j      LDR      r0,[r0,#0x20]
        0x00000968:    1509        ..      ASRS     r1,r1,#20
        0x0000096a:    4388        .C      BICS     r0,r0,r1
        0x0000096c:    4920         I      LDR      r1,[pc,#128] ; [0x9f0] = 0x400e0000
        0x0000096e:    6208        .b      STR      r0,[r1,#0x20]
        0x00000970:    4608        .F      MOV      r0,r1
        0x00000972:    6a00        .j      LDR      r0,[r0,#0x20]
        0x00000974:    210c        .!      MOVS     r1,#0xc
        0x00000976:    4388        .C      BICS     r0,r0,r1
        0x00000978:    491d        .I      LDR      r1,[pc,#116] ; [0x9f0] = 0x400e0000
        0x0000097a:    6208        .b      STR      r0,[r1,#0x20]
        0x0000097c:    4608        .F      MOV      r0,r1
        0x0000097e:    6a40        @j      LDR      r0,[r0,#0x24]
        0x00000980:    0a00        ..      LSRS     r0,r0,#8
        0x00000982:    0200        ..      LSLS     r0,r0,#8
        0x00000984:    3080        .0      ADDS     r0,r0,#0x80
        0x00000986:    6248        Hb      STR      r0,[r1,#0x24]
        0x00000988:    4608        .F      MOV      r0,r1
        0x0000098a:    6a80        .j      LDR      r0,[r0,#0x28]
        0x0000098c:    4919        .I      LDR      r1,[pc,#100] ; [0x9f4] = 0xf000ffff
        0x0000098e:    4008        .@      ANDS     r0,r0,r1
        0x00000990:    210d        .!      MOVS     r1,#0xd
        0x00000992:    0609        ..      LSLS     r1,r1,#24
        0x00000994:    1840        @.      ADDS     r0,r0,r1
        0x00000996:    4916        .I      LDR      r1,[pc,#88] ; [0x9f0] = 0x400e0000
        0x00000998:    6288        .b      STR      r0,[r1,#0x28]
        0x0000099a:    4608        .F      MOV      r0,r1
        0x0000099c:    6a80        .j      LDR      r0,[r0,#0x28]
        0x0000099e:    2138        8!      MOVS     r1,#0x38
        0x000009a0:    4388        .C      BICS     r0,r0,r1
        0x000009a2:    3038        80      ADDS     r0,r0,#0x38
        0x000009a4:    4912        .I      LDR      r1,[pc,#72] ; [0x9f0] = 0x400e0000
        0x000009a6:    6288        .b      STR      r0,[r1,#0x28]
        0x000009a8:    4608        .F      MOV      r0,r1
        0x000009aa:    6a80        .j      LDR      r0,[r0,#0x28]
        0x000009ac:    2104        .!      MOVS     r1,#4
        0x000009ae:    4388        .C      BICS     r0,r0,r1
        0x000009b0:    1d00        ..      ADDS     r0,r0,#4
        0x000009b2:    490f        .I      LDR      r1,[pc,#60] ; [0x9f0] = 0x400e0000
        0x000009b4:    6288        .b      STR      r0,[r1,#0x28]
        0x000009b6:    4608        .F      MOV      r0,r1
        0x000009b8:    6a80        .j      LDR      r0,[r0,#0x28]
        0x000009ba:    2102        .!      MOVS     r1,#2
        0x000009bc:    4388        .C      BICS     r0,r0,r1
        0x000009be:    1c80        ..      ADDS     r0,r0,#2
        0x000009c0:    490b        .I      LDR      r1,[pc,#44] ; [0x9f0] = 0x400e0000
        0x000009c2:    6288        .b      STR      r0,[r1,#0x28]
        0x000009c4:    4608        .F      MOV      r0,r1
        0x000009c6:    6a80        .j      LDR      r0,[r0,#0x28]
        0x000009c8:    0840        @.      LSRS     r0,r0,#1
        0x000009ca:    0040        @.      LSLS     r0,r0,#1
        0x000009cc:    1c40        @.      ADDS     r0,r0,#1
        0x000009ce:    6288        .b      STR      r0,[r1,#0x28]
        0x000009d0:    201d        .       MOVS     r0,#0x1d
        0x000009d2:    f000f965    ..e.    BL       NVIC_EnableIRQ ; 0xca0
        0x000009d6:    4806        .H      LDR      r0,[pc,#24] ; [0x9f0] = 0x400e0000
        0x000009d8:    6a00        .j      LDR      r0,[r0,#0x20]
        0x000009da:    2101        .!      MOVS     r1,#1
        0x000009dc:    02c9        ..      LSLS     r1,r1,#11
        0x000009de:    4388        .C      BICS     r0,r0,r1
        0x000009e0:    1840        @.      ADDS     r0,r0,r1
        0x000009e2:    4903        .I      LDR      r1,[pc,#12] ; [0x9f0] = 0x400e0000
        0x000009e4:    6208        .b      STR      r0,[r1,#0x20]
        0x000009e6:    bd10        ..      POP      {r4,pc}
    $d
        0x000009e8:    50004000    .@.P    DCD    1342193664
        0x000009ec:    50000200    ...P    DCD    1342177792
        0x000009f0:    400e0000    ...@    DCD    1074659328
        0x000009f4:    f000ffff    ....    DCD    4026597375
    $t
    i.InitTIMER0
    InitTIMER0
        0x000009f8:    b510        ..      PUSH     {r4,lr}
        0x000009fa:    4820         H      LDR      r0,[pc,#128] ; [0xa7c] = 0x50000200
        0x000009fc:    6940        @i      LDR      r0,[r0,#0x14]
        0x000009fe:    2107        .!      MOVS     r1,#7
        0x00000a00:    0209        ..      LSLS     r1,r1,#8
        0x00000a02:    4388        .C      BICS     r0,r0,r1
        0x00000a04:    491d        .I      LDR      r1,[pc,#116] ; [0xa7c] = 0x50000200
        0x00000a06:    6148        Ha      STR      r0,[r1,#0x14]
        0x00000a08:    4608        .F      MOV      r0,r1
        0x00000a0a:    6880        .h      LDR      r0,[r0,#8]
        0x00000a0c:    2104        .!      MOVS     r1,#4
        0x00000a0e:    4388        .C      BICS     r0,r0,r1
        0x00000a10:    1d00        ..      ADDS     r0,r0,#4
        0x00000a12:    491a        .I      LDR      r1,[pc,#104] ; [0xa7c] = 0x50000200
        0x00000a14:    6088        .`      STR      r0,[r1,#8]
        0x00000a16:    481a        .H      LDR      r0,[pc,#104] ; [0xa80] = 0x40010000
        0x00000a18:    6800        .h      LDR      r0,[r0,#0]
        0x00000a1a:    2103        .!      MOVS     r1,#3
        0x00000a1c:    06c9        ..      LSLS     r1,r1,#27
        0x00000a1e:    4388        .C      BICS     r0,r0,r1
        0x00000a20:    2101        .!      MOVS     r1,#1
        0x00000a22:    06c9        ..      LSLS     r1,r1,#27
        0x00000a24:    1840        @.      ADDS     r0,r0,r1
        0x00000a26:    4916        .I      LDR      r1,[pc,#88] ; [0xa80] = 0x40010000
        0x00000a28:    6008        .`      STR      r0,[r1,#0]
        0x00000a2a:    4608        .F      MOV      r0,r1
        0x00000a2c:    6800        .h      LDR      r0,[r0,#0]
        0x00000a2e:    0a00        ..      LSRS     r0,r0,#8
        0x00000a30:    0200        ..      LSLS     r0,r0,#8
        0x00000a32:    300b        .0      ADDS     r0,r0,#0xb
        0x00000a34:    6008        .`      STR      r0,[r1,#0]
        0x00000a36:    4813        .H      LDR      r0,[pc,#76] ; [0xa84] = 0x493e0
        0x00000a38:    6048        H`      STR      r0,[r1,#4]
        0x00000a3a:    4608        .F      MOV      r0,r1
        0x00000a3c:    6800        .h      LDR      r0,[r0,#0]
        0x00000a3e:    0349        I.      LSLS     r1,r1,#13
        0x00000a40:    4388        .C      BICS     r0,r0,r1
        0x00000a42:    1840        @.      ADDS     r0,r0,r1
        0x00000a44:    490e        .I      LDR      r1,[pc,#56] ; [0xa80] = 0x40010000
        0x00000a46:    6008        .`      STR      r0,[r1,#0]
        0x00000a48:    4608        .F      MOV      r0,r1
        0x00000a4a:    6880        .h      LDR      r0,[r0,#8]
        0x00000a4c:    0840        @.      LSRS     r0,r0,#1
        0x00000a4e:    0040        @.      LSLS     r0,r0,#1
        0x00000a50:    1c40        @.      ADDS     r0,r0,#1
        0x00000a52:    6088        .`      STR      r0,[r1,#8]
        0x00000a54:    2008        .       MOVS     r0,#8
        0x00000a56:    f000f923    ..#.    BL       NVIC_EnableIRQ ; 0xca0
        0x00000a5a:    4809        .H      LDR      r0,[pc,#36] ; [0xa80] = 0x40010000
        0x00000a5c:    6800        .h      LDR      r0,[r0,#0]
        0x00000a5e:    2101        .!      MOVS     r1,#1
        0x00000a60:    0689        ..      LSLS     r1,r1,#26
        0x00000a62:    4388        .C      BICS     r0,r0,r1
        0x00000a64:    1840        @.      ADDS     r0,r0,r1
        0x00000a66:    4906        .I      LDR      r1,[pc,#24] ; [0xa80] = 0x40010000
        0x00000a68:    6008        .`      STR      r0,[r1,#0]
        0x00000a6a:    4608        .F      MOV      r0,r1
        0x00000a6c:    6800        .h      LDR      r0,[r0,#0]
        0x00000a6e:    0389        ..      LSLS     r1,r1,#14
        0x00000a70:    4388        .C      BICS     r0,r0,r1
        0x00000a72:    1840        @.      ADDS     r0,r0,r1
        0x00000a74:    4902        .I      LDR      r1,[pc,#8] ; [0xa80] = 0x40010000
        0x00000a76:    6008        .`      STR      r0,[r1,#0]
        0x00000a78:    bd10        ..      POP      {r4,pc}
    $d
        0x00000a7a:    0000        ..      DCW    0
        0x00000a7c:    50000200    ...P    DCD    1342177792
        0x00000a80:    40010000    ...@    DCD    1073807360
        0x00000a84:    000493e0    ....    DCD    300000
    $t
    i.Initial_pannel
    Initial_pannel
        0x00000a88:    4883        .H      LDR      r0,[pc,#524] ; [0xc98] = 0x50000200
        0x00000a8a:    6880        .h      LDR      r0,[r0,#8]
        0x00000a8c:    2101        .!      MOVS     r1,#1
        0x00000a8e:    03c9        ..      LSLS     r1,r1,#15
        0x00000a90:    4388        .C      BICS     r0,r0,r1
        0x00000a92:    1840        @.      ADDS     r0,r0,r1
        0x00000a94:    4980        .I      LDR      r1,[pc,#512] ; [0xc98] = 0x50000200
        0x00000a96:    6088        .`      STR      r0,[r1,#8]
        0x00000a98:    2005        .       MOVS     r0,#5
        0x00000a9a:    0700        ..      LSLS     r0,r0,#28
        0x00000a9c:    68c0        .h      LDR      r0,[r0,#0xc]
        0x00000a9e:    0189        ..      LSLS     r1,r1,#6
        0x00000aa0:    4388        .C      BICS     r0,r0,r1
        0x00000aa2:    1840        @.      ADDS     r0,r0,r1
        0x00000aa4:    2105        .!      MOVS     r1,#5
        0x00000aa6:    0709        ..      LSLS     r1,r1,#28
        0x00000aa8:    60c8        .`      STR      r0,[r1,#0xc]
        0x00000aaa:    4608        .F      MOV      r0,r1
        0x00000aac:    68c0        .h      LDR      r0,[r0,#0xc]
        0x00000aae:    2101        .!      MOVS     r1,#1
        0x00000ab0:    03c9        ..      LSLS     r1,r1,#15
        0x00000ab2:    4388        .C      BICS     r0,r0,r1
        0x00000ab4:    2105        .!      MOVS     r1,#5
        0x00000ab6:    0709        ..      LSLS     r1,r1,#28
        0x00000ab8:    60c8        .`      STR      r0,[r1,#0xc]
        0x00000aba:    4608        .F      MOV      r0,r1
        0x00000abc:    6bc0        .k      LDR      r0,[r0,#0x3c]
        0x00000abe:    21ff        .!      MOVS     r1,#0xff
        0x00000ac0:    3101        .1      ADDS     r1,#1
        0x00000ac2:    4388        .C      BICS     r0,r0,r1
        0x00000ac4:    1840        @.      ADDS     r0,r0,r1
        0x00000ac6:    2105        .!      MOVS     r1,#5
        0x00000ac8:    0709        ..      LSLS     r1,r1,#28
        0x00000aca:    63c8        .c      STR      r0,[r1,#0x3c]
        0x00000acc:    4608        .F      MOV      r0,r1
        0x00000ace:    6bc0        .k      LDR      r0,[r0,#0x3c]
        0x00000ad0:    2101        .!      MOVS     r1,#1
        0x00000ad2:    0249        I.      LSLS     r1,r1,#9
        0x00000ad4:    4388        .C      BICS     r0,r0,r1
        0x00000ad6:    1840        @.      ADDS     r0,r0,r1
        0x00000ad8:    2105        .!      MOVS     r1,#5
        0x00000ada:    0709        ..      LSLS     r1,r1,#28
        0x00000adc:    63c8        .c      STR      r0,[r1,#0x3c]
        0x00000ade:    4608        .F      MOV      r0,r1
        0x00000ae0:    6bc0        .k      LDR      r0,[r0,#0x3c]
        0x00000ae2:    2101        .!      MOVS     r1,#1
        0x00000ae4:    02c9        ..      LSLS     r1,r1,#11
        0x00000ae6:    4388        .C      BICS     r0,r0,r1
        0x00000ae8:    1840        @.      ADDS     r0,r0,r1
        0x00000aea:    2105        .!      MOVS     r1,#5
        0x00000aec:    0709        ..      LSLS     r1,r1,#28
        0x00000aee:    63c8        .c      STR      r0,[r1,#0x3c]
        0x00000af0:    486a        jH      LDR      r0,[pc,#424] ; [0xc9c] = 0x2000002c
        0x00000af2:    68c0        .h      LDR      r0,[r0,#0xc]
        0x00000af4:    6800        .h      LDR      r0,[r0,#0]
        0x00000af6:    2101        .!      MOVS     r1,#1
        0x00000af8:    02c9        ..      LSLS     r1,r1,#11
        0x00000afa:    4388        .C      BICS     r0,r0,r1
        0x00000afc:    1840        @.      ADDS     r0,r0,r1
        0x00000afe:    4967        gI      LDR      r1,[pc,#412] ; [0xc9c] = 0x2000002c
        0x00000b00:    68c9        .h      LDR      r1,[r1,#0xc]
        0x00000b02:    6008        .`      STR      r0,[r1,#0]
        0x00000b04:    4865        eH      LDR      r0,[pc,#404] ; [0xc9c] = 0x2000002c
        0x00000b06:    68c0        .h      LDR      r0,[r0,#0xc]
        0x00000b08:    6800        .h      LDR      r0,[r0,#0]
        0x00000b0a:    21f8        .!      MOVS     r1,#0xf8
        0x00000b0c:    4388        .C      BICS     r0,r0,r1
        0x00000b0e:    3048        H0      ADDS     r0,r0,#0x48
        0x00000b10:    4962        bI      LDR      r1,[pc,#392] ; [0xc9c] = 0x2000002c
        0x00000b12:    68c9        .h      LDR      r1,[r1,#0xc]
        0x00000b14:    6008        .`      STR      r0,[r1,#0]
        0x00000b16:    4861        aH      LDR      r0,[pc,#388] ; [0xc9c] = 0x2000002c
        0x00000b18:    68c0        .h      LDR      r0,[r0,#0xc]
        0x00000b1a:    6800        .h      LDR      r0,[r0,#0]
        0x00000b1c:    2104        .!      MOVS     r1,#4
        0x00000b1e:    4388        .C      BICS     r0,r0,r1
        0x00000b20:    1d00        ..      ADDS     r0,r0,#4
        0x00000b22:    495e        ^I      LDR      r1,[pc,#376] ; [0xc9c] = 0x2000002c
        0x00000b24:    68c9        .h      LDR      r1,[r1,#0xc]
        0x00000b26:    6008        .`      STR      r0,[r1,#0]
        0x00000b28:    485c        \H      LDR      r0,[pc,#368] ; [0xc9c] = 0x2000002c
        0x00000b2a:    68c0        .h      LDR      r0,[r0,#0xc]
        0x00000b2c:    6840        @h      LDR      r0,[r0,#4]
        0x00000b2e:    0c00        ..      LSRS     r0,r0,#16
        0x00000b30:    0400        ..      LSLS     r0,r0,#16
        0x00000b32:    1cc0        ..      ADDS     r0,r0,#3
        0x00000b34:    4959        YI      LDR      r1,[pc,#356] ; [0xc9c] = 0x2000002c
        0x00000b36:    68c9        .h      LDR      r1,[r1,#0xc]
        0x00000b38:    6048        H`      STR      r0,[r1,#4]
        0x00000b3a:    4858        XH      LDR      r0,[pc,#352] ; [0xc9c] = 0x2000002c
        0x00000b3c:    68c0        .h      LDR      r0,[r0,#0xc]
        0x00000b3e:    6880        .h      LDR      r0,[r0,#8]
        0x00000b40:    0880        ..      LSRS     r0,r0,#2
        0x00000b42:    0080        ..      LSLS     r0,r0,#2
        0x00000b44:    1c40        @.      ADDS     r0,r0,#1
        0x00000b46:    4955        UI      LDR      r1,[pc,#340] ; [0xc9c] = 0x2000002c
        0x00000b48:    68c9        .h      LDR      r1,[r1,#0xc]
        0x00000b4a:    6088        .`      STR      r0,[r1,#8]
        0x00000b4c:    20eb        .       MOVS     r0,#0xeb
        0x00000b4e:    4953        SI      LDR      r1,[pc,#332] ; [0xc9c] = 0x2000002c
        0x00000b50:    68c9        .h      LDR      r1,[r1,#0xc]
        0x00000b52:    6208        .b      STR      r0,[r1,#0x20]
        0x00000b54:    4851        QH      LDR      r0,[pc,#324] ; [0xc9c] = 0x2000002c
        0x00000b56:    68c0        .h      LDR      r0,[r0,#0xc]
        0x00000b58:    6800        .h      LDR      r0,[r0,#0]
        0x00000b5a:    0840        @.      LSRS     r0,r0,#1
        0x00000b5c:    0040        @.      LSLS     r0,r0,#1
        0x00000b5e:    1c40        @.      ADDS     r0,r0,#1
        0x00000b60:    494e        NI      LDR      r1,[pc,#312] ; [0xc9c] = 0x2000002c
        0x00000b62:    68c9        .h      LDR      r1,[r1,#0xc]
        0x00000b64:    6008        .`      STR      r0,[r1,#0]
        0x00000b66:    bf00        ..      NOP      
        0x00000b68:    484c        LH      LDR      r0,[pc,#304] ; [0xc9c] = 0x2000002c
        0x00000b6a:    68c0        .h      LDR      r0,[r0,#0xc]
        0x00000b6c:    6800        .h      LDR      r0,[r0,#0]
        0x00000b6e:    07c0        ..      LSLS     r0,r0,#31
        0x00000b70:    0fc0        ..      LSRS     r0,r0,#31
        0x00000b72:    2801        .(      CMP      r0,#1
        0x00000b74:    d0f8        ..      BEQ      0xb68 ; Initial_pannel + 224
        0x00000b76:    4849        IH      LDR      r0,[pc,#292] ; [0xc9c] = 0x2000002c
        0x00000b78:    68c0        .h      LDR      r0,[r0,#0xc]
        0x00000b7a:    6880        .h      LDR      r0,[r0,#8]
        0x00000b7c:    0880        ..      LSRS     r0,r0,#2
        0x00000b7e:    0080        ..      LSLS     r0,r0,#2
        0x00000b80:    4946        FI      LDR      r1,[pc,#280] ; [0xc9c] = 0x2000002c
        0x00000b82:    68c9        .h      LDR      r1,[r1,#0xc]
        0x00000b84:    6088        .`      STR      r0,[r1,#8]
        0x00000b86:    4845        EH      LDR      r0,[pc,#276] ; [0xc9c] = 0x2000002c
        0x00000b88:    68c0        .h      LDR      r0,[r0,#0xc]
        0x00000b8a:    6880        .h      LDR      r0,[r0,#8]
        0x00000b8c:    0880        ..      LSRS     r0,r0,#2
        0x00000b8e:    0080        ..      LSLS     r0,r0,#2
        0x00000b90:    1c40        @.      ADDS     r0,r0,#1
        0x00000b92:    4942        BI      LDR      r1,[pc,#264] ; [0xc9c] = 0x2000002c
        0x00000b94:    68c9        .h      LDR      r1,[r1,#0xc]
        0x00000b96:    6088        .`      STR      r0,[r1,#8]
        0x00000b98:    2081        .       MOVS     r0,#0x81
        0x00000b9a:    4940        @I      LDR      r1,[pc,#256] ; [0xc9c] = 0x2000002c
        0x00000b9c:    68c9        .h      LDR      r1,[r1,#0xc]
        0x00000b9e:    6208        .b      STR      r0,[r1,#0x20]
        0x00000ba0:    483e        >H      LDR      r0,[pc,#248] ; [0xc9c] = 0x2000002c
        0x00000ba2:    68c0        .h      LDR      r0,[r0,#0xc]
        0x00000ba4:    6800        .h      LDR      r0,[r0,#0]
        0x00000ba6:    0840        @.      LSRS     r0,r0,#1
        0x00000ba8:    0040        @.      LSLS     r0,r0,#1
        0x00000baa:    1c40        @.      ADDS     r0,r0,#1
        0x00000bac:    493b        ;I      LDR      r1,[pc,#236] ; [0xc9c] = 0x2000002c
        0x00000bae:    68c9        .h      LDR      r1,[r1,#0xc]
        0x00000bb0:    6008        .`      STR      r0,[r1,#0]
        0x00000bb2:    bf00        ..      NOP      
        0x00000bb4:    4839        9H      LDR      r0,[pc,#228] ; [0xc9c] = 0x2000002c
        0x00000bb6:    68c0        .h      LDR      r0,[r0,#0xc]
        0x00000bb8:    6800        .h      LDR      r0,[r0,#0]
        0x00000bba:    07c0        ..      LSLS     r0,r0,#31
        0x00000bbc:    0fc0        ..      LSRS     r0,r0,#31
        0x00000bbe:    2801        .(      CMP      r0,#1
        0x00000bc0:    d0f8        ..      BEQ      0xbb4 ; Initial_pannel + 300
        0x00000bc2:    20a0        .       MOVS     r0,#0xa0
        0x00000bc4:    4935        5I      LDR      r1,[pc,#212] ; [0xc9c] = 0x2000002c
        0x00000bc6:    68c9        .h      LDR      r1,[r1,#0xc]
        0x00000bc8:    6208        .b      STR      r0,[r1,#0x20]
        0x00000bca:    4834        4H      LDR      r0,[pc,#208] ; [0xc9c] = 0x2000002c
        0x00000bcc:    68c0        .h      LDR      r0,[r0,#0xc]
        0x00000bce:    6800        .h      LDR      r0,[r0,#0]
        0x00000bd0:    0840        @.      LSRS     r0,r0,#1
        0x00000bd2:    0040        @.      LSLS     r0,r0,#1
        0x00000bd4:    1c40        @.      ADDS     r0,r0,#1
        0x00000bd6:    4931        1I      LDR      r1,[pc,#196] ; [0xc9c] = 0x2000002c
        0x00000bd8:    68c9        .h      LDR      r1,[r1,#0xc]
        0x00000bda:    6008        .`      STR      r0,[r1,#0]
        0x00000bdc:    bf00        ..      NOP      
        0x00000bde:    482f        /H      LDR      r0,[pc,#188] ; [0xc9c] = 0x2000002c
        0x00000be0:    68c0        .h      LDR      r0,[r0,#0xc]
        0x00000be2:    6800        .h      LDR      r0,[r0,#0]
        0x00000be4:    07c0        ..      LSLS     r0,r0,#31
        0x00000be6:    0fc0        ..      LSRS     r0,r0,#31
        0x00000be8:    2801        .(      CMP      r0,#1
        0x00000bea:    d0f8        ..      BEQ      0xbde ; Initial_pannel + 342
        0x00000bec:    482b        +H      LDR      r0,[pc,#172] ; [0xc9c] = 0x2000002c
        0x00000bee:    68c0        .h      LDR      r0,[r0,#0xc]
        0x00000bf0:    6880        .h      LDR      r0,[r0,#8]
        0x00000bf2:    0880        ..      LSRS     r0,r0,#2
        0x00000bf4:    0080        ..      LSLS     r0,r0,#2
        0x00000bf6:    4929        )I      LDR      r1,[pc,#164] ; [0xc9c] = 0x2000002c
        0x00000bf8:    68c9        .h      LDR      r1,[r1,#0xc]
        0x00000bfa:    6088        .`      STR      r0,[r1,#8]
        0x00000bfc:    4827        'H      LDR      r0,[pc,#156] ; [0xc9c] = 0x2000002c
        0x00000bfe:    68c0        .h      LDR      r0,[r0,#0xc]
        0x00000c00:    6880        .h      LDR      r0,[r0,#8]
        0x00000c02:    0880        ..      LSRS     r0,r0,#2
        0x00000c04:    0080        ..      LSLS     r0,r0,#2
        0x00000c06:    1c40        @.      ADDS     r0,r0,#1
        0x00000c08:    4924        $I      LDR      r1,[pc,#144] ; [0xc9c] = 0x2000002c
        0x00000c0a:    68c9        .h      LDR      r1,[r1,#0xc]
        0x00000c0c:    6088        .`      STR      r0,[r1,#8]
        0x00000c0e:    20c0        .       MOVS     r0,#0xc0
        0x00000c10:    4922        "I      LDR      r1,[pc,#136] ; [0xc9c] = 0x2000002c
        0x00000c12:    68c9        .h      LDR      r1,[r1,#0xc]
        0x00000c14:    6208        .b      STR      r0,[r1,#0x20]
        0x00000c16:    4821        !H      LDR      r0,[pc,#132] ; [0xc9c] = 0x2000002c
        0x00000c18:    68c0        .h      LDR      r0,[r0,#0xc]
        0x00000c1a:    6800        .h      LDR      r0,[r0,#0]
        0x00000c1c:    0840        @.      LSRS     r0,r0,#1
        0x00000c1e:    0040        @.      LSLS     r0,r0,#1
        0x00000c20:    1c40        @.      ADDS     r0,r0,#1
        0x00000c22:    491e        .I      LDR      r1,[pc,#120] ; [0xc9c] = 0x2000002c
        0x00000c24:    68c9        .h      LDR      r1,[r1,#0xc]
        0x00000c26:    6008        .`      STR      r0,[r1,#0]
        0x00000c28:    bf00        ..      NOP      
        0x00000c2a:    481c        .H      LDR      r0,[pc,#112] ; [0xc9c] = 0x2000002c
        0x00000c2c:    68c0        .h      LDR      r0,[r0,#0xc]
        0x00000c2e:    6800        .h      LDR      r0,[r0,#0]
        0x00000c30:    07c0        ..      LSLS     r0,r0,#31
        0x00000c32:    0fc0        ..      LSRS     r0,r0,#31
        0x00000c34:    2801        .(      CMP      r0,#1
        0x00000c36:    d0f8        ..      BEQ      0xc2a ; Initial_pannel + 418
        0x00000c38:    4818        .H      LDR      r0,[pc,#96] ; [0xc9c] = 0x2000002c
        0x00000c3a:    68c0        .h      LDR      r0,[r0,#0xc]
        0x00000c3c:    6880        .h      LDR      r0,[r0,#8]
        0x00000c3e:    0880        ..      LSRS     r0,r0,#2
        0x00000c40:    0080        ..      LSLS     r0,r0,#2
        0x00000c42:    4916        .I      LDR      r1,[pc,#88] ; [0xc9c] = 0x2000002c
        0x00000c44:    68c9        .h      LDR      r1,[r1,#0xc]
        0x00000c46:    6088        .`      STR      r0,[r1,#8]
        0x00000c48:    4814        .H      LDR      r0,[pc,#80] ; [0xc9c] = 0x2000002c
        0x00000c4a:    68c0        .h      LDR      r0,[r0,#0xc]
        0x00000c4c:    6880        .h      LDR      r0,[r0,#8]
        0x00000c4e:    0880        ..      LSRS     r0,r0,#2
        0x00000c50:    0080        ..      LSLS     r0,r0,#2
        0x00000c52:    1c40        @.      ADDS     r0,r0,#1
        0x00000c54:    4911        .I      LDR      r1,[pc,#68] ; [0xc9c] = 0x2000002c
        0x00000c56:    68c9        .h      LDR      r1,[r1,#0xc]
        0x00000c58:    6088        .`      STR      r0,[r1,#8]
        0x00000c5a:    20af        .       MOVS     r0,#0xaf
        0x00000c5c:    490f        .I      LDR      r1,[pc,#60] ; [0xc9c] = 0x2000002c
        0x00000c5e:    68c9        .h      LDR      r1,[r1,#0xc]
        0x00000c60:    6208        .b      STR      r0,[r1,#0x20]
        0x00000c62:    480e        .H      LDR      r0,[pc,#56] ; [0xc9c] = 0x2000002c
        0x00000c64:    68c0        .h      LDR      r0,[r0,#0xc]
        0x00000c66:    6800        .h      LDR      r0,[r0,#0]
        0x00000c68:    0840        @.      LSRS     r0,r0,#1
        0x00000c6a:    0040        @.      LSLS     r0,r0,#1
        0x00000c6c:    1c40        @.      ADDS     r0,r0,#1
        0x00000c6e:    490b        .I      LDR      r1,[pc,#44] ; [0xc9c] = 0x2000002c
        0x00000c70:    68c9        .h      LDR      r1,[r1,#0xc]
        0x00000c72:    6008        .`      STR      r0,[r1,#0]
        0x00000c74:    bf00        ..      NOP      
        0x00000c76:    4809        .H      LDR      r0,[pc,#36] ; [0xc9c] = 0x2000002c
        0x00000c78:    68c0        .h      LDR      r0,[r0,#0xc]
        0x00000c7a:    6800        .h      LDR      r0,[r0,#0]
        0x00000c7c:    07c0        ..      LSLS     r0,r0,#31
        0x00000c7e:    0fc0        ..      LSRS     r0,r0,#31
        0x00000c80:    2801        .(      CMP      r0,#1
        0x00000c82:    d0f8        ..      BEQ      0xc76 ; Initial_pannel + 494
        0x00000c84:    4805        .H      LDR      r0,[pc,#20] ; [0xc9c] = 0x2000002c
        0x00000c86:    68c0        .h      LDR      r0,[r0,#0xc]
        0x00000c88:    6880        .h      LDR      r0,[r0,#8]
        0x00000c8a:    0880        ..      LSRS     r0,r0,#2
        0x00000c8c:    0080        ..      LSLS     r0,r0,#2
        0x00000c8e:    4903        .I      LDR      r1,[pc,#12] ; [0xc9c] = 0x2000002c
        0x00000c90:    68c9        .h      LDR      r1,[r1,#0xc]
        0x00000c92:    6088        .`      STR      r0,[r1,#8]
        0x00000c94:    4770        pG      BX       lr
    $d
        0x00000c96:    0000        ..      DCW    0
        0x00000c98:    50000200    ...P    DCD    1342177792
        0x00000c9c:    2000002c    ,..     DCD    536870956
    $t
    i.NVIC_EnableIRQ
    NVIC_EnableIRQ
        0x00000ca0:    06c2        ..      LSLS     r2,r0,#27
        0x00000ca2:    0ed2        ..      LSRS     r2,r2,#27
        0x00000ca4:    2101        .!      MOVS     r1,#1
        0x00000ca6:    4091        .@      LSLS     r1,r1,r2
        0x00000ca8:    4a01        .J      LDR      r2,[pc,#4] ; [0xcb0] = 0xe000e100
        0x00000caa:    6011        .`      STR      r1,[r2,#0]
        0x00000cac:    4770        pG      BX       lr
    $d
        0x00000cae:    0000        ..      DCW    0
        0x00000cb0:    e000e100    ....    DCD    3758153984
    $t
    i.PWRWU_IRQHandler
    PWRWU_IRQHandler
        0x00000cb4:    b510        ..      PUSH     {r4,lr}
        0x00000cb6:    4807        .H      LDR      r0,[pc,#28] ; [0xcd4] = 0x50000200
        0x00000cb8:    6800        .h      LDR      r0,[r0,#0]
        0x00000cba:    2140        @!      MOVS     r1,#0x40
        0x00000cbc:    4388        .C      BICS     r0,r0,r1
        0x00000cbe:    3040        @0      ADDS     r0,r0,#0x40
        0x00000cc0:    4904        .I      LDR      r1,[pc,#16] ; [0xcd4] = 0x50000200
        0x00000cc2:    6008        .`      STR      r0,[r1,#0]
        0x00000cc4:    4804        .H      LDR      r0,[pc,#16] ; [0xcd8] = 0x20000630
        0x00000cc6:    6800        .h      LDR      r0,[r0,#0]
        0x00000cc8:    2800        .(      CMP      r0,#0
        0x00000cca:    d002        ..      BEQ      0xcd2 ; PWRWU_IRQHandler + 30
        0x00000ccc:    4802        .H      LDR      r0,[pc,#8] ; [0xcd8] = 0x20000630
        0x00000cce:    6800        .h      LDR      r0,[r0,#0]
        0x00000cd0:    4780        .G      BLX      r0
        0x00000cd2:    bd10        ..      POP      {r4,pc}
    $d
        0x00000cd4:    50000200    ...P    DCD    1342177792
        0x00000cd8:    20000630    0..     DCD    536872496
    $t
    i.SPI0_IRQHandler
    SPI0_IRQHandler
        0x00000cdc:    b510        ..      PUSH     {r4,lr}
        0x00000cde:    4816        .H      LDR      r0,[pc,#88] ; [0xd38] = 0x40030000
        0x00000ce0:    6800        .h      LDR      r0,[r0,#0]
        0x00000ce2:    03c0        ..      LSLS     r0,r0,#15
        0x00000ce4:    0fc0        ..      LSRS     r0,r0,#31
        0x00000ce6:    2801        .(      CMP      r0,#1
        0x00000ce8:    d10f        ..      BNE      0xd0a ; SPI0_IRQHandler + 46
        0x00000cea:    4813        .H      LDR      r0,[pc,#76] ; [0xd38] = 0x40030000
        0x00000cec:    6800        .h      LDR      r0,[r0,#0]
        0x00000cee:    2101        .!      MOVS     r1,#1
        0x00000cf0:    0409        ..      LSLS     r1,r1,#16
        0x00000cf2:    4388        .C      BICS     r0,r0,r1
        0x00000cf4:    1840        @.      ADDS     r0,r0,r1
        0x00000cf6:    4910        .I      LDR      r1,[pc,#64] ; [0xd38] = 0x40030000
        0x00000cf8:    6008        .`      STR      r0,[r1,#0]
        0x00000cfa:    4810        .H      LDR      r0,[pc,#64] ; [0xd3c] = 0x20000670
        0x00000cfc:    6840        @h      LDR      r0,[r0,#4]
        0x00000cfe:    2800        .(      CMP      r0,#0
        0x00000d00:    d003        ..      BEQ      0xd0a ; SPI0_IRQHandler + 46
        0x00000d02:    4a0e        .J      LDR      r2,[pc,#56] ; [0xd3c] = 0x20000670
        0x00000d04:    6890        .h      LDR      r0,[r2,#8]
        0x00000d06:    6851        Qh      LDR      r1,[r2,#4]
        0x00000d08:    4788        .G      BLX      r1
        0x00000d0a:    480b        .H      LDR      r0,[pc,#44] ; [0xd38] = 0x40030000
        0x00000d0c:    6bc0        .k      LDR      r0,[r0,#0x3c]
        0x00000d0e:    0500        ..      LSLS     r0,r0,#20
        0x00000d10:    0fc0        ..      LSRS     r0,r0,#31
        0x00000d12:    2801        .(      CMP      r0,#1
        0x00000d14:    d10f        ..      BNE      0xd36 ; SPI0_IRQHandler + 90
        0x00000d16:    4808        .H      LDR      r0,[pc,#32] ; [0xd38] = 0x40030000
        0x00000d18:    6bc0        .k      LDR      r0,[r0,#0x3c]
        0x00000d1a:    2101        .!      MOVS     r1,#1
        0x00000d1c:    02c9        ..      LSLS     r1,r1,#11
        0x00000d1e:    4388        .C      BICS     r0,r0,r1
        0x00000d20:    1840        @.      ADDS     r0,r0,r1
        0x00000d22:    4905        .I      LDR      r1,[pc,#20] ; [0xd38] = 0x40030000
        0x00000d24:    63c8        .c      STR      r0,[r1,#0x3c]
        0x00000d26:    4805        .H      LDR      r0,[pc,#20] ; [0xd3c] = 0x20000670
        0x00000d28:    68c0        .h      LDR      r0,[r0,#0xc]
        0x00000d2a:    2800        .(      CMP      r0,#0
        0x00000d2c:    d003        ..      BEQ      0xd36 ; SPI0_IRQHandler + 90
        0x00000d2e:    4a03        .J      LDR      r2,[pc,#12] ; [0xd3c] = 0x20000670
        0x00000d30:    6910        .i      LDR      r0,[r2,#0x10]
        0x00000d32:    68d1        .h      LDR      r1,[r2,#0xc]
        0x00000d34:    4788        .G      BLX      r1
        0x00000d36:    bd10        ..      POP      {r4,pc}
    $d
        0x00000d38:    40030000    ...@    DCD    1073938432
        0x00000d3c:    20000670    p..     DCD    536872560
    $t
    i.SPI1_IRQHandler
    SPI1_IRQHandler
        0x00000d40:    b510        ..      PUSH     {r4,lr}
        0x00000d42:    4816        .H      LDR      r0,[pc,#88] ; [0xd9c] = 0x40034000
        0x00000d44:    6800        .h      LDR      r0,[r0,#0]
        0x00000d46:    03c0        ..      LSLS     r0,r0,#15
        0x00000d48:    0fc0        ..      LSRS     r0,r0,#31
        0x00000d4a:    2801        .(      CMP      r0,#1
        0x00000d4c:    d10f        ..      BNE      0xd6e ; SPI1_IRQHandler + 46
        0x00000d4e:    4813        .H      LDR      r0,[pc,#76] ; [0xd9c] = 0x40034000
        0x00000d50:    6800        .h      LDR      r0,[r0,#0]
        0x00000d52:    2101        .!      MOVS     r1,#1
        0x00000d54:    0409        ..      LSLS     r1,r1,#16
        0x00000d56:    4388        .C      BICS     r0,r0,r1
        0x00000d58:    1840        @.      ADDS     r0,r0,r1
        0x00000d5a:    4910        .I      LDR      r1,[pc,#64] ; [0xd9c] = 0x40034000
        0x00000d5c:    6008        .`      STR      r0,[r1,#0]
        0x00000d5e:    4810        .H      LDR      r0,[pc,#64] ; [0xda0] = 0x20000670
        0x00000d60:    6980        .i      LDR      r0,[r0,#0x18]
        0x00000d62:    2800        .(      CMP      r0,#0
        0x00000d64:    d003        ..      BEQ      0xd6e ; SPI1_IRQHandler + 46
        0x00000d66:    4a0e        .J      LDR      r2,[pc,#56] ; [0xda0] = 0x20000670
        0x00000d68:    69d0        .i      LDR      r0,[r2,#0x1c]
        0x00000d6a:    6991        .i      LDR      r1,[r2,#0x18]
        0x00000d6c:    4788        .G      BLX      r1
        0x00000d6e:    480b        .H      LDR      r0,[pc,#44] ; [0xd9c] = 0x40034000
        0x00000d70:    6bc0        .k      LDR      r0,[r0,#0x3c]
        0x00000d72:    0500        ..      LSLS     r0,r0,#20
        0x00000d74:    0fc0        ..      LSRS     r0,r0,#31
        0x00000d76:    2801        .(      CMP      r0,#1
        0x00000d78:    d10f        ..      BNE      0xd9a ; SPI1_IRQHandler + 90
        0x00000d7a:    4808        .H      LDR      r0,[pc,#32] ; [0xd9c] = 0x40034000
        0x00000d7c:    6bc0        .k      LDR      r0,[r0,#0x3c]
        0x00000d7e:    2101        .!      MOVS     r1,#1
        0x00000d80:    02c9        ..      LSLS     r1,r1,#11
        0x00000d82:    4388        .C      BICS     r0,r0,r1
        0x00000d84:    1840        @.      ADDS     r0,r0,r1
        0x00000d86:    4905        .I      LDR      r1,[pc,#20] ; [0xd9c] = 0x40034000
        0x00000d88:    63c8        .c      STR      r0,[r1,#0x3c]
        0x00000d8a:    4805        .H      LDR      r0,[pc,#20] ; [0xda0] = 0x20000670
        0x00000d8c:    6a00        .j      LDR      r0,[r0,#0x20]
        0x00000d8e:    2800        .(      CMP      r0,#0
        0x00000d90:    d003        ..      BEQ      0xd9a ; SPI1_IRQHandler + 90
        0x00000d92:    4a03        .J      LDR      r2,[pc,#12] ; [0xda0] = 0x20000670
        0x00000d94:    6a50        Pj      LDR      r0,[r2,#0x24]
        0x00000d96:    6a11        .j      LDR      r1,[r2,#0x20]
        0x00000d98:    4788        .G      BLX      r1
        0x00000d9a:    bd10        ..      POP      {r4,pc}
    $d
        0x00000d9c:    40034000    .@.@    DCD    1073954816
        0x00000da0:    20000670    p..     DCD    536872560
    $t
    i.SPI2_IRQHandler
    SPI2_IRQHandler
        0x00000da4:    b510        ..      PUSH     {r4,lr}
        0x00000da6:    4816        .H      LDR      r0,[pc,#88] ; [0xe00] = 0x40130000
        0x00000da8:    6800        .h      LDR      r0,[r0,#0]
        0x00000daa:    03c0        ..      LSLS     r0,r0,#15
        0x00000dac:    0fc0        ..      LSRS     r0,r0,#31
        0x00000dae:    2801        .(      CMP      r0,#1
        0x00000db0:    d10f        ..      BNE      0xdd2 ; SPI2_IRQHandler + 46
        0x00000db2:    4813        .H      LDR      r0,[pc,#76] ; [0xe00] = 0x40130000
        0x00000db4:    6800        .h      LDR      r0,[r0,#0]
        0x00000db6:    2101        .!      MOVS     r1,#1
        0x00000db8:    0409        ..      LSLS     r1,r1,#16
        0x00000dba:    4388        .C      BICS     r0,r0,r1
        0x00000dbc:    1840        @.      ADDS     r0,r0,r1
        0x00000dbe:    4910        .I      LDR      r1,[pc,#64] ; [0xe00] = 0x40130000
        0x00000dc0:    6008        .`      STR      r0,[r1,#0]
        0x00000dc2:    4810        .H      LDR      r0,[pc,#64] ; [0xe04] = 0x20000670
        0x00000dc4:    6ac0        .j      LDR      r0,[r0,#0x2c]
        0x00000dc6:    2800        .(      CMP      r0,#0
        0x00000dc8:    d003        ..      BEQ      0xdd2 ; SPI2_IRQHandler + 46
        0x00000dca:    4a0e        .J      LDR      r2,[pc,#56] ; [0xe04] = 0x20000670
        0x00000dcc:    6b10        .k      LDR      r0,[r2,#0x30]
        0x00000dce:    6ad1        .j      LDR      r1,[r2,#0x2c]
        0x00000dd0:    4788        .G      BLX      r1
        0x00000dd2:    480b        .H      LDR      r0,[pc,#44] ; [0xe00] = 0x40130000
        0x00000dd4:    6bc0        .k      LDR      r0,[r0,#0x3c]
        0x00000dd6:    0500        ..      LSLS     r0,r0,#20
        0x00000dd8:    0fc0        ..      LSRS     r0,r0,#31
        0x00000dda:    2801        .(      CMP      r0,#1
        0x00000ddc:    d10f        ..      BNE      0xdfe ; SPI2_IRQHandler + 90
        0x00000dde:    4808        .H      LDR      r0,[pc,#32] ; [0xe00] = 0x40130000
        0x00000de0:    6bc0        .k      LDR      r0,[r0,#0x3c]
        0x00000de2:    2101        .!      MOVS     r1,#1
        0x00000de4:    02c9        ..      LSLS     r1,r1,#11
        0x00000de6:    4388        .C      BICS     r0,r0,r1
        0x00000de8:    1840        @.      ADDS     r0,r0,r1
        0x00000dea:    4905        .I      LDR      r1,[pc,#20] ; [0xe00] = 0x40130000
        0x00000dec:    63c8        .c      STR      r0,[r1,#0x3c]
        0x00000dee:    4805        .H      LDR      r0,[pc,#20] ; [0xe04] = 0x20000670
        0x00000df0:    6b40        @k      LDR      r0,[r0,#0x34]
        0x00000df2:    2800        .(      CMP      r0,#0
        0x00000df4:    d003        ..      BEQ      0xdfe ; SPI2_IRQHandler + 90
        0x00000df6:    4a03        .J      LDR      r2,[pc,#12] ; [0xe04] = 0x20000670
        0x00000df8:    6b90        .k      LDR      r0,[r2,#0x38]
        0x00000dfa:    6b51        Qk      LDR      r1,[r2,#0x34]
        0x00000dfc:    4788        .G      BLX      r1
        0x00000dfe:    bd10        ..      POP      {r4,pc}
    $d
        0x00000e00:    40130000    ...@    DCD    1074987008
        0x00000e04:    20000670    p..     DCD    536872560
    $t
    i.SPI3_IRQHandler
    SPI3_IRQHandler
        0x00000e08:    b510        ..      PUSH     {r4,lr}
        0x00000e0a:    4816        .H      LDR      r0,[pc,#88] ; [0xe64] = 0x40134000
        0x00000e0c:    6800        .h      LDR      r0,[r0,#0]
        0x00000e0e:    03c0        ..      LSLS     r0,r0,#15
        0x00000e10:    0fc0        ..      LSRS     r0,r0,#31
        0x00000e12:    2801        .(      CMP      r0,#1
        0x00000e14:    d10f        ..      BNE      0xe36 ; SPI3_IRQHandler + 46
        0x00000e16:    4813        .H      LDR      r0,[pc,#76] ; [0xe64] = 0x40134000
        0x00000e18:    6800        .h      LDR      r0,[r0,#0]
        0x00000e1a:    2101        .!      MOVS     r1,#1
        0x00000e1c:    0409        ..      LSLS     r1,r1,#16
        0x00000e1e:    4388        .C      BICS     r0,r0,r1
        0x00000e20:    1840        @.      ADDS     r0,r0,r1
        0x00000e22:    4910        .I      LDR      r1,[pc,#64] ; [0xe64] = 0x40134000
        0x00000e24:    6008        .`      STR      r0,[r1,#0]
        0x00000e26:    4810        .H      LDR      r0,[pc,#64] ; [0xe68] = 0x20000670
        0x00000e28:    6c00        .l      LDR      r0,[r0,#0x40]
        0x00000e2a:    2800        .(      CMP      r0,#0
        0x00000e2c:    d003        ..      BEQ      0xe36 ; SPI3_IRQHandler + 46
        0x00000e2e:    4a0e        .J      LDR      r2,[pc,#56] ; [0xe68] = 0x20000670
        0x00000e30:    6c50        Pl      LDR      r0,[r2,#0x44]
        0x00000e32:    6c11        .l      LDR      r1,[r2,#0x40]
        0x00000e34:    4788        .G      BLX      r1
        0x00000e36:    480b        .H      LDR      r0,[pc,#44] ; [0xe64] = 0x40134000
        0x00000e38:    6bc0        .k      LDR      r0,[r0,#0x3c]
        0x00000e3a:    0500        ..      LSLS     r0,r0,#20
        0x00000e3c:    0fc0        ..      LSRS     r0,r0,#31
        0x00000e3e:    2801        .(      CMP      r0,#1
        0x00000e40:    d10f        ..      BNE      0xe62 ; SPI3_IRQHandler + 90
        0x00000e42:    4808        .H      LDR      r0,[pc,#32] ; [0xe64] = 0x40134000
        0x00000e44:    6bc0        .k      LDR      r0,[r0,#0x3c]
        0x00000e46:    2101        .!      MOVS     r1,#1
        0x00000e48:    02c9        ..      LSLS     r1,r1,#11
        0x00000e4a:    4388        .C      BICS     r0,r0,r1
        0x00000e4c:    1840        @.      ADDS     r0,r0,r1
        0x00000e4e:    4905        .I      LDR      r1,[pc,#20] ; [0xe64] = 0x40134000
        0x00000e50:    63c8        .c      STR      r0,[r1,#0x3c]
        0x00000e52:    4805        .H      LDR      r0,[pc,#20] ; [0xe68] = 0x20000670
        0x00000e54:    6c80        .l      LDR      r0,[r0,#0x48]
        0x00000e56:    2800        .(      CMP      r0,#0
        0x00000e58:    d003        ..      BEQ      0xe62 ; SPI3_IRQHandler + 90
        0x00000e5a:    4a03        .J      LDR      r2,[pc,#12] ; [0xe68] = 0x20000670
        0x00000e5c:    6cd0        .l      LDR      r0,[r2,#0x4c]
        0x00000e5e:    6c91        .l      LDR      r1,[r2,#0x48]
        0x00000e60:    4788        .G      BLX      r1
        0x00000e62:    bd10        ..      POP      {r4,pc}
    $d
        0x00000e64:    40134000    .@.@    DCD    1075003392
        0x00000e68:    20000670    p..     DCD    536872560
    $t
    i.SetPACA
    SetPACA
        0x00000e6c:    4a3b        ;J      LDR      r2,[pc,#236] ; [0xf5c] = 0x2000002c
        0x00000e6e:    68d2        .h      LDR      r2,[r2,#0xc]
        0x00000e70:    6892        .h      LDR      r2,[r2,#8]
        0x00000e72:    0892        ..      LSRS     r2,r2,#2
        0x00000e74:    0092        ..      LSLS     r2,r2,#2
        0x00000e76:    1c52        R.      ADDS     r2,r2,#1
        0x00000e78:    4b38        8K      LDR      r3,[pc,#224] ; [0xf5c] = 0x2000002c
        0x00000e7a:    68db        .h      LDR      r3,[r3,#0xc]
        0x00000e7c:    609a        .`      STR      r2,[r3,#8]
        0x00000e7e:    22b0        ."      MOVS     r2,#0xb0
        0x00000e80:    4302        .C      ORRS     r2,r2,r0
        0x00000e82:    4b36        6K      LDR      r3,[pc,#216] ; [0xf5c] = 0x2000002c
        0x00000e84:    68db        .h      LDR      r3,[r3,#0xc]
        0x00000e86:    621a        .b      STR      r2,[r3,#0x20]
        0x00000e88:    4a34        4J      LDR      r2,[pc,#208] ; [0xf5c] = 0x2000002c
        0x00000e8a:    68d2        .h      LDR      r2,[r2,#0xc]
        0x00000e8c:    6812        .h      LDR      r2,[r2,#0]
        0x00000e8e:    0852        R.      LSRS     r2,r2,#1
        0x00000e90:    0052        R.      LSLS     r2,r2,#1
        0x00000e92:    1c52        R.      ADDS     r2,r2,#1
        0x00000e94:    4b31        1K      LDR      r3,[pc,#196] ; [0xf5c] = 0x2000002c
        0x00000e96:    68db        .h      LDR      r3,[r3,#0xc]
        0x00000e98:    601a        .`      STR      r2,[r3,#0]
        0x00000e9a:    bf00        ..      NOP      
        0x00000e9c:    4a2f        /J      LDR      r2,[pc,#188] ; [0xf5c] = 0x2000002c
        0x00000e9e:    68d2        .h      LDR      r2,[r2,#0xc]
        0x00000ea0:    6812        .h      LDR      r2,[r2,#0]
        0x00000ea2:    07d2        ..      LSLS     r2,r2,#31
        0x00000ea4:    0fd2        ..      LSRS     r2,r2,#31
        0x00000ea6:    2a01        .*      CMP      r2,#1
        0x00000ea8:    d0f8        ..      BEQ      0xe9c ; SetPACA + 48
        0x00000eaa:    4a2c        ,J      LDR      r2,[pc,#176] ; [0xf5c] = 0x2000002c
        0x00000eac:    68d2        .h      LDR      r2,[r2,#0xc]
        0x00000eae:    6892        .h      LDR      r2,[r2,#8]
        0x00000eb0:    0892        ..      LSRS     r2,r2,#2
        0x00000eb2:    0092        ..      LSLS     r2,r2,#2
        0x00000eb4:    4b29        )K      LDR      r3,[pc,#164] ; [0xf5c] = 0x2000002c
        0x00000eb6:    68db        .h      LDR      r3,[r3,#0xc]
        0x00000eb8:    609a        .`      STR      r2,[r3,#8]
        0x00000eba:    4a28        (J      LDR      r2,[pc,#160] ; [0xf5c] = 0x2000002c
        0x00000ebc:    68d2        .h      LDR      r2,[r2,#0xc]
        0x00000ebe:    6892        .h      LDR      r2,[r2,#8]
        0x00000ec0:    0892        ..      LSRS     r2,r2,#2
        0x00000ec2:    0092        ..      LSLS     r2,r2,#2
        0x00000ec4:    1c52        R.      ADDS     r2,r2,#1
        0x00000ec6:    4b25        %K      LDR      r3,[pc,#148] ; [0xf5c] = 0x2000002c
        0x00000ec8:    68db        .h      LDR      r3,[r3,#0xc]
        0x00000eca:    609a        .`      STR      r2,[r3,#8]
        0x00000ecc:    110a        ..      ASRS     r2,r1,#4
        0x00000ece:    2310        .#      MOVS     r3,#0x10
        0x00000ed0:    431a        .C      ORRS     r2,r2,r3
        0x00000ed2:    4b22        "K      LDR      r3,[pc,#136] ; [0xf5c] = 0x2000002c
        0x00000ed4:    68db        .h      LDR      r3,[r3,#0xc]
        0x00000ed6:    621a        .b      STR      r2,[r3,#0x20]
        0x00000ed8:    4a20         J      LDR      r2,[pc,#128] ; [0xf5c] = 0x2000002c
        0x00000eda:    68d2        .h      LDR      r2,[r2,#0xc]
        0x00000edc:    6812        .h      LDR      r2,[r2,#0]
        0x00000ede:    0852        R.      LSRS     r2,r2,#1
        0x00000ee0:    0052        R.      LSLS     r2,r2,#1
        0x00000ee2:    1c52        R.      ADDS     r2,r2,#1
        0x00000ee4:    4b1d        .K      LDR      r3,[pc,#116] ; [0xf5c] = 0x2000002c
        0x00000ee6:    68db        .h      LDR      r3,[r3,#0xc]
        0x00000ee8:    601a        .`      STR      r2,[r3,#0]
        0x00000eea:    bf00        ..      NOP      
        0x00000eec:    4a1b        .J      LDR      r2,[pc,#108] ; [0xf5c] = 0x2000002c
        0x00000eee:    68d2        .h      LDR      r2,[r2,#0xc]
        0x00000ef0:    6812        .h      LDR      r2,[r2,#0]
        0x00000ef2:    07d2        ..      LSLS     r2,r2,#31
        0x00000ef4:    0fd2        ..      LSRS     r2,r2,#31
        0x00000ef6:    2a01        .*      CMP      r2,#1
        0x00000ef8:    d0f8        ..      BEQ      0xeec ; SetPACA + 128
        0x00000efa:    4a18        .J      LDR      r2,[pc,#96] ; [0xf5c] = 0x2000002c
        0x00000efc:    68d2        .h      LDR      r2,[r2,#0xc]
        0x00000efe:    6892        .h      LDR      r2,[r2,#8]
        0x00000f00:    0892        ..      LSRS     r2,r2,#2
        0x00000f02:    0092        ..      LSLS     r2,r2,#2
        0x00000f04:    4b15        .K      LDR      r3,[pc,#84] ; [0xf5c] = 0x2000002c
        0x00000f06:    68db        .h      LDR      r3,[r3,#0xc]
        0x00000f08:    609a        .`      STR      r2,[r3,#8]
        0x00000f0a:    4a14        .J      LDR      r2,[pc,#80] ; [0xf5c] = 0x2000002c
        0x00000f0c:    68d2        .h      LDR      r2,[r2,#0xc]
        0x00000f0e:    6892        .h      LDR      r2,[r2,#8]
        0x00000f10:    0892        ..      LSRS     r2,r2,#2
        0x00000f12:    0092        ..      LSLS     r2,r2,#2
        0x00000f14:    1c52        R.      ADDS     r2,r2,#1
        0x00000f16:    4b11        .K      LDR      r3,[pc,#68] ; [0xf5c] = 0x2000002c
        0x00000f18:    68db        .h      LDR      r3,[r3,#0xc]
        0x00000f1a:    609a        .`      STR      r2,[r3,#8]
        0x00000f1c:    070a        ..      LSLS     r2,r1,#28
        0x00000f1e:    0f12        ..      LSRS     r2,r2,#28
        0x00000f20:    4b0e        .K      LDR      r3,[pc,#56] ; [0xf5c] = 0x2000002c
        0x00000f22:    68db        .h      LDR      r3,[r3,#0xc]
        0x00000f24:    621a        .b      STR      r2,[r3,#0x20]
        0x00000f26:    4a0d        .J      LDR      r2,[pc,#52] ; [0xf5c] = 0x2000002c
        0x00000f28:    68d2        .h      LDR      r2,[r2,#0xc]
        0x00000f2a:    6812        .h      LDR      r2,[r2,#0]
        0x00000f2c:    0852        R.      LSRS     r2,r2,#1
        0x00000f2e:    0052        R.      LSLS     r2,r2,#1
        0x00000f30:    1c52        R.      ADDS     r2,r2,#1
        0x00000f32:    4b0a        .K      LDR      r3,[pc,#40] ; [0xf5c] = 0x2000002c
        0x00000f34:    68db        .h      LDR      r3,[r3,#0xc]
        0x00000f36:    601a        .`      STR      r2,[r3,#0]
        0x00000f38:    bf00        ..      NOP      
        0x00000f3a:    4a08        .J      LDR      r2,[pc,#32] ; [0xf5c] = 0x2000002c
        0x00000f3c:    68d2        .h      LDR      r2,[r2,#0xc]
        0x00000f3e:    6812        .h      LDR      r2,[r2,#0]
        0x00000f40:    07d2        ..      LSLS     r2,r2,#31
        0x00000f42:    0fd2        ..      LSRS     r2,r2,#31
        0x00000f44:    2a01        .*      CMP      r2,#1
        0x00000f46:    d0f8        ..      BEQ      0xf3a ; SetPACA + 206
        0x00000f48:    4a04        .J      LDR      r2,[pc,#16] ; [0xf5c] = 0x2000002c
        0x00000f4a:    68d2        .h      LDR      r2,[r2,#0xc]
        0x00000f4c:    6892        .h      LDR      r2,[r2,#8]
        0x00000f4e:    0892        ..      LSRS     r2,r2,#2
        0x00000f50:    0092        ..      LSLS     r2,r2,#2
        0x00000f52:    4b02        .K      LDR      r3,[pc,#8] ; [0xf5c] = 0x2000002c
        0x00000f54:    68db        .h      LDR      r3,[r3,#0xc]
        0x00000f56:    609a        .`      STR      r2,[r3,#8]
        0x00000f58:    4770        pG      BX       lr
    $d
        0x00000f5a:    0000        ..      DCW    0
        0x00000f5c:    2000002c    ,..     DCD    536870956
    $t
    i.Show_Word
    Show_Word
        0x00000f60:    b5fc        ..      PUSH     {r2-r7,lr}
        0x00000f62:    4605        .F      MOV      r5,r0
        0x00000f64:    460e        .F      MOV      r6,r1
        0x00000f66:    4617        .F      MOV      r7,r2
        0x00000f68:    2400        .$      MOVS     r4,#0
        0x00000f6a:    2000        .       MOVS     r0,#0
        0x00000f6c:    9001        ..      STR      r0,[sp,#4]
        0x00000f6e:    4638        8F      MOV      r0,r7
        0x00000f70:    3820         8      SUBS     r0,r0,#0x20
        0x00000f72:    0100        ..      LSLS     r0,r0,#4
        0x00000f74:    9001        ..      STR      r0,[sp,#4]
        0x00000f76:    bf00        ..      NOP      
        0x00000f78:    e011        ..      B        0xf9e ; Show_Word + 62
        0x00000f7a:    00f2        ..      LSLS     r2,r6,#3
        0x00000f7c:    2381        .#      MOVS     r3,#0x81
        0x00000f7e:    1a9a        ..      SUBS     r2,r3,r2
        0x00000f80:    1b12        ..      SUBS     r2,r2,r4
        0x00000f82:    b2d1        ..      UXTB     r1,r2
        0x00000f84:    066a        j.      LSLS     r2,r5,#25
        0x00000f86:    0e10        ..      LSRS     r0,r2,#24
        0x00000f88:    f7ffff70    ..p.    BL       SetPACA ; 0xe6c
        0x00000f8c:    9801        ..      LDR      r0,[sp,#4]
        0x00000f8e:    1900        ..      ADDS     r0,r0,r4
        0x00000f90:    4910        .I      LDR      r1,[pc,#64] ; [0xfd4] = 0x2000003c
        0x00000f92:    5c08        .\      LDRB     r0,[r1,r0]
        0x00000f94:    9000        ..      STR      r0,[sp,#0]
        0x00000f96:    9800        ..      LDR      r0,[sp,#0]
        0x00000f98:    f000f91c    ....    BL       WriteData ; 0x11d4
        0x00000f9c:    1c64        d.      ADDS     r4,r4,#1
        0x00000f9e:    2c08        .,      CMP      r4,#8
        0x00000fa0:    dbeb        ..      BLT      0xf7a ; Show_Word + 26
        0x00000fa2:    2400        .$      MOVS     r4,#0
        0x00000fa4:    e013        ..      B        0xfce ; Show_Word + 110
        0x00000fa6:    00f2        ..      LSLS     r2,r6,#3
        0x00000fa8:    2381        .#      MOVS     r3,#0x81
        0x00000faa:    1a9a        ..      SUBS     r2,r3,r2
        0x00000fac:    1b12        ..      SUBS     r2,r2,r4
        0x00000fae:    b2d1        ..      UXTB     r1,r2
        0x00000fb0:    006a        j.      LSLS     r2,r5,#1
        0x00000fb2:    1c52        R.      ADDS     r2,r2,#1
        0x00000fb4:    b2d0        ..      UXTB     r0,r2
        0x00000fb6:    f7ffff59    ..Y.    BL       SetPACA ; 0xe6c
        0x00000fba:    9801        ..      LDR      r0,[sp,#4]
        0x00000fbc:    1900        ..      ADDS     r0,r0,r4
        0x00000fbe:    3008        .0      ADDS     r0,r0,#8
        0x00000fc0:    4904        .I      LDR      r1,[pc,#16] ; [0xfd4] = 0x2000003c
        0x00000fc2:    5c08        .\      LDRB     r0,[r1,r0]
        0x00000fc4:    9000        ..      STR      r0,[sp,#0]
        0x00000fc6:    9800        ..      LDR      r0,[sp,#0]
        0x00000fc8:    f000f904    ....    BL       WriteData ; 0x11d4
        0x00000fcc:    1c64        d.      ADDS     r4,r4,#1
        0x00000fce:    2c08        .,      CMP      r4,#8
        0x00000fd0:    dbe9        ..      BLT      0xfa6 ; Show_Word + 70
        0x00000fd2:    bdfc        ..      POP      {r2-r7,pc}
    $d
        0x00000fd4:    2000003c    <..     DCD    536870972
    $t
    i.SystemInit
    SystemInit
        0x00000fd8:    4770        pG      BX       lr
        0x00000fda:    0000        ..      MOVS     r0,r0
    i.TMR0_IRQHandler
    TMR0_IRQHandler
        0x00000fdc:    b51f        ..      PUSH     {r0-r4,lr}
        0x00000fde:    a357        W.      ADR      r3,{pc}+0x15e ; 0x113c
        0x00000fe0:    cb0f        ..      LDM      r3,{r0-r3}
        0x00000fe2:    466c        lF      MOV      r4,sp
        0x00000fe4:    c40f        ..      STM      r4!,{r0-r3}
        0x00000fe6:    bf00        ..      NOP      
        0x00000fe8:    4858        XH      LDR      r0,[pc,#352] ; [0x114c] = 0x400e0000
        0x00000fea:    6b00        .k      LDR      r0,[r0,#0x30]
        0x00000fec:    07c0        ..      LSLS     r0,r0,#31
        0x00000fee:    0fc0        ..      LSRS     r0,r0,#31
        0x00000ff0:    d0fa        ..      BEQ      0xfe8 ; TMR0_IRQHandler + 12
        0x00000ff2:    4856        VH      LDR      r0,[pc,#344] ; [0x114c] = 0x400e0000
        0x00000ff4:    6b00        .k      LDR      r0,[r0,#0x30]
        0x00000ff6:    0840        @.      LSRS     r0,r0,#1
        0x00000ff8:    0040        @.      LSLS     r0,r0,#1
        0x00000ffa:    1c40        @.      ADDS     r0,r0,#1
        0x00000ffc:    4953        SI      LDR      r1,[pc,#332] ; [0x114c] = 0x400e0000
        0x00000ffe:    6308        .c      STR      r0,[r1,#0x30]
        0x00001000:    4608        .F      MOV      r0,r1
        0x00001002:    69c0        .i      LDR      r0,[r0,#0x1c]
        0x00001004:    0400        ..      LSLS     r0,r0,#16
        0x00001006:    0b00        ..      LSRS     r0,r0,#12
        0x00001008:    4951        QI      LDR      r1,[pc,#324] ; [0x1150] = 0x40040000
        0x0000100a:    6108        .a      STR      r0,[r1,#0x10]
        0x0000100c:    2220         "      MOVS     r2,#0x20
        0x0000100e:    210b        .!      MOVS     r1,#0xb
        0x00001010:    2000        .       MOVS     r0,#0
        0x00001012:    f7ffffa5    ....    BL       Show_Word ; 0xf60
        0x00001016:    2220         "      MOVS     r2,#0x20
        0x00001018:    210c        .!      MOVS     r1,#0xc
        0x0000101a:    2000        .       MOVS     r0,#0
        0x0000101c:    f7ffffa0    ....    BL       Show_Word ; 0xf60
        0x00001020:    2220         "      MOVS     r2,#0x20
        0x00001022:    210d        .!      MOVS     r1,#0xd
        0x00001024:    2000        .       MOVS     r0,#0
        0x00001026:    f7ffff9b    ....    BL       Show_Word ; 0xf60
        0x0000102a:    4848        HH      LDR      r0,[pc,#288] ; [0x114c] = 0x400e0000
        0x0000102c:    69c0        .i      LDR      r0,[r0,#0x1c]
        0x0000102e:    b283        ..      UXTH     r3,r0
        0x00001030:    4846        FH      LDR      r0,[pc,#280] ; [0x114c] = 0x400e0000
        0x00001032:    69c0        .i      LDR      r0,[r0,#0x1c]
        0x00001034:    b282        ..      UXTH     r2,r0
        0x00001036:    a147        G.      ADR      r1,{pc}+0x11e ; 0x1154
        0x00001038:    a801        ..      ADD      r0,sp,#4
        0x0000103a:    3001        .0      ADDS     r0,#1
        0x0000103c:    f7fff8d2    ....    BL       __2sprintf ; 0x1e4
        0x00001040:    4669        iF      MOV      r1,sp
        0x00001042:    2000        .       MOVS     r0,#0
        0x00001044:    f000f954    ..T.    BL       print_lcd ; 0x12f0
        0x00001048:    4840        @H      LDR      r0,[pc,#256] ; [0x114c] = 0x400e0000
        0x0000104a:    6a00        .j      LDR      r0,[r0,#0x20]
        0x0000104c:    2101        .!      MOVS     r1,#1
        0x0000104e:    02c9        ..      LSLS     r1,r1,#11
        0x00001050:    4388        .C      BICS     r0,r0,r1
        0x00001052:    1840        @.      ADDS     r0,r0,r1
        0x00001054:    493d        =I      LDR      r1,[pc,#244] ; [0x114c] = 0x400e0000
        0x00001056:    6208        .b      STR      r0,[r1,#0x20]
        0x00001058:    4608        .F      MOV      r0,r1
        0x0000105a:    69c0        .i      LDR      r0,[r0,#0x1c]
        0x0000105c:    b280        ..      UXTH     r0,r0
        0x0000105e:    2105        .!      MOVS     r1,#5
        0x00001060:    0209        ..      LSLS     r1,r1,#8
        0x00001062:    4288        .B      CMP      r0,r1
        0x00001064:    da03        ..      BGE      0x106e ; TMR0_IRQHandler + 146
        0x00001066:    2001        .       MOVS     r0,#1
        0x00001068:    493d        =I      LDR      r1,[pc,#244] ; [0x1160] = 0x50004280
        0x0000106a:    6348        Hc      STR      r0,[r1,#0x34]
        0x0000106c:    6388        .c      STR      r0,[r1,#0x38]
        0x0000106e:    4837        7H      LDR      r0,[pc,#220] ; [0x114c] = 0x400e0000
        0x00001070:    69c0        .i      LDR      r0,[r0,#0x1c]
        0x00001072:    b280        ..      UXTH     r0,r0
        0x00001074:    21ff        .!      MOVS     r1,#0xff
        0x00001076:    3101        .1      ADDS     r1,#1
        0x00001078:    4288        .B      CMP      r0,r1
        0x0000107a:    dd1d        ..      BLE      0x10b8 ; TMR0_IRQHandler + 220
        0x0000107c:    4833        3H      LDR      r0,[pc,#204] ; [0x114c] = 0x400e0000
        0x0000107e:    69c0        .i      LDR      r0,[r0,#0x1c]
        0x00001080:    b280        ..      UXTH     r0,r0
        0x00001082:    2105        .!      MOVS     r1,#5
        0x00001084:    0209        ..      LSLS     r1,r1,#8
        0x00001086:    4288        .B      CMP      r0,r1
        0x00001088:    da16        ..      BGE      0x10b8 ; TMR0_IRQHandler + 220
        0x0000108a:    2001        .       MOVS     r0,#1
        0x0000108c:    4934        4I      LDR      r1,[pc,#208] ; [0x1160] = 0x50004280
        0x0000108e:    6308        .c      STR      r0,[r1,#0x30]
        0x00001090:    a134        4.      ADR      r1,{pc}+0xd4 ; 0x1164
        0x00001092:    2003        .       MOVS     r0,#3
        0x00001094:    f000f92c    ..,.    BL       print_lcd ; 0x12f0
        0x00001098:    482c        ,H      LDR      r0,[pc,#176] ; [0x114c] = 0x400e0000
        0x0000109a:    6a80        .j      LDR      r0,[r0,#0x28]
        0x0000109c:    2102        .!      MOVS     r1,#2
        0x0000109e:    4388        .C      BICS     r0,r0,r1
        0x000010a0:    1c80        ..      ADDS     r0,r0,#2
        0x000010a2:    492a        *I      LDR      r1,[pc,#168] ; [0x114c] = 0x400e0000
        0x000010a4:    6288        .b      STR      r0,[r1,#0x28]
        0x000010a6:    4608        .F      MOV      r0,r1
        0x000010a8:    6a80        .j      LDR      r0,[r0,#0x28]
        0x000010aa:    0840        @.      LSRS     r0,r0,#1
        0x000010ac:    0040        @.      LSLS     r0,r0,#1
        0x000010ae:    1c40        @.      ADDS     r0,r0,#1
        0x000010b0:    6288        .b      STR      r0,[r1,#0x28]
        0x000010b2:    201d        .       MOVS     r0,#0x1d
        0x000010b4:    f7fffdf4    ....    BL       NVIC_EnableIRQ ; 0xca0
        0x000010b8:    4824        $H      LDR      r0,[pc,#144] ; [0x114c] = 0x400e0000
        0x000010ba:    69c0        .i      LDR      r0,[r0,#0x1c]
        0x000010bc:    b280        ..      UXTH     r0,r0
        0x000010be:    2105        .!      MOVS     r1,#5
        0x000010c0:    0209        ..      LSLS     r1,r1,#8
        0x000010c2:    4288        .B      CMP      r0,r1
        0x000010c4:    dd0a        ..      BLE      0x10dc ; TMR0_IRQHandler + 256
        0x000010c6:    4821        !H      LDR      r0,[pc,#132] ; [0x114c] = 0x400e0000
        0x000010c8:    69c0        .i      LDR      r0,[r0,#0x1c]
        0x000010ca:    b280        ..      UXTH     r0,r0
        0x000010cc:    2107        .!      MOVS     r1,#7
        0x000010ce:    0209        ..      LSLS     r1,r1,#8
        0x000010d0:    4288        .B      CMP      r0,r1
        0x000010d2:    da03        ..      BGE      0x10dc ; TMR0_IRQHandler + 256
        0x000010d4:    2000        .       MOVS     r0,#0
        0x000010d6:    4922        "I      LDR      r1,[pc,#136] ; [0x1160] = 0x50004280
        0x000010d8:    6348        Hc      STR      r0,[r1,#0x34]
        0x000010da:    6388        .c      STR      r0,[r1,#0x38]
        0x000010dc:    481b        .H      LDR      r0,[pc,#108] ; [0x114c] = 0x400e0000
        0x000010de:    69c0        .i      LDR      r0,[r0,#0x1c]
        0x000010e0:    b280        ..      UXTH     r0,r0
        0x000010e2:    2107        .!      MOVS     r1,#7
        0x000010e4:    0209        ..      LSLS     r1,r1,#8
        0x000010e6:    4288        .B      CMP      r0,r1
        0x000010e8:    dd1f        ..      BLE      0x112a ; TMR0_IRQHandler + 334
        0x000010ea:    4818        .H      LDR      r0,[pc,#96] ; [0x114c] = 0x400e0000
        0x000010ec:    69c0        .i      LDR      r0,[r0,#0x1c]
        0x000010ee:    b280        ..      UXTH     r0,r0
        0x000010f0:    210d        .!      MOVS     r1,#0xd
        0x000010f2:    0209        ..      LSLS     r1,r1,#8
        0x000010f4:    4288        .B      CMP      r0,r1
        0x000010f6:    da18        ..      BGE      0x112a ; TMR0_IRQHandler + 334
        0x000010f8:    2001        .       MOVS     r0,#1
        0x000010fa:    4919        .I      LDR      r1,[pc,#100] ; [0x1160] = 0x50004280
        0x000010fc:    6348        Hc      STR      r0,[r1,#0x34]
        0x000010fe:    6388        .c      STR      r0,[r1,#0x38]
        0x00001100:    63c8        .c      STR      r0,[r1,#0x3c]
        0x00001102:    a118        ..      ADR      r1,{pc}+0x62 ; 0x1164
        0x00001104:    2003        .       MOVS     r0,#3
        0x00001106:    f000f8f3    ....    BL       print_lcd ; 0x12f0
        0x0000110a:    4810        .H      LDR      r0,[pc,#64] ; [0x114c] = 0x400e0000
        0x0000110c:    6a80        .j      LDR      r0,[r0,#0x28]
        0x0000110e:    2102        .!      MOVS     r1,#2
        0x00001110:    4388        .C      BICS     r0,r0,r1
        0x00001112:    1c80        ..      ADDS     r0,r0,#2
        0x00001114:    490d        .I      LDR      r1,[pc,#52] ; [0x114c] = 0x400e0000
        0x00001116:    6288        .b      STR      r0,[r1,#0x28]
        0x00001118:    4608        .F      MOV      r0,r1
        0x0000111a:    6a80        .j      LDR      r0,[r0,#0x28]
        0x0000111c:    0840        @.      LSRS     r0,r0,#1
        0x0000111e:    0040        @.      LSLS     r0,r0,#1
        0x00001120:    1c40        @.      ADDS     r0,r0,#1
        0x00001122:    6288        .b      STR      r0,[r1,#0x28]
        0x00001124:    201d        .       MOVS     r0,#0x1d
        0x00001126:    f7fffdbb    ....    BL       NVIC_EnableIRQ ; 0xca0
        0x0000112a:    4812        .H      LDR      r0,[pc,#72] ; [0x1174] = 0x40010000
        0x0000112c:    6880        .h      LDR      r0,[r0,#8]
        0x0000112e:    0840        @.      LSRS     r0,r0,#1
        0x00001130:    0040        @.      LSLS     r0,r0,#1
        0x00001132:    1c40        @.      ADDS     r0,r0,#1
        0x00001134:    490f        .I      LDR      r1,[pc,#60] ; [0x1174] = 0x40010000
        0x00001136:    6088        .`      STR      r0,[r1,#8]
        0x00001138:    bd1f        ..      POP      {r0-r4,pc}
    $d
        0x0000113a:    0000        ..      DCW    0
        0x0000113c:    30203741    A7 0    DCD    807417665
        0x00001140:    43424178    xABC    DCD    1128415608
        0x00001144:    5a5a5a20     ZZZ    DCD    1515870752
        0x00001148:    0000645a    Zd..    DCD    25690
        0x0000114c:    400e0000    ...@    DCD    1074659328
        0x00001150:    40040000    ...@    DCD    1074003968
        0x00001154:    25205825    %X %    DCD    622876709
        0x00001158:    20206464    dd      DCD    538993764
        0x0000115c:    00002020      ..    DCD    8224
        0x00001160:    50004280    .B.P    DCD    1342194304
        0x00001164:    20202020            DCD    538976288
        0x00001168:    20202020            DCD    538976288
        0x0000116c:    20202020            DCD    538976288
        0x00001170:    00002020      ..    DCD    8224
        0x00001174:    40010000    ...@    DCD    1073807360
    $t
    i.UART02_IRQHandler
    UART02_IRQHandler
        0x00001178:    b570        p.      PUSH     {r4-r6,lr}
        0x0000117a:    480a        .H      LDR      r0,[pc,#40] ; [0x11a4] = 0x40050000
        0x0000117c:    69c4        .i      LDR      r4,[r0,#0x1c]
        0x0000117e:    480a        .H      LDR      r0,[pc,#40] ; [0x11a8] = 0x40154000
        0x00001180:    69c5        .i      LDR      r5,[r0,#0x1c]
        0x00001182:    480a        .H      LDR      r0,[pc,#40] ; [0x11ac] = 0x20000634
        0x00001184:    6800        .h      LDR      r0,[r0,#0]
        0x00001186:    2800        .(      CMP      r0,#0
        0x00001188:    d003        ..      BEQ      0x1192 ; UART02_IRQHandler + 26
        0x0000118a:    4620         F      MOV      r0,r4
        0x0000118c:    4907        .I      LDR      r1,[pc,#28] ; [0x11ac] = 0x20000634
        0x0000118e:    6809        .h      LDR      r1,[r1,#0]
        0x00001190:    4788        .G      BLX      r1
        0x00001192:    4807        .H      LDR      r0,[pc,#28] ; [0x11b0] = 0x2000063c
        0x00001194:    6800        .h      LDR      r0,[r0,#0]
        0x00001196:    2800        .(      CMP      r0,#0
        0x00001198:    d003        ..      BEQ      0x11a2 ; UART02_IRQHandler + 42
        0x0000119a:    4628        (F      MOV      r0,r5
        0x0000119c:    4904        .I      LDR      r1,[pc,#16] ; [0x11b0] = 0x2000063c
        0x0000119e:    6809        .h      LDR      r1,[r1,#0]
        0x000011a0:    4788        .G      BLX      r1
        0x000011a2:    bd70        p.      POP      {r4-r6,pc}
    $d
        0x000011a4:    40050000    ...@    DCD    1074069504
        0x000011a8:    40154000    .@.@    DCD    1075134464
        0x000011ac:    20000634    4..     DCD    536872500
        0x000011b0:    2000063c    <..     DCD    536872508
    $t
    i.UART1_IRQHandler
    UART1_IRQHandler
        0x000011b4:    b510        ..      PUSH     {r4,lr}
        0x000011b6:    4805        .H      LDR      r0,[pc,#20] ; [0x11cc] = 0x40150000
        0x000011b8:    69c4        .i      LDR      r4,[r0,#0x1c]
        0x000011ba:    4805        .H      LDR      r0,[pc,#20] ; [0x11d0] = 0x20000638
        0x000011bc:    6800        .h      LDR      r0,[r0,#0]
        0x000011be:    2800        .(      CMP      r0,#0
        0x000011c0:    d003        ..      BEQ      0x11ca ; UART1_IRQHandler + 22
        0x000011c2:    4620         F      MOV      r0,r4
        0x000011c4:    4902        .I      LDR      r1,[pc,#8] ; [0x11d0] = 0x20000638
        0x000011c6:    6809        .h      LDR      r1,[r1,#0]
        0x000011c8:    4788        .G      BLX      r1
        0x000011ca:    bd10        ..      POP      {r4,pc}
    $d
        0x000011cc:    40150000    ...@    DCD    1075118080
        0x000011d0:    20000638    8..     DCD    536872504
    $t
    i.WriteData
    WriteData
        0x000011d4:    4914        .I      LDR      r1,[pc,#80] ; [0x1228] = 0x2000002c
        0x000011d6:    68c9        .h      LDR      r1,[r1,#0xc]
        0x000011d8:    6889        .h      LDR      r1,[r1,#8]
        0x000011da:    0889        ..      LSRS     r1,r1,#2
        0x000011dc:    0089        ..      LSLS     r1,r1,#2
        0x000011de:    1c49        I.      ADDS     r1,r1,#1
        0x000011e0:    4a11        .J      LDR      r2,[pc,#68] ; [0x1228] = 0x2000002c
        0x000011e2:    68d2        .h      LDR      r2,[r2,#0xc]
        0x000011e4:    6091        .`      STR      r1,[r2,#8]
        0x000011e6:    21ff        .!      MOVS     r1,#0xff
        0x000011e8:    3101        .1      ADDS     r1,#1
        0x000011ea:    4301        .C      ORRS     r1,r1,r0
        0x000011ec:    4a0e        .J      LDR      r2,[pc,#56] ; [0x1228] = 0x2000002c
        0x000011ee:    68d2        .h      LDR      r2,[r2,#0xc]
        0x000011f0:    6211        .b      STR      r1,[r2,#0x20]
        0x000011f2:    490d        .I      LDR      r1,[pc,#52] ; [0x1228] = 0x2000002c
        0x000011f4:    68c9        .h      LDR      r1,[r1,#0xc]
        0x000011f6:    6809        .h      LDR      r1,[r1,#0]
        0x000011f8:    0849        I.      LSRS     r1,r1,#1
        0x000011fa:    0049        I.      LSLS     r1,r1,#1
        0x000011fc:    1c49        I.      ADDS     r1,r1,#1
        0x000011fe:    4a0a        .J      LDR      r2,[pc,#40] ; [0x1228] = 0x2000002c
        0x00001200:    68d2        .h      LDR      r2,[r2,#0xc]
        0x00001202:    6011        .`      STR      r1,[r2,#0]
        0x00001204:    bf00        ..      NOP      
        0x00001206:    4908        .I      LDR      r1,[pc,#32] ; [0x1228] = 0x2000002c
        0x00001208:    68c9        .h      LDR      r1,[r1,#0xc]
        0x0000120a:    6809        .h      LDR      r1,[r1,#0]
        0x0000120c:    07c9        ..      LSLS     r1,r1,#31
        0x0000120e:    0fc9        ..      LSRS     r1,r1,#31
        0x00001210:    2901        .)      CMP      r1,#1
        0x00001212:    d0f8        ..      BEQ      0x1206 ; WriteData + 50
        0x00001214:    4904        .I      LDR      r1,[pc,#16] ; [0x1228] = 0x2000002c
        0x00001216:    68c9        .h      LDR      r1,[r1,#0xc]
        0x00001218:    6889        .h      LDR      r1,[r1,#8]
        0x0000121a:    0889        ..      LSRS     r1,r1,#2
        0x0000121c:    0089        ..      LSLS     r1,r1,#2
        0x0000121e:    4a02        .J      LDR      r2,[pc,#8] ; [0x1228] = 0x2000002c
        0x00001220:    68d2        .h      LDR      r2,[r2,#0xc]
        0x00001222:    6091        .`      STR      r1,[r2,#8]
        0x00001224:    4770        pG      BX       lr
    $d
        0x00001226:    0000        ..      DCW    0
        0x00001228:    2000002c    ,..     DCD    536870956
    $t
    i._is_digit
    _is_digit
        0x0000122c:    3830        08      SUBS     r0,r0,#0x30
        0x0000122e:    280a        .(      CMP      r0,#0xa
        0x00001230:    d201        ..      BCS      0x1236 ; _is_digit + 10
        0x00001232:    2001        .       MOVS     r0,#1
        0x00001234:    4770        pG      BX       lr
        0x00001236:    2000        .       MOVS     r0,#0
        0x00001238:    4770        pG      BX       lr
    i.close_seven_segment
    close_seven_segment
        0x0000123a:    b510        ..      PUSH     {r4,lr}
        0x0000123c:    2104        .!      MOVS     r1,#4
        0x0000123e:    2002        .       MOVS     r0,#2
        0x00001240:    f7fff9ca    ....    BL       DrvGPIO_ClrBit ; 0x5d8
        0x00001244:    2105        .!      MOVS     r1,#5
        0x00001246:    2002        .       MOVS     r0,#2
        0x00001248:    f7fff9c6    ....    BL       DrvGPIO_ClrBit ; 0x5d8
        0x0000124c:    2106        .!      MOVS     r1,#6
        0x0000124e:    2002        .       MOVS     r0,#2
        0x00001250:    f7fff9c2    ....    BL       DrvGPIO_ClrBit ; 0x5d8
        0x00001254:    2107        .!      MOVS     r1,#7
        0x00001256:    2002        .       MOVS     r0,#2
        0x00001258:    f7fff9be    ....    BL       DrvGPIO_ClrBit ; 0x5d8
        0x0000125c:    bd10        ..      POP      {r4,pc}
    i.clr_all_pannal
    clr_all_pannal
        0x0000125e:    b510        ..      PUSH     {r4,lr}
        0x00001260:    2400        .$      MOVS     r4,#0
        0x00001262:    2100        .!      MOVS     r1,#0
        0x00001264:    4608        .F      MOV      r0,r1
        0x00001266:    f7fffe01    ....    BL       SetPACA ; 0xe6c
        0x0000126a:    bf00        ..      NOP      
        0x0000126c:    e003        ..      B        0x1276 ; clr_all_pannal + 24
        0x0000126e:    2000        .       MOVS     r0,#0
        0x00001270:    f7ffffb0    ....    BL       WriteData ; 0x11d4
        0x00001274:    1c64        d.      ADDS     r4,r4,#1
        0x00001276:    2021        !       MOVS     r0,#0x21
        0x00001278:    0140        @.      LSLS     r0,r0,#5
        0x0000127a:    4284        .B      CMP      r4,r0
        0x0000127c:    dbf7        ..      BLT      0x126e ; clr_all_pannal + 16
        0x0000127e:    200f        .       MOVS     r0,#0xf
        0x00001280:    f7ffffa8    ....    BL       WriteData ; 0x11d4
        0x00001284:    bd10        ..      POP      {r4,pc}
        0x00001286:    0000        ..      MOVS     r0,r0
    i.main
    main
        0x00001288:    2400        .$      MOVS     r4,#0
        0x0000128a:    2059        Y       MOVS     r0,#0x59
        0x0000128c:    4915        .I      LDR      r1,[pc,#84] ; [0x12e4] = 0x50000100
        0x0000128e:    6008        .`      STR      r0,[r1,#0]
        0x00001290:    2016        .       MOVS     r0,#0x16
        0x00001292:    6008        .`      STR      r0,[r1,#0]
        0x00001294:    2088        .       MOVS     r0,#0x88
        0x00001296:    6008        .`      STR      r0,[r1,#0]
        0x00001298:    4813        .H      LDR      r0,[pc,#76] ; [0x12e8] = 0x50000200
        0x0000129a:    6800        .h      LDR      r0,[r0,#0]
        0x0000129c:    0840        @.      LSRS     r0,r0,#1
        0x0000129e:    0040        @.      LSLS     r0,r0,#1
        0x000012a0:    1c40        @.      ADDS     r0,r0,#1
        0x000012a2:    4911        .I      LDR      r1,[pc,#68] ; [0x12e8] = 0x50000200
        0x000012a4:    6008        .`      STR      r0,[r1,#0]
        0x000012a6:    4608        .F      MOV      r0,r1
        0x000012a8:    6900        .i      LDR      r0,[r0,#0x10]
        0x000012aa:    08c0        ..      LSRS     r0,r0,#3
        0x000012ac:    00c0        ..      LSLS     r0,r0,#3
        0x000012ae:    6108        .a      STR      r0,[r1,#0x10]
        0x000012b0:    2000        .       MOVS     r0,#0
        0x000012b2:    490c        .I      LDR      r1,[pc,#48] ; [0x12e4] = 0x50000100
        0x000012b4:    6008        .`      STR      r0,[r1,#0]
        0x000012b6:    f7fffb9f    ....    BL       InitTIMER0 ; 0x9f8
        0x000012ba:    f7fffbe5    ....    BL       Initial_pannel ; 0xa88
        0x000012be:    f7ffffce    ....    BL       clr_all_pannal ; 0x125e
        0x000012c2:    e00d        ..      B        0x12e0 ; main + 88
        0x000012c4:    2c00        .,      CMP      r4,#0
        0x000012c6:    d103        ..      BNE      0x12d0 ; main + 72
        0x000012c8:    f7fffaa2    ....    BL       InitADC_LESSTHAN_100 ; 0x810
        0x000012cc:    2401        .$      MOVS     r4,#1
        0x000012ce:    e002        ..      B        0x12d6 ; main + 78
        0x000012d0:    f7fffb18    ....    BL       InitADC_MORETHAN_D00 ; 0x904
        0x000012d4:    2400        .$      MOVS     r4,#0
        0x000012d6:    4905        .I      LDR      r1,[pc,#20] ; [0x12ec] = 0x400e0000
        0x000012d8:    69c9        .i      LDR      r1,[r1,#0x1c]
        0x000012da:    b208        ..      SXTH     r0,r1
        0x000012dc:    f000f81c    ....    BL       seg_display_Hex ; 0x1318
        0x000012e0:    e7f0        ..      B        0x12c4 ; main + 60
    $d
        0x000012e2:    0000        ..      DCW    0
        0x000012e4:    50000100    ...P    DCD    1342177536
        0x000012e8:    50000200    ...P    DCD    1342177792
        0x000012ec:    400e0000    ...@    DCD    1074659328
    $t
    i.print_lcd
    print_lcd
        0x000012f0:    b570        p.      PUSH     {r4-r6,lr}
        0x000012f2:    4606        .F      MOV      r6,r0
        0x000012f4:    460c        .F      MOV      r4,r1
        0x000012f6:    2500        .%      MOVS     r5,#0
        0x000012f8:    bf00        ..      NOP      
        0x000012fa:    7822        "x      LDRB     r2,[r4,#0]
        0x000012fc:    1c64        d.      ADDS     r4,r4,#1
        0x000012fe:    b2e9        ..      UXTB     r1,r5
        0x00001300:    4630        0F      MOV      r0,r6
        0x00001302:    f7fffe2d    ..-.    BL       Show_Word ; 0xf60
        0x00001306:    1c6d        m.      ADDS     r5,r5,#1
        0x00001308:    2d0f        .-      CMP      r5,#0xf
        0x0000130a:    dd00        ..      BLE      0x130e ; print_lcd + 30
        0x0000130c:    e002        ..      B        0x1314 ; print_lcd + 36
        0x0000130e:    7820         x      LDRB     r0,[r4,#0]
        0x00001310:    2800        .(      CMP      r0,#0
        0x00001312:    d1f2        ..      BNE      0x12fa ; print_lcd + 10
        0x00001314:    bf00        ..      NOP      
        0x00001316:    bd70        p.      POP      {r4-r6,pc}
    i.seg_display_Hex
    seg_display_Hex
        0x00001318:    b570        p.      PUSH     {r4-r6,lr}
        0x0000131a:    4604        .F      MOV      r4,r0
        0x0000131c:    4620         F      MOV      r0,r4
        0x0000131e:    17e1        ..      ASRS     r1,r4,#31
        0x00001320:    0e09        ..      LSRS     r1,r1,#24
        0x00001322:    1809        ..      ADDS     r1,r1,r0
        0x00001324:    1209        ..      ASRS     r1,r1,#8
        0x00001326:    b24d        M.      SXTB     r5,r1
        0x00001328:    f7ffff87    ....    BL       close_seven_segment ; 0x123a
        0x0000132c:    b2e9        ..      UXTB     r1,r5
        0x0000132e:    2001        .       MOVS     r0,#1
        0x00001330:    f000f818    ....    BL       show_seven_segment_Hex ; 0x1364
        0x00001334:    207d        }       MOVS     r0,#0x7d
        0x00001336:    0140        @.      LSLS     r0,r0,#5
        0x00001338:    f7fff97a    ..z.    BL       DrvSYS_Delay ; 0x630
        0x0000133c:    0228        (.      LSLS     r0,r5,#8
        0x0000133e:    1a20         .      SUBS     r0,r4,r0
        0x00001340:    b204        ..      SXTH     r4,r0
        0x00001342:    4620         F      MOV      r0,r4
        0x00001344:    17e1        ..      ASRS     r1,r4,#31
        0x00001346:    0f09        ..      LSRS     r1,r1,#28
        0x00001348:    1809        ..      ADDS     r1,r1,r0
        0x0000134a:    1109        ..      ASRS     r1,r1,#4
        0x0000134c:    b24d        M.      SXTB     r5,r1
        0x0000134e:    f7ffff74    ..t.    BL       close_seven_segment ; 0x123a
        0x00001352:    b2e9        ..      UXTB     r1,r5
        0x00001354:    2000        .       MOVS     r0,#0
        0x00001356:    f000f805    ....    BL       show_seven_segment_Hex ; 0x1364
        0x0000135a:    207d        }       MOVS     r0,#0x7d
        0x0000135c:    0140        @.      LSLS     r0,r0,#5
        0x0000135e:    f7fff967    ..g.    BL       DrvSYS_Delay ; 0x630
        0x00001362:    bd70        p.      POP      {r4-r6,pc}
    i.show_seven_segment_Hex
    show_seven_segment_Hex
        0x00001364:    b5f8        ..      PUSH     {r3-r7,lr}
        0x00001366:    4605        .F      MOV      r5,r0
        0x00001368:    460f        .F      MOV      r7,r1
        0x0000136a:    480d        .H      LDR      r0,[pc,#52] ; [0x13a0] = 0x2000001c
        0x0000136c:    5dc6        .]      LDRB     r6,[r0,r7]
        0x0000136e:    2400        .$      MOVS     r4,#0
        0x00001370:    e00f        ..      B        0x1392 ; show_seven_segment_Hex + 46
        0x00001372:    07f0        ..      LSLS     r0,r6,#31
        0x00001374:    0fc0        ..      LSRS     r0,r0,#31
        0x00001376:    2801        .(      CMP      r0,#1
        0x00001378:    d104        ..      BNE      0x1384 ; show_seven_segment_Hex + 32
        0x0000137a:    4621        !F      MOV      r1,r4
        0x0000137c:    2004        .       MOVS     r0,#4
        0x0000137e:    f7fff941    ..A.    BL       DrvGPIO_SetBit ; 0x604
        0x00001382:    e003        ..      B        0x138c ; show_seven_segment_Hex + 40
        0x00001384:    4621        !F      MOV      r1,r4
        0x00001386:    2004        .       MOVS     r0,#4
        0x00001388:    f7fff926    ..&.    BL       DrvGPIO_ClrBit ; 0x5d8
        0x0000138c:    1076        v.      ASRS     r6,r6,#1
        0x0000138e:    1c60        `.      ADDS     r0,r4,#1
        0x00001390:    b2c4        ..      UXTB     r4,r0
        0x00001392:    2c08        .,      CMP      r4,#8
        0x00001394:    dbed        ..      BLT      0x1372 ; show_seven_segment_Hex + 14
        0x00001396:    1d29        ).      ADDS     r1,r5,#4
        0x00001398:    2002        .       MOVS     r0,#2
        0x0000139a:    f7fff933    ..3.    BL       DrvGPIO_SetBit ; 0x604
        0x0000139e:    bdf8        ..      POP      {r3-r7,pc}
    $d
        0x000013a0:    2000001c    ...     DCD    536870940
    $d.realdata
    .constdata
    uc_hextab
        0x000013a4:    33323130    0123    DCD    858927408
        0x000013a8:    37363534    4567    DCD    926299444
        0x000013ac:    42413938    89AB    DCD    1111570744
        0x000013b0:    46454443    CDEF    DCD    1178944579
        0x000013b4:    00583040    @0X.    DCD    5779520
    lc_hextab
        0x000013b8:    33323130    0123    DCD    858927408
        0x000013bc:    37363534    4567    DCD    926299444
        0x000013c0:    62613938    89ab    DCD    1650538808
        0x000013c4:    66656463    cdef    DCD    1717920867
        0x000013c8:    00783040    @0x.    DCD    7876672
    Region$$Table$$Base
        0x000013cc:    000013ec    ....    DCD    5100
        0x000013d0:    20000000    ...     DCD    536870912
        0x000013d4:    00000650    P...    DCD    1616
        0x000013d8:    00000104    ....    DCD    260
        0x000013dc:    00001a3c    <...    DCD    6716
        0x000013e0:    20000650    P..     DCD    536872528
        0x000013e4:    000004d0    ....    DCD    1232
        0x000013e8:    00000120     ...    DCD    288
    Region$$Table$$Limit

** Section #2 'ER_RW' (SHT_PROGBITS) [SHF_ALLOC + SHF_WRITE]
    Size   : 1616 bytes (alignment 4)
    Address: 0x20000000


** Section #3 'ER_ZI' (SHT_NOBITS) [SHF_ALLOC + SHF_WRITE]
    Size   : 1232 bytes (alignment 8)
    Address: 0x20000650


** Section #4 '.debug_abbrev' (SHT_PROGBITS)
    Size   : 1476 bytes


** Section #5 '.debug_frame' (SHT_PROGBITS)
    Size   : 1608 bytes


** Section #6 '.debug_info' (SHT_PROGBITS)
    Size   : 121120 bytes


** Section #7 '.debug_line' (SHT_PROGBITS)
    Size   : 7436 bytes


** Section #8 '.debug_loc' (SHT_PROGBITS)
    Size   : 1756 bytes


** Section #9 '.debug_macinfo' (SHT_PROGBITS)
    Size   : 150292 bytes


** Section #10 '.debug_pubnames' (SHT_PROGBITS)
    Size   : 1420 bytes


** Section #11 '.symtab' (SHT_SYMTAB)
    Size   : 7184 bytes (alignment 4)
    String table #12 '.strtab'
    Last local symbol no. 307


** Section #12 '.strtab' (SHT_STRTAB)
    Size   : 6032 bytes


** Section #13 '.note' (SHT_NOTE)
    Size   : 28 bytes (alignment 4)


** Section #14 '.comment' (SHT_PROGBITS)
    Size   : 7176 bytes


** Section #15 '.shstrtab' (SHT_STRTAB)
    Size   : 156 bytes


